ARM GAS  C:\Users\PC\AppData\Local\Temp\ccQeYTXk.s 			page 1


   1              		.syntax unified
   2              		.cpu cortex-m0plus
   3              		.fpu softvfp
   4              		.eabi_attribute 20, 1
   5              		.eabi_attribute 21, 1
   6              		.eabi_attribute 23, 3
   7              		.eabi_attribute 24, 1
   8              		.eabi_attribute 25, 1
   9              		.eabi_attribute 26, 1
  10              		.eabi_attribute 30, 1
  11              		.eabi_attribute 34, 0
  12              		.eabi_attribute 18, 4
  13              		.thumb
  14              		.syntax unified
  15              		.file	"CapSense_Processing.c"
  16              		.text
  17              	.Ltext0:
  18              		.cfi_sections	.debug_frame
  19              		.section	.text.CapSense_DpInitialize,"ax",%progbits
  20              		.align	2
  21              		.global	CapSense_DpInitialize
  22              		.code	16
  23              		.thumb_func
  24              		.type	CapSense_DpInitialize, %function
  25              	CapSense_DpInitialize:
  26              	.LFB46:
  27              		.file 1 "Generated_Source\\PSoC6\\CapSense_Processing.c"
   1:Generated_Source\PSoC6/CapSense_Processing.c **** /***************************************************************************//**
   2:Generated_Source\PSoC6/CapSense_Processing.c **** * \file CapSense_Processing.c
   3:Generated_Source\PSoC6/CapSense_Processing.c **** * \version 3.0
   4:Generated_Source\PSoC6/CapSense_Processing.c **** *
   5:Generated_Source\PSoC6/CapSense_Processing.c **** * \brief
   6:Generated_Source\PSoC6/CapSense_Processing.c **** *   This file provides the source code for the Data Processing module APIs
   7:Generated_Source\PSoC6/CapSense_Processing.c **** *   of the Component. The Data Processing module is responsible for the
   8:Generated_Source\PSoC6/CapSense_Processing.c **** *   low level raw counts processing provided by the sensing module, maintaining
   9:Generated_Source\PSoC6/CapSense_Processing.c **** *   baseline and difference values and performing high-level widget processing
  10:Generated_Source\PSoC6/CapSense_Processing.c **** *   like updating button status or calculating slider position.
  11:Generated_Source\PSoC6/CapSense_Processing.c **** *
  12:Generated_Source\PSoC6/CapSense_Processing.c **** * \see CapSense v3.0 Datasheet
  13:Generated_Source\PSoC6/CapSense_Processing.c **** *
  14:Generated_Source\PSoC6/CapSense_Processing.c **** *//*****************************************************************************
  15:Generated_Source\PSoC6/CapSense_Processing.c **** * Copyright (2016-2017), Cypress Semiconductor Corporation.
  16:Generated_Source\PSoC6/CapSense_Processing.c **** ********************************************************************************
  17:Generated_Source\PSoC6/CapSense_Processing.c **** * This software is owned by Cypress Semiconductor Corporation (Cypress) and is
  18:Generated_Source\PSoC6/CapSense_Processing.c **** * protected by and subject to worldwide patent protection (United States and
  19:Generated_Source\PSoC6/CapSense_Processing.c **** * foreign), United States copyright laws and international treaty provisions.
  20:Generated_Source\PSoC6/CapSense_Processing.c **** * Cypress hereby grants to licensee a personal, non-exclusive, non-transferable
  21:Generated_Source\PSoC6/CapSense_Processing.c **** * license to copy, use, modify, create derivative works of, and compile the
  22:Generated_Source\PSoC6/CapSense_Processing.c **** * Cypress Source Code and derivative works for the sole purpose of creating
  23:Generated_Source\PSoC6/CapSense_Processing.c **** * custom software in support of licensee product to be used only in conjunction
  24:Generated_Source\PSoC6/CapSense_Processing.c **** * with a Cypress integrated circuit as specified in the applicable agreement.
  25:Generated_Source\PSoC6/CapSense_Processing.c **** * Any reproduction, modification, translation, compilation, or representation of
  26:Generated_Source\PSoC6/CapSense_Processing.c **** * this software except as specified above is prohibited without the express
  27:Generated_Source\PSoC6/CapSense_Processing.c **** * written permission of Cypress.
  28:Generated_Source\PSoC6/CapSense_Processing.c **** *
  29:Generated_Source\PSoC6/CapSense_Processing.c **** * Disclaimer: CYPRESS MAKES NO WARRANTY OF ANY KIND, EXPRESS OR IMPLIED, WITH
  30:Generated_Source\PSoC6/CapSense_Processing.c **** * REGARD TO THIS MATERIAL, INCLUDING, BUT NOT LIMITED TO, THE IMPLIED
ARM GAS  C:\Users\PC\AppData\Local\Temp\ccQeYTXk.s 			page 2


  31:Generated_Source\PSoC6/CapSense_Processing.c **** * WARRANTIES OF MERCHANTABILITY AND FITNESS FOR A PARTICULAR PURPOSE.
  32:Generated_Source\PSoC6/CapSense_Processing.c **** * Cypress reserves the right to make changes without further notice to the
  33:Generated_Source\PSoC6/CapSense_Processing.c **** * materials described herein. Cypress does not assume any liability arising out
  34:Generated_Source\PSoC6/CapSense_Processing.c **** * of the application or use of any product or circuit described herein. Cypress
  35:Generated_Source\PSoC6/CapSense_Processing.c **** * does not authorize its products for use as critical components in life-support
  36:Generated_Source\PSoC6/CapSense_Processing.c **** * systems where a malfunction or failure may reasonably be expected to result in
  37:Generated_Source\PSoC6/CapSense_Processing.c **** * significant injury to the user. The inclusion of Cypress' product in a life-
  38:Generated_Source\PSoC6/CapSense_Processing.c **** * support systems application implies that the manufacturer assumes all risk of
  39:Generated_Source\PSoC6/CapSense_Processing.c **** * such use and in doing so indemnifies Cypress against all charges. Use may be
  40:Generated_Source\PSoC6/CapSense_Processing.c **** * limited by and subject to the applicable Cypress software license agreement.
  41:Generated_Source\PSoC6/CapSense_Processing.c **** *******************************************************************************/
  42:Generated_Source\PSoC6/CapSense_Processing.c **** 
  43:Generated_Source\PSoC6/CapSense_Processing.c **** #include "syslib/cy_syslib.h"
  44:Generated_Source\PSoC6/CapSense_Processing.c **** #include <stddef.h>
  45:Generated_Source\PSoC6/CapSense_Processing.c **** #include <string.h>
  46:Generated_Source\PSoC6/CapSense_Processing.c **** #include "CapSense_Configuration.h"
  47:Generated_Source\PSoC6/CapSense_Processing.c **** #include "CapSense_Processing.h"
  48:Generated_Source\PSoC6/CapSense_Processing.c **** #include "CapSense_Filter.h"
  49:Generated_Source\PSoC6/CapSense_Processing.c **** 
  50:Generated_Source\PSoC6/CapSense_Processing.c **** #if (0u != CapSense_CENTROID_EN)
  51:Generated_Source\PSoC6/CapSense_Processing.c ****     #include "CapSense_Centroid_LL.h"
  52:Generated_Source\PSoC6/CapSense_Processing.c **** #endif /* (0 != CapSense_CENTROID_EN) */
  53:Generated_Source\PSoC6/CapSense_Processing.c **** 
  54:Generated_Source\PSoC6/CapSense_Processing.c **** #if (0 != (CapSense_CSD_AUTOTUNE & CapSense_CSD_SS_TH_EN))
  55:Generated_Source\PSoC6/CapSense_Processing.c ****     #include "CapSense_SmartSense_LL.h"
  56:Generated_Source\PSoC6/CapSense_Processing.c **** #endif /* (0 != (CapSense_CSD_AUTOTUNE & CapSense_CSD_SS_TH_EN)) */
  57:Generated_Source\PSoC6/CapSense_Processing.c **** 
  58:Generated_Source\PSoC6/CapSense_Processing.c **** #if (CapSense_ENABLE == CapSense_SELF_TEST_EN)
  59:Generated_Source\PSoC6/CapSense_Processing.c ****     #include "CapSense_SelfTest.h"
  60:Generated_Source\PSoC6/CapSense_Processing.c **** #endif
  61:Generated_Source\PSoC6/CapSense_Processing.c **** 
  62:Generated_Source\PSoC6/CapSense_Processing.c **** #if (CapSense_ENABLE == CapSense_CENTROID_5X5_CSD_EN)
  63:Generated_Source\PSoC6/CapSense_Processing.c ****     #include "CapSense_AdvancedCentroid_LL.h"
  64:Generated_Source\PSoC6/CapSense_Processing.c **** #endif
  65:Generated_Source\PSoC6/CapSense_Processing.c **** 
  66:Generated_Source\PSoC6/CapSense_Processing.c **** #if (CapSense_ENABLE == CapSense_POS_ADAPTIVE_IIR_FILTER_EN)
  67:Generated_Source\PSoC6/CapSense_Processing.c ****     #include "CapSense_AdaptiveFilter_LL.h"
  68:Generated_Source\PSoC6/CapSense_Processing.c **** #endif
  69:Generated_Source\PSoC6/CapSense_Processing.c **** 
  70:Generated_Source\PSoC6/CapSense_Processing.c **** #if(CapSense_ENABLE == CapSense_BALLISTIC_MULTIPLIER_EN)
  71:Generated_Source\PSoC6/CapSense_Processing.c ****     #include "CapSense_Gesture.h"
  72:Generated_Source\PSoC6/CapSense_Processing.c **** #endif
  73:Generated_Source\PSoC6/CapSense_Processing.c **** 
  74:Generated_Source\PSoC6/CapSense_Processing.c **** /**************************************************************************************************
  75:Generated_Source\PSoC6/CapSense_Processing.c **** * Local definition
  76:Generated_Source\PSoC6/CapSense_Processing.c **** ***************************************************************************************************
  77:Generated_Source\PSoC6/CapSense_Processing.c **** 
  78:Generated_Source\PSoC6/CapSense_Processing.c **** /* UINT32 constant with all odd bits set. It is used by the processing function of the Proximity wi
  79:Generated_Source\PSoC6/CapSense_Processing.c **** *  determine type of the status bit: odd bits report proximity status; even bits report touch statu
  80:Generated_Source\PSoC6/CapSense_Processing.c **** */
  81:Generated_Source\PSoC6/CapSense_Processing.c **** #define UINT32_ODD_BITS_CONST       (0x55555555u)
  82:Generated_Source\PSoC6/CapSense_Processing.c **** 
  83:Generated_Source\PSoC6/CapSense_Processing.c **** /* Default value for the Off Debounce counter when the Off Debounce is disabled */
  84:Generated_Source\PSoC6/CapSense_Processing.c **** #define DEFAULT_OFF_DEBOUNCE_VALUE  (1u)
  85:Generated_Source\PSoC6/CapSense_Processing.c **** #define PERCENTAGE_100              (100u)
  86:Generated_Source\PSoC6/CapSense_Processing.c **** #define TEMP_BUFFER_MSB_SHIFT       (16)
  87:Generated_Source\PSoC6/CapSense_Processing.c **** 
ARM GAS  C:\Users\PC\AppData\Local\Temp\ccQeYTXk.s 			page 3


  88:Generated_Source\PSoC6/CapSense_Processing.c **** /**************************************************************************************************
  89:Generated_Source\PSoC6/CapSense_Processing.c **** * Local variables
  90:Generated_Source\PSoC6/CapSense_Processing.c **** ***************************************************************************************************
  91:Generated_Source\PSoC6/CapSense_Processing.c **** #if (0u != CapSense_CSX_MULTIPHASE_TX_EN)
  92:Generated_Source\PSoC6/CapSense_Processing.c ****     static uint16 deconvRowData[CapSense_CSX_MAX_TX_PHASE_LENGTH];
  93:Generated_Source\PSoC6/CapSense_Processing.c **** #endif
  94:Generated_Source\PSoC6/CapSense_Processing.c **** 
  95:Generated_Source\PSoC6/CapSense_Processing.c **** 
  96:Generated_Source\PSoC6/CapSense_Processing.c **** /**************************************************************************************************
  97:Generated_Source\PSoC6/CapSense_Processing.c **** * Static Function Prototypes
  98:Generated_Source\PSoC6/CapSense_Processing.c **** ***************************************************************************************************
  99:Generated_Source\PSoC6/CapSense_Processing.c **** /**
 100:Generated_Source\PSoC6/CapSense_Processing.c **** * \cond SECTION_CYSENSE_INTERNAL
 101:Generated_Source\PSoC6/CapSense_Processing.c **** * \addtogroup group_cysense_internal
 102:Generated_Source\PSoC6/CapSense_Processing.c **** * \{
 103:Generated_Source\PSoC6/CapSense_Processing.c **** */
 104:Generated_Source\PSoC6/CapSense_Processing.c **** #if (0u != CapSense_TOTAL_LINEAR_SLIDERS)
 105:Generated_Source\PSoC6/CapSense_Processing.c ****     __STATIC_INLINE void DpUpdateLinSlider(
 106:Generated_Source\PSoC6/CapSense_Processing.c ****                         const uint16 newPos[], uint32 numTouches,
 107:Generated_Source\PSoC6/CapSense_Processing.c ****                         CapSense_FLASH_WD_STRUCT const *ptrFlashWdgt,
 108:Generated_Source\PSoC6/CapSense_Processing.c ****                         CapSense_RAM_WD_SLIDER_STRUCT *ptrRamWdgt);
 109:Generated_Source\PSoC6/CapSense_Processing.c **** #endif /* #if (0u != CapSense_TOTAL_LINEAR_SLIDERS) */
 110:Generated_Source\PSoC6/CapSense_Processing.c **** 
 111:Generated_Source\PSoC6/CapSense_Processing.c **** #if (0u != CapSense_TOTAL_RADIAL_SLIDERS)
 112:Generated_Source\PSoC6/CapSense_Processing.c ****     __STATIC_INLINE void DpUpdateRadSlider(
 113:Generated_Source\PSoC6/CapSense_Processing.c ****                         const uint16 newPos[], uint32 numTouches,
 114:Generated_Source\PSoC6/CapSense_Processing.c ****                         CapSense_FLASH_WD_STRUCT const * ptrFlashWdgt,
 115:Generated_Source\PSoC6/CapSense_Processing.c ****                         CapSense_RAM_WD_SLIDER_STRUCT *ptrRamWdgt);
 116:Generated_Source\PSoC6/CapSense_Processing.c **** #endif /* #if (0u != CapSense_TOTAL_RADIAL_SLIDERS) */
 117:Generated_Source\PSoC6/CapSense_Processing.c **** 
 118:Generated_Source\PSoC6/CapSense_Processing.c **** #if (0u != CapSense_CSD_TOUCHPAD_WIDGET_EN)
 119:Generated_Source\PSoC6/CapSense_Processing.c ****     __STATIC_INLINE void CapSense_DpInitCsdTouchpad(CapSense_FLASH_WD_STRUCT const * ptrFlashWdgt);
 120:Generated_Source\PSoC6/CapSense_Processing.c **** #endif /* #if (0u != CapSense_CSD_TOUCHPAD_WIDGET_EN) */
 121:Generated_Source\PSoC6/CapSense_Processing.c **** 
 122:Generated_Source\PSoC6/CapSense_Processing.c **** #if (0u != CapSense_CSX_TOUCHPAD_WIDGET_EN)
 123:Generated_Source\PSoC6/CapSense_Processing.c ****     __STATIC_INLINE void CapSense_DpInitCsxTouchpad(CapSense_FLASH_WD_STRUCT const * ptrFlashWdgt);
 124:Generated_Source\PSoC6/CapSense_Processing.c **** #endif /* #if (0u != CapSense_CSX_TOUCHPAD_WIDGET_EN) */
 125:Generated_Source\PSoC6/CapSense_Processing.c **** 
 126:Generated_Source\PSoC6/CapSense_Processing.c **** #if (0u != CapSense_SLIDER_WIDGET_EN)
 127:Generated_Source\PSoC6/CapSense_Processing.c ****     __STATIC_INLINE void CapSense_DpInitSlider(CapSense_FLASH_WD_STRUCT const * ptrFlashWdgt);
 128:Generated_Source\PSoC6/CapSense_Processing.c **** #endif /* #if (0u != CapSense_SLIDER_WIDGET_EN) */
 129:Generated_Source\PSoC6/CapSense_Processing.c **** 
 130:Generated_Source\PSoC6/CapSense_Processing.c **** #if (0u != CapSense_CSD_MATRIX_WIDGET_EN)
 131:Generated_Source\PSoC6/CapSense_Processing.c ****     __STATIC_INLINE void CapSense_DpInitCsdMatrix(CapSense_FLASH_WD_STRUCT const * ptrFlashWdgt);
 132:Generated_Source\PSoC6/CapSense_Processing.c **** #endif /* #if (0u != CapSense_CSD_MATRIX_WIDGET_EN) */
 133:Generated_Source\PSoC6/CapSense_Processing.c **** 
 134:Generated_Source\PSoC6/CapSense_Processing.c **** /** \}
 135:Generated_Source\PSoC6/CapSense_Processing.c **** * \endcond */
 136:Generated_Source\PSoC6/CapSense_Processing.c **** 
 137:Generated_Source\PSoC6/CapSense_Processing.c **** #if (0u != CapSense_CSD_TOUCHPAD_WIDGET_EN)
 138:Generated_Source\PSoC6/CapSense_Processing.c **** /*******************************************************************************
 139:Generated_Source\PSoC6/CapSense_Processing.c **** * Function Name: CapSense_DpInitCsdTouchpad
 140:Generated_Source\PSoC6/CapSense_Processing.c **** ****************************************************************************//**
 141:Generated_Source\PSoC6/CapSense_Processing.c **** *
 142:Generated_Source\PSoC6/CapSense_Processing.c **** * \brief
 143:Generated_Source\PSoC6/CapSense_Processing.c **** *  Performs initialization of the CSD touchpad widget.
 144:Generated_Source\PSoC6/CapSense_Processing.c **** *   - Resets the position data to NONE
ARM GAS  C:\Users\PC\AppData\Local\Temp\ccQeYTXk.s 			page 4


 145:Generated_Source\PSoC6/CapSense_Processing.c **** *   - Initializes the position filter history if enabled.
 146:Generated_Source\PSoC6/CapSense_Processing.c **** *
 147:Generated_Source\PSoC6/CapSense_Processing.c **** * \details
 148:Generated_Source\PSoC6/CapSense_Processing.c **** *  The position data is always reset to the CapSense_TOUCHPAD_POS_NONE value.
 149:Generated_Source\PSoC6/CapSense_Processing.c **** *  The same happens to the position filter history data if enabled.
 150:Generated_Source\PSoC6/CapSense_Processing.c **** *
 151:Generated_Source\PSoC6/CapSense_Processing.c **** *******************************************************************************/
 152:Generated_Source\PSoC6/CapSense_Processing.c **** __STATIC_INLINE void CapSense_DpInitCsdTouchpad(CapSense_FLASH_WD_STRUCT const * ptrFlashWdgt)
 153:Generated_Source\PSoC6/CapSense_Processing.c **** {
 154:Generated_Source\PSoC6/CapSense_Processing.c ****     #if (CapSense_ENABLE == CapSense_CENTROID_5X5_CSD_EN)
 155:Generated_Source\PSoC6/CapSense_Processing.c ****         uint32 touchIndex;
 156:Generated_Source\PSoC6/CapSense_Processing.c ****     #endif
 157:Generated_Source\PSoC6/CapSense_Processing.c **** 
 158:Generated_Source\PSoC6/CapSense_Processing.c ****     CapSense_RAM_WD_CSD_TOUCHPAD_STRUCT *ptrWdTouchpad;
 159:Generated_Source\PSoC6/CapSense_Processing.c **** 
 160:Generated_Source\PSoC6/CapSense_Processing.c ****     #if (0u != CapSense_POSITION_FILTER_EN)
 161:Generated_Source\PSoC6/CapSense_Processing.c ****         CapSense_TOUCHPAD_POS_HISTORY_STRUCT *ptrHistory;
 162:Generated_Source\PSoC6/CapSense_Processing.c ****     #endif  /* #if (0u != CapSense_POSITION_FILTER_EN) */
 163:Generated_Source\PSoC6/CapSense_Processing.c **** 
 164:Generated_Source\PSoC6/CapSense_Processing.c ****     #if (0u != CapSense_POS_ADAPTIVE_IIR_FILTER_EN)
 165:Generated_Source\PSoC6/CapSense_Processing.c ****         ADAPTIVE_FILTER_CONTEXT_STRUCT adpContext;
 166:Generated_Source\PSoC6/CapSense_Processing.c ****     #endif /* (0u != CapSense_POS_ADAPTIVE_IIR_FILTER_EN) */
 167:Generated_Source\PSoC6/CapSense_Processing.c **** 
 168:Generated_Source\PSoC6/CapSense_Processing.c ****     ptrWdTouchpad = ptrFlashWdgt->ptr2WdgtRam;
 169:Generated_Source\PSoC6/CapSense_Processing.c **** 
 170:Generated_Source\PSoC6/CapSense_Processing.c ****     /* Reset position data */
 171:Generated_Source\PSoC6/CapSense_Processing.c ****     #if (CapSense_ENABLE == CapSense_CENTROID_5X5_CSD_EN)
 172:Generated_Source\PSoC6/CapSense_Processing.c ****         #if (CapSense_ENABLE == CapSense_CENTROID_3X3_CSD_EN)
 173:Generated_Source\PSoC6/CapSense_Processing.c ****             if (0u != (ptrFlashWdgt->staticConfig & CapSense_CENTROID_5X5_MASK))
 174:Generated_Source\PSoC6/CapSense_Processing.c ****             {
 175:Generated_Source\PSoC6/CapSense_Processing.c ****         #endif
 176:Generated_Source\PSoC6/CapSense_Processing.c **** 
 177:Generated_Source\PSoC6/CapSense_Processing.c ****         ptrWdTouchpad->position.touchNum = 0u;
 178:Generated_Source\PSoC6/CapSense_Processing.c **** 
 179:Generated_Source\PSoC6/CapSense_Processing.c ****         #if (0u != CapSense_POSITION_FILTER_EN)
 180:Generated_Source\PSoC6/CapSense_Processing.c ****             ptrHistory = ptrFlashWdgt->ptr2PosHistory;
 181:Generated_Source\PSoC6/CapSense_Processing.c ****         #endif /* (0u != CapSense_POSITION_FILTER_EN) */
 182:Generated_Source\PSoC6/CapSense_Processing.c **** 
 183:Generated_Source\PSoC6/CapSense_Processing.c ****         for (touchIndex = 0u; touchIndex < ADVANCED_CENTROID_MAX_TOUCHES; touchIndex++)
 184:Generated_Source\PSoC6/CapSense_Processing.c ****         {
 185:Generated_Source\PSoC6/CapSense_Processing.c ****             ptrWdTouchpad->position.pos[touchIndex].x = ADVANCED_CENTROID_POSITION_NONE;
 186:Generated_Source\PSoC6/CapSense_Processing.c ****             ptrWdTouchpad->position.pos[touchIndex].y = ADVANCED_CENTROID_POSITION_NONE;
 187:Generated_Source\PSoC6/CapSense_Processing.c ****             ptrWdTouchpad->position.pos[touchIndex].zX = ADVANCED_CENTROID_POSITION_NONE;
 188:Generated_Source\PSoC6/CapSense_Processing.c ****             ptrWdTouchpad->position.pos[touchIndex].zY = ADVANCED_CENTROID_POSITION_NONE;
 189:Generated_Source\PSoC6/CapSense_Processing.c **** 
 190:Generated_Source\PSoC6/CapSense_Processing.c ****             /* Clear position filter history data if available */
 191:Generated_Source\PSoC6/CapSense_Processing.c ****             #if (0u != CapSense_POSITION_FILTER_EN)
 192:Generated_Source\PSoC6/CapSense_Processing.c ****                 if (NULL != ptrHistory)
 193:Generated_Source\PSoC6/CapSense_Processing.c ****                 {
 194:Generated_Source\PSoC6/CapSense_Processing.c ****                     CapSense_InitPosFiltersDd(&ptrHistory[touchIndex], CapSense_TOUCHPAD_POS_NONE, 
 195:Generated_Source\PSoC6/CapSense_Processing.c ****                     #if (0u != CapSense_POS_ADAPTIVE_IIR_FILTER_EN)
 196:Generated_Source\PSoC6/CapSense_Processing.c ****                         AdaptiveFilter_Initialize(&ptrWdTouchpad->aiirConfig, &adpContext);
 197:Generated_Source\PSoC6/CapSense_Processing.c ****                         ptrHistory[touchIndex].xPos.posAIIRCoeff = adpContext.coefficient;
 198:Generated_Source\PSoC6/CapSense_Processing.c ****                         ptrHistory[touchIndex].yPos.posAIIRCoeff = adpContext.coefficient;
 199:Generated_Source\PSoC6/CapSense_Processing.c ****                     #endif /* (0u != CapSense_POS_ADAPTIVE_IIR_FILTER_EN) */
 200:Generated_Source\PSoC6/CapSense_Processing.c ****                 }
 201:Generated_Source\PSoC6/CapSense_Processing.c ****             #endif /* (0u != CapSense_POSITION_FILTER_EN) */
ARM GAS  C:\Users\PC\AppData\Local\Temp\ccQeYTXk.s 			page 5


 202:Generated_Source\PSoC6/CapSense_Processing.c ****         }
 203:Generated_Source\PSoC6/CapSense_Processing.c **** 
 204:Generated_Source\PSoC6/CapSense_Processing.c ****         #if (CapSense_ENABLE == CapSense_CENTROID_3X3_CSD_EN)
 205:Generated_Source\PSoC6/CapSense_Processing.c ****             }
 206:Generated_Source\PSoC6/CapSense_Processing.c ****         #endif
 207:Generated_Source\PSoC6/CapSense_Processing.c ****     #endif
 208:Generated_Source\PSoC6/CapSense_Processing.c **** 
 209:Generated_Source\PSoC6/CapSense_Processing.c ****     #if (CapSense_ENABLE == CapSense_CENTROID_3X3_CSD_EN)
 210:Generated_Source\PSoC6/CapSense_Processing.c ****         if (0u != (ptrFlashWdgt->staticConfig & CapSense_CENTROID_3X3_MASK))
 211:Generated_Source\PSoC6/CapSense_Processing.c ****         {
 212:Generated_Source\PSoC6/CapSense_Processing.c ****             ptrWdTouchpad->posX = CapSense_TOUCHPAD_POS_NONE;
 213:Generated_Source\PSoC6/CapSense_Processing.c ****             ptrWdTouchpad->posY = CapSense_TOUCHPAD_POS_NONE;
 214:Generated_Source\PSoC6/CapSense_Processing.c **** 
 215:Generated_Source\PSoC6/CapSense_Processing.c ****             /* Clear position filter history data if available */
 216:Generated_Source\PSoC6/CapSense_Processing.c ****             #if (0u != CapSense_POSITION_FILTER_EN)
 217:Generated_Source\PSoC6/CapSense_Processing.c ****                 ptrHistory = ptrFlashWdgt->ptr2PosHistory;
 218:Generated_Source\PSoC6/CapSense_Processing.c ****                 CapSense_InitPosFiltersDd(ptrHistory, CapSense_TOUCHPAD_POS_NONE, CapSense_TOUCHPAD
 219:Generated_Source\PSoC6/CapSense_Processing.c **** 
 220:Generated_Source\PSoC6/CapSense_Processing.c ****                 #if (0u != CapSense_POS_ADAPTIVE_IIR_FILTER_EN)
 221:Generated_Source\PSoC6/CapSense_Processing.c ****                     if (NULL != ptrHistory)
 222:Generated_Source\PSoC6/CapSense_Processing.c ****                     {
 223:Generated_Source\PSoC6/CapSense_Processing.c ****                         AdaptiveFilter_Initialize(&ptrWdTouchpad->aiirConfig, &adpContext);
 224:Generated_Source\PSoC6/CapSense_Processing.c ****                         ptrHistory->xPos.posAIIRCoeff = adpContext.coefficient;
 225:Generated_Source\PSoC6/CapSense_Processing.c ****                         ptrHistory->yPos.posAIIRCoeff = adpContext.coefficient;
 226:Generated_Source\PSoC6/CapSense_Processing.c ****                     }
 227:Generated_Source\PSoC6/CapSense_Processing.c ****                 #endif /* (0u != CapSense_POS_ADAPTIVE_IIR_FILTER_EN) */
 228:Generated_Source\PSoC6/CapSense_Processing.c ****             #endif /* (0u != CapSense_POSITION_FILTER_EN) */
 229:Generated_Source\PSoC6/CapSense_Processing.c ****         }
 230:Generated_Source\PSoC6/CapSense_Processing.c ****     #endif
 231:Generated_Source\PSoC6/CapSense_Processing.c **** }
 232:Generated_Source\PSoC6/CapSense_Processing.c **** #endif /* #if (0u != CapSense_CSD_TOUCHPAD_WIDGET_EN) */
 233:Generated_Source\PSoC6/CapSense_Processing.c **** 
 234:Generated_Source\PSoC6/CapSense_Processing.c **** #if (0u != CapSense_CSX_TOUCHPAD_WIDGET_EN)
 235:Generated_Source\PSoC6/CapSense_Processing.c **** /*******************************************************************************
 236:Generated_Source\PSoC6/CapSense_Processing.c **** * Function Name: CapSense_DpInitCsxTouchpad
 237:Generated_Source\PSoC6/CapSense_Processing.c **** ****************************************************************************//**
 238:Generated_Source\PSoC6/CapSense_Processing.c **** *
 239:Generated_Source\PSoC6/CapSense_Processing.c **** * \brief
 240:Generated_Source\PSoC6/CapSense_Processing.c **** *  Performs initialization of the CSX touchpad widget i.e. Resets the position data to NONE.
 241:Generated_Source\PSoC6/CapSense_Processing.c **** *
 242:Generated_Source\PSoC6/CapSense_Processing.c **** * \details
 243:Generated_Source\PSoC6/CapSense_Processing.c **** *  The position data is always reset to the CapSense_TOUCHPAD_POS_NONE value.
 244:Generated_Source\PSoC6/CapSense_Processing.c **** *
 245:Generated_Source\PSoC6/CapSense_Processing.c **** *******************************************************************************/
 246:Generated_Source\PSoC6/CapSense_Processing.c **** __STATIC_INLINE void CapSense_DpInitCsxTouchpad(CapSense_FLASH_WD_STRUCT const * ptrFlashWdgt)
 247:Generated_Source\PSoC6/CapSense_Processing.c **** {
 248:Generated_Source\PSoC6/CapSense_Processing.c ****     CapSense_RAM_WD_CSX_TOUCHPAD_STRUCT *ptrWdTouchpad;
 249:Generated_Source\PSoC6/CapSense_Processing.c **** 
 250:Generated_Source\PSoC6/CapSense_Processing.c ****     #if (0u != CapSense_POSITION_FILTER_EN)
 251:Generated_Source\PSoC6/CapSense_Processing.c ****         uint32 touchIndex;
 252:Generated_Source\PSoC6/CapSense_Processing.c ****         CapSense_TOUCHPAD_POS_HISTORY_STRUCT *ptrHistory;
 253:Generated_Source\PSoC6/CapSense_Processing.c ****     #endif  /* #if (0u != CapSense_POSITION_FILTER_EN) */
 254:Generated_Source\PSoC6/CapSense_Processing.c **** 
 255:Generated_Source\PSoC6/CapSense_Processing.c ****     #if (0u != CapSense_POS_ADAPTIVE_IIR_FILTER_EN)
 256:Generated_Source\PSoC6/CapSense_Processing.c ****         ADAPTIVE_FILTER_CONTEXT_STRUCT adpContext;
 257:Generated_Source\PSoC6/CapSense_Processing.c ****     #endif /* (0u != CapSense_POS_ADAPTIVE_IIR_FILTER_EN) */
 258:Generated_Source\PSoC6/CapSense_Processing.c **** 
ARM GAS  C:\Users\PC\AppData\Local\Temp\ccQeYTXk.s 			page 6


 259:Generated_Source\PSoC6/CapSense_Processing.c ****     ptrWdTouchpad = ptrFlashWdgt->ptr2WdgtRam;
 260:Generated_Source\PSoC6/CapSense_Processing.c **** 
 261:Generated_Source\PSoC6/CapSense_Processing.c ****     #if (0u != CapSense_POSITION_FILTER_EN)
 262:Generated_Source\PSoC6/CapSense_Processing.c ****         ptrHistory = ptrFlashWdgt->ptr2PosHistory;
 263:Generated_Source\PSoC6/CapSense_Processing.c ****     #endif /* (0u != CapSense_POSITION_FILTER_EN) */
 264:Generated_Source\PSoC6/CapSense_Processing.c **** 
 265:Generated_Source\PSoC6/CapSense_Processing.c ****     /* Reset position data for finger */
 266:Generated_Source\PSoC6/CapSense_Processing.c ****     ptrWdTouchpad->touch[0u].x = CapSense_TOUCHPAD_POS_NONE;
 267:Generated_Source\PSoC6/CapSense_Processing.c ****     ptrWdTouchpad->touch[0u].y = CapSense_TOUCHPAD_POS_NONE;
 268:Generated_Source\PSoC6/CapSense_Processing.c ****     ptrWdTouchpad->touch[0u].z = CY_LO8(CapSense_TOUCHPAD_POS_NONE);
 269:Generated_Source\PSoC6/CapSense_Processing.c **** 
 270:Generated_Source\PSoC6/CapSense_Processing.c ****     #if (CapSense_CSX_MAX_FINGERS > 1u)
 271:Generated_Source\PSoC6/CapSense_Processing.c ****         ptrWdTouchpad->touch[1u].x = CapSense_TOUCHPAD_POS_NONE;
 272:Generated_Source\PSoC6/CapSense_Processing.c ****         ptrWdTouchpad->touch[1u].y = CapSense_TOUCHPAD_POS_NONE;
 273:Generated_Source\PSoC6/CapSense_Processing.c ****         ptrWdTouchpad->touch[1u].z = CY_LO8(CapSense_TOUCHPAD_POS_NONE);
 274:Generated_Source\PSoC6/CapSense_Processing.c ****     #endif /* #if (CapSense_CSX_MAX_FINGERS > 1u) */
 275:Generated_Source\PSoC6/CapSense_Processing.c **** 
 276:Generated_Source\PSoC6/CapSense_Processing.c ****     #if (CapSense_CSX_MAX_FINGERS > 2u)
 277:Generated_Source\PSoC6/CapSense_Processing.c ****         ptrWdTouchpad->touch[2u].x = CapSense_TOUCHPAD_POS_NONE;
 278:Generated_Source\PSoC6/CapSense_Processing.c ****         ptrWdTouchpad->touch[2u].y = CapSense_TOUCHPAD_POS_NONE;
 279:Generated_Source\PSoC6/CapSense_Processing.c ****         ptrWdTouchpad->touch[2u].z = CY_LO8(CapSense_TOUCHPAD_POS_NONE);
 280:Generated_Source\PSoC6/CapSense_Processing.c ****     #endif /* #if (CapSense_CSX_MAX_FINGERS > 2u) */
 281:Generated_Source\PSoC6/CapSense_Processing.c **** 
 282:Generated_Source\PSoC6/CapSense_Processing.c ****     #if (0u != CapSense_POSITION_FILTER_EN)
 283:Generated_Source\PSoC6/CapSense_Processing.c ****         for (touchIndex = 0u; touchIndex < CapSense_CSX_MAX_FINGERS; touchIndex++)
 284:Generated_Source\PSoC6/CapSense_Processing.c ****         {
 285:Generated_Source\PSoC6/CapSense_Processing.c ****             if (NULL != ptrHistory)
 286:Generated_Source\PSoC6/CapSense_Processing.c ****             {
 287:Generated_Source\PSoC6/CapSense_Processing.c ****                 /* Clear position filter history data if available */
 288:Generated_Source\PSoC6/CapSense_Processing.c ****                 CapSense_InitPosFiltersDd(&ptrHistory[touchIndex], CapSense_TOUCHPAD_POS_NONE, CapS
 289:Generated_Source\PSoC6/CapSense_Processing.c ****                 #if (0u != CapSense_POS_ADAPTIVE_IIR_FILTER_EN)
 290:Generated_Source\PSoC6/CapSense_Processing.c ****                     AdaptiveFilter_Initialize(&ptrWdTouchpad->aiirConfig, &adpContext);
 291:Generated_Source\PSoC6/CapSense_Processing.c ****                     ptrHistory[touchIndex].xPos.posAIIRCoeff = adpContext.coefficient;
 292:Generated_Source\PSoC6/CapSense_Processing.c ****                     ptrHistory[touchIndex].yPos.posAIIRCoeff = adpContext.coefficient;
 293:Generated_Source\PSoC6/CapSense_Processing.c ****                 #endif /* (0u != CapSense_POS_ADAPTIVE_IIR_FILTER_EN) */
 294:Generated_Source\PSoC6/CapSense_Processing.c ****             }
 295:Generated_Source\PSoC6/CapSense_Processing.c ****         }
 296:Generated_Source\PSoC6/CapSense_Processing.c ****     #endif /* (0u != CapSense_POSITION_FILTER_EN) */
 297:Generated_Source\PSoC6/CapSense_Processing.c **** }
 298:Generated_Source\PSoC6/CapSense_Processing.c **** #endif /* #if (0u != CapSense_CSX_TOUCHPAD_WIDGET_EN) */
 299:Generated_Source\PSoC6/CapSense_Processing.c **** 
 300:Generated_Source\PSoC6/CapSense_Processing.c **** #if (0u != CapSense_SLIDER_WIDGET_EN)
 301:Generated_Source\PSoC6/CapSense_Processing.c **** /*******************************************************************************
 302:Generated_Source\PSoC6/CapSense_Processing.c **** * Function Name: CapSense_DpInitSlider
 303:Generated_Source\PSoC6/CapSense_Processing.c **** ****************************************************************************//**
 304:Generated_Source\PSoC6/CapSense_Processing.c **** *
 305:Generated_Source\PSoC6/CapSense_Processing.c **** * \brief
 306:Generated_Source\PSoC6/CapSense_Processing.c **** *  Performs initialization of the Radial and Linear Slider widget.
 307:Generated_Source\PSoC6/CapSense_Processing.c **** *   - Resets the position data to NONE
 308:Generated_Source\PSoC6/CapSense_Processing.c **** *   - Initializes the position filter history to NONE if enabled.
 309:Generated_Source\PSoC6/CapSense_Processing.c **** *
 310:Generated_Source\PSoC6/CapSense_Processing.c **** * \details
 311:Generated_Source\PSoC6/CapSense_Processing.c **** *  Position data is always reset to the CapSense_SLIDER_POS_NONE value.
 312:Generated_Source\PSoC6/CapSense_Processing.c **** *  The same happens to the position filter history data if enabled.
 313:Generated_Source\PSoC6/CapSense_Processing.c **** *
 314:Generated_Source\PSoC6/CapSense_Processing.c **** *******************************************************************************/
 315:Generated_Source\PSoC6/CapSense_Processing.c **** __STATIC_INLINE void CapSense_DpInitSlider(CapSense_FLASH_WD_STRUCT const * ptrFlashWdgt)
ARM GAS  C:\Users\PC\AppData\Local\Temp\ccQeYTXk.s 			page 7


 316:Generated_Source\PSoC6/CapSense_Processing.c **** {
 317:Generated_Source\PSoC6/CapSense_Processing.c ****     uint32 idx;
 318:Generated_Source\PSoC6/CapSense_Processing.c ****     CapSense_RAM_WD_SLIDER_STRUCT *ptrWdSlider;
 319:Generated_Source\PSoC6/CapSense_Processing.c **** 
 320:Generated_Source\PSoC6/CapSense_Processing.c ****     #if (0u != CapSense_POSITION_FILTER_EN)
 321:Generated_Source\PSoC6/CapSense_Processing.c ****         CapSense_SLIDER_POS_HISTORY_STRUCT *ptrHistory;
 322:Generated_Source\PSoC6/CapSense_Processing.c ****     #endif /* #if (0u != CapSense_POSITION_FILTER_EN) */
 323:Generated_Source\PSoC6/CapSense_Processing.c **** 
 324:Generated_Source\PSoC6/CapSense_Processing.c ****     #if (0u != CapSense_POS_ADAPTIVE_IIR_FILTER_EN)
 325:Generated_Source\PSoC6/CapSense_Processing.c ****         ADAPTIVE_FILTER_CONTEXT_STRUCT context;
 326:Generated_Source\PSoC6/CapSense_Processing.c ****     #endif /* (0u != CapSense_POS_ADAPTIVE_IIR_FILTER_EN) */
 327:Generated_Source\PSoC6/CapSense_Processing.c **** 
 328:Generated_Source\PSoC6/CapSense_Processing.c ****     ptrWdSlider = ptrFlashWdgt->ptr2WdgtRam;
 329:Generated_Source\PSoC6/CapSense_Processing.c **** 
 330:Generated_Source\PSoC6/CapSense_Processing.c ****     /* Reset slider position data to NONE */
 331:Generated_Source\PSoC6/CapSense_Processing.c ****     for (idx = 0u; idx < CapSense_NUM_CENTROIDS; idx++)
 332:Generated_Source\PSoC6/CapSense_Processing.c ****     {
 333:Generated_Source\PSoC6/CapSense_Processing.c ****         ptrWdSlider->position[idx] = CapSense_SLIDER_POS_NONE;
 334:Generated_Source\PSoC6/CapSense_Processing.c **** 
 335:Generated_Source\PSoC6/CapSense_Processing.c ****         #if (0u != CapSense_POSITION_FILTER_EN)
 336:Generated_Source\PSoC6/CapSense_Processing.c ****             ptrHistory = ptrFlashWdgt->ptr2PosHistory;
 337:Generated_Source\PSoC6/CapSense_Processing.c ****             if (NULL != ptrHistory)
 338:Generated_Source\PSoC6/CapSense_Processing.c ****             {
 339:Generated_Source\PSoC6/CapSense_Processing.c ****                 CapSense_InitPosFiltersSd(&ptrHistory[idx], CapSense_SLIDER_POS_NONE);
 340:Generated_Source\PSoC6/CapSense_Processing.c ****                 #if (0u != CapSense_POS_ADAPTIVE_IIR_FILTER_EN)
 341:Generated_Source\PSoC6/CapSense_Processing.c ****                     AdaptiveFilter_Initialize(&ptrWdSlider->aiirConfig, &context);
 342:Generated_Source\PSoC6/CapSense_Processing.c ****                     ptrHistory->posAIIRCoeff = context.coefficient;
 343:Generated_Source\PSoC6/CapSense_Processing.c ****                 #endif /* (0u != CapSense_POS_ADAPTIVE_IIR_FILTER_EN) */
 344:Generated_Source\PSoC6/CapSense_Processing.c ****             }
 345:Generated_Source\PSoC6/CapSense_Processing.c **** 
 346:Generated_Source\PSoC6/CapSense_Processing.c ****         #endif /* #if (0u != CapSense_POSITION_FILTER_EN) */
 347:Generated_Source\PSoC6/CapSense_Processing.c ****     }
 348:Generated_Source\PSoC6/CapSense_Processing.c **** }
 349:Generated_Source\PSoC6/CapSense_Processing.c **** #endif /* #if (0u != CapSense_SLIDER_WIDGET_EN) */
 350:Generated_Source\PSoC6/CapSense_Processing.c **** 
 351:Generated_Source\PSoC6/CapSense_Processing.c **** #if (0u != CapSense_CSD_MATRIX_WIDGET_EN)
 352:Generated_Source\PSoC6/CapSense_Processing.c **** /*******************************************************************************
 353:Generated_Source\PSoC6/CapSense_Processing.c **** * Function Name: CapSense_DpInitCsdMatrix
 354:Generated_Source\PSoC6/CapSense_Processing.c **** ****************************************************************************//**
 355:Generated_Source\PSoC6/CapSense_Processing.c **** *
 356:Generated_Source\PSoC6/CapSense_Processing.c **** * \brief
 357:Generated_Source\PSoC6/CapSense_Processing.c **** *  Performs initialization of the CSD Matrix Buttons widget.
 358:Generated_Source\PSoC6/CapSense_Processing.c **** *   - Resets the active button position data to NONE.
 359:Generated_Source\PSoC6/CapSense_Processing.c **** *
 360:Generated_Source\PSoC6/CapSense_Processing.c **** * \details
 361:Generated_Source\PSoC6/CapSense_Processing.c **** *  Position data is always reset to the CapSense_MATRIX_POS_NONE value.
 362:Generated_Source\PSoC6/CapSense_Processing.c **** *
 363:Generated_Source\PSoC6/CapSense_Processing.c **** *******************************************************************************/
 364:Generated_Source\PSoC6/CapSense_Processing.c **** __STATIC_INLINE void CapSense_DpInitCsdMatrix(CapSense_FLASH_WD_STRUCT const * ptrFlashWdgt)
 365:Generated_Source\PSoC6/CapSense_Processing.c **** {
 366:Generated_Source\PSoC6/CapSense_Processing.c ****     CapSense_RAM_WD_CSD_MATRIX_STRUCT *ptrRamWdgt;
 367:Generated_Source\PSoC6/CapSense_Processing.c **** 
 368:Generated_Source\PSoC6/CapSense_Processing.c ****     ptrRamWdgt = (CapSense_RAM_WD_CSD_MATRIX_STRUCT *)ptrFlashWdgt->ptr2WdgtRam;
 369:Generated_Source\PSoC6/CapSense_Processing.c **** 
 370:Generated_Source\PSoC6/CapSense_Processing.c ****     /* Reset sensor id, row and col registers in data structure */
 371:Generated_Source\PSoC6/CapSense_Processing.c ****     ptrRamWdgt->posRow   = CapSense_MATRIX_POS_NONE;
 372:Generated_Source\PSoC6/CapSense_Processing.c ****     ptrRamWdgt->posCol   = CapSense_MATRIX_POS_NONE;
ARM GAS  C:\Users\PC\AppData\Local\Temp\ccQeYTXk.s 			page 8


 373:Generated_Source\PSoC6/CapSense_Processing.c ****     ptrRamWdgt->posSnsId = CapSense_MATRIX_POS_NONE;
 374:Generated_Source\PSoC6/CapSense_Processing.c **** }
 375:Generated_Source\PSoC6/CapSense_Processing.c **** #endif /* #if (0u != CapSense_CSD_MATRIX_WIDGET_EN) */
 376:Generated_Source\PSoC6/CapSense_Processing.c **** 
 377:Generated_Source\PSoC6/CapSense_Processing.c **** /*******************************************************************************
 378:Generated_Source\PSoC6/CapSense_Processing.c **** * Function Name: CapSense_DpInitialize
 379:Generated_Source\PSoC6/CapSense_Processing.c **** ****************************************************************************//**
 380:Generated_Source\PSoC6/CapSense_Processing.c **** *
 381:Generated_Source\PSoC6/CapSense_Processing.c **** * \brief
 382:Generated_Source\PSoC6/CapSense_Processing.c **** *  Performs initialization of the data processing FW module:
 383:Generated_Source\PSoC6/CapSense_Processing.c **** *   - Resets the de-bounce counters of all the widgets
 384:Generated_Source\PSoC6/CapSense_Processing.c **** *   - Resets the position filter history for slider and touchpad widgets
 385:Generated_Source\PSoC6/CapSense_Processing.c **** *   - Clears widget and sensor statuses
 386:Generated_Source\PSoC6/CapSense_Processing.c **** *   - Enables all the widgets.
 387:Generated_Source\PSoC6/CapSense_Processing.c **** *
 388:Generated_Source\PSoC6/CapSense_Processing.c **** * \details
 389:Generated_Source\PSoC6/CapSense_Processing.c **** *  The Button and Matrix Button widgets have individual de-bounce counter per
 390:Generated_Source\PSoC6/CapSense_Processing.c **** *  sensor for the CSD widgets and per node for the CSX widgets.
 391:Generated_Source\PSoC6/CapSense_Processing.c **** *
 392:Generated_Source\PSoC6/CapSense_Processing.c **** *  The Slider and Touchpad widgets have a single de-bounce counter per widget.
 393:Generated_Source\PSoC6/CapSense_Processing.c **** *
 394:Generated_Source\PSoC6/CapSense_Processing.c **** *  The Proximity widget has two de-bounce counters per sensor. One for the
 395:Generated_Source\PSoC6/CapSense_Processing.c **** *  proximity event and second for the touch event.
 396:Generated_Source\PSoC6/CapSense_Processing.c **** *
 397:Generated_Source\PSoC6/CapSense_Processing.c **** *  All debounce counters during initialization are set to the value of the
 398:Generated_Source\PSoC6/CapSense_Processing.c **** *  onDebounce widget parameter.
 399:Generated_Source\PSoC6/CapSense_Processing.c **** *
 400:Generated_Source\PSoC6/CapSense_Processing.c **** *******************************************************************************/
 401:Generated_Source\PSoC6/CapSense_Processing.c **** void CapSense_DpInitialize(void)
 402:Generated_Source\PSoC6/CapSense_Processing.c **** {
  28              		.loc 1 402 0
  29              		.cfi_startproc
  30              		@ args = 0, pretend = 0, frame = 0
  31              		@ frame_needed = 0, uses_anonymous_args = 0
  32 0000 70B5     		push	{r4, r5, r6, lr}
  33              		.cfi_def_cfa_offset 16
  34              		.cfi_offset 4, -16
  35              		.cfi_offset 5, -12
  36              		.cfi_offset 6, -8
  37              		.cfi_offset 14, -4
  38              	.LVL0:
 403:Generated_Source\PSoC6/CapSense_Processing.c ****     uint32 wdgtId;
 404:Generated_Source\PSoC6/CapSense_Processing.c ****     CapSense_WD_TYPE_ENUM widgetType;
 405:Generated_Source\PSoC6/CapSense_Processing.c ****     CapSense_RAM_WD_BASE_STRUCT * ptrRamWdgt;
 406:Generated_Source\PSoC6/CapSense_Processing.c ****     CapSense_FLASH_WD_STRUCT const * ptrFlashWdgt;
 407:Generated_Source\PSoC6/CapSense_Processing.c **** 
 408:Generated_Source\PSoC6/CapSense_Processing.c ****     for (wdgtId = 0u; wdgtId < CapSense_WDGT_STATUS_WORDS; wdgtId++)
  39              		.loc 1 408 0
  40 0002 0023     		movs	r3, #0
  41 0004 09E0     		b	.L2
  42              	.LVL1:
  43              	.L3:
 409:Generated_Source\PSoC6/CapSense_Processing.c ****     {
 410:Generated_Source\PSoC6/CapSense_Processing.c ****         /* Clear widget status */
 411:Generated_Source\PSoC6/CapSense_Processing.c ****         CapSense_dsRam.wdgtStatus[wdgtId] = 0u;
  44              		.loc 1 411 0 discriminator 3
  45 0006 1E49     		ldr	r1, .L13
ARM GAS  C:\Users\PC\AppData\Local\Temp\ccQeYTXk.s 			page 9


  46 0008 1A1D     		adds	r2, r3, #4
  47 000a 9200     		lsls	r2, r2, #2
  48 000c 8818     		adds	r0, r1, r2
  49 000e 0024     		movs	r4, #0
  50 0010 4460     		str	r4, [r0, #4]
 412:Generated_Source\PSoC6/CapSense_Processing.c **** 
 413:Generated_Source\PSoC6/CapSense_Processing.c ****         /* Enable all the widgets */
 414:Generated_Source\PSoC6/CapSense_Processing.c ****         CapSense_dsRam.wdgtEnable[wdgtId] = 0xFFFFFFFFLu;
  51              		.loc 1 414 0 discriminator 3
  52 0012 0120     		movs	r0, #1
  53 0014 4042     		rsbs	r0, r0, #0
  54 0016 5050     		str	r0, [r2, r1]
 408:Generated_Source\PSoC6/CapSense_Processing.c ****     {
  55              		.loc 1 408 0 discriminator 3
  56 0018 0133     		adds	r3, r3, #1
  57              	.LVL2:
  58              	.L2:
 408:Generated_Source\PSoC6/CapSense_Processing.c ****     {
  59              		.loc 1 408 0 is_stmt 0 discriminator 1
  60 001a 002B     		cmp	r3, #0
  61 001c F3D0     		beq	.L3
  62 001e 194C     		ldr	r4, .L13+4
  63 0020 0323     		movs	r3, #3
  64              	.LVL3:
  65 0022 28E0     		b	.L4
  66              	.LVL4:
  67              	.L11:
 415:Generated_Source\PSoC6/CapSense_Processing.c **** 
 416:Generated_Source\PSoC6/CapSense_Processing.c ****         /* Set all the widgets to working state if the Self-Test is not enabled */
 417:Generated_Source\PSoC6/CapSense_Processing.c ****         #if (0u != CapSense_SELF_TEST_EN)
 418:Generated_Source\PSoC6/CapSense_Processing.c ****             CapSense_dsRam.wdgtWorking[wdgtId] = 0xFFFFFFFFLu;
 419:Generated_Source\PSoC6/CapSense_Processing.c ****         #endif /* #if (0u == CapSense_SELF_TEST_EN) */
 420:Generated_Source\PSoC6/CapSense_Processing.c ****     }
 421:Generated_Source\PSoC6/CapSense_Processing.c **** 
 422:Generated_Source\PSoC6/CapSense_Processing.c ****     ptrFlashWdgt = CapSense_dsFlash.wdgtArray;
 423:Generated_Source\PSoC6/CapSense_Processing.c **** 
 424:Generated_Source\PSoC6/CapSense_Processing.c ****     for (wdgtId = CapSense_TOTAL_WIDGETS; wdgtId-- > 0u; )
 425:Generated_Source\PSoC6/CapSense_Processing.c ****     {
 426:Generated_Source\PSoC6/CapSense_Processing.c ****         ptrRamWdgt = (CapSense_RAM_WD_BASE_STRUCT *)ptrFlashWdgt->ptr2WdgtRam;
  68              		.loc 1 426 0 is_stmt 1
  69 0024 6668     		ldr	r6, [r4, #4]
  70              	.LVL5:
 427:Generated_Source\PSoC6/CapSense_Processing.c ****         widgetType = (CapSense_WD_TYPE_ENUM)ptrFlashWdgt->wdgtType;
  71              		.loc 1 427 0
  72 0026 A27E     		ldrb	r2, [r4, #26]
  73              	.LVL6:
 428:Generated_Source\PSoC6/CapSense_Processing.c **** 
 429:Generated_Source\PSoC6/CapSense_Processing.c ****         /* Clear all sensor statuses */
 430:Generated_Source\PSoC6/CapSense_Processing.c ****         CapSense_dsRam.snsStatus[wdgtId] = 0u;
  74              		.loc 1 430 0
  75 0028 154B     		ldr	r3, .L13
  76 002a 5B19     		adds	r3, r3, r5
  77 002c 0021     		movs	r1, #0
  78 002e 1976     		strb	r1, [r3, #24]
 431:Generated_Source\PSoC6/CapSense_Processing.c **** 
 432:Generated_Source\PSoC6/CapSense_Processing.c ****         /* Reset de-bounce counters */
 433:Generated_Source\PSoC6/CapSense_Processing.c ****         switch (widgetType)
ARM GAS  C:\Users\PC\AppData\Local\Temp\ccQeYTXk.s 			page 10


  79              		.loc 1 433 0
  80 0030 012A     		cmp	r2, #1
  81 0032 04D0     		beq	.L6
  82 0034 002A     		cmp	r2, #0
  83 0036 1CD0     		beq	.L5
  84 0038 032A     		cmp	r2, #3
  85 003a 08D9     		bls	.L12
  86 003c 19E0     		b	.L5
  87              	.L6:
 434:Generated_Source\PSoC6/CapSense_Processing.c ****         {
 435:Generated_Source\PSoC6/CapSense_Processing.c ****         #if (0u != CapSense_MATRIX_WIDGET_EN)
 436:Generated_Source\PSoC6/CapSense_Processing.c ****             case CapSense_WD_MATRIX_BUTTON_E:
 437:Generated_Source\PSoC6/CapSense_Processing.c ****                 #if (0u != CapSense_CSD_MATRIX_WIDGET_EN)
 438:Generated_Source\PSoC6/CapSense_Processing.c ****                     if (CapSense_SENSE_METHOD_CSD_E == CapSense_GET_SENSE_METHOD(ptrFlashWdgt))
 439:Generated_Source\PSoC6/CapSense_Processing.c ****                     {
 440:Generated_Source\PSoC6/CapSense_Processing.c ****                         CapSense_DpInitCsdMatrix(ptrFlashWdgt);
 441:Generated_Source\PSoC6/CapSense_Processing.c ****                     }
 442:Generated_Source\PSoC6/CapSense_Processing.c ****                 #endif /* #if (0u != CapSense_CSD_MATRIX_WIDGET_EN) */
 443:Generated_Source\PSoC6/CapSense_Processing.c **** 
 444:Generated_Source\PSoC6/CapSense_Processing.c ****                 if (NULL != ptrFlashWdgt->ptr2DebounceArr)
 445:Generated_Source\PSoC6/CapSense_Processing.c ****                 {
 446:Generated_Source\PSoC6/CapSense_Processing.c ****                     /* Initialize array of debounce counters */
 447:Generated_Source\PSoC6/CapSense_Processing.c ****                     (void)memset(ptrFlashWdgt->ptr2DebounceArr,
 448:Generated_Source\PSoC6/CapSense_Processing.c ****                                  (int32)ptrRamWdgt->onDebounce,
 449:Generated_Source\PSoC6/CapSense_Processing.c ****                                  (size_t)ptrFlashWdgt->totalNumSns);
 450:Generated_Source\PSoC6/CapSense_Processing.c ****                 }
 451:Generated_Source\PSoC6/CapSense_Processing.c ****                 break;
 452:Generated_Source\PSoC6/CapSense_Processing.c ****         #endif /* #if (0u != CapSense_MATRIX_WIDGET_EN) */
 453:Generated_Source\PSoC6/CapSense_Processing.c **** 
 454:Generated_Source\PSoC6/CapSense_Processing.c ****         #if (0u != CapSense_BUTTON_WIDGET_EN)
 455:Generated_Source\PSoC6/CapSense_Processing.c ****             case CapSense_WD_BUTTON_E:
 456:Generated_Source\PSoC6/CapSense_Processing.c ****                 if (NULL != ptrFlashWdgt->ptr2DebounceArr)
  88              		.loc 1 456 0
  89 003e 2069     		ldr	r0, [r4, #16]
  90 0040 0028     		cmp	r0, #0
  91 0042 16D0     		beq	.L5
 457:Generated_Source\PSoC6/CapSense_Processing.c ****                 {
 458:Generated_Source\PSoC6/CapSense_Processing.c ****                     /* Initialize array of debounce counters */
 459:Generated_Source\PSoC6/CapSense_Processing.c ****                     (void)memset(ptrFlashWdgt->ptr2DebounceArr,
 460:Generated_Source\PSoC6/CapSense_Processing.c ****                                  (int32)ptrRamWdgt->onDebounce,
  92              		.loc 1 460 0
  93 0044 F179     		ldrb	r1, [r6, #7]
 461:Generated_Source\PSoC6/CapSense_Processing.c ****                                  (size_t)ptrFlashWdgt->totalNumSns);
  94              		.loc 1 461 0
  95 0046 228B     		ldrh	r2, [r4, #24]
  96              	.LVL7:
 459:Generated_Source\PSoC6/CapSense_Processing.c ****                                  (int32)ptrRamWdgt->onDebounce,
  97              		.loc 1 459 0
  98 0048 FFF7FEFF 		bl	memset
  99              	.LVL8:
 100 004c 11E0     		b	.L5
 101              	.LVL9:
 102              	.L12:
 462:Generated_Source\PSoC6/CapSense_Processing.c ****                 }
 463:Generated_Source\PSoC6/CapSense_Processing.c ****                 break;
 464:Generated_Source\PSoC6/CapSense_Processing.c ****         #endif /* #if (0u != CapSense_BUTTON_WIDGET_EN) */
 465:Generated_Source\PSoC6/CapSense_Processing.c **** 
ARM GAS  C:\Users\PC\AppData\Local\Temp\ccQeYTXk.s 			page 11


 466:Generated_Source\PSoC6/CapSense_Processing.c ****         #if (0u != CapSense_SLIDER_WIDGET_EN)
 467:Generated_Source\PSoC6/CapSense_Processing.c ****             case CapSense_WD_LINEAR_SLIDER_E:
 468:Generated_Source\PSoC6/CapSense_Processing.c ****             case CapSense_WD_RADIAL_SLIDER_E:
 469:Generated_Source\PSoC6/CapSense_Processing.c ****                 if (NULL != ptrFlashWdgt->ptr2DebounceArr)
 103              		.loc 1 469 0
 104 004e 2369     		ldr	r3, [r4, #16]
 105 0050 002B     		cmp	r3, #0
 106 0052 01D0     		beq	.L8
 470:Generated_Source\PSoC6/CapSense_Processing.c ****                 {
 471:Generated_Source\PSoC6/CapSense_Processing.c ****                     /* Initialize single debounce counter of slider */
 472:Generated_Source\PSoC6/CapSense_Processing.c ****                     *(uint8 *)(ptrFlashWdgt->ptr2DebounceArr) = ptrRamWdgt->onDebounce;
 107              		.loc 1 472 0
 108 0054 F279     		ldrb	r2, [r6, #7]
 109              	.LVL10:
 110 0056 1A70     		strb	r2, [r3]
 111              	.L8:
 112              	.LVL11:
 113              	.LBB6:
 114              	.LBB7:
 328:Generated_Source\PSoC6/CapSense_Processing.c **** 
 115              		.loc 1 328 0
 116 0058 6168     		ldr	r1, [r4, #4]
 117              	.LVL12:
 331:Generated_Source\PSoC6/CapSense_Processing.c ****     {
 118              		.loc 1 331 0
 119 005a 0022     		movs	r2, #0
 120 005c 07E0     		b	.L9
 121              	.LVL13:
 122              	.L10:
 333:Generated_Source\PSoC6/CapSense_Processing.c **** 
 123              		.loc 1 333 0
 124 005e 1300     		movs	r3, r2
 125 0060 0833     		adds	r3, r3, #8
 126 0062 5B00     		lsls	r3, r3, #1
 127 0064 CB18     		adds	r3, r1, r3
 128 0066 0120     		movs	r0, #1
 129 0068 4042     		rsbs	r0, r0, #0
 130 006a 9880     		strh	r0, [r3, #4]
 331:Generated_Source\PSoC6/CapSense_Processing.c ****     {
 131              		.loc 1 331 0
 132 006c 0132     		adds	r2, r2, #1
 133              	.LVL14:
 134              	.L9:
 135 006e 002A     		cmp	r2, #0
 136 0070 F5D0     		beq	.L10
 137              	.LVL15:
 138              	.L5:
 139              	.LBE7:
 140              	.LBE6:
 473:Generated_Source\PSoC6/CapSense_Processing.c ****                 }
 474:Generated_Source\PSoC6/CapSense_Processing.c **** 
 475:Generated_Source\PSoC6/CapSense_Processing.c ****                 CapSense_DpInitSlider(ptrFlashWdgt);
 476:Generated_Source\PSoC6/CapSense_Processing.c **** 
 477:Generated_Source\PSoC6/CapSense_Processing.c ****                 break;
 478:Generated_Source\PSoC6/CapSense_Processing.c ****         #endif /* #if (0u != CapSense_SLIDER_WIDGET_EN) */
 479:Generated_Source\PSoC6/CapSense_Processing.c **** 
 480:Generated_Source\PSoC6/CapSense_Processing.c ****         #if (0u != CapSense_TOUCHPAD_WIDGET_EN)
ARM GAS  C:\Users\PC\AppData\Local\Temp\ccQeYTXk.s 			page 12


 481:Generated_Source\PSoC6/CapSense_Processing.c ****             case CapSense_WD_TOUCHPAD_E:
 482:Generated_Source\PSoC6/CapSense_Processing.c ****                 if (NULL != ptrFlashWdgt->ptr2DebounceArr)
 483:Generated_Source\PSoC6/CapSense_Processing.c ****                 {
 484:Generated_Source\PSoC6/CapSense_Processing.c ****                     /* Initialize single debounce counter of touchpad */
 485:Generated_Source\PSoC6/CapSense_Processing.c ****                     *(uint8 *)(ptrFlashWdgt->ptr2DebounceArr) = ptrRamWdgt->onDebounce;
 486:Generated_Source\PSoC6/CapSense_Processing.c ****                 }
 487:Generated_Source\PSoC6/CapSense_Processing.c **** 
 488:Generated_Source\PSoC6/CapSense_Processing.c ****                 #if (0u != CapSense_CSD_TOUCHPAD_WIDGET_EN)
 489:Generated_Source\PSoC6/CapSense_Processing.c ****                     if (CapSense_SENSE_METHOD_CSD_E == CapSense_GET_SENSE_METHOD(ptrFlashWdgt))
 490:Generated_Source\PSoC6/CapSense_Processing.c ****                     {
 491:Generated_Source\PSoC6/CapSense_Processing.c ****                         CapSense_DpInitCsdTouchpad(ptrFlashWdgt);
 492:Generated_Source\PSoC6/CapSense_Processing.c ****                     }
 493:Generated_Source\PSoC6/CapSense_Processing.c ****                 #endif /* #if (0u != CapSense_CSD_TOUCHPAD_WIDGET_EN) */
 494:Generated_Source\PSoC6/CapSense_Processing.c **** 
 495:Generated_Source\PSoC6/CapSense_Processing.c ****                 #if (0u != CapSense_CSX_TOUCHPAD_WIDGET_EN)
 496:Generated_Source\PSoC6/CapSense_Processing.c ****                     if (CapSense_SENSE_METHOD_CSX_E == CapSense_GET_SENSE_METHOD(ptrFlashWdgt))
 497:Generated_Source\PSoC6/CapSense_Processing.c ****                     {
 498:Generated_Source\PSoC6/CapSense_Processing.c ****                         CapSense_DpInitCsxTouchpad(ptrFlashWdgt);
 499:Generated_Source\PSoC6/CapSense_Processing.c ****                     }
 500:Generated_Source\PSoC6/CapSense_Processing.c ****                 #endif /* #if (0u != CapSense_CSX_TOUCHPAD_WIDGET_EN) */
 501:Generated_Source\PSoC6/CapSense_Processing.c **** 
 502:Generated_Source\PSoC6/CapSense_Processing.c ****                 break;
 503:Generated_Source\PSoC6/CapSense_Processing.c ****         #endif /* #if (0u != CapSense_TOUCHPAD_WIDGET_EN) */
 504:Generated_Source\PSoC6/CapSense_Processing.c **** 
 505:Generated_Source\PSoC6/CapSense_Processing.c ****         #if (0u != CapSense_PROXIMITY_WIDGET_EN)
 506:Generated_Source\PSoC6/CapSense_Processing.c ****             case CapSense_WD_PROXIMITY_E:
 507:Generated_Source\PSoC6/CapSense_Processing.c ****                 if (NULL != ptrFlashWdgt->ptr2DebounceArr)
 508:Generated_Source\PSoC6/CapSense_Processing.c ****                 {
 509:Generated_Source\PSoC6/CapSense_Processing.c ****                     /* Proximity widgets have 2 de-bounce counters per sensor.
 510:Generated_Source\PSoC6/CapSense_Processing.c ****                      * Therefore the number of sensors is multiplied by 2.
 511:Generated_Source\PSoC6/CapSense_Processing.c ****                      */
 512:Generated_Source\PSoC6/CapSense_Processing.c ****                    (void)memset(ptrFlashWdgt->ptr2DebounceArr,
 513:Generated_Source\PSoC6/CapSense_Processing.c ****                                 (int32)ptrRamWdgt->onDebounce,
 514:Generated_Source\PSoC6/CapSense_Processing.c ****                                 (size_t)ptrFlashWdgt->totalNumSns * 2u);
 515:Generated_Source\PSoC6/CapSense_Processing.c ****                 }
 516:Generated_Source\PSoC6/CapSense_Processing.c ****                 break;
 517:Generated_Source\PSoC6/CapSense_Processing.c ****         #endif /* #if (0u != CapSense_PROXIMITY_WIDGET_EN) */
 518:Generated_Source\PSoC6/CapSense_Processing.c **** 
 519:Generated_Source\PSoC6/CapSense_Processing.c ****             default:
 520:Generated_Source\PSoC6/CapSense_Processing.c ****                 break;
 521:Generated_Source\PSoC6/CapSense_Processing.c ****         }
 522:Generated_Source\PSoC6/CapSense_Processing.c **** 
 523:Generated_Source\PSoC6/CapSense_Processing.c ****         /* Move to next widget */
 524:Generated_Source\PSoC6/CapSense_Processing.c ****         ptrFlashWdgt++;
 141              		.loc 1 524 0
 142 0072 2C34     		adds	r4, r4, #44
 143              	.LVL16:
 424:Generated_Source\PSoC6/CapSense_Processing.c ****     {
 144              		.loc 1 424 0
 145 0074 2B00     		movs	r3, r5
 146              	.LVL17:
 147              	.L4:
 424:Generated_Source\PSoC6/CapSense_Processing.c ****     {
 148              		.loc 1 424 0 is_stmt 0 discriminator 1
 149 0076 5D1E     		subs	r5, r3, #1
 150              	.LVL18:
 151 0078 002B     		cmp	r3, #0
ARM GAS  C:\Users\PC\AppData\Local\Temp\ccQeYTXk.s 			page 13


 152 007a D3D1     		bne	.L11
 525:Generated_Source\PSoC6/CapSense_Processing.c ****     }
 526:Generated_Source\PSoC6/CapSense_Processing.c **** }
 153              		.loc 1 526 0 is_stmt 1
 154              		@ sp needed
 155              	.LVL19:
 156              	.LVL20:
 157 007c 70BD     		pop	{r4, r5, r6, pc}
 158              	.L14:
 159 007e C046     		.align	2
 160              	.L13:
 161 0080 00000000 		.word	CapSense_dsRam
 162 0084 00000000 		.word	CapSense_dsFlash
 163              		.cfi_endproc
 164              	.LFE46:
 165              		.size	CapSense_DpInitialize, .-CapSense_DpInitialize
 166              		.section	.text.CapSense_DpUpdateThresholds,"ax",%progbits
 167              		.align	2
 168              		.global	CapSense_DpUpdateThresholds
 169              		.code	16
 170              		.thumb_func
 171              		.type	CapSense_DpUpdateThresholds, %function
 172              	CapSense_DpUpdateThresholds:
 173              	.LFB53:
 527:Generated_Source\PSoC6/CapSense_Processing.c **** 
 528:Generated_Source\PSoC6/CapSense_Processing.c **** #if (0u != CapSense_TOTAL_CSX_WIDGETS)
 529:Generated_Source\PSoC6/CapSense_Processing.c **** /*******************************************************************************
 530:Generated_Source\PSoC6/CapSense_Processing.c **** * Function Name: CapSense_DpProcessCsxWidgetRawCounts
 531:Generated_Source\PSoC6/CapSense_Processing.c **** ****************************************************************************//**
 532:Generated_Source\PSoC6/CapSense_Processing.c **** *
 533:Generated_Source\PSoC6/CapSense_Processing.c **** * \brief
 534:Generated_Source\PSoC6/CapSense_Processing.c **** *  Performs default processing of the CSX raw counts.
 535:Generated_Source\PSoC6/CapSense_Processing.c **** *
 536:Generated_Source\PSoC6/CapSense_Processing.c **** * \details
 537:Generated_Source\PSoC6/CapSense_Processing.c **** *  Performs default processing of the CSX raw counts:
 538:Generated_Source\PSoC6/CapSense_Processing.c **** *   - Run Filters
 539:Generated_Source\PSoC6/CapSense_Processing.c **** *   - Update Baselines
 540:Generated_Source\PSoC6/CapSense_Processing.c **** *   - Update Differences
 541:Generated_Source\PSoC6/CapSense_Processing.c **** *   - Update Status.
 542:Generated_Source\PSoC6/CapSense_Processing.c **** *  The same process is applied to all the sensors of the specified widget.
 543:Generated_Source\PSoC6/CapSense_Processing.c **** *
 544:Generated_Source\PSoC6/CapSense_Processing.c **** * \param ptrFlashWdgt The pointer to the Flash widget structure.
 545:Generated_Source\PSoC6/CapSense_Processing.c **** *
 546:Generated_Source\PSoC6/CapSense_Processing.c **** * \return
 547:Generated_Source\PSoC6/CapSense_Processing.c **** *  Returns the status of the specified widget processing operation:
 548:Generated_Source\PSoC6/CapSense_Processing.c **** *  - CY_RET_SUCCESS if operation was successfully completed;
 549:Generated_Source\PSoC6/CapSense_Processing.c **** *  - CapSense_PROCESS_BASELINE_FAILED if baseline processing of any
 550:Generated_Source\PSoC6/CapSense_Processing.c **** *    sensor of the specified widget failed. The result is concatenated with the index
 551:Generated_Source\PSoC6/CapSense_Processing.c **** *    of failed sensor.
 552:Generated_Source\PSoC6/CapSense_Processing.c **** *
 553:Generated_Source\PSoC6/CapSense_Processing.c **** *******************************************************************************/
 554:Generated_Source\PSoC6/CapSense_Processing.c **** uint32 CapSense_DpProcessCsxWidgetRawCounts(CapSense_FLASH_WD_STRUCT const *ptrFlashWdgt)
 555:Generated_Source\PSoC6/CapSense_Processing.c **** {
 556:Generated_Source\PSoC6/CapSense_Processing.c ****     uint32 result = CY_RET_SUCCESS;
 557:Generated_Source\PSoC6/CapSense_Processing.c ****     uint32 widgetType;
 558:Generated_Source\PSoC6/CapSense_Processing.c ****     uint32 snsCount;
 559:Generated_Source\PSoC6/CapSense_Processing.c ****     CapSense_RAM_SNS_STRUCT *ptrSnsTmp;
ARM GAS  C:\Users\PC\AppData\Local\Temp\ccQeYTXk.s 			page 14


 560:Generated_Source\PSoC6/CapSense_Processing.c ****     CapSense_RAM_WD_BASE_STRUCT *ptrRamWdgt;
 561:Generated_Source\PSoC6/CapSense_Processing.c **** 
 562:Generated_Source\PSoC6/CapSense_Processing.c ****     #if (CapSense_ENABLE == CapSense_RC_FILTER_EN)
 563:Generated_Source\PSoC6/CapSense_Processing.c ****         CapSense_PTR_FILTER_VARIANT fltrHistV;
 564:Generated_Source\PSoC6/CapSense_Processing.c **** 
 565:Generated_Source\PSoC6/CapSense_Processing.c ****         fltrHistV.ptr = ptrFlashWdgt->ptr2FltrHistory;
 566:Generated_Source\PSoC6/CapSense_Processing.c ****     #endif /* #if (CapSense_ENABLE == CapSense_RC_FILTER_EN) */
 567:Generated_Source\PSoC6/CapSense_Processing.c **** 
 568:Generated_Source\PSoC6/CapSense_Processing.c ****     ptrSnsTmp = ptrFlashWdgt->ptr2SnsRam;
 569:Generated_Source\PSoC6/CapSense_Processing.c ****     snsCount = ptrFlashWdgt->totalNumSns;
 570:Generated_Source\PSoC6/CapSense_Processing.c ****     ptrRamWdgt = (CapSense_RAM_WD_BASE_STRUCT *)ptrFlashWdgt->ptr2WdgtRam;
 571:Generated_Source\PSoC6/CapSense_Processing.c ****     widgetType = ptrFlashWdgt->wdgtType;
 572:Generated_Source\PSoC6/CapSense_Processing.c **** 
 573:Generated_Source\PSoC6/CapSense_Processing.c ****     /* Run deconvolution algorithm for the widgets with multiphase TX support */
 574:Generated_Source\PSoC6/CapSense_Processing.c ****     #if (0u != CapSense_CSX_MULTIPHASE_TX_EN)
 575:Generated_Source\PSoC6/CapSense_Processing.c ****         if (0u != (ptrFlashWdgt->staticConfig & CapSense_MULTIPHASE_TX_MASK))
 576:Generated_Source\PSoC6/CapSense_Processing.c ****         {
 577:Generated_Source\PSoC6/CapSense_Processing.c ****             CapSense_DpDeconvolution(ptrFlashWdgt);
 578:Generated_Source\PSoC6/CapSense_Processing.c ****         }
 579:Generated_Source\PSoC6/CapSense_Processing.c ****     #endif  /* #if (0u != CapSense_CSX_MULTIPHASE_TX_EN) */
 580:Generated_Source\PSoC6/CapSense_Processing.c **** 
 581:Generated_Source\PSoC6/CapSense_Processing.c ****     for (;snsCount-- > 0u;)
 582:Generated_Source\PSoC6/CapSense_Processing.c ****     {
 583:Generated_Source\PSoC6/CapSense_Processing.c ****         #if (CapSense_ENABLE == CapSense_RC_FILTER_EN)
 584:Generated_Source\PSoC6/CapSense_Processing.c ****             CapSense_FtRunEnabledFiltersInternal(fltrHistV, ptrSnsTmp, widgetType);
 585:Generated_Source\PSoC6/CapSense_Processing.c ****             #if (CapSense_ALP_FILTER_EN)
 586:Generated_Source\PSoC6/CapSense_Processing.c ****                 CapSense_ConfigRunALPInternal(fltrHistV, ptrRamWdgt, ptrSnsTmp, widgetType);
 587:Generated_Source\PSoC6/CapSense_Processing.c ****             #endif
 588:Generated_Source\PSoC6/CapSense_Processing.c ****         #endif /* #if (CapSense_ENABLE == CapSense_RC_FILTER_EN) */
 589:Generated_Source\PSoC6/CapSense_Processing.c **** 
 590:Generated_Source\PSoC6/CapSense_Processing.c ****         result = CapSense_FtUpdateBaseline(ptrRamWdgt, ptrSnsTmp, widgetType);
 591:Generated_Source\PSoC6/CapSense_Processing.c **** 
 592:Generated_Source\PSoC6/CapSense_Processing.c ****         #if (CapSense_ENABLE == CapSense_TST_BSLN_DUPLICATION_EN)
 593:Generated_Source\PSoC6/CapSense_Processing.c ****             if (CY_RET_SUCCESS != result)
 594:Generated_Source\PSoC6/CapSense_Processing.c ****             {
 595:Generated_Source\PSoC6/CapSense_Processing.c ****                 result = snsCount | CapSense_PROCESS_BASELINE_FAILED;
 596:Generated_Source\PSoC6/CapSense_Processing.c ****             }
 597:Generated_Source\PSoC6/CapSense_Processing.c ****         #endif /* (CapSense_ENABLE == CapSense_TST_BSLN_DUPLICATION_EN) */
 598:Generated_Source\PSoC6/CapSense_Processing.c **** 
 599:Generated_Source\PSoC6/CapSense_Processing.c ****         CapSense_DpUpdateDifferences(ptrRamWdgt, ptrSnsTmp);
 600:Generated_Source\PSoC6/CapSense_Processing.c **** 
 601:Generated_Source\PSoC6/CapSense_Processing.c ****         /* Move pointers to the next sensor and filter history objects */
 602:Generated_Source\PSoC6/CapSense_Processing.c ****         ptrSnsTmp++;
 603:Generated_Source\PSoC6/CapSense_Processing.c ****         
 604:Generated_Source\PSoC6/CapSense_Processing.c ****         #if (CapSense_ENABLE == CapSense_RC_FILTER_EN)
 605:Generated_Source\PSoC6/CapSense_Processing.c ****             CapSense_INC_REG_FLTR_OBJ(fltrHistV);
 606:Generated_Source\PSoC6/CapSense_Processing.c ****         #endif /* #if (CapSense_ENABLE == CapSense_RC_FILTER_EN) */
 607:Generated_Source\PSoC6/CapSense_Processing.c ****     }
 608:Generated_Source\PSoC6/CapSense_Processing.c ****     return result;
 609:Generated_Source\PSoC6/CapSense_Processing.c **** }
 610:Generated_Source\PSoC6/CapSense_Processing.c **** 
 611:Generated_Source\PSoC6/CapSense_Processing.c **** /*******************************************************************************
 612:Generated_Source\PSoC6/CapSense_Processing.c **** * Function Name: CapSense_DpProcessCsxSensorRawCountsExt
 613:Generated_Source\PSoC6/CapSense_Processing.c **** ****************************************************************************//**
 614:Generated_Source\PSoC6/CapSense_Processing.c **** *
 615:Generated_Source\PSoC6/CapSense_Processing.c **** * \brief
 616:Generated_Source\PSoC6/CapSense_Processing.c **** *   Performs customized processing of the CSX sensor raw counts.
ARM GAS  C:\Users\PC\AppData\Local\Temp\ccQeYTXk.s 			page 15


 617:Generated_Source\PSoC6/CapSense_Processing.c **** *
 618:Generated_Source\PSoC6/CapSense_Processing.c **** * \details
 619:Generated_Source\PSoC6/CapSense_Processing.c **** *   Performs customized processing of the CSX sensor raw counts.
 620:Generated_Source\PSoC6/CapSense_Processing.c **** *
 621:Generated_Source\PSoC6/CapSense_Processing.c **** *   If all bits are set at once the default processing order will take place.
 622:Generated_Source\PSoC6/CapSense_Processing.c **** *   For the custom order this API can be called multiple times and execute one task at a time.
 623:Generated_Source\PSoC6/CapSense_Processing.c **** *
 624:Generated_Source\PSoC6/CapSense_Processing.c **** * \param ptrFlashWdgt The pointer to the Flash Widget Object.
 625:Generated_Source\PSoC6/CapSense_Processing.c **** * \param curSnsPtr    The pointer to the specific RAM Sensor Object.
 626:Generated_Source\PSoC6/CapSense_Processing.c **** * \param fltrHistV    The pointer to the Filter History Object in RAM associated with specific sens
 627:Generated_Source\PSoC6/CapSense_Processing.c **** * \param mode         The bit-mask with the data processing tasks to be executed.
 628:Generated_Source\PSoC6/CapSense_Processing.c **** *   The mode parameters can take the following values:
 629:Generated_Source\PSoC6/CapSense_Processing.c **** *    - CapSense_PROCESS_FILTER     (0x01) Run Firmware Filter
 630:Generated_Source\PSoC6/CapSense_Processing.c **** *    - CapSense_PROCESS_BASELINE   (0x02) Update Baselines
 631:Generated_Source\PSoC6/CapSense_Processing.c **** *    - CapSense_PROCESS_DIFFCOUNTS (0x04) Update Difference Counts
 632:Generated_Source\PSoC6/CapSense_Processing.c **** *    - CapSense_PROCESS_ALL               Execute all tasks
 633:Generated_Source\PSoC6/CapSense_Processing.c **** *
 634:Generated_Source\PSoC6/CapSense_Processing.c **** * \return
 635:Generated_Source\PSoC6/CapSense_Processing.c **** *  Returns the status of the specified sensor processing operation:
 636:Generated_Source\PSoC6/CapSense_Processing.c **** *  - CY_RET_SUCCESS if operation was successfully completed;
 637:Generated_Source\PSoC6/CapSense_Processing.c **** *  - CapSense_PROCESS_BASELINE_FAILED if baseline processing of any
 638:Generated_Source\PSoC6/CapSense_Processing.c **** *    sensor of the specified widget failed. The result is concatenated with the index
 639:Generated_Source\PSoC6/CapSense_Processing.c **** *    of failed sensor.
 640:Generated_Source\PSoC6/CapSense_Processing.c **** *
 641:Generated_Source\PSoC6/CapSense_Processing.c **** *******************************************************************************/
 642:Generated_Source\PSoC6/CapSense_Processing.c **** uint32 CapSense_DpProcessCsxSensorRawCountsExt(
 643:Generated_Source\PSoC6/CapSense_Processing.c ****                 CapSense_FLASH_WD_STRUCT const *ptrFlashWdgt,
 644:Generated_Source\PSoC6/CapSense_Processing.c ****                 CapSense_RAM_SNS_STRUCT *curSnsPtr,
 645:Generated_Source\PSoC6/CapSense_Processing.c ****                 CapSense_PTR_FILTER_VARIANT fltrHistV,
 646:Generated_Source\PSoC6/CapSense_Processing.c ****                 uint32 mode)
 647:Generated_Source\PSoC6/CapSense_Processing.c **** {
 648:Generated_Source\PSoC6/CapSense_Processing.c ****     uint32  result = CY_RET_SUCCESS;
 649:Generated_Source\PSoC6/CapSense_Processing.c ****     uint32  widgetType;
 650:Generated_Source\PSoC6/CapSense_Processing.c ****     CapSense_RAM_WD_BASE_STRUCT *ptrRamWdgt;
 651:Generated_Source\PSoC6/CapSense_Processing.c **** 
 652:Generated_Source\PSoC6/CapSense_Processing.c ****     widgetType = ptrFlashWdgt->wdgtType;
 653:Generated_Source\PSoC6/CapSense_Processing.c ****     ptrRamWdgt = (CapSense_RAM_WD_BASE_STRUCT *)ptrFlashWdgt->ptr2WdgtRam;
 654:Generated_Source\PSoC6/CapSense_Processing.c **** 
 655:Generated_Source\PSoC6/CapSense_Processing.c ****     #if (CapSense_ENABLE == CapSense_RC_FILTER_EN)
 656:Generated_Source\PSoC6/CapSense_Processing.c ****         if (0u != (mode & CapSense_PROCESS_FILTER))
 657:Generated_Source\PSoC6/CapSense_Processing.c ****         {
 658:Generated_Source\PSoC6/CapSense_Processing.c ****             CapSense_FtRunEnabledFiltersInternal(fltrHistV, curSnsPtr, widgetType);
 659:Generated_Source\PSoC6/CapSense_Processing.c ****             #if (CapSense_ALP_FILTER_EN)
 660:Generated_Source\PSoC6/CapSense_Processing.c ****                 CapSense_ConfigRunALPInternal(fltrHistV, ptrRamWdgt, curSnsPtr, widgetType);
 661:Generated_Source\PSoC6/CapSense_Processing.c ****             #endif
 662:Generated_Source\PSoC6/CapSense_Processing.c ****         }
 663:Generated_Source\PSoC6/CapSense_Processing.c ****     #else
 664:Generated_Source\PSoC6/CapSense_Processing.c ****         (void)fltrHistV; /* This parameter is unused in such configurations */
 665:Generated_Source\PSoC6/CapSense_Processing.c ****     #endif /* #if (CapSense_ENABLE == CapSense_RC_FILTER_EN) */
 666:Generated_Source\PSoC6/CapSense_Processing.c **** 
 667:Generated_Source\PSoC6/CapSense_Processing.c ****     if (0u != (mode & CapSense_PROCESS_BASELINE))
 668:Generated_Source\PSoC6/CapSense_Processing.c ****     {
 669:Generated_Source\PSoC6/CapSense_Processing.c ****         result = CapSense_FtUpdateBaseline(ptrRamWdgt, curSnsPtr, widgetType);
 670:Generated_Source\PSoC6/CapSense_Processing.c ****     }
 671:Generated_Source\PSoC6/CapSense_Processing.c **** 
 672:Generated_Source\PSoC6/CapSense_Processing.c ****     if (0u != (mode & CapSense_PROCESS_DIFFCOUNTS))
 673:Generated_Source\PSoC6/CapSense_Processing.c ****     {
ARM GAS  C:\Users\PC\AppData\Local\Temp\ccQeYTXk.s 			page 16


 674:Generated_Source\PSoC6/CapSense_Processing.c ****         CapSense_DpUpdateDifferences(ptrRamWdgt, curSnsPtr);
 675:Generated_Source\PSoC6/CapSense_Processing.c ****     }
 676:Generated_Source\PSoC6/CapSense_Processing.c ****     return result;
 677:Generated_Source\PSoC6/CapSense_Processing.c **** }
 678:Generated_Source\PSoC6/CapSense_Processing.c **** 
 679:Generated_Source\PSoC6/CapSense_Processing.c **** 
 680:Generated_Source\PSoC6/CapSense_Processing.c **** /*******************************************************************************
 681:Generated_Source\PSoC6/CapSense_Processing.c **** * Function Name: CapSense_DpProcessCsxWidgetStatus
 682:Generated_Source\PSoC6/CapSense_Processing.c **** ****************************************************************************//**
 683:Generated_Source\PSoC6/CapSense_Processing.c **** *
 684:Generated_Source\PSoC6/CapSense_Processing.c **** * \brief
 685:Generated_Source\PSoC6/CapSense_Processing.c **** *   Updates the status of the CSX widget in the Data Structure.
 686:Generated_Source\PSoC6/CapSense_Processing.c **** *
 687:Generated_Source\PSoC6/CapSense_Processing.c **** * \details
 688:Generated_Source\PSoC6/CapSense_Processing.c **** *  This API determines the type of widget and runs the appropriate function
 689:Generated_Source\PSoC6/CapSense_Processing.c **** *  that implements the status update algorithm for this type of widget.
 690:Generated_Source\PSoC6/CapSense_Processing.c **** *
 691:Generated_Source\PSoC6/CapSense_Processing.c **** *  When the widget-specific processing completes this API updates the snsStatus
 692:Generated_Source\PSoC6/CapSense_Processing.c **** *  and wdgtStatus registers in the data structure. The wdgtStatus register
 693:Generated_Source\PSoC6/CapSense_Processing.c **** *  is a bitmask were each bit corresponds to the specific widget identified by
 694:Generated_Source\PSoC6/CapSense_Processing.c **** *  the widget index. When the bit is set the widget is active (touched);
 695:Generated_Source\PSoC6/CapSense_Processing.c **** *
 696:Generated_Source\PSoC6/CapSense_Processing.c **** *  Depending on the type of widget the snsStatus register may contain either
 697:Generated_Source\PSoC6/CapSense_Processing.c **** *  status of each widget node (active/non-active) or in case of the CSX Touchpad
 698:Generated_Source\PSoC6/CapSense_Processing.c **** *  is contains the number of touches. In both cases 0 means that widget is not
 699:Generated_Source\PSoC6/CapSense_Processing.c **** *  active.
 700:Generated_Source\PSoC6/CapSense_Processing.c **** *
 701:Generated_Source\PSoC6/CapSense_Processing.c **** * \param widgetId     The widget ID number.
 702:Generated_Source\PSoC6/CapSense_Processing.c **** * \param ptrFlashWdgt The pointer to the Flash Widget Object.
 703:Generated_Source\PSoC6/CapSense_Processing.c **** *
 704:Generated_Source\PSoC6/CapSense_Processing.c **** *******************************************************************************/
 705:Generated_Source\PSoC6/CapSense_Processing.c **** void CapSense_DpProcessCsxWidgetStatus(uint32 widgetId, CapSense_FLASH_WD_STRUCT const *ptrFlashWdg
 706:Generated_Source\PSoC6/CapSense_Processing.c **** {
 707:Generated_Source\PSoC6/CapSense_Processing.c ****     uint32 sensorStatus;
 708:Generated_Source\PSoC6/CapSense_Processing.c ****     uint32 wdStatusIndex;
 709:Generated_Source\PSoC6/CapSense_Processing.c ****     uint32 wdStatusMask;
 710:Generated_Source\PSoC6/CapSense_Processing.c ****     CapSense_WD_TYPE_ENUM widgetType;
 711:Generated_Source\PSoC6/CapSense_Processing.c **** 
 712:Generated_Source\PSoC6/CapSense_Processing.c ****     widgetType = (CapSense_WD_TYPE_ENUM)ptrFlashWdgt->wdgtType;
 713:Generated_Source\PSoC6/CapSense_Processing.c ****     sensorStatus = CapSense_dsRam.snsStatus[widgetId];
 714:Generated_Source\PSoC6/CapSense_Processing.c **** 
 715:Generated_Source\PSoC6/CapSense_Processing.c ****     switch (widgetType)
 716:Generated_Source\PSoC6/CapSense_Processing.c ****     {
 717:Generated_Source\PSoC6/CapSense_Processing.c ****     #if (0u != CapSense_BUTTON_WIDGET_EN)
 718:Generated_Source\PSoC6/CapSense_Processing.c ****         case CapSense_WD_BUTTON_E:
 719:Generated_Source\PSoC6/CapSense_Processing.c ****             sensorStatus = CapSense_DpProcessButton(sensorStatus, ptrFlashWdgt);
 720:Generated_Source\PSoC6/CapSense_Processing.c ****             break;
 721:Generated_Source\PSoC6/CapSense_Processing.c ****     #endif /* #if (0u != CapSense_BUTTON_WIDGET_EN) */
 722:Generated_Source\PSoC6/CapSense_Processing.c **** 
 723:Generated_Source\PSoC6/CapSense_Processing.c ****     #if (0u != CapSense_CSX_MATRIX_WIDGET_EN)
 724:Generated_Source\PSoC6/CapSense_Processing.c ****         case CapSense_WD_MATRIX_BUTTON_E:
 725:Generated_Source\PSoC6/CapSense_Processing.c ****             sensorStatus = CapSense_DpProcessButton(sensorStatus, ptrFlashWdgt);
 726:Generated_Source\PSoC6/CapSense_Processing.c ****             break;
 727:Generated_Source\PSoC6/CapSense_Processing.c ****     #endif /* #if (0u != CapSense_CSX_MATRIX_WIDGET_EN) */
 728:Generated_Source\PSoC6/CapSense_Processing.c **** 
 729:Generated_Source\PSoC6/CapSense_Processing.c ****     #if (0u != CapSense_CSX_TOUCHPAD_WIDGET_EN)
 730:Generated_Source\PSoC6/CapSense_Processing.c ****         case CapSense_WD_TOUCHPAD_E:
ARM GAS  C:\Users\PC\AppData\Local\Temp\ccQeYTXk.s 			page 17


 731:Generated_Source\PSoC6/CapSense_Processing.c ****             sensorStatus = CapSense_DpProcessCsxTouchpad(sensorStatus, ptrFlashWdgt);
 732:Generated_Source\PSoC6/CapSense_Processing.c ****             break;
 733:Generated_Source\PSoC6/CapSense_Processing.c ****     #endif /* #if (0u != CapSense_CSX_TOUCHPAD_WIDGET_EN) */
 734:Generated_Source\PSoC6/CapSense_Processing.c **** 
 735:Generated_Source\PSoC6/CapSense_Processing.c ****     default:
 736:Generated_Source\PSoC6/CapSense_Processing.c ****         CY_ASSERT(0 != 0);
 737:Generated_Source\PSoC6/CapSense_Processing.c ****         break;
 738:Generated_Source\PSoC6/CapSense_Processing.c ****     }
 739:Generated_Source\PSoC6/CapSense_Processing.c **** 
 740:Generated_Source\PSoC6/CapSense_Processing.c ****     /* Update sensor status in the data structure */
 741:Generated_Source\PSoC6/CapSense_Processing.c ****     CapSense_dsRam.snsStatus[widgetId] = (CapSense_SNS_STS_TYPE)sensorStatus;
 742:Generated_Source\PSoC6/CapSense_Processing.c **** 
 743:Generated_Source\PSoC6/CapSense_Processing.c ****     /* The next two lines calculate index and bitmask of the widget status bit in the wdgtStatus ar
 744:Generated_Source\PSoC6/CapSense_Processing.c ****     wdStatusIndex = CapSense_GET_WDGT_STATUS_INDEX(widgetId);
 745:Generated_Source\PSoC6/CapSense_Processing.c ****     wdStatusMask = CapSense_GET_WDGT_STATUS_MASK(widgetId);
 746:Generated_Source\PSoC6/CapSense_Processing.c **** 
 747:Generated_Source\PSoC6/CapSense_Processing.c ****     /* Check if there are active sensors and update widget status accordingly */
 748:Generated_Source\PSoC6/CapSense_Processing.c ****     if (0u == sensorStatus)
 749:Generated_Source\PSoC6/CapSense_Processing.c ****     {
 750:Generated_Source\PSoC6/CapSense_Processing.c ****         CapSense_dsRam.wdgtStatus[wdStatusIndex] &= ~wdStatusMask;
 751:Generated_Source\PSoC6/CapSense_Processing.c ****     }
 752:Generated_Source\PSoC6/CapSense_Processing.c ****     else
 753:Generated_Source\PSoC6/CapSense_Processing.c ****     {
 754:Generated_Source\PSoC6/CapSense_Processing.c ****         CapSense_dsRam.wdgtStatus[wdStatusIndex] |= wdStatusMask;
 755:Generated_Source\PSoC6/CapSense_Processing.c ****     }
 756:Generated_Source\PSoC6/CapSense_Processing.c **** }
 757:Generated_Source\PSoC6/CapSense_Processing.c **** #endif /* #if CapSense_TOTAL_CSX_WIDGETS */
 758:Generated_Source\PSoC6/CapSense_Processing.c **** 
 759:Generated_Source\PSoC6/CapSense_Processing.c **** #if (0u != CapSense_TOTAL_CSD_WIDGETS)
 760:Generated_Source\PSoC6/CapSense_Processing.c **** /*******************************************************************************
 761:Generated_Source\PSoC6/CapSense_Processing.c **** * Function Name: CapSense_DpProcessCsdWidgetRawCounts
 762:Generated_Source\PSoC6/CapSense_Processing.c **** ****************************************************************************//**
 763:Generated_Source\PSoC6/CapSense_Processing.c **** *
 764:Generated_Source\PSoC6/CapSense_Processing.c **** * \brief
 765:Generated_Source\PSoC6/CapSense_Processing.c **** *   Performs default processing for the CSD widget raw counts.
 766:Generated_Source\PSoC6/CapSense_Processing.c **** *
 767:Generated_Source\PSoC6/CapSense_Processing.c **** * \details
 768:Generated_Source\PSoC6/CapSense_Processing.c **** *   Performs default processing for the CSD widget raw counts:
 769:Generated_Source\PSoC6/CapSense_Processing.c **** *    - Run Filters
 770:Generated_Source\PSoC6/CapSense_Processing.c **** *    - Update Thresholds (FW Auto-tuning)
 771:Generated_Source\PSoC6/CapSense_Processing.c **** *    - Update Baselines
 772:Generated_Source\PSoC6/CapSense_Processing.c **** *    - Update Differences.
 773:Generated_Source\PSoC6/CapSense_Processing.c **** *   The process is applied to all widget's sensors.
 774:Generated_Source\PSoC6/CapSense_Processing.c **** *
 775:Generated_Source\PSoC6/CapSense_Processing.c **** * \param ptrFlashWdgt The pointer to the Flash Widget Object.
 776:Generated_Source\PSoC6/CapSense_Processing.c **** *
 777:Generated_Source\PSoC6/CapSense_Processing.c **** * \return
 778:Generated_Source\PSoC6/CapSense_Processing.c **** *  Returns the status of the specified widget processing operation:
 779:Generated_Source\PSoC6/CapSense_Processing.c **** *  - CY_RET_SUCCESS if operation was successfully completed;
 780:Generated_Source\PSoC6/CapSense_Processing.c **** *  - CapSense_PROCESS_BASELINE_FAILED if baseline processing of any
 781:Generated_Source\PSoC6/CapSense_Processing.c **** *    sensor of the specified widget failed. The result is concatenated with the index
 782:Generated_Source\PSoC6/CapSense_Processing.c **** *    of failed sensor.
 783:Generated_Source\PSoC6/CapSense_Processing.c **** *
 784:Generated_Source\PSoC6/CapSense_Processing.c **** *******************************************************************************/
 785:Generated_Source\PSoC6/CapSense_Processing.c **** uint32 CapSense_DpProcessCsdWidgetRawCounts(CapSense_FLASH_WD_STRUCT const *ptrFlashWdgt)
 786:Generated_Source\PSoC6/CapSense_Processing.c **** {
 787:Generated_Source\PSoC6/CapSense_Processing.c ****     uint32  result = CY_RET_SUCCESS;
ARM GAS  C:\Users\PC\AppData\Local\Temp\ccQeYTXk.s 			page 18


 788:Generated_Source\PSoC6/CapSense_Processing.c **** 
 789:Generated_Source\PSoC6/CapSense_Processing.c ****     #if (CapSense_ENABLE == CapSense_TST_BSLN_DUPLICATION_EN)
 790:Generated_Source\PSoC6/CapSense_Processing.c ****         uint32 bslnTstResult = CY_RET_SUCCESS;
 791:Generated_Source\PSoC6/CapSense_Processing.c ****     #endif /* (CapSense_ENABLE == CapSense_TST_BSLN_DUPLICATION_EN) */
 792:Generated_Source\PSoC6/CapSense_Processing.c **** 
 793:Generated_Source\PSoC6/CapSense_Processing.c ****     uint32  widgetType;
 794:Generated_Source\PSoC6/CapSense_Processing.c ****     uint32  snsId;
 795:Generated_Source\PSoC6/CapSense_Processing.c ****     CapSense_RAM_SNS_STRUCT *ptrSnsTmp;
 796:Generated_Source\PSoC6/CapSense_Processing.c ****     CapSense_RAM_WD_BASE_STRUCT *ptrRamWdgt;
 797:Generated_Source\PSoC6/CapSense_Processing.c **** 
 798:Generated_Source\PSoC6/CapSense_Processing.c ****     #if (0u != (CapSense_CSD_AUTOTUNE & CapSense_CSD_SS_TH_EN))
 799:Generated_Source\PSoC6/CapSense_Processing.c ****         /* The noise envelope data is available only when Full CSD Auto-Tuning is enabled */
 800:Generated_Source\PSoC6/CapSense_Processing.c ****         SMARTSENSE_CSD_NOISE_ENVELOPE_STRUCT *ptrNoiseEnvelope;
 801:Generated_Source\PSoC6/CapSense_Processing.c ****         #if (CapSense_ENABLE == CapSense_PROXIMITY_WIDGET_EN)
 802:Generated_Source\PSoC6/CapSense_Processing.c ****             uint32  proximityThreshold;
 803:Generated_Source\PSoC6/CapSense_Processing.c ****         #endif /* (0 != CapSense_PROXIMITY_WIDGET_EN) */
 804:Generated_Source\PSoC6/CapSense_Processing.c ****     #endif /* #if (0u != (CapSense_CSD_AUTOTUNE & CapSense_CSD_SS_TH_EN)) */
 805:Generated_Source\PSoC6/CapSense_Processing.c **** 
 806:Generated_Source\PSoC6/CapSense_Processing.c ****     #if (CapSense_ENABLE == CapSense_RC_FILTER_EN)
 807:Generated_Source\PSoC6/CapSense_Processing.c ****         CapSense_PTR_FILTER_VARIANT fltrHistV;
 808:Generated_Source\PSoC6/CapSense_Processing.c **** 
 809:Generated_Source\PSoC6/CapSense_Processing.c ****         /* Determine if widget type is proximity */
 810:Generated_Source\PSoC6/CapSense_Processing.c ****         uint32 isProxWdgt = (CapSense_GET_WIDGET_TYPE(ptrFlashWdgt) == CapSense_WD_PROXIMITY_E) ? 1
 811:Generated_Source\PSoC6/CapSense_Processing.c **** 
 812:Generated_Source\PSoC6/CapSense_Processing.c ****         /* Get pointer to the filter history object */
 813:Generated_Source\PSoC6/CapSense_Processing.c ****         fltrHistV.ptr = ptrFlashWdgt->ptr2FltrHistory;
 814:Generated_Source\PSoC6/CapSense_Processing.c ****     #endif /* #if (CapSense_ENABLE == CapSense_RC_FILTER_EN) */
 815:Generated_Source\PSoC6/CapSense_Processing.c **** 
 816:Generated_Source\PSoC6/CapSense_Processing.c ****     ptrSnsTmp = ptrFlashWdgt->ptr2SnsRam;
 817:Generated_Source\PSoC6/CapSense_Processing.c ****     ptrRamWdgt = (CapSense_RAM_WD_BASE_STRUCT *)ptrFlashWdgt->ptr2WdgtRam;
 818:Generated_Source\PSoC6/CapSense_Processing.c ****     widgetType = ptrFlashWdgt->wdgtType;
 819:Generated_Source\PSoC6/CapSense_Processing.c **** 
 820:Generated_Source\PSoC6/CapSense_Processing.c ****     #if (0u != (CapSense_CSD_AUTOTUNE & CapSense_CSD_SS_TH_EN))
 821:Generated_Source\PSoC6/CapSense_Processing.c ****         ptrNoiseEnvelope = ptrFlashWdgt->ptr2NoiseEnvlp;
 822:Generated_Source\PSoC6/CapSense_Processing.c ****     #endif /* #if (0u != (CapSense_CSD_AUTOTUNE & CapSense_CSD_SS_TH_EN)) */
 823:Generated_Source\PSoC6/CapSense_Processing.c **** 
 824:Generated_Source\PSoC6/CapSense_Processing.c ****     /* Iterate through all widget's sensors */
 825:Generated_Source\PSoC6/CapSense_Processing.c ****     for(snsId = 0u; snsId < ptrFlashWdgt->totalNumSns; snsId++)
 826:Generated_Source\PSoC6/CapSense_Processing.c ****     {
 827:Generated_Source\PSoC6/CapSense_Processing.c ****         /* Run all enabled filter on specified widget's sensor */
 828:Generated_Source\PSoC6/CapSense_Processing.c ****         #if (CapSense_ENABLE == CapSense_RC_FILTER_EN)
 829:Generated_Source\PSoC6/CapSense_Processing.c ****             CapSense_FtRunEnabledFiltersInternal(fltrHistV, ptrSnsTmp, widgetType);
 830:Generated_Source\PSoC6/CapSense_Processing.c ****             #if (CapSense_ALP_FILTER_EN)
 831:Generated_Source\PSoC6/CapSense_Processing.c ****                 CapSense_ConfigRunALPInternal(fltrHistV, ptrRamWdgt, ptrSnsTmp, widgetType);
 832:Generated_Source\PSoC6/CapSense_Processing.c ****             #endif
 833:Generated_Source\PSoC6/CapSense_Processing.c ****         #endif /* #if (CapSense_ENABLE == CapSense_RC_FILTER_EN) */
 834:Generated_Source\PSoC6/CapSense_Processing.c **** 
 835:Generated_Source\PSoC6/CapSense_Processing.c ****         /* Run auto-tuning activities */
 836:Generated_Source\PSoC6/CapSense_Processing.c ****         #if (0u != (CapSense_CSD_AUTOTUNE & CapSense_CSD_SS_TH_EN))
 837:Generated_Source\PSoC6/CapSense_Processing.c ****             SmartSense_RunNoiseEnvelope(ptrSnsTmp->raw[0u], ptrRamWdgt->sigPFC, ptrNoiseEnvelope);
 838:Generated_Source\PSoC6/CapSense_Processing.c ****             CapSense_DpUpdateThresholds(ptrRamWdgt, ptrNoiseEnvelope, snsId);
 839:Generated_Source\PSoC6/CapSense_Processing.c **** 
 840:Generated_Source\PSoC6/CapSense_Processing.c ****             /* Calculate Proximity Touch Threshold in SmartSense mode based on Finger Threshold and
 841:Generated_Source\PSoC6/CapSense_Processing.c ****             #if (CapSense_ENABLE == CapSense_PROXIMITY_WIDGET_EN)
 842:Generated_Source\PSoC6/CapSense_Processing.c ****                 if (CapSense_WD_PROXIMITY_E == CapSense_GET_WIDGET_TYPE(ptrFlashWdgt))
 843:Generated_Source\PSoC6/CapSense_Processing.c ****                 {
 844:Generated_Source\PSoC6/CapSense_Processing.c ****                     proximityThreshold = ((uint32)ptrRamWdgt->fingerTh * CapSense_PROX_TOUCH_COEFF)
ARM GAS  C:\Users\PC\AppData\Local\Temp\ccQeYTXk.s 			page 19


 845:Generated_Source\PSoC6/CapSense_Processing.c ****                     if ((((1Lu) << CapSense_THRESHOLD_SIZE) - 1u) < proximityThreshold)
 846:Generated_Source\PSoC6/CapSense_Processing.c ****                     {
 847:Generated_Source\PSoC6/CapSense_Processing.c ****                         proximityThreshold = ((1Lu) << CapSense_THRESHOLD_SIZE) - 1u;
 848:Generated_Source\PSoC6/CapSense_Processing.c ****                     }
 849:Generated_Source\PSoC6/CapSense_Processing.c ****                     ((CapSense_RAM_WD_PROXIMITY_STRUCT *)ptrFlashWdgt->ptr2WdgtRam)->proxTouchTh =
 850:Generated_Source\PSoC6/CapSense_Processing.c ****                         (CapSense_THRESHOLD_TYPE)proximityThreshold;
 851:Generated_Source\PSoC6/CapSense_Processing.c ****                 }
 852:Generated_Source\PSoC6/CapSense_Processing.c ****             #endif /* (0 != CapSense_PROXIMITY_WIDGET_EN) */
 853:Generated_Source\PSoC6/CapSense_Processing.c **** 
 854:Generated_Source\PSoC6/CapSense_Processing.c ****             /* Move to next noise-envelope object */
 855:Generated_Source\PSoC6/CapSense_Processing.c ****             ptrNoiseEnvelope++;
 856:Generated_Source\PSoC6/CapSense_Processing.c ****         #endif /* (0u != (CapSense_CSD_AUTOTUNE & CapSense_CSD_SS_TH_EN)) */
 857:Generated_Source\PSoC6/CapSense_Processing.c **** 
 858:Generated_Source\PSoC6/CapSense_Processing.c ****         #if (CapSense_ENABLE == CapSense_TST_BSLN_DUPLICATION_EN)
 859:Generated_Source\PSoC6/CapSense_Processing.c ****             bslnTstResult = CapSense_FtUpdateBaseline(ptrRamWdgt, ptrSnsTmp, widgetType);
 860:Generated_Source\PSoC6/CapSense_Processing.c ****             if ((CY_RET_SUCCESS != bslnTstResult) && (CY_RET_SUCCESS == result))
 861:Generated_Source\PSoC6/CapSense_Processing.c ****             {
 862:Generated_Source\PSoC6/CapSense_Processing.c ****                 result = snsId | CapSense_PROCESS_BASELINE_FAILED;
 863:Generated_Source\PSoC6/CapSense_Processing.c ****             }
 864:Generated_Source\PSoC6/CapSense_Processing.c ****         #else /* (CapSense_ENABLE == CapSense_TST_BSLN_DUPLICATION_EN) */
 865:Generated_Source\PSoC6/CapSense_Processing.c ****             result = CapSense_FtUpdateBaseline(ptrRamWdgt, ptrSnsTmp, widgetType);
 866:Generated_Source\PSoC6/CapSense_Processing.c ****         #endif /* (CapSense_ENABLE == CapSense_TST_BSLN_DUPLICATION_EN) */
 867:Generated_Source\PSoC6/CapSense_Processing.c **** 
 868:Generated_Source\PSoC6/CapSense_Processing.c ****         CapSense_DpUpdateDifferences(ptrRamWdgt, ptrSnsTmp);
 869:Generated_Source\PSoC6/CapSense_Processing.c **** 
 870:Generated_Source\PSoC6/CapSense_Processing.c ****         /* Move to next sensor object */
 871:Generated_Source\PSoC6/CapSense_Processing.c ****         ptrSnsTmp++;
 872:Generated_Source\PSoC6/CapSense_Processing.c **** 
 873:Generated_Source\PSoC6/CapSense_Processing.c ****         #if (CapSense_ENABLE == CapSense_RC_FILTER_EN)
 874:Generated_Source\PSoC6/CapSense_Processing.c ****             /* Move to the next filter history object */
 875:Generated_Source\PSoC6/CapSense_Processing.c ****             CapSense_INC_FLTR_OBJ_VARIANT(isProxWdgt, fltrHistV);
 876:Generated_Source\PSoC6/CapSense_Processing.c ****         #endif /* #if (CapSense_ENABLE == CapSense_RC_FILTER_EN) */
 877:Generated_Source\PSoC6/CapSense_Processing.c ****     }
 878:Generated_Source\PSoC6/CapSense_Processing.c ****     return result;
 879:Generated_Source\PSoC6/CapSense_Processing.c **** }
 880:Generated_Source\PSoC6/CapSense_Processing.c **** 
 881:Generated_Source\PSoC6/CapSense_Processing.c **** 
 882:Generated_Source\PSoC6/CapSense_Processing.c **** /*******************************************************************************
 883:Generated_Source\PSoC6/CapSense_Processing.c **** * Function Name: CapSense_DpProcessCsdSensorRawCountsExt
 884:Generated_Source\PSoC6/CapSense_Processing.c **** ****************************************************************************//**
 885:Generated_Source\PSoC6/CapSense_Processing.c **** *
 886:Generated_Source\PSoC6/CapSense_Processing.c **** * \brief
 887:Generated_Source\PSoC6/CapSense_Processing.c **** *   Performs customized processing of the CSD sensor raw counts.
 888:Generated_Source\PSoC6/CapSense_Processing.c **** *
 889:Generated_Source\PSoC6/CapSense_Processing.c **** * \details
 890:Generated_Source\PSoC6/CapSense_Processing.c **** *   Performs customized processing of the CSD sensor raw counts.
 891:Generated_Source\PSoC6/CapSense_Processing.c **** *
 892:Generated_Source\PSoC6/CapSense_Processing.c **** *   Note that this API updates data associated only with the sensor. It cannot be used to update
 893:Generated_Source\PSoC6/CapSense_Processing.c **** *   widget status.
 894:Generated_Source\PSoC6/CapSense_Processing.c **** *
 895:Generated_Source\PSoC6/CapSense_Processing.c **** * \param ptrFlashWdgt The pointer to the Flash widget structure.
 896:Generated_Source\PSoC6/CapSense_Processing.c **** * \param curSnsPtr    The pointer to the sensor object in RAM.
 897:Generated_Source\PSoC6/CapSense_Processing.c **** * \param fltrHistV    The pointer to the Filter History Object in RAM.
 898:Generated_Source\PSoC6/CapSense_Processing.c **** * \param mode         The bit-mask with the data processing tasks to be executed.
 899:Generated_Source\PSoC6/CapSense_Processing.c **** *   The mode parameters can take the following values:
 900:Generated_Source\PSoC6/CapSense_Processing.c **** *    - CapSense_PROCESS_FILTER     (0x01) Run Firmware Filter
 901:Generated_Source\PSoC6/CapSense_Processing.c **** *    - CapSense_PROCESS_BASELINE   (0x02) Update Baselines
ARM GAS  C:\Users\PC\AppData\Local\Temp\ccQeYTXk.s 			page 20


 902:Generated_Source\PSoC6/CapSense_Processing.c **** *    - CapSense_PROCESS_DIFFCOUNTS (0x04) Update Difference Counts
 903:Generated_Source\PSoC6/CapSense_Processing.c **** *    - CapSense_PROCESS_CALC_NOISE (0x08) Calculate Noise (only if FW Tuning is enabled)
 904:Generated_Source\PSoC6/CapSense_Processing.c **** *    - CapSense_PROCESS_THRESHOLDS (0x10) Update Thresholds (only if FW Tuning is enabled)
 905:Generated_Source\PSoC6/CapSense_Processing.c **** *    - CapSense_PROCESS_ALL               Execute all tasks
 906:Generated_Source\PSoC6/CapSense_Processing.c **** *
 907:Generated_Source\PSoC6/CapSense_Processing.c **** * \return
 908:Generated_Source\PSoC6/CapSense_Processing.c **** *  Returns the status of the specified sensor processing operation:
 909:Generated_Source\PSoC6/CapSense_Processing.c **** *  - CY_RET_SUCCESS if operation was successfully completed;
 910:Generated_Source\PSoC6/CapSense_Processing.c **** *  - CapSense_PROCESS_BASELINE_FAILED if baseline processing of any
 911:Generated_Source\PSoC6/CapSense_Processing.c **** *    sensor of the specified widget failed. The result is concatenated with the index
 912:Generated_Source\PSoC6/CapSense_Processing.c **** *    of failed sensor.
 913:Generated_Source\PSoC6/CapSense_Processing.c **** *
 914:Generated_Source\PSoC6/CapSense_Processing.c **** *******************************************************************************/
 915:Generated_Source\PSoC6/CapSense_Processing.c **** uint32 CapSense_DpProcessCsdSensorRawCountsExt(
 916:Generated_Source\PSoC6/CapSense_Processing.c ****                 CapSense_FLASH_WD_STRUCT const *ptrFlashWdgt,
 917:Generated_Source\PSoC6/CapSense_Processing.c ****                 CapSense_RAM_SNS_STRUCT *curSnsPtr,
 918:Generated_Source\PSoC6/CapSense_Processing.c ****                 CapSense_PTR_FILTER_VARIANT fltrHistV,
 919:Generated_Source\PSoC6/CapSense_Processing.c ****                  uint32 mode)
 920:Generated_Source\PSoC6/CapSense_Processing.c **** {
 921:Generated_Source\PSoC6/CapSense_Processing.c ****     uint32 result = CY_RET_SUCCESS;
 922:Generated_Source\PSoC6/CapSense_Processing.c ****     uint32  widgetType;
 923:Generated_Source\PSoC6/CapSense_Processing.c ****     CapSense_RAM_WD_BASE_STRUCT *ptrRamWdgt;
 924:Generated_Source\PSoC6/CapSense_Processing.c **** 
 925:Generated_Source\PSoC6/CapSense_Processing.c ****     #if (0u != (CapSense_CSD_AUTOTUNE & CapSense_CSD_SS_TH_EN))
 926:Generated_Source\PSoC6/CapSense_Processing.c ****         SMARTSENSE_CSD_NOISE_ENVELOPE_STRUCT *ptrNoiseEnvelope;
 927:Generated_Source\PSoC6/CapSense_Processing.c ****         #if (CapSense_ENABLE == CapSense_PROXIMITY_WIDGET_EN)
 928:Generated_Source\PSoC6/CapSense_Processing.c ****             uint32  proximityThreshold;
 929:Generated_Source\PSoC6/CapSense_Processing.c ****         #endif /* (0 != CapSense_PROXIMITY_WIDGET_EN) */
 930:Generated_Source\PSoC6/CapSense_Processing.c **** 
 931:Generated_Source\PSoC6/CapSense_Processing.c ****         /* Need to specify pointer to corresponding sensor's noise-envelope object.*/
 932:Generated_Source\PSoC6/CapSense_Processing.c ****         ptrNoiseEnvelope = ptrFlashWdgt->ptr2NoiseEnvlp;
 933:Generated_Source\PSoC6/CapSense_Processing.c ****     #endif /* (0u != (CapSense_CSD_AUTOTUNE & CapSense_CSD_SS_TH_EN)) */
 934:Generated_Source\PSoC6/CapSense_Processing.c **** 
 935:Generated_Source\PSoC6/CapSense_Processing.c ****     widgetType = ptrFlashWdgt->wdgtType;
 936:Generated_Source\PSoC6/CapSense_Processing.c ****     ptrRamWdgt = (CapSense_RAM_WD_BASE_STRUCT *)ptrFlashWdgt->ptr2WdgtRam;
 937:Generated_Source\PSoC6/CapSense_Processing.c **** 
 938:Generated_Source\PSoC6/CapSense_Processing.c ****     #if (CapSense_ENABLE == CapSense_RC_FILTER_EN)
 939:Generated_Source\PSoC6/CapSense_Processing.c ****         if (0u != (mode & CapSense_PROCESS_FILTER))
 940:Generated_Source\PSoC6/CapSense_Processing.c ****         {
 941:Generated_Source\PSoC6/CapSense_Processing.c ****             CapSense_FtRunEnabledFiltersInternal(fltrHistV, curSnsPtr, widgetType);
 942:Generated_Source\PSoC6/CapSense_Processing.c ****             #if (CapSense_ALP_FILTER_EN)
 943:Generated_Source\PSoC6/CapSense_Processing.c ****                 CapSense_ConfigRunALPInternal(fltrHistV, ptrRamWdgt, curSnsPtr, widgetType);
 944:Generated_Source\PSoC6/CapSense_Processing.c ****             #endif
 945:Generated_Source\PSoC6/CapSense_Processing.c ****         }
 946:Generated_Source\PSoC6/CapSense_Processing.c ****     #else
 947:Generated_Source\PSoC6/CapSense_Processing.c ****         (void)fltrHistV; /* This parameter is unused in such configurations */
 948:Generated_Source\PSoC6/CapSense_Processing.c ****     #endif /* #if (CapSense_ENABLE == CapSense_RC_FILTER_EN) */
 949:Generated_Source\PSoC6/CapSense_Processing.c **** 
 950:Generated_Source\PSoC6/CapSense_Processing.c ****     #if (0u != (CapSense_CSD_AUTOTUNE & CapSense_CSD_SS_TH_EN))
 951:Generated_Source\PSoC6/CapSense_Processing.c ****         if (0u != (mode & CapSense_PROCESS_CALC_NOISE))
 952:Generated_Source\PSoC6/CapSense_Processing.c ****         {
 953:Generated_Source\PSoC6/CapSense_Processing.c ****             SmartSense_RunNoiseEnvelope(curSnsPtr->raw[0u], ptrRamWdgt->sigPFC, ptrNoiseEnvelope);
 954:Generated_Source\PSoC6/CapSense_Processing.c ****         }
 955:Generated_Source\PSoC6/CapSense_Processing.c **** 
 956:Generated_Source\PSoC6/CapSense_Processing.c ****         if (0u != (mode & CapSense_PROCESS_THRESHOLDS))
 957:Generated_Source\PSoC6/CapSense_Processing.c ****         {
 958:Generated_Source\PSoC6/CapSense_Processing.c ****             CapSense_DpUpdateThresholds(ptrRamWdgt, ptrNoiseEnvelope, 0u);
ARM GAS  C:\Users\PC\AppData\Local\Temp\ccQeYTXk.s 			page 21


 959:Generated_Source\PSoC6/CapSense_Processing.c **** 
 960:Generated_Source\PSoC6/CapSense_Processing.c ****             /* Calculate Proximity Touch Threshold in SmartSense mode based on Finger Threshold and
 961:Generated_Source\PSoC6/CapSense_Processing.c ****             #if (CapSense_ENABLE == CapSense_PROXIMITY_WIDGET_EN)
 962:Generated_Source\PSoC6/CapSense_Processing.c ****                 if (CapSense_WD_PROXIMITY_E == CapSense_GET_WIDGET_TYPE(ptrFlashWdgt))
 963:Generated_Source\PSoC6/CapSense_Processing.c ****                 {
 964:Generated_Source\PSoC6/CapSense_Processing.c ****                     proximityThreshold = ((uint32)ptrRamWdgt->fingerTh * CapSense_PROX_TOUCH_COEFF)
 965:Generated_Source\PSoC6/CapSense_Processing.c ****                     if ((((1Lu) << CapSense_THRESHOLD_SIZE) - 1u) < proximityThreshold)
 966:Generated_Source\PSoC6/CapSense_Processing.c ****                     {
 967:Generated_Source\PSoC6/CapSense_Processing.c ****                         proximityThreshold = ((1Lu) << CapSense_THRESHOLD_SIZE) - 1u;
 968:Generated_Source\PSoC6/CapSense_Processing.c ****                     }
 969:Generated_Source\PSoC6/CapSense_Processing.c ****                     ((CapSense_RAM_WD_PROXIMITY_STRUCT *)ptrFlashWdgt->ptr2WdgtRam)->proxTouchTh =
 970:Generated_Source\PSoC6/CapSense_Processing.c ****                         (CapSense_THRESHOLD_TYPE)proximityThreshold;
 971:Generated_Source\PSoC6/CapSense_Processing.c ****                 }
 972:Generated_Source\PSoC6/CapSense_Processing.c ****             #endif /* (0 != CapSense_PROXIMITY_WIDGET_EN) */
 973:Generated_Source\PSoC6/CapSense_Processing.c ****         }
 974:Generated_Source\PSoC6/CapSense_Processing.c ****     #endif /* #if (0u != (CapSense_CSD_AUTOTUNE & CapSense_CSD_SS_TH_EN)) */
 975:Generated_Source\PSoC6/CapSense_Processing.c **** 
 976:Generated_Source\PSoC6/CapSense_Processing.c ****     if (0u != (mode & CapSense_PROCESS_BASELINE))
 977:Generated_Source\PSoC6/CapSense_Processing.c ****     {
 978:Generated_Source\PSoC6/CapSense_Processing.c ****         result = CapSense_FtUpdateBaseline(ptrRamWdgt, curSnsPtr, widgetType);
 979:Generated_Source\PSoC6/CapSense_Processing.c ****     }
 980:Generated_Source\PSoC6/CapSense_Processing.c **** 
 981:Generated_Source\PSoC6/CapSense_Processing.c ****     if (0u != (mode & CapSense_PROCESS_DIFFCOUNTS))
 982:Generated_Source\PSoC6/CapSense_Processing.c ****     {
 983:Generated_Source\PSoC6/CapSense_Processing.c ****         CapSense_DpUpdateDifferences(ptrRamWdgt, curSnsPtr);
 984:Generated_Source\PSoC6/CapSense_Processing.c ****     }
 985:Generated_Source\PSoC6/CapSense_Processing.c ****     return result;
 986:Generated_Source\PSoC6/CapSense_Processing.c **** }
 987:Generated_Source\PSoC6/CapSense_Processing.c **** 
 988:Generated_Source\PSoC6/CapSense_Processing.c **** /*******************************************************************************
 989:Generated_Source\PSoC6/CapSense_Processing.c **** * Function Name: CapSense_DpProcessCsdWidgetStatus
 990:Generated_Source\PSoC6/CapSense_Processing.c **** ****************************************************************************//**
 991:Generated_Source\PSoC6/CapSense_Processing.c **** *
 992:Generated_Source\PSoC6/CapSense_Processing.c **** * \brief
 993:Generated_Source\PSoC6/CapSense_Processing.c **** *  Runs the status processing of the CSD widget and updates it in the Data Structure.
 994:Generated_Source\PSoC6/CapSense_Processing.c **** *
 995:Generated_Source\PSoC6/CapSense_Processing.c **** * \details
 996:Generated_Source\PSoC6/CapSense_Processing.c **** *  This API determines the widget type and calls the appropriate low-level processing
 997:Generated_Source\PSoC6/CapSense_Processing.c **** *  function. Based on the returned results it updates the widget and sensor
 998:Generated_Source\PSoC6/CapSense_Processing.c **** *  status in the data structure. Any widget specific registers like the centroid
 999:Generated_Source\PSoC6/CapSense_Processing.c **** *  position are updated directly in the low-level processing function.
1000:Generated_Source\PSoC6/CapSense_Processing.c **** *
1001:Generated_Source\PSoC6/CapSense_Processing.c **** *  When the widget-specific processing completes this API updates the snsStatus
1002:Generated_Source\PSoC6/CapSense_Processing.c **** *  and wdgtStatus registers in the data structure. The wdgtStatus register
1003:Generated_Source\PSoC6/CapSense_Processing.c **** *  is a bitmask were each bit corresponds to the specific widget identified by
1004:Generated_Source\PSoC6/CapSense_Processing.c **** *  the widget index. When the bit is set the widget is active (touched);
1005:Generated_Source\PSoC6/CapSense_Processing.c **** *
1006:Generated_Source\PSoC6/CapSense_Processing.c **** *  The snsStatus register for CSD widgets contains status of each widget sensor
1007:Generated_Source\PSoC6/CapSense_Processing.c **** *  (active/non-active). Each bit corresponds to one sensor. In case of the
1008:Generated_Source\PSoC6/CapSense_Processing.c **** *  Proximity widget two bits are used per sensor: one for proximity status and
1009:Generated_Source\PSoC6/CapSense_Processing.c **** *  second for the touch status.
1010:Generated_Source\PSoC6/CapSense_Processing.c **** *
1011:Generated_Source\PSoC6/CapSense_Processing.c **** * \param widgetId      The widget index number.
1012:Generated_Source\PSoC6/CapSense_Processing.c **** * \param ptrFlashWdgt  The pointer to the Flash widget structure.
1013:Generated_Source\PSoC6/CapSense_Processing.c **** *
1014:Generated_Source\PSoC6/CapSense_Processing.c **** *******************************************************************************/
1015:Generated_Source\PSoC6/CapSense_Processing.c **** void CapSense_DpProcessCsdWidgetStatus(uint32 widgetId, CapSense_FLASH_WD_STRUCT const *ptrFlashWdg
ARM GAS  C:\Users\PC\AppData\Local\Temp\ccQeYTXk.s 			page 22


1016:Generated_Source\PSoC6/CapSense_Processing.c **** {
1017:Generated_Source\PSoC6/CapSense_Processing.c ****     uint32 sensorStatus;
1018:Generated_Source\PSoC6/CapSense_Processing.c ****     uint32 wdStatusIndex;
1019:Generated_Source\PSoC6/CapSense_Processing.c ****     uint32 wdStatusMask;
1020:Generated_Source\PSoC6/CapSense_Processing.c ****     CapSense_WD_TYPE_ENUM widgetType;
1021:Generated_Source\PSoC6/CapSense_Processing.c **** 
1022:Generated_Source\PSoC6/CapSense_Processing.c ****     widgetType = (CapSense_WD_TYPE_ENUM)ptrFlashWdgt->wdgtType;
1023:Generated_Source\PSoC6/CapSense_Processing.c ****     sensorStatus = CapSense_dsRam.snsStatus[widgetId];
1024:Generated_Source\PSoC6/CapSense_Processing.c **** 
1025:Generated_Source\PSoC6/CapSense_Processing.c ****     switch (widgetType)
1026:Generated_Source\PSoC6/CapSense_Processing.c ****     {
1027:Generated_Source\PSoC6/CapSense_Processing.c ****     #if (0u != CapSense_BUTTON_WIDGET_EN)
1028:Generated_Source\PSoC6/CapSense_Processing.c ****         case CapSense_WD_BUTTON_E:
1029:Generated_Source\PSoC6/CapSense_Processing.c ****             sensorStatus = CapSense_DpProcessButton(sensorStatus, ptrFlashWdgt);
1030:Generated_Source\PSoC6/CapSense_Processing.c ****             break;
1031:Generated_Source\PSoC6/CapSense_Processing.c ****     #endif /* #if (0u != CapSense_BUTTON_WIDGET_EN) */
1032:Generated_Source\PSoC6/CapSense_Processing.c **** 
1033:Generated_Source\PSoC6/CapSense_Processing.c ****     #if (0u != CapSense_SLIDER_WIDGET_EN)
1034:Generated_Source\PSoC6/CapSense_Processing.c ****         case CapSense_WD_LINEAR_SLIDER_E:
1035:Generated_Source\PSoC6/CapSense_Processing.c ****         case CapSense_WD_RADIAL_SLIDER_E:
1036:Generated_Source\PSoC6/CapSense_Processing.c ****             sensorStatus = CapSense_DpProcessSlider(sensorStatus, ptrFlashWdgt);
1037:Generated_Source\PSoC6/CapSense_Processing.c ****             break;
1038:Generated_Source\PSoC6/CapSense_Processing.c ****     #endif /* #if (0u != CapSense_SLIDER_WIDGET_EN) */
1039:Generated_Source\PSoC6/CapSense_Processing.c **** 
1040:Generated_Source\PSoC6/CapSense_Processing.c ****     #if (0u != CapSense_CSD_MATRIX_WIDGET_EN)
1041:Generated_Source\PSoC6/CapSense_Processing.c ****         case CapSense_WD_MATRIX_BUTTON_E:
1042:Generated_Source\PSoC6/CapSense_Processing.c ****             sensorStatus = CapSense_DpProcessCsdMatrix(sensorStatus, ptrFlashWdgt);
1043:Generated_Source\PSoC6/CapSense_Processing.c ****             break;
1044:Generated_Source\PSoC6/CapSense_Processing.c ****     #endif /* #if (0u != CapSense_CSD_MATRIX_WIDGET_EN) */
1045:Generated_Source\PSoC6/CapSense_Processing.c **** 
1046:Generated_Source\PSoC6/CapSense_Processing.c ****     #if (0u != CapSense_CSD_TOUCHPAD_WIDGET_EN)
1047:Generated_Source\PSoC6/CapSense_Processing.c ****         case CapSense_WD_TOUCHPAD_E:
1048:Generated_Source\PSoC6/CapSense_Processing.c ****             sensorStatus = CapSense_DpProcessCsdTouchpad(sensorStatus, ptrFlashWdgt);
1049:Generated_Source\PSoC6/CapSense_Processing.c ****             #if (0u != CapSense_BALLISTIC_MULTIPLIER_EN)
1050:Generated_Source\PSoC6/CapSense_Processing.c ****                 CapSense_RunBallisticMultiplier(widgetId);
1051:Generated_Source\PSoC6/CapSense_Processing.c ****             #endif /* (0u != CapSense_BALLISTIC_MULTIPLIER_EN) */
1052:Generated_Source\PSoC6/CapSense_Processing.c ****             break;
1053:Generated_Source\PSoC6/CapSense_Processing.c ****     #endif /* #if (0u != CapSense_CSD_TOUCHPAD_WIDGET_EN) */
1054:Generated_Source\PSoC6/CapSense_Processing.c **** 
1055:Generated_Source\PSoC6/CapSense_Processing.c ****     #if (0u != CapSense_PROXIMITY_WIDGET_EN)
1056:Generated_Source\PSoC6/CapSense_Processing.c ****         case CapSense_WD_PROXIMITY_E:
1057:Generated_Source\PSoC6/CapSense_Processing.c ****             sensorStatus = CapSense_DpProcessProximity(sensorStatus, ptrFlashWdgt);
1058:Generated_Source\PSoC6/CapSense_Processing.c ****             break;
1059:Generated_Source\PSoC6/CapSense_Processing.c ****     #endif /* #if (0u != CapSense_PROXIMITY_WIDGET_EN) */
1060:Generated_Source\PSoC6/CapSense_Processing.c **** 
1061:Generated_Source\PSoC6/CapSense_Processing.c ****     default:
1062:Generated_Source\PSoC6/CapSense_Processing.c ****         CY_ASSERT(0 != 0);
1063:Generated_Source\PSoC6/CapSense_Processing.c ****         break;
1064:Generated_Source\PSoC6/CapSense_Processing.c ****     }
1065:Generated_Source\PSoC6/CapSense_Processing.c **** 
1066:Generated_Source\PSoC6/CapSense_Processing.c ****     CapSense_dsRam.snsStatus[widgetId] = (CapSense_SNS_STS_TYPE)sensorStatus;
1067:Generated_Source\PSoC6/CapSense_Processing.c **** 
1068:Generated_Source\PSoC6/CapSense_Processing.c ****     /* The next two lines calculate index and bitmask of the widget status bit in the wdgtStatus ar
1069:Generated_Source\PSoC6/CapSense_Processing.c ****     wdStatusIndex = CapSense_GET_WDGT_STATUS_INDEX(widgetId);
1070:Generated_Source\PSoC6/CapSense_Processing.c ****     wdStatusMask = CapSense_GET_WDGT_STATUS_MASK(widgetId);
1071:Generated_Source\PSoC6/CapSense_Processing.c **** 
1072:Generated_Source\PSoC6/CapSense_Processing.c ****     /* Check if there are active sensors and update widget status accordingly */
ARM GAS  C:\Users\PC\AppData\Local\Temp\ccQeYTXk.s 			page 23


1073:Generated_Source\PSoC6/CapSense_Processing.c ****     if (0u == sensorStatus)
1074:Generated_Source\PSoC6/CapSense_Processing.c ****     {
1075:Generated_Source\PSoC6/CapSense_Processing.c ****         CapSense_dsRam.wdgtStatus[wdStatusIndex] &= ~wdStatusMask;
1076:Generated_Source\PSoC6/CapSense_Processing.c ****     }
1077:Generated_Source\PSoC6/CapSense_Processing.c ****     else
1078:Generated_Source\PSoC6/CapSense_Processing.c ****     {
1079:Generated_Source\PSoC6/CapSense_Processing.c ****         CapSense_dsRam.wdgtStatus[wdStatusIndex] |= wdStatusMask;
1080:Generated_Source\PSoC6/CapSense_Processing.c ****     }
1081:Generated_Source\PSoC6/CapSense_Processing.c **** }
1082:Generated_Source\PSoC6/CapSense_Processing.c **** #endif /* #if (0u != CapSense_TOTAL_CSD_WIDGETS) */
1083:Generated_Source\PSoC6/CapSense_Processing.c **** 
1084:Generated_Source\PSoC6/CapSense_Processing.c **** 
1085:Generated_Source\PSoC6/CapSense_Processing.c **** #if (0 != (CapSense_CSD_AUTOTUNE & CapSense_CSD_SS_TH_EN))
1086:Generated_Source\PSoC6/CapSense_Processing.c **** /*******************************************************************************
1087:Generated_Source\PSoC6/CapSense_Processing.c **** * Function Name: CapSense_DpUpdateThresholds
1088:Generated_Source\PSoC6/CapSense_Processing.c **** ****************************************************************************//**
1089:Generated_Source\PSoC6/CapSense_Processing.c **** *
1090:Generated_Source\PSoC6/CapSense_Processing.c **** * \brief
1091:Generated_Source\PSoC6/CapSense_Processing.c **** *   Updates noise and finger thresholds for a specified widget.
1092:Generated_Source\PSoC6/CapSense_Processing.c **** *
1093:Generated_Source\PSoC6/CapSense_Processing.c **** * \details
1094:Generated_Source\PSoC6/CapSense_Processing.c **** *   Updates noise and finger thresholds for a specified widget.
1095:Generated_Source\PSoC6/CapSense_Processing.c **** *   This algorithm is a part of Auto-tuning feature.
1096:Generated_Source\PSoC6/CapSense_Processing.c **** *
1097:Generated_Source\PSoC6/CapSense_Processing.c **** * \param ptrRamWdgt       The pointer to the RAM widget object.
1098:Generated_Source\PSoC6/CapSense_Processing.c **** * \param ptrNoiseEnvelope The pointer to the noise-envelope object in RAM.
1099:Generated_Source\PSoC6/CapSense_Processing.c **** * \param startFlag        The flag indicates when new widget is processed.
1100:Generated_Source\PSoC6/CapSense_Processing.c **** *
1101:Generated_Source\PSoC6/CapSense_Processing.c **** *******************************************************************************/
1102:Generated_Source\PSoC6/CapSense_Processing.c **** void CapSense_DpUpdateThresholds(CapSense_RAM_WD_BASE_STRUCT *ptrRamWdgt,
1103:Generated_Source\PSoC6/CapSense_Processing.c ****                                          SMARTSENSE_CSD_NOISE_ENVELOPE_STRUCT *ptrNoiseEnvelope,
1104:Generated_Source\PSoC6/CapSense_Processing.c ****                                          uint32 startFlag)
1105:Generated_Source\PSoC6/CapSense_Processing.c **** {
 174              		.loc 1 1105 0
 175              		.cfi_startproc
 176              		@ args = 0, pretend = 0, frame = 8
 177              		@ frame_needed = 0, uses_anonymous_args = 0
 178              	.LVL21:
 179 0000 10B5     		push	{r4, lr}
 180              		.cfi_def_cfa_offset 8
 181              		.cfi_offset 4, -8
 182              		.cfi_offset 14, -4
 183 0002 82B0     		sub	sp, sp, #8
 184              		.cfi_def_cfa_offset 16
 185 0004 0400     		movs	r4, r0
 186 0006 0800     		movs	r0, r1
 187              	.LVL22:
 188 0008 1300     		movs	r3, r2
 189              	.LVL23:
1106:Generated_Source\PSoC6/CapSense_Processing.c ****     SMARTSENSE_UPDATE_THRESHOLDS_STRUCT thresholds;
1107:Generated_Source\PSoC6/CapSense_Processing.c ****     SMARTSENSE_UPDATE_THRESHOLDS_STRUCT *ptrThresholds = &thresholds;
1108:Generated_Source\PSoC6/CapSense_Processing.c ****     ptrThresholds->fingerTh = ptrRamWdgt->fingerTh;
 190              		.loc 1 1108 0
 191 000a 6288     		ldrh	r2, [r4, #2]
 192              	.LVL24:
 193 000c 6946     		mov	r1, sp
 194              	.LVL25:
ARM GAS  C:\Users\PC\AppData\Local\Temp\ccQeYTXk.s 			page 24


 195 000e 0A80     		strh	r2, [r1]
1109:Generated_Source\PSoC6/CapSense_Processing.c **** 
1110:Generated_Source\PSoC6/CapSense_Processing.c ****     SmartSense_UpdateThresholds(ptrNoiseEnvelope, ptrThresholds, ptrRamWdgt->sigPFC, startFlag);
 196              		.loc 1 1110 0
 197 0010 228A     		ldrh	r2, [r4, #16]
 198 0012 FFF7FEFF 		bl	SmartSense_UpdateThresholds
 199              	.LVL26:
1111:Generated_Source\PSoC6/CapSense_Processing.c **** 
1112:Generated_Source\PSoC6/CapSense_Processing.c ****     ptrRamWdgt->fingerTh = ptrThresholds->fingerTh;
 200              		.loc 1 1112 0
 201 0016 6B46     		mov	r3, sp
 202 0018 1B88     		ldrh	r3, [r3]
 203 001a 6380     		strh	r3, [r4, #2]
1113:Generated_Source\PSoC6/CapSense_Processing.c ****     ptrRamWdgt->noiseTh = ptrThresholds->noiseTh;
 204              		.loc 1 1113 0
 205 001c 6B46     		mov	r3, sp
 206 001e 9B78     		ldrb	r3, [r3, #2]
 207 0020 2371     		strb	r3, [r4, #4]
1114:Generated_Source\PSoC6/CapSense_Processing.c ****     ptrRamWdgt->nNoiseTh = ptrThresholds->nNoiseTh;
 208              		.loc 1 1114 0
 209 0022 6B46     		mov	r3, sp
 210 0024 DB78     		ldrb	r3, [r3, #3]
 211 0026 6371     		strb	r3, [r4, #5]
1115:Generated_Source\PSoC6/CapSense_Processing.c ****     ptrRamWdgt->hysteresis = ptrThresholds->hysteresis;
 212              		.loc 1 1115 0
 213 0028 6B46     		mov	r3, sp
 214 002a 1B79     		ldrb	r3, [r3, #4]
 215 002c A371     		strb	r3, [r4, #6]
1116:Generated_Source\PSoC6/CapSense_Processing.c **** }
 216              		.loc 1 1116 0
 217 002e 02B0     		add	sp, sp, #8
 218              	.LVL27:
 219              		@ sp needed
 220              	.LVL28:
 221 0030 10BD     		pop	{r4, pc}
 222              		.cfi_endproc
 223              	.LFE53:
 224              		.size	CapSense_DpUpdateThresholds, .-CapSense_DpUpdateThresholds
 225 0032 C046     		.section	.text.CapSense_DpUpdateDifferences,"ax",%progbits
 226              		.align	2
 227              		.global	CapSense_DpUpdateDifferences
 228              		.code	16
 229              		.thumb_func
 230              		.type	CapSense_DpUpdateDifferences, %function
 231              	CapSense_DpUpdateDifferences:
 232              	.LFB54:
1117:Generated_Source\PSoC6/CapSense_Processing.c **** #endif /* #if (0u != (CapSense_CSD_AUTOTUNE & CapSense_CSD_SS_TH_EN)) */
1118:Generated_Source\PSoC6/CapSense_Processing.c **** 
1119:Generated_Source\PSoC6/CapSense_Processing.c **** 
1120:Generated_Source\PSoC6/CapSense_Processing.c **** /*******************************************************************************
1121:Generated_Source\PSoC6/CapSense_Processing.c **** * Function Name: CapSense_DpUpdateDifferences
1122:Generated_Source\PSoC6/CapSense_Processing.c **** ****************************************************************************//**
1123:Generated_Source\PSoC6/CapSense_Processing.c **** *
1124:Generated_Source\PSoC6/CapSense_Processing.c **** * \brief
1125:Generated_Source\PSoC6/CapSense_Processing.c **** *   Calculates new difference values.
1126:Generated_Source\PSoC6/CapSense_Processing.c **** *   Also, executes the multi-frequency scan algorithm if it is enabled.
1127:Generated_Source\PSoC6/CapSense_Processing.c **** *
ARM GAS  C:\Users\PC\AppData\Local\Temp\ccQeYTXk.s 			page 25


1128:Generated_Source\PSoC6/CapSense_Processing.c **** * \details
1129:Generated_Source\PSoC6/CapSense_Processing.c **** *   This API calculates the difference between the baseline and raw counts.
1130:Generated_Source\PSoC6/CapSense_Processing.c **** *   If the difference is positive (raw > baseline), and higher than the widget
1131:Generated_Source\PSoC6/CapSense_Processing.c **** *   noise threshold, it is saved into the data structure for further processing.
1132:Generated_Source\PSoC6/CapSense_Processing.c **** *   Otherwise the difference is set to zero. The final difference value is saved
1133:Generated_Source\PSoC6/CapSense_Processing.c **** *   with the subtracted noise threshold value.
1134:Generated_Source\PSoC6/CapSense_Processing.c **** *
1135:Generated_Source\PSoC6/CapSense_Processing.c **** *   If the multi-frequency scan algorithm is enabled, the difference is calculated
1136:Generated_Source\PSoC6/CapSense_Processing.c **** *   for the three sets of data available for each sensor. Then
1137:Generated_Source\PSoC6/CapSense_Processing.c **** *   the median filter selects the final difference value.
1138:Generated_Source\PSoC6/CapSense_Processing.c **** *
1139:Generated_Source\PSoC6/CapSense_Processing.c **** * \param ptrRamWdgt The pointer to the RAR Widget Object.
1140:Generated_Source\PSoC6/CapSense_Processing.c **** * \param curSnsPtr  The pointer to the sensor object in RAM.
1141:Generated_Source\PSoC6/CapSense_Processing.c **** *
1142:Generated_Source\PSoC6/CapSense_Processing.c **** *******************************************************************************/
1143:Generated_Source\PSoC6/CapSense_Processing.c **** void CapSense_DpUpdateDifferences(
1144:Generated_Source\PSoC6/CapSense_Processing.c ****                         CapSense_RAM_WD_BASE_STRUCT *ptrRamWdgt,
1145:Generated_Source\PSoC6/CapSense_Processing.c ****                         CapSense_RAM_SNS_STRUCT *curSnsPtr)
1146:Generated_Source\PSoC6/CapSense_Processing.c **** {
 233              		.loc 1 1146 0
 234              		.cfi_startproc
 235              		@ args = 0, pretend = 0, frame = 0
 236              		@ frame_needed = 0, uses_anonymous_args = 0
 237              	.LVL29:
 238 0000 30B5     		push	{r4, r5, lr}
 239              		.cfi_def_cfa_offset 12
 240              		.cfi_offset 4, -12
 241              		.cfi_offset 5, -8
 242              		.cfi_offset 14, -4
 243              	.LVL30:
1147:Generated_Source\PSoC6/CapSense_Processing.c ****     register int32 diffValue = 0;
1148:Generated_Source\PSoC6/CapSense_Processing.c **** 
1149:Generated_Source\PSoC6/CapSense_Processing.c ****     #if (0u != CapSense_MULTI_FREQ_SCAN_EN)
1150:Generated_Source\PSoC6/CapSense_Processing.c ****         register int32 diffValue_0 = 0;
1151:Generated_Source\PSoC6/CapSense_Processing.c ****         register int32 diffValue_2 = 0;
1152:Generated_Source\PSoC6/CapSense_Processing.c ****     #endif /* #if (0u != CapSense_MULTI_FREQ_SCAN_EN) */
1153:Generated_Source\PSoC6/CapSense_Processing.c **** 
1154:Generated_Source\PSoC6/CapSense_Processing.c ****     /* Calculate difference */
1155:Generated_Source\PSoC6/CapSense_Processing.c ****     diffValue = (int32)curSnsPtr->raw[0u] - (int32)curSnsPtr->bsln[0u];
 244              		.loc 1 1155 0
 245 0002 0B88     		ldrh	r3, [r1]
 246 0004 4A88     		ldrh	r2, [r1, #2]
 247 0006 9C1A     		subs	r4, r3, r2
 248              	.LVL31:
1156:Generated_Source\PSoC6/CapSense_Processing.c **** 
1157:Generated_Source\PSoC6/CapSense_Processing.c ****     #if (0u != CapSense_MULTI_FREQ_SCAN_EN)
1158:Generated_Source\PSoC6/CapSense_Processing.c ****         diffValue_0 = (int32)curSnsPtr->raw[1u] - (int32)curSnsPtr->bsln[1u];
1159:Generated_Source\PSoC6/CapSense_Processing.c ****         diffValue_2 = (int32)curSnsPtr->raw[2u] - (int32)curSnsPtr->bsln[2u];
1160:Generated_Source\PSoC6/CapSense_Processing.c **** 
1161:Generated_Source\PSoC6/CapSense_Processing.c ****         /* Find median and put it into [0u] element */
1162:Generated_Source\PSoC6/CapSense_Processing.c ****         if (diffValue_0 > diffValue)
1163:Generated_Source\PSoC6/CapSense_Processing.c ****         {
1164:Generated_Source\PSoC6/CapSense_Processing.c ****             register int32 swapv = diffValue_0;
1165:Generated_Source\PSoC6/CapSense_Processing.c ****             diffValue_0 = diffValue;
1166:Generated_Source\PSoC6/CapSense_Processing.c ****             diffValue = swapv;
1167:Generated_Source\PSoC6/CapSense_Processing.c ****         }
1168:Generated_Source\PSoC6/CapSense_Processing.c **** 
ARM GAS  C:\Users\PC\AppData\Local\Temp\ccQeYTXk.s 			page 26


1169:Generated_Source\PSoC6/CapSense_Processing.c ****         if (diffValue > diffValue_2)
1170:Generated_Source\PSoC6/CapSense_Processing.c ****         {
1171:Generated_Source\PSoC6/CapSense_Processing.c ****             register int32 swapv = diffValue;
1172:Generated_Source\PSoC6/CapSense_Processing.c ****             diffValue = diffValue_2;
1173:Generated_Source\PSoC6/CapSense_Processing.c ****             diffValue_2 = swapv;
1174:Generated_Source\PSoC6/CapSense_Processing.c ****         }
1175:Generated_Source\PSoC6/CapSense_Processing.c **** 
1176:Generated_Source\PSoC6/CapSense_Processing.c ****         if (diffValue_0 > diffValue)
1177:Generated_Source\PSoC6/CapSense_Processing.c ****         {
1178:Generated_Source\PSoC6/CapSense_Processing.c ****             register int32 swapv = diffValue_0;
1179:Generated_Source\PSoC6/CapSense_Processing.c ****             diffValue_0 = diffValue;
1180:Generated_Source\PSoC6/CapSense_Processing.c ****             diffValue = swapv;
1181:Generated_Source\PSoC6/CapSense_Processing.c ****         }
1182:Generated_Source\PSoC6/CapSense_Processing.c ****     #endif /* #if (0u != CapSense_MULTI_FREQ_SCAN_EN) */
1183:Generated_Source\PSoC6/CapSense_Processing.c **** 
1184:Generated_Source\PSoC6/CapSense_Processing.c ****     curSnsPtr->diff = 0u;
 249              		.loc 1 1184 0
 250 0008 0025     		movs	r5, #0
 251 000a CD80     		strh	r5, [r1, #6]
1185:Generated_Source\PSoC6/CapSense_Processing.c **** 
1186:Generated_Source\PSoC6/CapSense_Processing.c ****     if (diffValue > (int32)ptrRamWdgt->noiseTh)
 252              		.loc 1 1186 0
 253 000c 0079     		ldrb	r0, [r0, #4]
 254              	.LVL32:
 255 000e 8442     		cmp	r4, r0
 256 0010 00DD     		ble	.L16
1187:Generated_Source\PSoC6/CapSense_Processing.c ****     {
1188:Generated_Source\PSoC6/CapSense_Processing.c ****         curSnsPtr->diff = (CapSense_THRESHOLD_TYPE) diffValue;
 257              		.loc 1 1188 0
 258 0012 CC80     		strh	r4, [r1, #6]
 259              	.L16:
1189:Generated_Source\PSoC6/CapSense_Processing.c ****     }
1190:Generated_Source\PSoC6/CapSense_Processing.c **** }
 260              		.loc 1 1190 0
 261              		@ sp needed
 262              	.LVL33:
 263 0014 30BD     		pop	{r4, r5, pc}
 264              		.cfi_endproc
 265              	.LFE54:
 266              		.size	CapSense_DpUpdateDifferences, .-CapSense_DpUpdateDifferences
 267 0016 C046     		.section	.text.CapSense_DpProcessCsxWidgetRawCounts,"ax",%progbits
 268              		.align	2
 269              		.global	CapSense_DpProcessCsxWidgetRawCounts
 270              		.code	16
 271              		.thumb_func
 272              		.type	CapSense_DpProcessCsxWidgetRawCounts, %function
 273              	CapSense_DpProcessCsxWidgetRawCounts:
 274              	.LFB47:
 555:Generated_Source\PSoC6/CapSense_Processing.c ****     uint32 result = CY_RET_SUCCESS;
 275              		.loc 1 555 0
 276              		.cfi_startproc
 277              		@ args = 0, pretend = 0, frame = 8
 278              		@ frame_needed = 0, uses_anonymous_args = 0
 279              	.LVL34:
 280 0000 F0B5     		push	{r4, r5, r6, r7, lr}
 281              		.cfi_def_cfa_offset 20
 282              		.cfi_offset 4, -20
ARM GAS  C:\Users\PC\AppData\Local\Temp\ccQeYTXk.s 			page 27


 283              		.cfi_offset 5, -16
 284              		.cfi_offset 6, -12
 285              		.cfi_offset 7, -8
 286              		.cfi_offset 14, -4
 287 0002 83B0     		sub	sp, sp, #12
 288              		.cfi_def_cfa_offset 32
 289              	.LVL35:
 565:Generated_Source\PSoC6/CapSense_Processing.c ****     #endif /* #if (CapSense_ENABLE == CapSense_RC_FILTER_EN) */
 290              		.loc 1 565 0
 291 0004 C768     		ldr	r7, [r0, #12]
 292              	.LVL36:
 568:Generated_Source\PSoC6/CapSense_Processing.c ****     snsCount = ptrFlashWdgt->totalNumSns;
 293              		.loc 1 568 0
 294 0006 8468     		ldr	r4, [r0, #8]
 295              	.LVL37:
 569:Generated_Source\PSoC6/CapSense_Processing.c ****     ptrRamWdgt = (CapSense_RAM_WD_BASE_STRUCT *)ptrFlashWdgt->ptr2WdgtRam;
 296              		.loc 1 569 0
 297 0008 038B     		ldrh	r3, [r0, #24]
 298              	.LVL38:
 570:Generated_Source\PSoC6/CapSense_Processing.c ****     widgetType = ptrFlashWdgt->wdgtType;
 299              		.loc 1 570 0
 300 000a 4668     		ldr	r6, [r0, #4]
 301              	.LVL39:
 571:Generated_Source\PSoC6/CapSense_Processing.c **** 
 302              		.loc 1 571 0
 303 000c 827E     		ldrb	r2, [r0, #26]
 304 000e 0092     		str	r2, [sp]
 305              	.LVL40:
 556:Generated_Source\PSoC6/CapSense_Processing.c ****     uint32 widgetType;
 306              		.loc 1 556 0
 307 0010 0022     		movs	r2, #0
 308              	.LVL41:
 309 0012 0192     		str	r2, [sp, #4]
 581:Generated_Source\PSoC6/CapSense_Processing.c ****     {
 310              		.loc 1 581 0
 311 0014 11E0     		b	.L19
 312              	.LVL42:
 313              	.L20:
 584:Generated_Source\PSoC6/CapSense_Processing.c ****             #if (CapSense_ALP_FILTER_EN)
 314              		.loc 1 584 0
 315 0016 009A     		ldr	r2, [sp]
 316 0018 2100     		movs	r1, r4
 317              	.LVL43:
 318 001a 3800     		movs	r0, r7
 319 001c FFF7FEFF 		bl	CapSense_FtRunEnabledFiltersInternal
 320              	.LVL44:
 590:Generated_Source\PSoC6/CapSense_Processing.c **** 
 321              		.loc 1 590 0
 322 0020 009A     		ldr	r2, [sp]
 323 0022 2100     		movs	r1, r4
 324 0024 3000     		movs	r0, r6
 325 0026 FFF7FEFF 		bl	CapSense_FtUpdateBaseline
 326              	.LVL45:
 327 002a 0190     		str	r0, [sp, #4]
 328              	.LVL46:
 599:Generated_Source\PSoC6/CapSense_Processing.c **** 
 329              		.loc 1 599 0
ARM GAS  C:\Users\PC\AppData\Local\Temp\ccQeYTXk.s 			page 28


 330 002c 2100     		movs	r1, r4
 331 002e 3000     		movs	r0, r6
 332              	.LVL47:
 333 0030 FFF7FEFF 		bl	CapSense_DpUpdateDifferences
 334              	.LVL48:
 602:Generated_Source\PSoC6/CapSense_Processing.c ****         
 335              		.loc 1 602 0
 336 0034 0A34     		adds	r4, r4, #10
 337              	.LVL49:
 605:Generated_Source\PSoC6/CapSense_Processing.c ****         #endif /* #if (CapSense_ENABLE == CapSense_RC_FILTER_EN) */
 338              		.loc 1 605 0
 339 0036 0A37     		adds	r7, r7, #10
 340              	.LVL50:
 581:Generated_Source\PSoC6/CapSense_Processing.c ****     {
 341              		.loc 1 581 0
 342 0038 2B00     		movs	r3, r5
 343              	.LVL51:
 344              	.L19:
 345 003a 5D1E     		subs	r5, r3, #1
 346              	.LVL52:
 347 003c 002B     		cmp	r3, #0
 348 003e EAD1     		bne	.L20
 609:Generated_Source\PSoC6/CapSense_Processing.c **** 
 349              		.loc 1 609 0
 350 0040 0198     		ldr	r0, [sp, #4]
 351 0042 03B0     		add	sp, sp, #12
 352              	.LVL53:
 353              		@ sp needed
 354              	.LVL54:
 355              	.LVL55:
 356              	.LVL56:
 357 0044 F0BD     		pop	{r4, r5, r6, r7, pc}
 358              		.cfi_endproc
 359              	.LFE47:
 360              		.size	CapSense_DpProcessCsxWidgetRawCounts, .-CapSense_DpProcessCsxWidgetRawCounts
 361 0046 C046     		.section	.text.CapSense_DpProcessCsxSensorRawCountsExt,"ax",%progbits
 362              		.align	2
 363              		.global	CapSense_DpProcessCsxSensorRawCountsExt
 364              		.code	16
 365              		.thumb_func
 366              		.type	CapSense_DpProcessCsxSensorRawCountsExt, %function
 367              	CapSense_DpProcessCsxSensorRawCountsExt:
 368              	.LFB48:
 647:Generated_Source\PSoC6/CapSense_Processing.c ****     uint32  result = CY_RET_SUCCESS;
 369              		.loc 1 647 0
 370              		.cfi_startproc
 371              		@ args = 0, pretend = 0, frame = 8
 372              		@ frame_needed = 0, uses_anonymous_args = 0
 373              	.LVL57:
 374 0000 F0B5     		push	{r4, r5, r6, r7, lr}
 375              		.cfi_def_cfa_offset 20
 376              		.cfi_offset 4, -20
 377              		.cfi_offset 5, -16
 378              		.cfi_offset 6, -12
 379              		.cfi_offset 7, -8
 380              		.cfi_offset 14, -4
 381 0002 83B0     		sub	sp, sp, #12
ARM GAS  C:\Users\PC\AppData\Local\Temp\ccQeYTXk.s 			page 29


 382              		.cfi_def_cfa_offset 32
 383 0004 0E00     		movs	r6, r1
 384 0006 0192     		str	r2, [sp, #4]
 385 0008 1C00     		movs	r4, r3
 386              	.LVL58:
 652:Generated_Source\PSoC6/CapSense_Processing.c ****     ptrRamWdgt = (CapSense_RAM_WD_BASE_STRUCT *)ptrFlashWdgt->ptr2WdgtRam;
 387              		.loc 1 652 0
 388 000a 857E     		ldrb	r5, [r0, #26]
 389              	.LVL59:
 653:Generated_Source\PSoC6/CapSense_Processing.c **** 
 390              		.loc 1 653 0
 391 000c 4768     		ldr	r7, [r0, #4]
 392              	.LVL60:
 656:Generated_Source\PSoC6/CapSense_Processing.c ****         {
 393              		.loc 1 656 0
 394 000e E307     		lsls	r3, r4, #31
 395 0010 03D5     		bpl	.L22
 396              	.LVL61:
 658:Generated_Source\PSoC6/CapSense_Processing.c ****             #if (CapSense_ALP_FILTER_EN)
 397              		.loc 1 658 0
 398 0012 2A00     		movs	r2, r5
 399              	.LVL62:
 400 0014 0198     		ldr	r0, [sp, #4]
 401              	.LVL63:
 402 0016 FFF7FEFF 		bl	CapSense_FtRunEnabledFiltersInternal
 403              	.LVL64:
 404              	.L22:
 667:Generated_Source\PSoC6/CapSense_Processing.c ****     {
 405              		.loc 1 667 0
 406 001a A307     		lsls	r3, r4, #30
 407 001c 06D5     		bpl	.L25
 669:Generated_Source\PSoC6/CapSense_Processing.c ****     }
 408              		.loc 1 669 0
 409 001e 2A00     		movs	r2, r5
 410              	.LVL65:
 411 0020 3100     		movs	r1, r6
 412 0022 3800     		movs	r0, r7
 413 0024 FFF7FEFF 		bl	CapSense_FtUpdateBaseline
 414              	.LVL66:
 415 0028 0500     		movs	r5, r0
 416              	.LVL67:
 417 002a 00E0     		b	.L23
 418              	.LVL68:
 419              	.L25:
 648:Generated_Source\PSoC6/CapSense_Processing.c ****     uint32  widgetType;
 420              		.loc 1 648 0
 421 002c 0025     		movs	r5, #0
 422              	.LVL69:
 423              	.L23:
 672:Generated_Source\PSoC6/CapSense_Processing.c ****     {
 424              		.loc 1 672 0
 425 002e 6307     		lsls	r3, r4, #29
 426 0030 03D5     		bpl	.L24
 674:Generated_Source\PSoC6/CapSense_Processing.c ****     }
 427              		.loc 1 674 0
 428 0032 3100     		movs	r1, r6
 429 0034 3800     		movs	r0, r7
ARM GAS  C:\Users\PC\AppData\Local\Temp\ccQeYTXk.s 			page 30


 430 0036 FFF7FEFF 		bl	CapSense_DpUpdateDifferences
 431              	.LVL70:
 432              	.L24:
 677:Generated_Source\PSoC6/CapSense_Processing.c **** 
 433              		.loc 1 677 0
 434 003a 2800     		movs	r0, r5
 435 003c 03B0     		add	sp, sp, #12
 436              		@ sp needed
 437              	.LVL71:
 438              	.LVL72:
 439              	.LVL73:
 440              	.LVL74:
 441 003e F0BD     		pop	{r4, r5, r6, r7, pc}
 442              		.cfi_endproc
 443              	.LFE48:
 444              		.size	CapSense_DpProcessCsxSensorRawCountsExt, .-CapSense_DpProcessCsxSensorRawCountsExt
 445              		.section	.text.CapSense_DpProcessCsdWidgetRawCounts,"ax",%progbits
 446              		.align	2
 447              		.global	CapSense_DpProcessCsdWidgetRawCounts
 448              		.code	16
 449              		.thumb_func
 450              		.type	CapSense_DpProcessCsdWidgetRawCounts, %function
 451              	CapSense_DpProcessCsdWidgetRawCounts:
 452              	.LFB50:
 786:Generated_Source\PSoC6/CapSense_Processing.c ****     uint32  result = CY_RET_SUCCESS;
 453              		.loc 1 786 0
 454              		.cfi_startproc
 455              		@ args = 0, pretend = 0, frame = 8
 456              		@ frame_needed = 0, uses_anonymous_args = 0
 457              	.LVL75:
 458 0000 F0B5     		push	{r4, r5, r6, r7, lr}
 459              		.cfi_def_cfa_offset 20
 460              		.cfi_offset 4, -20
 461              		.cfi_offset 5, -16
 462              		.cfi_offset 6, -12
 463              		.cfi_offset 7, -8
 464              		.cfi_offset 14, -4
 465 0002 5F46     		mov	r7, fp
 466 0004 5646     		mov	r6, r10
 467 0006 4D46     		mov	r5, r9
 468 0008 E0B4     		push	{r5, r6, r7}
 469              		.cfi_def_cfa_offset 32
 470              		.cfi_offset 9, -32
 471              		.cfi_offset 10, -28
 472              		.cfi_offset 11, -24
 473 000a 82B0     		sub	sp, sp, #8
 474              		.cfi_def_cfa_offset 40
 475 000c 8246     		mov	r10, r0
 476              	.LVL76:
 810:Generated_Source\PSoC6/CapSense_Processing.c **** 
 477              		.loc 1 810 0
 478 000e 837E     		ldrb	r3, [r0, #26]
 479 0010 062B     		cmp	r3, #6
 480 0012 02D1     		bne	.L31
 481 0014 0122     		movs	r2, #1
 482 0016 9346     		mov	fp, r2
 483 0018 01E0     		b	.L27
ARM GAS  C:\Users\PC\AppData\Local\Temp\ccQeYTXk.s 			page 31


 484              	.L31:
 485 001a 0022     		movs	r2, #0
 486 001c 9346     		mov	fp, r2
 487              	.L27:
 488              	.LVL77:
 813:Generated_Source\PSoC6/CapSense_Processing.c ****     #endif /* #if (CapSense_ENABLE == CapSense_RC_FILTER_EN) */
 489              		.loc 1 813 0 discriminator 4
 490 001e 5246     		mov	r2, r10
 491 0020 D268     		ldr	r2, [r2, #12]
 492              	.LVL78:
 493 0022 9146     		mov	r9, r2
 816:Generated_Source\PSoC6/CapSense_Processing.c ****     ptrRamWdgt = (CapSense_RAM_WD_BASE_STRUCT *)ptrFlashWdgt->ptr2WdgtRam;
 494              		.loc 1 816 0 discriminator 4
 495 0024 5246     		mov	r2, r10
 496              	.LVL79:
 497 0026 9468     		ldr	r4, [r2, #8]
 498              	.LVL80:
 817:Generated_Source\PSoC6/CapSense_Processing.c ****     widgetType = ptrFlashWdgt->wdgtType;
 499              		.loc 1 817 0 discriminator 4
 500 0028 5668     		ldr	r6, [r2, #4]
 501              	.LVL81:
 818:Generated_Source\PSoC6/CapSense_Processing.c **** 
 502              		.loc 1 818 0 discriminator 4
 503 002a 0093     		str	r3, [sp]
 504              	.LVL82:
 821:Generated_Source\PSoC6/CapSense_Processing.c ****     #endif /* #if (0u != (CapSense_CSD_AUTOTUNE & CapSense_CSD_SS_TH_EN)) */
 505              		.loc 1 821 0 discriminator 4
 506 002c 576A     		ldr	r7, [r2, #36]
 507              	.LVL83:
 825:Generated_Source\PSoC6/CapSense_Processing.c ****     {
 508              		.loc 1 825 0 discriminator 4
 509 002e 0025     		movs	r5, #0
 787:Generated_Source\PSoC6/CapSense_Processing.c **** 
 510              		.loc 1 787 0 discriminator 4
 511 0030 0023     		movs	r3, #0
 512 0032 0193     		str	r3, [sp, #4]
 825:Generated_Source\PSoC6/CapSense_Processing.c ****     {
 513              		.loc 1 825 0 discriminator 4
 514 0034 21E0     		b	.L28
 515              	.LVL84:
 516              	.L30:
 829:Generated_Source\PSoC6/CapSense_Processing.c ****             #if (CapSense_ALP_FILTER_EN)
 517              		.loc 1 829 0
 518 0036 009A     		ldr	r2, [sp]
 519 0038 2100     		movs	r1, r4
 520 003a 4846     		mov	r0, r9
 521 003c FFF7FEFF 		bl	CapSense_FtRunEnabledFiltersInternal
 522              	.LVL85:
 837:Generated_Source\PSoC6/CapSense_Processing.c ****             CapSense_DpUpdateThresholds(ptrRamWdgt, ptrNoiseEnvelope, snsId);
 523              		.loc 1 837 0
 524 0040 318A     		ldrh	r1, [r6, #16]
 525 0042 2088     		ldrh	r0, [r4]
 526 0044 3A00     		movs	r2, r7
 527 0046 FFF7FEFF 		bl	SmartSense_RunNoiseEnvelope
 528              	.LVL86:
 838:Generated_Source\PSoC6/CapSense_Processing.c **** 
 529              		.loc 1 838 0
ARM GAS  C:\Users\PC\AppData\Local\Temp\ccQeYTXk.s 			page 32


 530 004a 2A00     		movs	r2, r5
 531 004c 3900     		movs	r1, r7
 532 004e 3000     		movs	r0, r6
 533 0050 FFF7FEFF 		bl	CapSense_DpUpdateThresholds
 534              	.LVL87:
 855:Generated_Source\PSoC6/CapSense_Processing.c ****         #endif /* (0u != (CapSense_CSD_AUTOTUNE & CapSense_CSD_SS_TH_EN)) */
 535              		.loc 1 855 0
 536 0054 0C37     		adds	r7, r7, #12
 537              	.LVL88:
 865:Generated_Source\PSoC6/CapSense_Processing.c ****         #endif /* (CapSense_ENABLE == CapSense_TST_BSLN_DUPLICATION_EN) */
 538              		.loc 1 865 0
 539 0056 009A     		ldr	r2, [sp]
 540 0058 2100     		movs	r1, r4
 541 005a 3000     		movs	r0, r6
 542 005c FFF7FEFF 		bl	CapSense_FtUpdateBaseline
 543              	.LVL89:
 544 0060 0190     		str	r0, [sp, #4]
 545              	.LVL90:
 868:Generated_Source\PSoC6/CapSense_Processing.c **** 
 546              		.loc 1 868 0
 547 0062 2100     		movs	r1, r4
 548 0064 3000     		movs	r0, r6
 549              	.LVL91:
 550 0066 FFF7FEFF 		bl	CapSense_DpUpdateDifferences
 551              	.LVL92:
 871:Generated_Source\PSoC6/CapSense_Processing.c **** 
 552              		.loc 1 871 0
 553 006a 0A34     		adds	r4, r4, #10
 554              	.LVL93:
 875:Generated_Source\PSoC6/CapSense_Processing.c ****         #endif /* #if (CapSense_ENABLE == CapSense_RC_FILTER_EN) */
 555              		.loc 1 875 0
 556 006c 5B46     		mov	r3, fp
 557 006e 002B     		cmp	r3, #0
 558 0070 02D1     		bne	.L29
 559              	.LVL94:
 875:Generated_Source\PSoC6/CapSense_Processing.c ****         #endif /* #if (CapSense_ENABLE == CapSense_RC_FILTER_EN) */
 560              		.loc 1 875 0 is_stmt 0 discriminator 1
 561 0072 0A33     		adds	r3, r3, #10
 562              	.LVL95:
 563 0074 9C46     		mov	ip, r3
 564 0076 E144     		add	r9, r9, ip
 565              	.LVL96:
 566              	.L29:
 825:Generated_Source\PSoC6/CapSense_Processing.c ****     {
 567              		.loc 1 825 0 is_stmt 1 discriminator 2
 568 0078 0135     		adds	r5, r5, #1
 569              	.LVL97:
 570              	.L28:
 825:Generated_Source\PSoC6/CapSense_Processing.c ****     {
 571              		.loc 1 825 0 is_stmt 0 discriminator 1
 572 007a 5346     		mov	r3, r10
 573 007c 1B8B     		ldrh	r3, [r3, #24]
 574 007e 9D42     		cmp	r5, r3
 575 0080 D9D3     		bcc	.L30
 879:Generated_Source\PSoC6/CapSense_Processing.c **** 
 576              		.loc 1 879 0 is_stmt 1
 577 0082 0198     		ldr	r0, [sp, #4]
ARM GAS  C:\Users\PC\AppData\Local\Temp\ccQeYTXk.s 			page 33


 578 0084 02B0     		add	sp, sp, #8
 579              	.LVL98:
 580              		@ sp needed
 581              	.LVL99:
 582              	.LVL100:
 583              	.LVL101:
 584              	.LVL102:
 585              	.LVL103:
 586              	.LVL104:
 587              	.LVL105:
 588 0086 1CBC     		pop	{r2, r3, r4}
 589 0088 9146     		mov	r9, r2
 590 008a 9A46     		mov	r10, r3
 591 008c A346     		mov	fp, r4
 592 008e F0BD     		pop	{r4, r5, r6, r7, pc}
 593              		.cfi_endproc
 594              	.LFE50:
 595              		.size	CapSense_DpProcessCsdWidgetRawCounts, .-CapSense_DpProcessCsdWidgetRawCounts
 596              		.section	.text.CapSense_DpProcessCsdSensorRawCountsExt,"ax",%progbits
 597              		.align	2
 598              		.global	CapSense_DpProcessCsdSensorRawCountsExt
 599              		.code	16
 600              		.thumb_func
 601              		.type	CapSense_DpProcessCsdSensorRawCountsExt, %function
 602              	CapSense_DpProcessCsdSensorRawCountsExt:
 603              	.LFB51:
 920:Generated_Source\PSoC6/CapSense_Processing.c ****     uint32 result = CY_RET_SUCCESS;
 604              		.loc 1 920 0
 605              		.cfi_startproc
 606              		@ args = 0, pretend = 0, frame = 8
 607              		@ frame_needed = 0, uses_anonymous_args = 0
 608              	.LVL106:
 609 0000 F0B5     		push	{r4, r5, r6, r7, lr}
 610              		.cfi_def_cfa_offset 20
 611              		.cfi_offset 4, -20
 612              		.cfi_offset 5, -16
 613              		.cfi_offset 6, -12
 614              		.cfi_offset 7, -8
 615              		.cfi_offset 14, -4
 616 0002 83B0     		sub	sp, sp, #12
 617              		.cfi_def_cfa_offset 32
 618 0004 0091     		str	r1, [sp]
 619 0006 0192     		str	r2, [sp, #4]
 620 0008 1C00     		movs	r4, r3
 621              	.LVL107:
 932:Generated_Source\PSoC6/CapSense_Processing.c ****     #endif /* (0u != (CapSense_CSD_AUTOTUNE & CapSense_CSD_SS_TH_EN)) */
 622              		.loc 1 932 0
 623 000a 466A     		ldr	r6, [r0, #36]
 624              	.LVL108:
 935:Generated_Source\PSoC6/CapSense_Processing.c ****     ptrRamWdgt = (CapSense_RAM_WD_BASE_STRUCT *)ptrFlashWdgt->ptr2WdgtRam;
 625              		.loc 1 935 0
 626 000c 877E     		ldrb	r7, [r0, #26]
 627              	.LVL109:
 936:Generated_Source\PSoC6/CapSense_Processing.c **** 
 628              		.loc 1 936 0
 629 000e 4568     		ldr	r5, [r0, #4]
 630              	.LVL110:
ARM GAS  C:\Users\PC\AppData\Local\Temp\ccQeYTXk.s 			page 34


 939:Generated_Source\PSoC6/CapSense_Processing.c ****         {
 631              		.loc 1 939 0
 632 0010 E307     		lsls	r3, r4, #31
 633 0012 03D5     		bpl	.L33
 634              	.LVL111:
 941:Generated_Source\PSoC6/CapSense_Processing.c ****             #if (CapSense_ALP_FILTER_EN)
 635              		.loc 1 941 0
 636 0014 3A00     		movs	r2, r7
 637              	.LVL112:
 638 0016 0198     		ldr	r0, [sp, #4]
 639              	.LVL113:
 640 0018 FFF7FEFF 		bl	CapSense_FtRunEnabledFiltersInternal
 641              	.LVL114:
 642              	.L33:
 951:Generated_Source\PSoC6/CapSense_Processing.c ****         {
 643              		.loc 1 951 0
 644 001c 2307     		lsls	r3, r4, #28
 645 001e 05D5     		bpl	.L34
 953:Generated_Source\PSoC6/CapSense_Processing.c ****         }
 646              		.loc 1 953 0
 647 0020 298A     		ldrh	r1, [r5, #16]
 648 0022 009B     		ldr	r3, [sp]
 649 0024 1888     		ldrh	r0, [r3]
 650 0026 3200     		movs	r2, r6
 651              	.LVL115:
 652 0028 FFF7FEFF 		bl	SmartSense_RunNoiseEnvelope
 653              	.LVL116:
 654              	.L34:
 956:Generated_Source\PSoC6/CapSense_Processing.c ****         {
 655              		.loc 1 956 0
 656 002c E306     		lsls	r3, r4, #27
 657 002e 04D5     		bpl	.L35
 958:Generated_Source\PSoC6/CapSense_Processing.c **** 
 658              		.loc 1 958 0
 659 0030 0022     		movs	r2, #0
 660              	.LVL117:
 661 0032 3100     		movs	r1, r6
 662 0034 2800     		movs	r0, r5
 663 0036 FFF7FEFF 		bl	CapSense_DpUpdateThresholds
 664              	.LVL118:
 665              	.L35:
 976:Generated_Source\PSoC6/CapSense_Processing.c ****     {
 666              		.loc 1 976 0
 667 003a A307     		lsls	r3, r4, #30
 668 003c 06D5     		bpl	.L38
 978:Generated_Source\PSoC6/CapSense_Processing.c ****     }
 669              		.loc 1 978 0
 670 003e 3A00     		movs	r2, r7
 671              	.LVL119:
 672 0040 0099     		ldr	r1, [sp]
 673 0042 2800     		movs	r0, r5
 674 0044 FFF7FEFF 		bl	CapSense_FtUpdateBaseline
 675              	.LVL120:
 676 0048 0700     		movs	r7, r0
 677              	.LVL121:
 678 004a 00E0     		b	.L36
 679              	.LVL122:
ARM GAS  C:\Users\PC\AppData\Local\Temp\ccQeYTXk.s 			page 35


 680              	.L38:
 921:Generated_Source\PSoC6/CapSense_Processing.c ****     uint32  widgetType;
 681              		.loc 1 921 0
 682 004c 0027     		movs	r7, #0
 683              	.LVL123:
 684              	.L36:
 981:Generated_Source\PSoC6/CapSense_Processing.c ****     {
 685              		.loc 1 981 0
 686 004e 6307     		lsls	r3, r4, #29
 687 0050 03D5     		bpl	.L37
 983:Generated_Source\PSoC6/CapSense_Processing.c ****     }
 688              		.loc 1 983 0
 689 0052 0099     		ldr	r1, [sp]
 690 0054 2800     		movs	r0, r5
 691 0056 FFF7FEFF 		bl	CapSense_DpUpdateDifferences
 692              	.LVL124:
 693              	.L37:
 986:Generated_Source\PSoC6/CapSense_Processing.c **** 
 694              		.loc 1 986 0
 695 005a 3800     		movs	r0, r7
 696 005c 03B0     		add	sp, sp, #12
 697              	.LVL125:
 698              		@ sp needed
 699              	.LVL126:
 700              	.LVL127:
 701              	.LVL128:
 702              	.LVL129:
 703 005e F0BD     		pop	{r4, r5, r6, r7, pc}
 704              		.cfi_endproc
 705              	.LFE51:
 706              		.size	CapSense_DpProcessCsdSensorRawCountsExt, .-CapSense_DpProcessCsdSensorRawCountsExt
 707              		.section	.text.CapSense_DpProcessButton,"ax",%progbits
 708              		.align	2
 709              		.global	CapSense_DpProcessButton
 710              		.code	16
 711              		.thumb_func
 712              		.type	CapSense_DpProcessButton, %function
 713              	CapSense_DpProcessButton:
 714              	.LFB55:
1191:Generated_Source\PSoC6/CapSense_Processing.c **** 
1192:Generated_Source\PSoC6/CapSense_Processing.c **** 
1193:Generated_Source\PSoC6/CapSense_Processing.c **** #if ((0u != CapSense_BUTTON_WIDGET_EN) || (0u != CapSense_CSX_MATRIX_WIDGET_EN))
1194:Generated_Source\PSoC6/CapSense_Processing.c **** /*******************************************************************************
1195:Generated_Source\PSoC6/CapSense_Processing.c **** * Function Name: CapSense_DpProcessButton
1196:Generated_Source\PSoC6/CapSense_Processing.c **** ****************************************************************************//**
1197:Generated_Source\PSoC6/CapSense_Processing.c **** *
1198:Generated_Source\PSoC6/CapSense_Processing.c **** * \brief
1199:Generated_Source\PSoC6/CapSense_Processing.c **** *   Processes the status of the Button widget.
1200:Generated_Source\PSoC6/CapSense_Processing.c **** *
1201:Generated_Source\PSoC6/CapSense_Processing.c **** * \details
1202:Generated_Source\PSoC6/CapSense_Processing.c **** *   This API processes the status of the CSD/CSX Button widget and
1203:Generated_Source\PSoC6/CapSense_Processing.c **** *   CSX Matrix Button widget. It applies the hysteresis and de-bounce algorithm
1204:Generated_Source\PSoC6/CapSense_Processing.c **** *   to each sensor difference value. This API is expected to be called
1205:Generated_Source\PSoC6/CapSense_Processing.c **** *   after each new widget scan. If it is called multiple times for the same
1206:Generated_Source\PSoC6/CapSense_Processing.c **** *   scan data, the de-bounce algorithm will not work properly.
1207:Generated_Source\PSoC6/CapSense_Processing.c **** *
1208:Generated_Source\PSoC6/CapSense_Processing.c **** *   This API does not update any Data Structure registers
ARM GAS  C:\Users\PC\AppData\Local\Temp\ccQeYTXk.s 			page 36


1209:Generated_Source\PSoC6/CapSense_Processing.c **** *   except the de-bounce counters.
1210:Generated_Source\PSoC6/CapSense_Processing.c **** *
1211:Generated_Source\PSoC6/CapSense_Processing.c **** * \param currStatus   The current status of the widget sensors.
1212:Generated_Source\PSoC6/CapSense_Processing.c **** * \param ptrFlashWdgt The pointer to the Flash Widget Object.
1213:Generated_Source\PSoC6/CapSense_Processing.c **** *
1214:Generated_Source\PSoC6/CapSense_Processing.c **** * \return Returns the status of the widget's sensors. Bit #0 - corresponds to Sensor #0.
1215:Generated_Source\PSoC6/CapSense_Processing.c **** *
1216:Generated_Source\PSoC6/CapSense_Processing.c **** *******************************************************************************/
1217:Generated_Source\PSoC6/CapSense_Processing.c **** uint32 CapSense_DpProcessButton(uint32 currStatus, CapSense_FLASH_WD_STRUCT const *ptrFlashWdgt)
1218:Generated_Source\PSoC6/CapSense_Processing.c **** {
 715              		.loc 1 1218 0
 716              		.cfi_startproc
 717              		@ args = 0, pretend = 0, frame = 0
 718              		@ frame_needed = 0, uses_anonymous_args = 0
 719              	.LVL130:
 720 0000 F0B5     		push	{r4, r5, r6, r7, lr}
 721              		.cfi_def_cfa_offset 20
 722              		.cfi_offset 4, -20
 723              		.cfi_offset 5, -16
 724              		.cfi_offset 6, -12
 725              		.cfi_offset 7, -8
 726              		.cfi_offset 14, -4
1219:Generated_Source\PSoC6/CapSense_Processing.c ****     uint32 snsCnt;
1220:Generated_Source\PSoC6/CapSense_Processing.c ****     uint32 snsMask;
1221:Generated_Source\PSoC6/CapSense_Processing.c ****     uint32 newStatus;
1222:Generated_Source\PSoC6/CapSense_Processing.c ****     uint32 touchTh;
1223:Generated_Source\PSoC6/CapSense_Processing.c ****     CapSense_RAM_SNS_STRUCT *ptrSnsTmp;
1224:Generated_Source\PSoC6/CapSense_Processing.c ****     CapSense_RAM_WD_BASE_STRUCT *ptrRamWdgt;
1225:Generated_Source\PSoC6/CapSense_Processing.c ****     uint8 * ptrDebounceCnt;
1226:Generated_Source\PSoC6/CapSense_Processing.c **** 
1227:Generated_Source\PSoC6/CapSense_Processing.c ****     snsCnt = ptrFlashWdgt->totalNumSns;
 727              		.loc 1 1227 0
 728 0002 0A8B     		ldrh	r2, [r1, #24]
 729              	.LVL131:
1228:Generated_Source\PSoC6/CapSense_Processing.c ****     ptrSnsTmp = ptrFlashWdgt->ptr2SnsRam;
 730              		.loc 1 1228 0
 731 0004 8D68     		ldr	r5, [r1, #8]
 732              	.LVL132:
1229:Generated_Source\PSoC6/CapSense_Processing.c ****     ptrRamWdgt = (CapSense_RAM_WD_BASE_STRUCT *)ptrFlashWdgt->ptr2WdgtRam;
 733              		.loc 1 1229 0
 734 0006 4F68     		ldr	r7, [r1, #4]
 735              	.LVL133:
1230:Generated_Source\PSoC6/CapSense_Processing.c ****     ptrDebounceCnt = ptrFlashWdgt->ptr2DebounceArr;
 736              		.loc 1 1230 0
 737 0008 0B69     		ldr	r3, [r1, #16]
 738              	.LVL134:
1231:Generated_Source\PSoC6/CapSense_Processing.c **** 
1232:Generated_Source\PSoC6/CapSense_Processing.c ****     /* Go through all widget's sensors */
1233:Generated_Source\PSoC6/CapSense_Processing.c ****     snsMask = 1Lu;
 739              		.loc 1 1233 0
 740 000a 0121     		movs	r1, #1
 741              	.LVL135:
1234:Generated_Source\PSoC6/CapSense_Processing.c ****     for (; snsCnt-- > 0u; )
 742              		.loc 1 1234 0
 743 000c 25E0     		b	.L40
 744              	.LVL136:
 745              	.L48:
ARM GAS  C:\Users\PC\AppData\Local\Temp\ccQeYTXk.s 			page 37


1235:Generated_Source\PSoC6/CapSense_Processing.c ****     {
1236:Generated_Source\PSoC6/CapSense_Processing.c ****         /* Calculate touch threshold taking into account hysteresis
1237:Generated_Source\PSoC6/CapSense_Processing.c ****            and current sensor state. */
1238:Generated_Source\PSoC6/CapSense_Processing.c ****         touchTh = (0u == (currStatus & snsMask)) ?
 746              		.loc 1 1238 0
 747 000e 0C00     		movs	r4, r1
 748              	.LVL137:
 749 0010 0440     		ands	r4, r0
1239:Generated_Source\PSoC6/CapSense_Processing.c ****                   ((uint32)ptrRamWdgt->fingerTh + ptrRamWdgt->hysteresis) :
 750              		.loc 1 1239 0
 751 0012 03D1     		bne	.L41
 752              		.loc 1 1239 0 is_stmt 0 discriminator 1
 753 0014 7E88     		ldrh	r6, [r7, #2]
 754 0016 BA79     		ldrb	r2, [r7, #6]
 755 0018 B218     		adds	r2, r6, r2
 756 001a 02E0     		b	.L42
 757              	.L41:
1240:Generated_Source\PSoC6/CapSense_Processing.c ****                   ((uint32)ptrRamWdgt->fingerTh - ptrRamWdgt->hysteresis);
 758              		.loc 1 1240 0 is_stmt 1 discriminator 2
 759 001c 7A88     		ldrh	r2, [r7, #2]
 760 001e BE79     		ldrb	r6, [r7, #6]
1239:Generated_Source\PSoC6/CapSense_Processing.c ****                   ((uint32)ptrRamWdgt->fingerTh + ptrRamWdgt->hysteresis) :
 761              		.loc 1 1239 0 discriminator 2
 762 0020 921B     		subs	r2, r2, r6
 763              	.L42:
 764              	.LVL138:
1241:Generated_Source\PSoC6/CapSense_Processing.c **** 
1242:Generated_Source\PSoC6/CapSense_Processing.c ****         /* Determine new potential sensor state */
1243:Generated_Source\PSoC6/CapSense_Processing.c ****         newStatus = (ptrSnsTmp->diff > touchTh) ? snsMask : 0u;
 765              		.loc 1 1243 0
 766 0022 EE88     		ldrh	r6, [r5, #6]
 767 0024 B242     		cmp	r2, r6
 768 0026 01D3     		bcc	.L49
 769 0028 0022     		movs	r2, #0
 770              	.LVL139:
 771 002a 00E0     		b	.L43
 772              	.LVL140:
 773              	.L49:
 774 002c 0A00     		movs	r2, r1
 775              	.LVL141:
 776              	.L43:
1244:Generated_Source\PSoC6/CapSense_Processing.c **** 
1245:Generated_Source\PSoC6/CapSense_Processing.c ****         /* Sensor state changed ? */
1246:Generated_Source\PSoC6/CapSense_Processing.c ****         if (newStatus != (currStatus & snsMask))
 777              		.loc 1 1246 0 discriminator 4
 778 002e A242     		cmp	r2, r4
 779 0030 02D0     		beq	.L44
1247:Generated_Source\PSoC6/CapSense_Processing.c ****         {
1248:Generated_Source\PSoC6/CapSense_Processing.c ****             /* Decrement de-bounce counter */
1249:Generated_Source\PSoC6/CapSense_Processing.c ****             (*ptrDebounceCnt)--;
 780              		.loc 1 1249 0
 781 0032 1E78     		ldrb	r6, [r3]
 782 0034 013E     		subs	r6, r6, #1
 783 0036 1E70     		strb	r6, [r3]
 784              	.L44:
1250:Generated_Source\PSoC6/CapSense_Processing.c ****         }
1251:Generated_Source\PSoC6/CapSense_Processing.c **** 
ARM GAS  C:\Users\PC\AppData\Local\Temp\ccQeYTXk.s 			page 38


1252:Generated_Source\PSoC6/CapSense_Processing.c ****         /*
1253:Generated_Source\PSoC6/CapSense_Processing.c ****         *  This piece of code has two objectives:
1254:Generated_Source\PSoC6/CapSense_Processing.c ****         *  1. Reset de-bounce counter if the sensor state did not change.
1255:Generated_Source\PSoC6/CapSense_Processing.c ****         *     (It is possible that during previous processing cycles sensor
1256:Generated_Source\PSoC6/CapSense_Processing.c ****         *     was active and de-bounce counter was decremented.)
1257:Generated_Source\PSoC6/CapSense_Processing.c ****         *  2. Set new sensor state after successful de-bounce.
1258:Generated_Source\PSoC6/CapSense_Processing.c ****         */
1259:Generated_Source\PSoC6/CapSense_Processing.c ****         if ((newStatus == (currStatus & snsMask)) || (0u == (*ptrDebounceCnt)))
 785              		.loc 1 1259 0
 786 0038 A242     		cmp	r2, r4
 787 003a 02D0     		beq	.L45
 788              		.loc 1 1259 0 is_stmt 0 discriminator 1
 789 003c 1C78     		ldrb	r4, [r3]
 790 003e 002C     		cmp	r4, #0
 791 0040 07D1     		bne	.L46
 792              	.L45:
1260:Generated_Source\PSoC6/CapSense_Processing.c ****         {
1261:Generated_Source\PSoC6/CapSense_Processing.c ****             /* Set new sensor status */
1262:Generated_Source\PSoC6/CapSense_Processing.c ****             currStatus &= ~snsMask;
 793              		.loc 1 1262 0 is_stmt 1
 794 0042 8843     		bics	r0, r1
 795              	.LVL142:
1263:Generated_Source\PSoC6/CapSense_Processing.c ****             currStatus |= newStatus;
 796              		.loc 1 1263 0
 797 0044 1043     		orrs	r0, r2
 798              	.LVL143:
1264:Generated_Source\PSoC6/CapSense_Processing.c **** 
1265:Generated_Source\PSoC6/CapSense_Processing.c ****             /* Reset de-bounce counter */
1266:Generated_Source\PSoC6/CapSense_Processing.c ****             #if (0u != CapSense_OFF_DEBOUNCE_EN)
1267:Generated_Source\PSoC6/CapSense_Processing.c ****                 *ptrDebounceCnt = (0Lu == newStatus) ? ptrRamWdgt->onDebounce : ptrRamWdgt->offDebo
1268:Generated_Source\PSoC6/CapSense_Processing.c ****             #else
1269:Generated_Source\PSoC6/CapSense_Processing.c ****                 *ptrDebounceCnt = (0Lu == newStatus) ? ptrRamWdgt->onDebounce : DEFAULT_OFF_DEBOUNC
 799              		.loc 1 1269 0
 800 0046 002A     		cmp	r2, #0
 801 0048 01D1     		bne	.L50
 802              		.loc 1 1269 0 is_stmt 0 discriminator 1
 803 004a FA79     		ldrb	r2, [r7, #7]
 804              	.LVL144:
 805 004c 00E0     		b	.L47
 806              	.LVL145:
 807              	.L50:
 808              		.loc 1 1269 0
 809 004e 0122     		movs	r2, #1
 810              	.LVL146:
 811              	.L47:
 812              		.loc 1 1269 0 discriminator 4
 813 0050 1A70     		strb	r2, [r3]
 814              	.L46:
1270:Generated_Source\PSoC6/CapSense_Processing.c ****             #endif /* #if (0u != CapSense_OFF_DEBOUNCE_EN) */
1271:Generated_Source\PSoC6/CapSense_Processing.c ****         }
1272:Generated_Source\PSoC6/CapSense_Processing.c **** 
1273:Generated_Source\PSoC6/CapSense_Processing.c ****         /* Move mask to the next sensor */
1274:Generated_Source\PSoC6/CapSense_Processing.c ****         snsMask <<= 1u;
 815              		.loc 1 1274 0 is_stmt 1
 816 0052 4900     		lsls	r1, r1, #1
 817              	.LVL147:
1275:Generated_Source\PSoC6/CapSense_Processing.c **** 
ARM GAS  C:\Users\PC\AppData\Local\Temp\ccQeYTXk.s 			page 39


1276:Generated_Source\PSoC6/CapSense_Processing.c ****         ptrSnsTmp++;
 818              		.loc 1 1276 0
 819 0054 0A35     		adds	r5, r5, #10
 820              	.LVL148:
1277:Generated_Source\PSoC6/CapSense_Processing.c ****         ptrDebounceCnt++;
 821              		.loc 1 1277 0
 822 0056 0133     		adds	r3, r3, #1
 823              	.LVL149:
1234:Generated_Source\PSoC6/CapSense_Processing.c ****     {
 824              		.loc 1 1234 0
 825 0058 6246     		mov	r2, ip
 826              	.LVL150:
 827              	.L40:
 828 005a 541E     		subs	r4, r2, #1
 829 005c A446     		mov	ip, r4
 830              	.LVL151:
 831 005e 002A     		cmp	r2, #0
 832 0060 D5D1     		bne	.L48
1278:Generated_Source\PSoC6/CapSense_Processing.c ****     }
1279:Generated_Source\PSoC6/CapSense_Processing.c **** 
1280:Generated_Source\PSoC6/CapSense_Processing.c ****     return currStatus;
1281:Generated_Source\PSoC6/CapSense_Processing.c **** }
 833              		.loc 1 1281 0
 834              		@ sp needed
 835              	.LVL152:
 836              	.LVL153:
 837              	.LVL154:
 838 0062 F0BD     		pop	{r4, r5, r6, r7, pc}
 839              		.cfi_endproc
 840              	.LFE55:
 841              		.size	CapSense_DpProcessButton, .-CapSense_DpProcessButton
 842              		.section	.text.CapSense_DpProcessCsxWidgetStatus,"ax",%progbits
 843              		.align	2
 844              		.global	CapSense_DpProcessCsxWidgetStatus
 845              		.code	16
 846              		.thumb_func
 847              		.type	CapSense_DpProcessCsxWidgetStatus, %function
 848              	CapSense_DpProcessCsxWidgetStatus:
 849              	.LFB49:
 706:Generated_Source\PSoC6/CapSense_Processing.c ****     uint32 sensorStatus;
 850              		.loc 1 706 0
 851              		.cfi_startproc
 852              		@ args = 0, pretend = 0, frame = 0
 853              		@ frame_needed = 0, uses_anonymous_args = 0
 854              	.LVL155:
 855 0000 70B5     		push	{r4, r5, r6, lr}
 856              		.cfi_def_cfa_offset 16
 857              		.cfi_offset 4, -16
 858              		.cfi_offset 5, -12
 859              		.cfi_offset 6, -8
 860              		.cfi_offset 14, -4
 861 0002 0400     		movs	r4, r0
 712:Generated_Source\PSoC6/CapSense_Processing.c ****     sensorStatus = CapSense_dsRam.snsStatus[widgetId];
 862              		.loc 1 712 0
 863 0004 8A7E     		ldrb	r2, [r1, #26]
 864              	.LVL156:
 713:Generated_Source\PSoC6/CapSense_Processing.c **** 
ARM GAS  C:\Users\PC\AppData\Local\Temp\ccQeYTXk.s 			page 40


 865              		.loc 1 713 0
 866 0006 144B     		ldr	r3, .L58
 867 0008 1B18     		adds	r3, r3, r0
 868 000a 1D7E     		ldrb	r5, [r3, #24]
 869              	.LVL157:
 715:Generated_Source\PSoC6/CapSense_Processing.c ****     {
 870              		.loc 1 715 0
 871 000c 012A     		cmp	r2, #1
 872 000e 04D1     		bne	.L57
 719:Generated_Source\PSoC6/CapSense_Processing.c ****             break;
 873              		.loc 1 719 0
 874 0010 2800     		movs	r0, r5
 875              	.LVL158:
 876 0012 FFF7FEFF 		bl	CapSense_DpProcessButton
 877              	.LVL159:
 878 0016 0500     		movs	r5, r0
 879              	.LVL160:
 720:Generated_Source\PSoC6/CapSense_Processing.c ****     #endif /* #if (0u != CapSense_BUTTON_WIDGET_EN) */
 880              		.loc 1 720 0
 881 0018 04E0     		b	.L54
 882              	.LVL161:
 883              	.L57:
 736:Generated_Source\PSoC6/CapSense_Processing.c ****         break;
 884              		.loc 1 736 0 discriminator 1
 885 001a B821     		movs	r1, #184
 886              	.LVL162:
 887 001c 8900     		lsls	r1, r1, #2
 888 001e 0F48     		ldr	r0, .L58+4
 889              	.LVL163:
 890 0020 FFF7FEFF 		bl	Cy_SysLib_AssertFailed
 891              	.LVL164:
 892              	.L54:
 741:Generated_Source\PSoC6/CapSense_Processing.c **** 
 893              		.loc 1 741 0
 894 0024 0C4B     		ldr	r3, .L58
 895 0026 1B19     		adds	r3, r3, r4
 896 0028 1D76     		strb	r5, [r3, #24]
 744:Generated_Source\PSoC6/CapSense_Processing.c ****     wdStatusMask = CapSense_GET_WDGT_STATUS_MASK(widgetId);
 897              		.loc 1 744 0
 898 002a 6309     		lsrs	r3, r4, #5
 899              	.LVL165:
 745:Generated_Source\PSoC6/CapSense_Processing.c **** 
 900              		.loc 1 745 0
 901 002c 1F22     		movs	r2, #31
 902 002e 1440     		ands	r4, r2
 903              	.LVL166:
 904 0030 1E3A     		subs	r2, r2, #30
 905 0032 A240     		lsls	r2, r2, r4
 906              	.LVL167:
 748:Generated_Source\PSoC6/CapSense_Processing.c ****     {
 907              		.loc 1 748 0
 908 0034 002D     		cmp	r5, #0
 909 0036 07D1     		bne	.L55
 750:Generated_Source\PSoC6/CapSense_Processing.c ****     }
 910              		.loc 1 750 0
 911 0038 0433     		adds	r3, r3, #4
 912              	.LVL168:
ARM GAS  C:\Users\PC\AppData\Local\Temp\ccQeYTXk.s 			page 41


 913 003a 9B00     		lsls	r3, r3, #2
 914              	.LVL169:
 915 003c 0649     		ldr	r1, .L58
 916 003e CB18     		adds	r3, r1, r3
 917 0040 5968     		ldr	r1, [r3, #4]
 918 0042 9143     		bics	r1, r2
 919 0044 5960     		str	r1, [r3, #4]
 920 0046 06E0     		b	.L51
 921              	.LVL170:
 922              	.L55:
 754:Generated_Source\PSoC6/CapSense_Processing.c ****     }
 923              		.loc 1 754 0
 924 0048 0433     		adds	r3, r3, #4
 925              	.LVL171:
 926 004a 9B00     		lsls	r3, r3, #2
 927              	.LVL172:
 928 004c 0249     		ldr	r1, .L58
 929 004e CB18     		adds	r3, r1, r3
 930 0050 5968     		ldr	r1, [r3, #4]
 931 0052 0A43     		orrs	r2, r1
 932              	.LVL173:
 933 0054 5A60     		str	r2, [r3, #4]
 934              	.L51:
 756:Generated_Source\PSoC6/CapSense_Processing.c **** #endif /* #if CapSense_TOTAL_CSX_WIDGETS */
 935              		.loc 1 756 0
 936              		@ sp needed
 937              	.LVL174:
 938              	.LVL175:
 939 0056 70BD     		pop	{r4, r5, r6, pc}
 940              	.L59:
 941              		.align	2
 942              	.L58:
 943 0058 00000000 		.word	CapSense_dsRam
 944 005c 00000000 		.word	.LC3
 945              		.cfi_endproc
 946              	.LFE49:
 947              		.size	CapSense_DpProcessCsxWidgetStatus, .-CapSense_DpProcessCsxWidgetStatus
 948              		.section	.text.CapSense_DpProcessSlider,"ax",%progbits
 949              		.align	2
 950              		.global	CapSense_DpProcessSlider
 951              		.code	16
 952              		.thumb_func
 953              		.type	CapSense_DpProcessSlider, %function
 954              	CapSense_DpProcessSlider:
 955              	.LFB56:
1282:Generated_Source\PSoC6/CapSense_Processing.c **** #endif /* #if ((0u != CapSense_BUTTON_WIDGET_EN) || (0u != CapSense_CSX_MATRIX_WIDGET_EN)) */
1283:Generated_Source\PSoC6/CapSense_Processing.c **** 
1284:Generated_Source\PSoC6/CapSense_Processing.c **** 
1285:Generated_Source\PSoC6/CapSense_Processing.c **** #if (0u != CapSense_PROXIMITY_WIDGET_EN)
1286:Generated_Source\PSoC6/CapSense_Processing.c **** /*******************************************************************************
1287:Generated_Source\PSoC6/CapSense_Processing.c **** * Function Name: CapSense_DpProcessProximity
1288:Generated_Source\PSoC6/CapSense_Processing.c **** ****************************************************************************//**
1289:Generated_Source\PSoC6/CapSense_Processing.c **** *
1290:Generated_Source\PSoC6/CapSense_Processing.c **** * \brief
1291:Generated_Source\PSoC6/CapSense_Processing.c **** *   Processes the status of the Proximity widget.
1292:Generated_Source\PSoC6/CapSense_Processing.c **** *
1293:Generated_Source\PSoC6/CapSense_Processing.c **** * \details
ARM GAS  C:\Users\PC\AppData\Local\Temp\ccQeYTXk.s 			page 42


1294:Generated_Source\PSoC6/CapSense_Processing.c **** *   This API processes the status of the CSD Proximity widget. It applies the
1295:Generated_Source\PSoC6/CapSense_Processing.c **** *   hysteresis and debounce algorithm to each sensor difference value.
1296:Generated_Source\PSoC6/CapSense_Processing.c **** *   The proximity and touch events are considered independently so debounce and
1297:Generated_Source\PSoC6/CapSense_Processing.c **** *   hysteresis are also applied independently.
1298:Generated_Source\PSoC6/CapSense_Processing.c **** *
1299:Generated_Source\PSoC6/CapSense_Processing.c **** *   This API is expected to be called after each new widget scan. If it is
1300:Generated_Source\PSoC6/CapSense_Processing.c **** *   called multiple times for the same scan data the debounce algorithm
1301:Generated_Source\PSoC6/CapSense_Processing.c **** *   will not work properly.
1302:Generated_Source\PSoC6/CapSense_Processing.c **** *
1303:Generated_Source\PSoC6/CapSense_Processing.c **** *   This API does not update any Data Structure registers
1304:Generated_Source\PSoC6/CapSense_Processing.c **** *   except the debounce counters.
1305:Generated_Source\PSoC6/CapSense_Processing.c **** *
1306:Generated_Source\PSoC6/CapSense_Processing.c **** * \param currStatus   The value with the current widget status.
1307:Generated_Source\PSoC6/CapSense_Processing.c **** * \param ptrFlashWdgt The pointer to the Flash Widget Object.
1308:Generated_Source\PSoC6/CapSense_Processing.c **** *
1309:Generated_Source\PSoC6/CapSense_Processing.c **** * \return
1310:Generated_Source\PSoC6/CapSense_Processing.c **** *  Returns the status of the proximity sensors. Each sensor is represented by two bits
1311:Generated_Source\PSoC6/CapSense_Processing.c **** *  that can take the following values:
1312:Generated_Source\PSoC6/CapSense_Processing.c **** *   - 00b not active
1313:Generated_Source\PSoC6/CapSense_Processing.c **** *   - 01b proximity is detected (signal is above finger threshold)
1314:Generated_Source\PSoC6/CapSense_Processing.c **** *   - 11b finger touch is detected (signal is above the touch threshold)
1315:Generated_Source\PSoC6/CapSense_Processing.c **** *
1316:Generated_Source\PSoC6/CapSense_Processing.c **** *******************************************************************************/
1317:Generated_Source\PSoC6/CapSense_Processing.c **** uint32 CapSense_DpProcessProximity(uint32 currStatus, CapSense_FLASH_WD_STRUCT const *ptrFlashWdgt)
1318:Generated_Source\PSoC6/CapSense_Processing.c **** {
1319:Generated_Source\PSoC6/CapSense_Processing.c ****     uint32 currTh;
1320:Generated_Source\PSoC6/CapSense_Processing.c ****     uint32 snsCnt;
1321:Generated_Source\PSoC6/CapSense_Processing.c ****     uint32 snsMask;
1322:Generated_Source\PSoC6/CapSense_Processing.c ****     uint32 newStatus;
1323:Generated_Source\PSoC6/CapSense_Processing.c ****     uint32 difference;
1324:Generated_Source\PSoC6/CapSense_Processing.c **** 
1325:Generated_Source\PSoC6/CapSense_Processing.c ****     uint8 *ptrDebounceCnt;
1326:Generated_Source\PSoC6/CapSense_Processing.c ****     CapSense_RAM_SNS_STRUCT *ptrSnsTmp;
1327:Generated_Source\PSoC6/CapSense_Processing.c ****     CapSense_RAM_WD_PROXIMITY_STRUCT *ptrRamWdgt;
1328:Generated_Source\PSoC6/CapSense_Processing.c **** 
1329:Generated_Source\PSoC6/CapSense_Processing.c ****     /* Mask for proximity status bits. (All odd bits.) */
1330:Generated_Source\PSoC6/CapSense_Processing.c ****     const uint32 proxMask = UINT32_ODD_BITS_CONST;
1331:Generated_Source\PSoC6/CapSense_Processing.c **** 
1332:Generated_Source\PSoC6/CapSense_Processing.c ****     ptrSnsTmp = ptrFlashWdgt->ptr2SnsRam;
1333:Generated_Source\PSoC6/CapSense_Processing.c ****     ptrRamWdgt = (CapSense_RAM_WD_PROXIMITY_STRUCT *)ptrFlashWdgt->ptr2WdgtRam;
1334:Generated_Source\PSoC6/CapSense_Processing.c ****     ptrDebounceCnt = ptrFlashWdgt->ptr2DebounceArr;
1335:Generated_Source\PSoC6/CapSense_Processing.c **** 
1336:Generated_Source\PSoC6/CapSense_Processing.c ****     /* Get number of sensors and multiply it by 2 - proximity and touch statuses per sensor. */
1337:Generated_Source\PSoC6/CapSense_Processing.c ****     snsCnt = (uint32)ptrFlashWdgt->totalNumSns << 1u;
1338:Generated_Source\PSoC6/CapSense_Processing.c **** 
1339:Generated_Source\PSoC6/CapSense_Processing.c ****     /* Go through all sensor's status bits */
1340:Generated_Source\PSoC6/CapSense_Processing.c ****     snsMask = 1Lu;
1341:Generated_Source\PSoC6/CapSense_Processing.c ****     for (; snsCnt-- > 0u;)
1342:Generated_Source\PSoC6/CapSense_Processing.c ****     {
1343:Generated_Source\PSoC6/CapSense_Processing.c ****         difference = ptrSnsTmp->diff;
1344:Generated_Source\PSoC6/CapSense_Processing.c **** 
1345:Generated_Source\PSoC6/CapSense_Processing.c ****         /* Determine current event (proximity - odd; touch - even) and get appropriate threshold. *
1346:Generated_Source\PSoC6/CapSense_Processing.c ****         currTh = ptrRamWdgt->fingerTh;
1347:Generated_Source\PSoC6/CapSense_Processing.c **** 
1348:Generated_Source\PSoC6/CapSense_Processing.c ****         if (0u == (snsMask & proxMask))
1349:Generated_Source\PSoC6/CapSense_Processing.c ****         {
1350:Generated_Source\PSoC6/CapSense_Processing.c ****             currTh = ptrRamWdgt->proxTouchTh;
ARM GAS  C:\Users\PC\AppData\Local\Temp\ccQeYTXk.s 			page 43


1351:Generated_Source\PSoC6/CapSense_Processing.c ****             ptrSnsTmp++;
1352:Generated_Source\PSoC6/CapSense_Processing.c ****         }
1353:Generated_Source\PSoC6/CapSense_Processing.c **** 
1354:Generated_Source\PSoC6/CapSense_Processing.c ****         /* Calculate finger threshold applying hysteresis based on current sensor state. */
1355:Generated_Source\PSoC6/CapSense_Processing.c ****         currTh = (0u == (currStatus & snsMask)) ? (currTh + ptrRamWdgt->hysteresis) : (currTh - ptr
1356:Generated_Source\PSoC6/CapSense_Processing.c **** 
1357:Generated_Source\PSoC6/CapSense_Processing.c ****         /* Determine new potential sensor state before de-bounce */
1358:Generated_Source\PSoC6/CapSense_Processing.c ****         newStatus = (difference > currTh) ? snsMask : 0Lu;
1359:Generated_Source\PSoC6/CapSense_Processing.c **** 
1360:Generated_Source\PSoC6/CapSense_Processing.c ****         /* Sensor state changed ? */
1361:Generated_Source\PSoC6/CapSense_Processing.c ****         if (newStatus != (currStatus & snsMask))
1362:Generated_Source\PSoC6/CapSense_Processing.c ****         {
1363:Generated_Source\PSoC6/CapSense_Processing.c ****             /* Decrement de-bounce counter */
1364:Generated_Source\PSoC6/CapSense_Processing.c ****             (*ptrDebounceCnt)--;
1365:Generated_Source\PSoC6/CapSense_Processing.c ****         }
1366:Generated_Source\PSoC6/CapSense_Processing.c **** 
1367:Generated_Source\PSoC6/CapSense_Processing.c ****         /*
1368:Generated_Source\PSoC6/CapSense_Processing.c ****         *  This piece of code has two objectives:
1369:Generated_Source\PSoC6/CapSense_Processing.c ****         *  1. Reset de-bounce counter if new sensor state has not changed.
1370:Generated_Source\PSoC6/CapSense_Processing.c ****         *     (It is possible that during previous processing cycles the sensor
1371:Generated_Source\PSoC6/CapSense_Processing.c ****         *     state was different which caused de-bounce counter change.)
1372:Generated_Source\PSoC6/CapSense_Processing.c ****         *  2. Set new sensor state after successful de-bounce.
1373:Generated_Source\PSoC6/CapSense_Processing.c ****         */
1374:Generated_Source\PSoC6/CapSense_Processing.c ****         if ((newStatus == (currStatus & snsMask)) || (0u == (*ptrDebounceCnt)))
1375:Generated_Source\PSoC6/CapSense_Processing.c ****         {
1376:Generated_Source\PSoC6/CapSense_Processing.c ****             /* Set new sensor status */
1377:Generated_Source\PSoC6/CapSense_Processing.c ****             currStatus &= ~snsMask;
1378:Generated_Source\PSoC6/CapSense_Processing.c ****             currStatus |= newStatus;
1379:Generated_Source\PSoC6/CapSense_Processing.c **** 
1380:Generated_Source\PSoC6/CapSense_Processing.c ****             /* Reset de-bounce counter */
1381:Generated_Source\PSoC6/CapSense_Processing.c ****             #if (0u != CapSense_OFF_DEBOUNCE_EN)
1382:Generated_Source\PSoC6/CapSense_Processing.c ****                 *ptrDebounceCnt = (0Lu == newStatus) ? ptrRamWdgt->onDebounce : ptrRamWdgt->offDebo
1383:Generated_Source\PSoC6/CapSense_Processing.c ****             #else
1384:Generated_Source\PSoC6/CapSense_Processing.c ****                 *ptrDebounceCnt = (0Lu == newStatus) ? ptrRamWdgt->onDebounce : DEFAULT_OFF_DEBOUNC
1385:Generated_Source\PSoC6/CapSense_Processing.c ****             #endif /* #if (0u != CapSense_OFF_DEBOUNCE_EN) */
1386:Generated_Source\PSoC6/CapSense_Processing.c ****         }
1387:Generated_Source\PSoC6/CapSense_Processing.c **** 
1388:Generated_Source\PSoC6/CapSense_Processing.c ****         ptrDebounceCnt++;
1389:Generated_Source\PSoC6/CapSense_Processing.c **** 
1390:Generated_Source\PSoC6/CapSense_Processing.c ****         /* Move sensor mask to the next sensor */
1391:Generated_Source\PSoC6/CapSense_Processing.c ****         snsMask <<= 1u;
1392:Generated_Source\PSoC6/CapSense_Processing.c ****     }
1393:Generated_Source\PSoC6/CapSense_Processing.c **** 
1394:Generated_Source\PSoC6/CapSense_Processing.c ****     return currStatus;
1395:Generated_Source\PSoC6/CapSense_Processing.c **** }
1396:Generated_Source\PSoC6/CapSense_Processing.c **** #endif /* #if (0u != CapSense_PROXIMITY_WIDGET_EN) */
1397:Generated_Source\PSoC6/CapSense_Processing.c **** 
1398:Generated_Source\PSoC6/CapSense_Processing.c **** 
1399:Generated_Source\PSoC6/CapSense_Processing.c **** #if (0u != CapSense_SLIDER_WIDGET_EN)
1400:Generated_Source\PSoC6/CapSense_Processing.c **** /*******************************************************************************
1401:Generated_Source\PSoC6/CapSense_Processing.c **** * Function Name: CapSense_DpProcessSlider
1402:Generated_Source\PSoC6/CapSense_Processing.c **** ****************************************************************************//**
1403:Generated_Source\PSoC6/CapSense_Processing.c **** *
1404:Generated_Source\PSoC6/CapSense_Processing.c **** * \brief
1405:Generated_Source\PSoC6/CapSense_Processing.c **** *   Processes the status of the Linear/Radial Slider widget.
1406:Generated_Source\PSoC6/CapSense_Processing.c **** *   The process involves running the Linear/Radial Centroid algorithm.
1407:Generated_Source\PSoC6/CapSense_Processing.c **** *
ARM GAS  C:\Users\PC\AppData\Local\Temp\ccQeYTXk.s 			page 44


1408:Generated_Source\PSoC6/CapSense_Processing.c **** * \details
1409:Generated_Source\PSoC6/CapSense_Processing.c **** *   This API processes the status of the CSD Slider widget (Linear and Radial).
1410:Generated_Source\PSoC6/CapSense_Processing.c **** *   It applies the hysteresis and de-bounce algorithm to the widget ignoring
1411:Generated_Source\PSoC6/CapSense_Processing.c **** *   the individual states of the sensors.
1412:Generated_Source\PSoC6/CapSense_Processing.c **** *
1413:Generated_Source\PSoC6/CapSense_Processing.c **** *   This API is expected to be called after each new widget scan. If it is
1414:Generated_Source\PSoC6/CapSense_Processing.c **** *   called multiple times for the same scan data, the debounce algorithm
1415:Generated_Source\PSoC6/CapSense_Processing.c **** *   will not work properly.
1416:Generated_Source\PSoC6/CapSense_Processing.c **** *
1417:Generated_Source\PSoC6/CapSense_Processing.c **** *   Slider widgets do not support the ON to OFF debounce.
1418:Generated_Source\PSoC6/CapSense_Processing.c **** *
1419:Generated_Source\PSoC6/CapSense_Processing.c **** *   This API does not update any Data Structure registers
1420:Generated_Source\PSoC6/CapSense_Processing.c **** *   except the debounce counters.
1421:Generated_Source\PSoC6/CapSense_Processing.c **** *
1422:Generated_Source\PSoC6/CapSense_Processing.c **** * \param currStatus   The current sensor status of the Slider widget.
1423:Generated_Source\PSoC6/CapSense_Processing.c **** * \param ptrFlashWdgt The pointer to the Flash Widget Object.
1424:Generated_Source\PSoC6/CapSense_Processing.c **** *
1425:Generated_Source\PSoC6/CapSense_Processing.c **** * \return Returns the status of the widget's sensors. Bit #0 - corresponds to Sensor #0.
1426:Generated_Source\PSoC6/CapSense_Processing.c **** *
1427:Generated_Source\PSoC6/CapSense_Processing.c **** *******************************************************************************/
1428:Generated_Source\PSoC6/CapSense_Processing.c **** uint32 CapSense_DpProcessSlider(uint32 currStatus, CapSense_FLASH_WD_STRUCT const *ptrFlashWdgt)
1429:Generated_Source\PSoC6/CapSense_Processing.c **** {
 956              		.loc 1 1429 0
 957              		.cfi_startproc
 958              		@ args = 0, pretend = 0, frame = 8
 959              		@ frame_needed = 0, uses_anonymous_args = 0
 960              	.LVL176:
 961 0000 F0B5     		push	{r4, r5, r6, r7, lr}
 962              		.cfi_def_cfa_offset 20
 963              		.cfi_offset 4, -20
 964              		.cfi_offset 5, -16
 965              		.cfi_offset 6, -12
 966              		.cfi_offset 7, -8
 967              		.cfi_offset 14, -4
 968 0002 4746     		mov	r7, r8
 969 0004 80B4     		push	{r7}
 970              		.cfi_def_cfa_offset 24
 971              		.cfi_offset 8, -24
 972 0006 82B0     		sub	sp, sp, #8
 973              		.cfi_def_cfa_offset 32
 974 0008 8446     		mov	ip, r0
 975 000a 0F00     		movs	r7, r1
 976              	.LVL177:
1430:Generated_Source\PSoC6/CapSense_Processing.c ****     uint32 snsCnt;
1431:Generated_Source\PSoC6/CapSense_Processing.c ****     uint32 snsMask;
1432:Generated_Source\PSoC6/CapSense_Processing.c ****     uint32 touchTh;
1433:Generated_Source\PSoC6/CapSense_Processing.c ****     uint32 newStatus = 0Lu;
1434:Generated_Source\PSoC6/CapSense_Processing.c ****     uint8 * ptrDebounceCnt;
1435:Generated_Source\PSoC6/CapSense_Processing.c ****     CapSense_RAM_SNS_STRUCT *ptrSnsTmp;
1436:Generated_Source\PSoC6/CapSense_Processing.c ****     CapSense_RAM_WD_SLIDER_STRUCT *ptrRamWdgt;
1437:Generated_Source\PSoC6/CapSense_Processing.c **** 
1438:Generated_Source\PSoC6/CapSense_Processing.c ****     #if (0u != CapSense_POSITION_FILTER_EN)
1439:Generated_Source\PSoC6/CapSense_Processing.c ****         CapSense_SLIDER_POS_HISTORY_STRUCT *ptrHistory;
1440:Generated_Source\PSoC6/CapSense_Processing.c ****     #endif /* #if (0u != CapSense_POSITION_FILTER_EN) */
1441:Generated_Source\PSoC6/CapSense_Processing.c **** 
1442:Generated_Source\PSoC6/CapSense_Processing.c ****     uint32 touchIdx;
1443:Generated_Source\PSoC6/CapSense_Processing.c ****     uint32 touchCnt = 0Lu;
ARM GAS  C:\Users\PC\AppData\Local\Temp\ccQeYTXk.s 			page 45


1444:Generated_Source\PSoC6/CapSense_Processing.c ****     uint16 newPos[CapSense_NUM_CENTROIDS];
1445:Generated_Source\PSoC6/CapSense_Processing.c **** 
1446:Generated_Source\PSoC6/CapSense_Processing.c ****     snsCnt = ptrFlashWdgt->totalNumSns;
 977              		.loc 1 1446 0
 978 000c 0B8B     		ldrh	r3, [r1, #24]
 979              	.LVL178:
1447:Generated_Source\PSoC6/CapSense_Processing.c ****     ptrSnsTmp = ptrFlashWdgt->ptr2SnsRam;
 980              		.loc 1 1447 0
 981 000e 8A68     		ldr	r2, [r1, #8]
 982              	.LVL179:
1448:Generated_Source\PSoC6/CapSense_Processing.c ****     ptrRamWdgt = (CapSense_RAM_WD_SLIDER_STRUCT *)ptrFlashWdgt->ptr2WdgtRam;
 983              		.loc 1 1448 0
 984 0010 4D68     		ldr	r5, [r1, #4]
 985              	.LVL180:
1449:Generated_Source\PSoC6/CapSense_Processing.c ****     ptrDebounceCnt = ptrFlashWdgt->ptr2DebounceArr;
 986              		.loc 1 1449 0
 987 0012 0969     		ldr	r1, [r1, #16]
 988              	.LVL181:
 989 0014 8846     		mov	r8, r1
 990              	.LVL182:
1450:Generated_Source\PSoC6/CapSense_Processing.c **** 
1451:Generated_Source\PSoC6/CapSense_Processing.c ****     #if (0u != CapSense_POSITION_FILTER_EN)
1452:Generated_Source\PSoC6/CapSense_Processing.c ****         ptrHistory = ptrFlashWdgt->ptr2PosHistory;
1453:Generated_Source\PSoC6/CapSense_Processing.c ****     #endif /* #if (0u != CapSense_POSITION_FILTER_EN) */
1454:Generated_Source\PSoC6/CapSense_Processing.c **** 
1455:Generated_Source\PSoC6/CapSense_Processing.c ****     /* Calculate touch threshold based on current slider state */
1456:Generated_Source\PSoC6/CapSense_Processing.c ****     touchTh = (0Lu == currStatus ) ?
1457:Generated_Source\PSoC6/CapSense_Processing.c ****               ((uint32)ptrRamWdgt->fingerTh + ptrRamWdgt->hysteresis) :
 991              		.loc 1 1457 0
 992 0016 0028     		cmp	r0, #0
 993 0018 03D1     		bne	.L61
 994              		.loc 1 1457 0 is_stmt 0 discriminator 1
 995 001a 6888     		ldrh	r0, [r5, #2]
 996              	.LVL183:
 997 001c A979     		ldrb	r1, [r5, #6]
 998              	.LVL184:
 999 001e 4018     		adds	r0, r0, r1
 1000 0020 02E0     		b	.L62
 1001              	.LVL185:
 1002              	.L61:
1458:Generated_Source\PSoC6/CapSense_Processing.c ****               ((uint32)ptrRamWdgt->fingerTh - ptrRamWdgt->hysteresis);
 1003              		.loc 1 1458 0 is_stmt 1 discriminator 2
 1004 0022 6988     		ldrh	r1, [r5, #2]
 1005              	.LVL186:
 1006 0024 A879     		ldrb	r0, [r5, #6]
 1007              	.LVL187:
1457:Generated_Source\PSoC6/CapSense_Processing.c ****               ((uint32)ptrRamWdgt->fingerTh - ptrRamWdgt->hysteresis);
 1008              		.loc 1 1457 0 discriminator 2
 1009 0026 081A     		subs	r0, r1, r0
 1010              	.L62:
 1011              	.LVL188:
1433:Generated_Source\PSoC6/CapSense_Processing.c ****     uint8 * ptrDebounceCnt;
 1012              		.loc 1 1433 0
 1013 0028 0024     		movs	r4, #0
1459:Generated_Source\PSoC6/CapSense_Processing.c **** 
1460:Generated_Source\PSoC6/CapSense_Processing.c ****     /* Go through all widget's sensors */
1461:Generated_Source\PSoC6/CapSense_Processing.c ****     snsMask = 1Lu;
ARM GAS  C:\Users\PC\AppData\Local\Temp\ccQeYTXk.s 			page 46


 1014              		.loc 1 1461 0
 1015 002a 0121     		movs	r1, #1
1462:Generated_Source\PSoC6/CapSense_Processing.c ****     for (; snsCnt-- > 0Lu; )
 1016              		.loc 1 1462 0
 1017 002c 09E0     		b	.L63
 1018              	.LVL189:
 1019              	.L65:
1463:Generated_Source\PSoC6/CapSense_Processing.c ****     {
1464:Generated_Source\PSoC6/CapSense_Processing.c ****         /* Determine new potential sensor state */
1465:Generated_Source\PSoC6/CapSense_Processing.c ****         newStatus |= (ptrSnsTmp->diff > touchTh) ? snsMask : 0Lu;
 1020              		.loc 1 1465 0
 1021 002e D388     		ldrh	r3, [r2, #6]
 1022 0030 9842     		cmp	r0, r3
 1023 0032 01D3     		bcc	.L75
 1024 0034 0023     		movs	r3, #0
 1025 0036 00E0     		b	.L64
 1026              	.L75:
 1027 0038 0B00     		movs	r3, r1
 1028              	.L64:
 1029              		.loc 1 1465 0 is_stmt 0 discriminator 4
 1030 003a 1C43     		orrs	r4, r3
 1031              	.LVL190:
1466:Generated_Source\PSoC6/CapSense_Processing.c ****         ptrSnsTmp++;
 1032              		.loc 1 1466 0 is_stmt 1 discriminator 4
 1033 003c 0A32     		adds	r2, r2, #10
 1034              	.LVL191:
1467:Generated_Source\PSoC6/CapSense_Processing.c **** 
1468:Generated_Source\PSoC6/CapSense_Processing.c ****         snsMask <<= 1u;
 1035              		.loc 1 1468 0 discriminator 4
 1036 003e 4900     		lsls	r1, r1, #1
 1037              	.LVL192:
1462:Generated_Source\PSoC6/CapSense_Processing.c ****     {
 1038              		.loc 1 1462 0 discriminator 4
 1039 0040 3300     		movs	r3, r6
 1040              	.LVL193:
 1041              	.L63:
1462:Generated_Source\PSoC6/CapSense_Processing.c ****     {
 1042              		.loc 1 1462 0 is_stmt 0
 1043 0042 5E1E     		subs	r6, r3, #1
 1044              	.LVL194:
 1045 0044 002B     		cmp	r3, #0
 1046 0046 F2D1     		bne	.L65
1469:Generated_Source\PSoC6/CapSense_Processing.c ****     }
1470:Generated_Source\PSoC6/CapSense_Processing.c **** 
1471:Generated_Source\PSoC6/CapSense_Processing.c ****     /* If widget is active, check whether debounce is needed */
1472:Generated_Source\PSoC6/CapSense_Processing.c ****     if (0Lu != newStatus)
 1047              		.loc 1 1472 0 is_stmt 1
 1048 0048 002C     		cmp	r4, #0
 1049 004a 0CD0     		beq	.L66
1473:Generated_Source\PSoC6/CapSense_Processing.c ****     {
1474:Generated_Source\PSoC6/CapSense_Processing.c ****         if (0u < (*ptrDebounceCnt))
 1050              		.loc 1 1474 0
 1051 004c 4346     		mov	r3, r8
 1052 004e 1B78     		ldrb	r3, [r3]
 1053 0050 002B     		cmp	r3, #0
 1054 0052 02D0     		beq	.L67
1475:Generated_Source\PSoC6/CapSense_Processing.c ****         {
ARM GAS  C:\Users\PC\AppData\Local\Temp\ccQeYTXk.s 			page 47


1476:Generated_Source\PSoC6/CapSense_Processing.c ****             /* Decrement debounce counter */
1477:Generated_Source\PSoC6/CapSense_Processing.c ****             (*ptrDebounceCnt)--;
 1055              		.loc 1 1477 0
 1056 0054 013B     		subs	r3, r3, #1
 1057 0056 4246     		mov	r2, r8
 1058              	.LVL195:
 1059 0058 1370     		strb	r3, [r2]
 1060              	.L67:
1478:Generated_Source\PSoC6/CapSense_Processing.c ****         }
1479:Generated_Source\PSoC6/CapSense_Processing.c **** 
1480:Generated_Source\PSoC6/CapSense_Processing.c ****         if (0u == (*ptrDebounceCnt))
 1061              		.loc 1 1480 0
 1062 005a 4346     		mov	r3, r8
 1063 005c 1B78     		ldrb	r3, [r3]
 1064 005e 002B     		cmp	r3, #0
 1065 0060 04D0     		beq	.L68
 1066 0062 6446     		mov	r4, ip
 1067              	.LVL196:
 1068 0064 02E0     		b	.L68
 1069              	.LVL197:
 1070              	.L66:
1481:Generated_Source\PSoC6/CapSense_Processing.c ****         {
1482:Generated_Source\PSoC6/CapSense_Processing.c ****             /* Update slider sensor state when debounce completes */
1483:Generated_Source\PSoC6/CapSense_Processing.c ****             currStatus = newStatus;
1484:Generated_Source\PSoC6/CapSense_Processing.c ****         }
1485:Generated_Source\PSoC6/CapSense_Processing.c ****     }
1486:Generated_Source\PSoC6/CapSense_Processing.c ****     else
1487:Generated_Source\PSoC6/CapSense_Processing.c ****     {
1488:Generated_Source\PSoC6/CapSense_Processing.c ****         /* Reset debounce counter */
1489:Generated_Source\PSoC6/CapSense_Processing.c ****         *ptrDebounceCnt = ptrRamWdgt->onDebounce;
 1071              		.loc 1 1489 0
 1072 0066 EB79     		ldrb	r3, [r5, #7]
 1073 0068 4246     		mov	r2, r8
 1074              	.LVL198:
 1075 006a 1370     		strb	r3, [r2]
 1076              	.LVL199:
 1077              	.L68:
1490:Generated_Source\PSoC6/CapSense_Processing.c **** 
1491:Generated_Source\PSoC6/CapSense_Processing.c ****         /* Clear slider sensor state */
1492:Generated_Source\PSoC6/CapSense_Processing.c ****         currStatus = 0Lu;
1493:Generated_Source\PSoC6/CapSense_Processing.c ****     }
1494:Generated_Source\PSoC6/CapSense_Processing.c **** 
1495:Generated_Source\PSoC6/CapSense_Processing.c ****     /* Centroid processing */
1496:Generated_Source\PSoC6/CapSense_Processing.c ****     /* If there are active sensors after debounce run the centroid algorithm */
1497:Generated_Source\PSoC6/CapSense_Processing.c ****     if (0u != currStatus)
 1078              		.loc 1 1497 0
 1079 006c 002C     		cmp	r4, #0
 1080 006e 0AD0     		beq	.L76
1498:Generated_Source\PSoC6/CapSense_Processing.c ****     {
1499:Generated_Source\PSoC6/CapSense_Processing.c ****         /* Centroid always uses the lowest finger threshold (minus hysteresis)
1500:Generated_Source\PSoC6/CapSense_Processing.c ****          * to produce same results for first and all consecutive invocations */
1501:Generated_Source\PSoC6/CapSense_Processing.c ****         touchTh = (uint32)ptrRamWdgt->fingerTh - ptrRamWdgt->hysteresis;
 1081              		.loc 1 1501 0
 1082 0070 6B88     		ldrh	r3, [r5, #2]
 1083 0072 AA79     		ldrb	r2, [r5, #6]
 1084 0074 9A1A     		subs	r2, r3, r2
 1085              	.LVL200:
ARM GAS  C:\Users\PC\AppData\Local\Temp\ccQeYTXk.s 			page 48


1502:Generated_Source\PSoC6/CapSense_Processing.c ****         snsCnt = ptrFlashWdgt->totalNumSns;
 1086              		.loc 1 1502 0
 1087 0076 3E8B     		ldrh	r6, [r7, #24]
 1088              	.LVL201:
1503:Generated_Source\PSoC6/CapSense_Processing.c **** 
1504:Generated_Source\PSoC6/CapSense_Processing.c ****         #if (0u != CapSense_TOTAL_DIPLEXED_SLIDERS)
1505:Generated_Source\PSoC6/CapSense_Processing.c ****             if ((0u != (ptrFlashWdgt->staticConfig & CapSense_DIPLEXING_MASK)))
1506:Generated_Source\PSoC6/CapSense_Processing.c ****             {
1507:Generated_Source\PSoC6/CapSense_Processing.c ****                 /* Run local maximum search for duplexed slider */
1508:Generated_Source\PSoC6/CapSense_Processing.c ****                 touchCnt = CapSense_DpFindLocalMaxDiplex(
1509:Generated_Source\PSoC6/CapSense_Processing.c ****                                 ptrFlashWdgt->ptr2SnsRam, snsCnt, ptrFlashWdgt->ptr2DiplexTable, to
1510:Generated_Source\PSoC6/CapSense_Processing.c **** 
1511:Generated_Source\PSoC6/CapSense_Processing.c ****                 /* Centroid calculation API requires double sensor count for the diplexed sliders. 
1512:Generated_Source\PSoC6/CapSense_Processing.c ****                 snsCnt *= 2u;
1513:Generated_Source\PSoC6/CapSense_Processing.c ****             }
1514:Generated_Source\PSoC6/CapSense_Processing.c ****             else
1515:Generated_Source\PSoC6/CapSense_Processing.c ****             {
1516:Generated_Source\PSoC6/CapSense_Processing.c ****                 /* Run local maximum search for NON-duplexed slider */
1517:Generated_Source\PSoC6/CapSense_Processing.c ****                 #if (CapSense_ENABLE == CapSense_4PTS_LOCAL_MAX_EN)
1518:Generated_Source\PSoC6/CapSense_Processing.c ****                     touchCnt = CapSense_DpFindLocalMaxSd4pts(ptrFlashWdgt, ptrFlashWdgt->ptr2SnsRam
1519:Generated_Source\PSoC6/CapSense_Processing.c ****                 #else
1520:Generated_Source\PSoC6/CapSense_Processing.c ****                     touchCnt = CapSense_DpFindLocalMaxSd(ptrFlashWdgt->ptr2SnsRam, snsCnt, touchTh)
1521:Generated_Source\PSoC6/CapSense_Processing.c ****                 #endif
1522:Generated_Source\PSoC6/CapSense_Processing.c ****             }
1523:Generated_Source\PSoC6/CapSense_Processing.c ****         #else
1524:Generated_Source\PSoC6/CapSense_Processing.c ****             /* Run local maximum search for NON-duplexed slider */
1525:Generated_Source\PSoC6/CapSense_Processing.c ****             #if (CapSense_ENABLE == CapSense_4PTS_LOCAL_MAX_EN)
1526:Generated_Source\PSoC6/CapSense_Processing.c ****                 touchCnt = CapSense_DpFindLocalMaxSd4pts(ptrFlashWdgt, ptrFlashWdgt->ptr2SnsRam, sn
1527:Generated_Source\PSoC6/CapSense_Processing.c ****             #else
1528:Generated_Source\PSoC6/CapSense_Processing.c ****                 touchCnt = CapSense_DpFindLocalMaxSd(ptrFlashWdgt->ptr2SnsRam, snsCnt, touchTh);
 1089              		.loc 1 1528 0
 1090 0078 3100     		movs	r1, r6
 1091              	.LVL202:
 1092 007a B868     		ldr	r0, [r7, #8]
 1093 007c FFF7FEFF 		bl	CapSense_DpFindLocalMaxSd
 1094              	.LVL203:
1529:Generated_Source\PSoC6/CapSense_Processing.c ****             #endif
1530:Generated_Source\PSoC6/CapSense_Processing.c ****         #endif /* #if (0u != CapSense_TOTAL_DIPLEXED_SLIDERS) */
1531:Generated_Source\PSoC6/CapSense_Processing.c **** 
1532:Generated_Source\PSoC6/CapSense_Processing.c ****         /* If at least one touch is detected */
1533:Generated_Source\PSoC6/CapSense_Processing.c ****         if (0u != touchCnt)
 1095              		.loc 1 1533 0
 1096 0080 0028     		cmp	r0, #0
 1097 0082 02D1     		bne	.L70
 1098 0084 23E0     		b	.L71
 1099              	.LVL204:
 1100              	.L76:
1443:Generated_Source\PSoC6/CapSense_Processing.c ****     uint16 newPos[CapSense_NUM_CENTROIDS];
 1101              		.loc 1 1443 0
 1102 0086 0020     		movs	r0, #0
 1103              	.LVL205:
 1104 0088 21E0     		b	.L71
 1105              	.LVL206:
 1106              	.L70:
1534:Generated_Source\PSoC6/CapSense_Processing.c ****         {
1535:Generated_Source\PSoC6/CapSense_Processing.c ****             /* Determine slider type and calculate new position(s) */
1536:Generated_Source\PSoC6/CapSense_Processing.c ****             #if (0u != CapSense_TOTAL_LINEAR_SLIDERS)
ARM GAS  C:\Users\PC\AppData\Local\Temp\ccQeYTXk.s 			page 49


1537:Generated_Source\PSoC6/CapSense_Processing.c ****                 if ((CapSense_WD_TYPE_ENUM)ptrFlashWdgt->wdgtType == CapSense_WD_LINEAR_SLIDER_E)
 1107              		.loc 1 1537 0
 1108 008a BB7E     		ldrb	r3, [r7, #26]
 1109 008c 022B     		cmp	r3, #2
 1110 008e 1ED1     		bne	.L71
1538:Generated_Source\PSoC6/CapSense_Processing.c ****                 {
1539:Generated_Source\PSoC6/CapSense_Processing.c ****                     #if (CapSense_ENABLE == CapSense_SLIDER_MULT_METHOD)
1540:Generated_Source\PSoC6/CapSense_Processing.c ****                         touchCnt = CapSense_DpCalcLinearCentroid(newPos, (uint32)ptrFlashWdgt->xCen
1541:Generated_Source\PSoC6/CapSense_Processing.c ****                                     snsCnt, (uint32)(ptrFlashWdgt->xCentroidMultiplier >> 1));
1542:Generated_Source\PSoC6/CapSense_Processing.c ****                     #else
1543:Generated_Source\PSoC6/CapSense_Processing.c ****                         touchCnt = CapSense_DpCalcLinearCentroid(
1544:Generated_Source\PSoC6/CapSense_Processing.c ****                                         newPos, (uint32)ptrFlashWdgt->xCentroidMultiplier, snsCnt, 
 1111              		.loc 1 1544 0
 1112 0090 396A     		ldr	r1, [r7, #32]
1543:Generated_Source\PSoC6/CapSense_Processing.c ****                                         newPos, (uint32)ptrFlashWdgt->xCentroidMultiplier, snsCnt, 
 1113              		.loc 1 1543 0
 1114 0092 0023     		movs	r3, #0
 1115 0094 3200     		movs	r2, r6
 1116 0096 01A8     		add	r0, sp, #4
 1117              	.LVL207:
 1118 0098 FFF7FEFF 		bl	CapSense_DpCalcLinearCentroid
 1119              	.LVL208:
 1120              	.LBB8:
 1121              	.LBB9:
1545:Generated_Source\PSoC6/CapSense_Processing.c ****                     #endif
1546:Generated_Source\PSoC6/CapSense_Processing.c ****                     DpUpdateLinSlider(newPos, touchCnt, ptrFlashWdgt, ptrRamWdgt);
1547:Generated_Source\PSoC6/CapSense_Processing.c ****                 }
1548:Generated_Source\PSoC6/CapSense_Processing.c ****             #endif /* #if (0u != CapSense_TOTAL_LINEAR_SLIDERS) */
1549:Generated_Source\PSoC6/CapSense_Processing.c **** 
1550:Generated_Source\PSoC6/CapSense_Processing.c ****             #if (0u != CapSense_TOTAL_RADIAL_SLIDERS)
1551:Generated_Source\PSoC6/CapSense_Processing.c ****                 if ((CapSense_WD_TYPE_ENUM)ptrFlashWdgt->wdgtType == CapSense_WD_RADIAL_SLIDER_E)
1552:Generated_Source\PSoC6/CapSense_Processing.c ****                 {
1553:Generated_Source\PSoC6/CapSense_Processing.c ****                     touchCnt = CapSense_DpCalcRadialCentroid(
1554:Generated_Source\PSoC6/CapSense_Processing.c ****                                     newPos, (uint32)ptrFlashWdgt->xCentroidMultiplier, snsCnt);
1555:Generated_Source\PSoC6/CapSense_Processing.c ****                     DpUpdateRadSlider(newPos, touchCnt, ptrFlashWdgt, ptrRamWdgt);
1556:Generated_Source\PSoC6/CapSense_Processing.c ****                 }
1557:Generated_Source\PSoC6/CapSense_Processing.c ****             #endif /* #if (0u != CapSense_TOTAL_RADIAL_SLIDERS) */
1558:Generated_Source\PSoC6/CapSense_Processing.c ****         }
1559:Generated_Source\PSoC6/CapSense_Processing.c ****     }
1560:Generated_Source\PSoC6/CapSense_Processing.c **** 
1561:Generated_Source\PSoC6/CapSense_Processing.c ****     /* Clear not active position data slots */
1562:Generated_Source\PSoC6/CapSense_Processing.c ****     for (touchIdx = touchCnt; touchIdx < CapSense_NUM_CENTROIDS; touchIdx++)
1563:Generated_Source\PSoC6/CapSense_Processing.c ****     {
1564:Generated_Source\PSoC6/CapSense_Processing.c ****         ptrRamWdgt->position[touchIdx] = CapSense_SLIDER_POS_NONE;
1565:Generated_Source\PSoC6/CapSense_Processing.c **** 
1566:Generated_Source\PSoC6/CapSense_Processing.c ****         #if (0u != CapSense_POSITION_FILTER_EN)
1567:Generated_Source\PSoC6/CapSense_Processing.c ****             if (NULL != ptrHistory)
1568:Generated_Source\PSoC6/CapSense_Processing.c ****             {
1569:Generated_Source\PSoC6/CapSense_Processing.c ****                 CapSense_InitPosFiltersSd(&ptrHistory[touchIdx], CapSense_SLIDER_POS_NONE);
1570:Generated_Source\PSoC6/CapSense_Processing.c ****             }
1571:Generated_Source\PSoC6/CapSense_Processing.c ****         #endif /* #if (0u != CapSense_POSITION_FILTER_EN) */
1572:Generated_Source\PSoC6/CapSense_Processing.c ****     }
1573:Generated_Source\PSoC6/CapSense_Processing.c **** 
1574:Generated_Source\PSoC6/CapSense_Processing.c ****     return currStatus;
1575:Generated_Source\PSoC6/CapSense_Processing.c **** }
1576:Generated_Source\PSoC6/CapSense_Processing.c **** #endif /* #if (0u != CapSense_SLIDER_WIDGET_EN) */
1577:Generated_Source\PSoC6/CapSense_Processing.c **** 
ARM GAS  C:\Users\PC\AppData\Local\Temp\ccQeYTXk.s 			page 50


1578:Generated_Source\PSoC6/CapSense_Processing.c **** #if (0u != CapSense_TOTAL_LINEAR_SLIDERS)
1579:Generated_Source\PSoC6/CapSense_Processing.c **** /*******************************************************************************
1580:Generated_Source\PSoC6/CapSense_Processing.c **** * Function Name: DpUpdateLinSlider
1581:Generated_Source\PSoC6/CapSense_Processing.c **** ****************************************************************************//**
1582:Generated_Source\PSoC6/CapSense_Processing.c **** *
1583:Generated_Source\PSoC6/CapSense_Processing.c **** * \brief
1584:Generated_Source\PSoC6/CapSense_Processing.c **** *   Updates the touch status of the Linear Slider widget.
1585:Generated_Source\PSoC6/CapSense_Processing.c **** *
1586:Generated_Source\PSoC6/CapSense_Processing.c **** * \details
1587:Generated_Source\PSoC6/CapSense_Processing.c **** *   This function updates the position data of the Linear Slider
1588:Generated_Source\PSoC6/CapSense_Processing.c **** *   in the Data Structure. Also, this function runs position filters for the
1589:Generated_Source\PSoC6/CapSense_Processing.c **** *   position data if any enabled.
1590:Generated_Source\PSoC6/CapSense_Processing.c **** *
1591:Generated_Source\PSoC6/CapSense_Processing.c **** * \param newPos       The pointer to the array with the new finger position coordinates.
1592:Generated_Source\PSoC6/CapSense_Processing.c **** * \param numTouches   The number of the coordinates in the newPos array.
1593:Generated_Source\PSoC6/CapSense_Processing.c **** * \param ptrFlashWdgt The pointer to the Flash Widget Object.
1594:Generated_Source\PSoC6/CapSense_Processing.c **** * \param ptrRamWdgt   The pointer to the RAM Widget Object.
1595:Generated_Source\PSoC6/CapSense_Processing.c **** *
1596:Generated_Source\PSoC6/CapSense_Processing.c **** *******************************************************************************/
1597:Generated_Source\PSoC6/CapSense_Processing.c **** __STATIC_INLINE void DpUpdateLinSlider(
1598:Generated_Source\PSoC6/CapSense_Processing.c ****                         const uint16 newPos[],
1599:Generated_Source\PSoC6/CapSense_Processing.c ****                         uint32 numTouches,
1600:Generated_Source\PSoC6/CapSense_Processing.c ****                         CapSense_FLASH_WD_STRUCT const *ptrFlashWdgt,
1601:Generated_Source\PSoC6/CapSense_Processing.c ****                         CapSense_RAM_WD_SLIDER_STRUCT *ptrRamWdgt)
1602:Generated_Source\PSoC6/CapSense_Processing.c **** {
1603:Generated_Source\PSoC6/CapSense_Processing.c ****     uint32 touchIdx;
1604:Generated_Source\PSoC6/CapSense_Processing.c **** 
1605:Generated_Source\PSoC6/CapSense_Processing.c ****     #if (0u != CapSense_POS_AVERAGE_FILTER_EN)
1606:Generated_Source\PSoC6/CapSense_Processing.c ****         uint16 tempPosition;
1607:Generated_Source\PSoC6/CapSense_Processing.c ****     #endif /* (0u != CapSense_POS_AVERAGE_FILTER_EN) */
1608:Generated_Source\PSoC6/CapSense_Processing.c **** 
1609:Generated_Source\PSoC6/CapSense_Processing.c ****     #if (0u == CapSense_POSITION_FILTER_EN)
1610:Generated_Source\PSoC6/CapSense_Processing.c ****         /* This parameter is unused in such configurations */
1611:Generated_Source\PSoC6/CapSense_Processing.c ****         (void)ptrFlashWdgt;
1612:Generated_Source\PSoC6/CapSense_Processing.c ****     #else
1613:Generated_Source\PSoC6/CapSense_Processing.c ****         uint16 filteredPosition;
1614:Generated_Source\PSoC6/CapSense_Processing.c ****         /* Get bitmask with the enabled filters */
1615:Generated_Source\PSoC6/CapSense_Processing.c ****         uint32 filterConfig = (uint32)ptrFlashWdgt->staticConfig;
1616:Generated_Source\PSoC6/CapSense_Processing.c ****         /* Get pointer to the position filter history */
1617:Generated_Source\PSoC6/CapSense_Processing.c ****         CapSense_SLIDER_POS_HISTORY_STRUCT *ptrHistory = ptrFlashWdgt->ptr2PosHistory;
1618:Generated_Source\PSoC6/CapSense_Processing.c ****     #endif /* #if (0u == CapSense_POSITION_FILTER_EN) */
1619:Generated_Source\PSoC6/CapSense_Processing.c **** 
1620:Generated_Source\PSoC6/CapSense_Processing.c ****     #if (0u != CapSense_POS_ADAPTIVE_IIR_FILTER_EN)
1621:Generated_Source\PSoC6/CapSense_Processing.c ****         ADAPTIVE_FILTER_CONTEXT_STRUCT contextAIIR;
1622:Generated_Source\PSoC6/CapSense_Processing.c ****         uint16 emptyPosition = 0;
1623:Generated_Source\PSoC6/CapSense_Processing.c ****     #endif /* (0u != CapSense_POS_ADAPTIVE_IIR_FILTER_EN) */
1624:Generated_Source\PSoC6/CapSense_Processing.c **** 
1625:Generated_Source\PSoC6/CapSense_Processing.c ****     /* Run Filter and update the position registers with the filtered data */
1626:Generated_Source\PSoC6/CapSense_Processing.c ****     for (touchIdx = 0u; touchIdx < numTouches; touchIdx++)
 1122              		.loc 1 1626 0
 1123 009c 0022     		movs	r2, #0
 1124 009e 0BE0     		b	.L72
 1125              	.LVL209:
 1126              	.L73:
1627:Generated_Source\PSoC6/CapSense_Processing.c ****     {
1628:Generated_Source\PSoC6/CapSense_Processing.c ****         #if (0u == CapSense_POSITION_FILTER_EN)
1629:Generated_Source\PSoC6/CapSense_Processing.c ****             /* If filters are not enabled just copy the position data */
ARM GAS  C:\Users\PC\AppData\Local\Temp\ccQeYTXk.s 			page 51


1630:Generated_Source\PSoC6/CapSense_Processing.c ****             ptrRamWdgt->position[touchIdx] = newPos[touchIdx];
 1127              		.loc 1 1630 0
 1128 00a0 5300     		lsls	r3, r2, #1
 1129 00a2 02A9     		add	r1, sp, #8
 1130 00a4 8C46     		mov	ip, r1
 1131 00a6 6344     		add	r3, r3, ip
 1132 00a8 043B     		subs	r3, r3, #4
 1133 00aa 1988     		ldrh	r1, [r3]
 1134 00ac 1300     		movs	r3, r2
 1135 00ae 0833     		adds	r3, r3, #8
 1136 00b0 5B00     		lsls	r3, r3, #1
 1137 00b2 EB18     		adds	r3, r5, r3
 1138 00b4 9980     		strh	r1, [r3, #4]
1626:Generated_Source\PSoC6/CapSense_Processing.c ****     {
 1139              		.loc 1 1626 0
 1140 00b6 0132     		adds	r2, r2, #1
 1141              	.LVL210:
 1142              	.L72:
 1143 00b8 9042     		cmp	r0, r2
 1144 00ba F1D8     		bhi	.L73
 1145 00bc 07E0     		b	.L71
 1146              	.LVL211:
 1147              	.L74:
 1148              	.LBE9:
 1149              	.LBE8:
1564:Generated_Source\PSoC6/CapSense_Processing.c **** 
 1150              		.loc 1 1564 0 discriminator 3
 1151 00be 0300     		movs	r3, r0
 1152 00c0 0833     		adds	r3, r3, #8
 1153 00c2 5B00     		lsls	r3, r3, #1
 1154 00c4 EB18     		adds	r3, r5, r3
 1155 00c6 0122     		movs	r2, #1
 1156 00c8 5242     		rsbs	r2, r2, #0
 1157 00ca 9A80     		strh	r2, [r3, #4]
1562:Generated_Source\PSoC6/CapSense_Processing.c ****     {
 1158              		.loc 1 1562 0 discriminator 3
 1159 00cc 0130     		adds	r0, r0, #1
 1160              	.LVL212:
 1161              	.L71:
1562:Generated_Source\PSoC6/CapSense_Processing.c ****     {
 1162              		.loc 1 1562 0 is_stmt 0 discriminator 1
 1163 00ce 0028     		cmp	r0, #0
 1164 00d0 F5D0     		beq	.L74
1575:Generated_Source\PSoC6/CapSense_Processing.c **** #endif /* #if (0u != CapSense_SLIDER_WIDGET_EN) */
 1165              		.loc 1 1575 0 is_stmt 1
 1166 00d2 2000     		movs	r0, r4
 1167              	.LVL213:
 1168 00d4 02B0     		add	sp, sp, #8
 1169              		@ sp needed
 1170              	.LVL214:
 1171              	.LVL215:
 1172              	.LVL216:
 1173              	.LVL217:
 1174              	.LVL218:
 1175 00d6 04BC     		pop	{r2}
 1176 00d8 9046     		mov	r8, r2
 1177 00da F0BD     		pop	{r4, r5, r6, r7, pc}
ARM GAS  C:\Users\PC\AppData\Local\Temp\ccQeYTXk.s 			page 52


 1178              		.cfi_endproc
 1179              	.LFE56:
 1180              		.size	CapSense_DpProcessSlider, .-CapSense_DpProcessSlider
 1181              		.section	.text.CapSense_DpProcessCsdWidgetStatus,"ax",%progbits
 1182              		.align	2
 1183              		.global	CapSense_DpProcessCsdWidgetStatus
 1184              		.code	16
 1185              		.thumb_func
 1186              		.type	CapSense_DpProcessCsdWidgetStatus, %function
 1187              	CapSense_DpProcessCsdWidgetStatus:
 1188              	.LFB52:
1016:Generated_Source\PSoC6/CapSense_Processing.c ****     uint32 sensorStatus;
 1189              		.loc 1 1016 0
 1190              		.cfi_startproc
 1191              		@ args = 0, pretend = 0, frame = 0
 1192              		@ frame_needed = 0, uses_anonymous_args = 0
 1193              	.LVL219:
 1194 0000 70B5     		push	{r4, r5, r6, lr}
 1195              		.cfi_def_cfa_offset 16
 1196              		.cfi_offset 4, -16
 1197              		.cfi_offset 5, -12
 1198              		.cfi_offset 6, -8
 1199              		.cfi_offset 14, -4
 1200 0002 0400     		movs	r4, r0
1022:Generated_Source\PSoC6/CapSense_Processing.c ****     sensorStatus = CapSense_dsRam.snsStatus[widgetId];
 1201              		.loc 1 1022 0
 1202 0004 8A7E     		ldrb	r2, [r1, #26]
 1203              	.LVL220:
1023:Generated_Source\PSoC6/CapSense_Processing.c **** 
 1204              		.loc 1 1023 0
 1205 0006 194B     		ldr	r3, .L85
 1206 0008 1B18     		adds	r3, r3, r0
 1207 000a 1D7E     		ldrb	r5, [r3, #24]
 1208              	.LVL221:
1025:Generated_Source\PSoC6/CapSense_Processing.c ****     {
 1209              		.loc 1 1025 0
 1210 000c 012A     		cmp	r2, #1
 1211 000e 04D0     		beq	.L79
 1212 0010 002A     		cmp	r2, #0
 1213 0012 0CD0     		beq	.L78
 1214 0014 032A     		cmp	r2, #3
 1215 0016 05D9     		bls	.L84
 1216 0018 09E0     		b	.L78
 1217              	.L79:
1029:Generated_Source\PSoC6/CapSense_Processing.c ****             break;
 1218              		.loc 1 1029 0
 1219 001a 2800     		movs	r0, r5
 1220              	.LVL222:
 1221 001c FFF7FEFF 		bl	CapSense_DpProcessButton
 1222              	.LVL223:
 1223 0020 0500     		movs	r5, r0
 1224              	.LVL224:
1030:Generated_Source\PSoC6/CapSense_Processing.c ****     #endif /* #if (0u != CapSense_BUTTON_WIDGET_EN) */
 1225              		.loc 1 1030 0
 1226 0022 08E0     		b	.L81
 1227              	.LVL225:
 1228              	.L84:
ARM GAS  C:\Users\PC\AppData\Local\Temp\ccQeYTXk.s 			page 53


1036:Generated_Source\PSoC6/CapSense_Processing.c ****             break;
 1229              		.loc 1 1036 0
 1230 0024 2800     		movs	r0, r5
 1231              	.LVL226:
 1232 0026 FFF7FEFF 		bl	CapSense_DpProcessSlider
 1233              	.LVL227:
 1234 002a 0500     		movs	r5, r0
 1235              	.LVL228:
1037:Generated_Source\PSoC6/CapSense_Processing.c ****     #endif /* #if (0u != CapSense_SLIDER_WIDGET_EN) */
 1236              		.loc 1 1037 0
 1237 002c 03E0     		b	.L81
 1238              	.LVL229:
 1239              	.L78:
1062:Generated_Source\PSoC6/CapSense_Processing.c ****         break;
 1240              		.loc 1 1062 0 discriminator 1
 1241 002e 1049     		ldr	r1, .L85+4
 1242              	.LVL230:
 1243 0030 1048     		ldr	r0, .L85+8
 1244              	.LVL231:
 1245 0032 FFF7FEFF 		bl	Cy_SysLib_AssertFailed
 1246              	.LVL232:
 1247              	.L81:
1066:Generated_Source\PSoC6/CapSense_Processing.c **** 
 1248              		.loc 1 1066 0
 1249 0036 0D4B     		ldr	r3, .L85
 1250 0038 1B19     		adds	r3, r3, r4
 1251 003a 1D76     		strb	r5, [r3, #24]
1069:Generated_Source\PSoC6/CapSense_Processing.c ****     wdStatusMask = CapSense_GET_WDGT_STATUS_MASK(widgetId);
 1252              		.loc 1 1069 0
 1253 003c 6309     		lsrs	r3, r4, #5
 1254              	.LVL233:
1070:Generated_Source\PSoC6/CapSense_Processing.c **** 
 1255              		.loc 1 1070 0
 1256 003e 1F22     		movs	r2, #31
 1257 0040 1440     		ands	r4, r2
 1258              	.LVL234:
 1259 0042 1E3A     		subs	r2, r2, #30
 1260 0044 A240     		lsls	r2, r2, r4
 1261              	.LVL235:
1073:Generated_Source\PSoC6/CapSense_Processing.c ****     {
 1262              		.loc 1 1073 0
 1263 0046 002D     		cmp	r5, #0
 1264 0048 07D1     		bne	.L82
1075:Generated_Source\PSoC6/CapSense_Processing.c ****     }
 1265              		.loc 1 1075 0
 1266 004a 0433     		adds	r3, r3, #4
 1267              	.LVL236:
 1268 004c 9B00     		lsls	r3, r3, #2
 1269              	.LVL237:
 1270 004e 0749     		ldr	r1, .L85
 1271 0050 CB18     		adds	r3, r1, r3
 1272 0052 5968     		ldr	r1, [r3, #4]
 1273 0054 9143     		bics	r1, r2
 1274 0056 5960     		str	r1, [r3, #4]
 1275 0058 06E0     		b	.L77
 1276              	.LVL238:
 1277              	.L82:
ARM GAS  C:\Users\PC\AppData\Local\Temp\ccQeYTXk.s 			page 54


1079:Generated_Source\PSoC6/CapSense_Processing.c ****     }
 1278              		.loc 1 1079 0
 1279 005a 0433     		adds	r3, r3, #4
 1280              	.LVL239:
 1281 005c 9B00     		lsls	r3, r3, #2
 1282              	.LVL240:
 1283 005e 0349     		ldr	r1, .L85
 1284 0060 CB18     		adds	r3, r1, r3
 1285 0062 5968     		ldr	r1, [r3, #4]
 1286 0064 0A43     		orrs	r2, r1
 1287              	.LVL241:
 1288 0066 5A60     		str	r2, [r3, #4]
 1289              	.L77:
1081:Generated_Source\PSoC6/CapSense_Processing.c **** #endif /* #if (0u != CapSense_TOTAL_CSD_WIDGETS) */
 1290              		.loc 1 1081 0
 1291              		@ sp needed
 1292              	.LVL242:
 1293              	.LVL243:
 1294 0068 70BD     		pop	{r4, r5, r6, pc}
 1295              	.L86:
 1296 006a C046     		.align	2
 1297              	.L85:
 1298 006c 00000000 		.word	CapSense_dsRam
 1299 0070 26040000 		.word	1062
 1300 0074 00000000 		.word	.LC3
 1301              		.cfi_endproc
 1302              	.LFE52:
 1303              		.size	CapSense_DpProcessCsdWidgetStatus, .-CapSense_DpProcessCsdWidgetStatus
 1304              		.section	.rodata.str1.4,"aMS",%progbits,1
 1305              		.align	2
 1306              	.LC3:
 1307 0000 47656E65 		.ascii	"Generated_Source\\PSoC6\\CapSense_Processing.c\000"
 1307      72617465 
 1307      645F536F 
 1307      75726365 
 1307      5C50536F 
 1308              		.text
 1309              	.Letext0:
 1310              		.file 2 "c:\\program files (x86)\\cypress\\psoc creator\\4.4\\psoc creator\\import\\gnu\\arm\\5.4.
 1311              		.file 3 "c:\\program files (x86)\\cypress\\psoc creator\\4.4\\psoc creator\\import\\gnu\\arm\\5.4.
 1312              		.file 4 "c:\\program files (x86)\\cypress\\psoc creator\\4.4\\psoc creator\\import\\gnu\\arm\\5.4.
 1313              		.file 5 "Generated_Source\\PSoC6\\pdl\\drivers/peripheral/syslib/cy_syslib.h"
 1314              		.file 6 "Generated_Source\\PSoC6\\CapSense_Configuration.h"
 1315              		.file 7 "Generated_Source\\PSoC6\\CapSense_SmartSense_LL.h"
 1316              		.file 8 "Generated_Source\\PSoC6\\CapSense_TMG.h"
 1317              		.file 9 "Generated_Source\\PSoC6\\CapSense_Structure.h"
 1318              		.file 10 "c:\\program files (x86)\\cypress\\psoc creator\\4.4\\psoc creator\\import\\gnu\\arm\\5.4
 1319              		.file 11 "Generated_Source\\PSoC6\\CapSense_Filter.h"
 1320              		.file 12 "Generated_Source\\PSoC6\\CapSense_Centroid_LL.h"
 1321              		.section	.debug_info,"",%progbits
 1322              	.Ldebug_info0:
 1323 0000 71160000 		.4byte	0x1671
 1324 0004 0400     		.2byte	0x4
 1325 0006 00000000 		.4byte	.Ldebug_abbrev0
 1326 000a 04       		.byte	0x4
 1327 000b 01       		.uleb128 0x1
 1328 000c 34040000 		.4byte	.LASF250
ARM GAS  C:\Users\PC\AppData\Local\Temp\ccQeYTXk.s 			page 55


 1329 0010 0C       		.byte	0xc
 1330 0011 CC040000 		.4byte	.LASF251
 1331 0015 E9080000 		.4byte	.LASF252
 1332 0019 00000000 		.4byte	.Ldebug_ranges0+0
 1333 001d 00000000 		.4byte	0
 1334 0021 00000000 		.4byte	.Ldebug_line0
 1335 0025 02       		.uleb128 0x2
 1336 0026 01       		.byte	0x1
 1337 0027 06       		.byte	0x6
 1338 0028 BD0E0000 		.4byte	.LASF0
 1339 002c 03       		.uleb128 0x3
 1340 002d 930C0000 		.4byte	.LASF3
 1341 0031 02       		.byte	0x2
 1342 0032 1D       		.byte	0x1d
 1343 0033 37000000 		.4byte	0x37
 1344 0037 02       		.uleb128 0x2
 1345 0038 01       		.byte	0x1
 1346 0039 08       		.byte	0x8
 1347 003a DB0D0000 		.4byte	.LASF1
 1348 003e 02       		.uleb128 0x2
 1349 003f 02       		.byte	0x2
 1350 0040 05       		.byte	0x5
 1351 0041 A90B0000 		.4byte	.LASF2
 1352 0045 03       		.uleb128 0x3
 1353 0046 DE050000 		.4byte	.LASF4
 1354 004a 02       		.byte	0x2
 1355 004b 2B       		.byte	0x2b
 1356 004c 50000000 		.4byte	0x50
 1357 0050 02       		.uleb128 0x2
 1358 0051 02       		.byte	0x2
 1359 0052 07       		.byte	0x7
 1360 0053 F30E0000 		.4byte	.LASF5
 1361 0057 03       		.uleb128 0x3
 1362 0058 64020000 		.4byte	.LASF6
 1363 005c 02       		.byte	0x2
 1364 005d 3F       		.byte	0x3f
 1365 005e 62000000 		.4byte	0x62
 1366 0062 02       		.uleb128 0x2
 1367 0063 04       		.byte	0x4
 1368 0064 05       		.byte	0x5
 1369 0065 E40B0000 		.4byte	.LASF7
 1370 0069 03       		.uleb128 0x3
 1371 006a F60D0000 		.4byte	.LASF8
 1372 006e 02       		.byte	0x2
 1373 006f 41       		.byte	0x41
 1374 0070 74000000 		.4byte	0x74
 1375 0074 02       		.uleb128 0x2
 1376 0075 04       		.byte	0x4
 1377 0076 07       		.byte	0x7
 1378 0077 1C0D0000 		.4byte	.LASF9
 1379 007b 02       		.uleb128 0x2
 1380 007c 08       		.byte	0x8
 1381 007d 05       		.byte	0x5
 1382 007e 3A090000 		.4byte	.LASF10
 1383 0082 02       		.uleb128 0x2
 1384 0083 08       		.byte	0x8
 1385 0084 07       		.byte	0x7
ARM GAS  C:\Users\PC\AppData\Local\Temp\ccQeYTXk.s 			page 56


 1386 0085 6F050000 		.4byte	.LASF11
 1387 0089 04       		.uleb128 0x4
 1388 008a 04       		.byte	0x4
 1389 008b 05       		.byte	0x5
 1390 008c 696E7400 		.ascii	"int\000"
 1391 0090 02       		.uleb128 0x2
 1392 0091 04       		.byte	0x4
 1393 0092 07       		.byte	0x7
 1394 0093 D4010000 		.4byte	.LASF12
 1395 0097 03       		.uleb128 0x3
 1396 0098 5A080000 		.4byte	.LASF13
 1397 009c 03       		.byte	0x3
 1398 009d 18       		.byte	0x18
 1399 009e 2C000000 		.4byte	0x2c
 1400 00a2 03       		.uleb128 0x3
 1401 00a3 D20D0000 		.4byte	.LASF14
 1402 00a7 03       		.byte	0x3
 1403 00a8 24       		.byte	0x24
 1404 00a9 45000000 		.4byte	0x45
 1405 00ad 03       		.uleb128 0x3
 1406 00ae 96020000 		.4byte	.LASF15
 1407 00b2 03       		.byte	0x3
 1408 00b3 2C       		.byte	0x2c
 1409 00b4 57000000 		.4byte	0x57
 1410 00b8 03       		.uleb128 0x3
 1411 00b9 F2030000 		.4byte	.LASF16
 1412 00bd 03       		.byte	0x3
 1413 00be 30       		.byte	0x30
 1414 00bf 69000000 		.4byte	0x69
 1415 00c3 03       		.uleb128 0x3
 1416 00c4 95060000 		.4byte	.LASF17
 1417 00c8 04       		.byte	0x4
 1418 00c9 D8       		.byte	0xd8
 1419 00ca 90000000 		.4byte	0x90
 1420 00ce 02       		.uleb128 0x2
 1421 00cf 08       		.byte	0x8
 1422 00d0 04       		.byte	0x4
 1423 00d1 DD0A0000 		.4byte	.LASF18
 1424 00d5 02       		.uleb128 0x2
 1425 00d6 04       		.byte	0x4
 1426 00d7 07       		.byte	0x7
 1427 00d8 130D0000 		.4byte	.LASF19
 1428 00dc 05       		.uleb128 0x5
 1429 00dd 97000000 		.4byte	0x97
 1430 00e1 05       		.uleb128 0x5
 1431 00e2 A2000000 		.4byte	0xa2
 1432 00e6 06       		.uleb128 0x6
 1433 00e7 1F0C0000 		.4byte	.LASF20
 1434 00eb 05       		.byte	0x5
 1435 00ec F601     		.2byte	0x1f6
 1436 00ee F2000000 		.4byte	0xf2
 1437 00f2 02       		.uleb128 0x2
 1438 00f3 01       		.byte	0x1
 1439 00f4 08       		.byte	0x8
 1440 00f5 D6070000 		.4byte	.LASF21
 1441 00f9 02       		.uleb128 0x2
 1442 00fa 04       		.byte	0x4
ARM GAS  C:\Users\PC\AppData\Local\Temp\ccQeYTXk.s 			page 57


 1443 00fb 04       		.byte	0x4
 1444 00fc 2E040000 		.4byte	.LASF22
 1445 0100 02       		.uleb128 0x2
 1446 0101 08       		.byte	0x8
 1447 0102 04       		.byte	0x4
 1448 0103 5E0F0000 		.4byte	.LASF23
 1449 0107 06       		.uleb128 0x6
 1450 0108 580F0000 		.4byte	.LASF24
 1451 010c 05       		.byte	0x5
 1452 010d EA03     		.2byte	0x3ea
 1453 010f 97000000 		.4byte	0x97
 1454 0113 06       		.uleb128 0x6
 1455 0114 48080000 		.4byte	.LASF25
 1456 0118 05       		.byte	0x5
 1457 0119 EB03     		.2byte	0x3eb
 1458 011b A2000000 		.4byte	0xa2
 1459 011f 06       		.uleb128 0x6
 1460 0120 320A0000 		.4byte	.LASF26
 1461 0124 05       		.byte	0x5
 1462 0125 EC03     		.2byte	0x3ec
 1463 0127 B8000000 		.4byte	0xb8
 1464 012b 06       		.uleb128 0x6
 1465 012c C6040000 		.4byte	.LASF27
 1466 0130 05       		.byte	0x5
 1467 0131 EF03     		.2byte	0x3ef
 1468 0133 AD000000 		.4byte	0xad
 1469 0137 07       		.uleb128 0x7
 1470 0138 04       		.byte	0x4
 1471 0139 03       		.uleb128 0x3
 1472 013a 5D0E0000 		.4byte	.LASF28
 1473 013e 06       		.byte	0x6
 1474 013f F2       		.byte	0xf2
 1475 0140 13010000 		.4byte	0x113
 1476 0144 03       		.uleb128 0x3
 1477 0145 69080000 		.4byte	.LASF29
 1478 0149 06       		.byte	0x6
 1479 014a F6       		.byte	0xf6
 1480 014b 07010000 		.4byte	0x107
 1481 014f 08       		.uleb128 0x8
 1482 0150 0C       		.byte	0xc
 1483 0151 07       		.byte	0x7
 1484 0152 6E       		.byte	0x6e
 1485 0153 AC010000 		.4byte	0x1ac
 1486 0157 09       		.uleb128 0x9
 1487 0158 8D0F0000 		.4byte	.LASF30
 1488 015c 07       		.byte	0x7
 1489 015d 73       		.byte	0x73
 1490 015e 13010000 		.4byte	0x113
 1491 0162 00       		.byte	0
 1492 0163 09       		.uleb128 0x9
 1493 0164 940F0000 		.4byte	.LASF31
 1494 0168 07       		.byte	0x7
 1495 0169 77       		.byte	0x77
 1496 016a 13010000 		.4byte	0x113
 1497 016e 02       		.byte	0x2
 1498 016f 09       		.uleb128 0x9
 1499 0170 9B0F0000 		.4byte	.LASF32
ARM GAS  C:\Users\PC\AppData\Local\Temp\ccQeYTXk.s 			page 58


 1500 0174 07       		.byte	0x7
 1501 0175 7B       		.byte	0x7b
 1502 0176 13010000 		.4byte	0x113
 1503 017a 04       		.byte	0x4
 1504 017b 09       		.uleb128 0x9
 1505 017c A20F0000 		.4byte	.LASF33
 1506 0180 07       		.byte	0x7
 1507 0181 7F       		.byte	0x7f
 1508 0182 13010000 		.4byte	0x113
 1509 0186 06       		.byte	0x6
 1510 0187 09       		.uleb128 0x9
 1511 0188 A90F0000 		.4byte	.LASF34
 1512 018c 07       		.byte	0x7
 1513 018d 83       		.byte	0x83
 1514 018e 13010000 		.4byte	0x113
 1515 0192 08       		.byte	0x8
 1516 0193 09       		.uleb128 0x9
 1517 0194 B00F0000 		.4byte	.LASF35
 1518 0198 07       		.byte	0x7
 1519 0199 87       		.byte	0x87
 1520 019a 07010000 		.4byte	0x107
 1521 019e 0A       		.byte	0xa
 1522 019f 09       		.uleb128 0x9
 1523 01a0 B70F0000 		.4byte	.LASF36
 1524 01a4 07       		.byte	0x7
 1525 01a5 8B       		.byte	0x8b
 1526 01a6 07010000 		.4byte	0x107
 1527 01aa 0B       		.byte	0xb
 1528 01ab 00       		.byte	0
 1529 01ac 03       		.uleb128 0x3
 1530 01ad A9070000 		.4byte	.LASF37
 1531 01b1 07       		.byte	0x7
 1532 01b2 8C       		.byte	0x8c
 1533 01b3 4F010000 		.4byte	0x14f
 1534 01b7 08       		.uleb128 0x8
 1535 01b8 06       		.byte	0x6
 1536 01b9 07       		.byte	0x7
 1537 01ba 94       		.byte	0x94
 1538 01bb F0010000 		.4byte	0x1f0
 1539 01bf 09       		.uleb128 0x9
 1540 01c0 800C0000 		.4byte	.LASF38
 1541 01c4 07       		.byte	0x7
 1542 01c5 99       		.byte	0x99
 1543 01c6 13010000 		.4byte	0x113
 1544 01ca 00       		.byte	0
 1545 01cb 09       		.uleb128 0x9
 1546 01cc CE070000 		.4byte	.LASF39
 1547 01d0 07       		.byte	0x7
 1548 01d1 9E       		.byte	0x9e
 1549 01d2 07010000 		.4byte	0x107
 1550 01d6 02       		.byte	0x2
 1551 01d7 09       		.uleb128 0x9
 1552 01d8 B6090000 		.4byte	.LASF40
 1553 01dc 07       		.byte	0x7
 1554 01dd A3       		.byte	0xa3
 1555 01de 07010000 		.4byte	0x107
 1556 01e2 03       		.byte	0x3
ARM GAS  C:\Users\PC\AppData\Local\Temp\ccQeYTXk.s 			page 59


 1557 01e3 09       		.uleb128 0x9
 1558 01e4 BF060000 		.4byte	.LASF41
 1559 01e8 07       		.byte	0x7
 1560 01e9 A8       		.byte	0xa8
 1561 01ea 07010000 		.4byte	0x107
 1562 01ee 04       		.byte	0x4
 1563 01ef 00       		.byte	0
 1564 01f0 03       		.uleb128 0x3
 1565 01f1 ED0B0000 		.4byte	.LASF42
 1566 01f5 07       		.byte	0x7
 1567 01f6 A9       		.byte	0xa9
 1568 01f7 B7010000 		.4byte	0x1b7
 1569 01fb 08       		.uleb128 0x8
 1570 01fc 56       		.byte	0x56
 1571 01fd 08       		.byte	0x8
 1572 01fe 21       		.byte	0x21
 1573 01ff 98050000 		.4byte	0x598
 1574 0203 09       		.uleb128 0x9
 1575 0204 230A0000 		.4byte	.LASF43
 1576 0208 08       		.byte	0x8
 1577 0209 26       		.byte	0x26
 1578 020a DC000000 		.4byte	0xdc
 1579 020e 00       		.byte	0
 1580 020f 09       		.uleb128 0x9
 1581 0210 8C000000 		.4byte	.LASF44
 1582 0214 08       		.byte	0x8
 1583 0215 2D       		.byte	0x2d
 1584 0216 DC000000 		.4byte	0xdc
 1585 021a 01       		.byte	0x1
 1586 021b 09       		.uleb128 0x9
 1587 021c 9F000000 		.4byte	.LASF45
 1588 0220 08       		.byte	0x8
 1589 0221 33       		.byte	0x33
 1590 0222 DC000000 		.4byte	0xdc
 1591 0226 02       		.byte	0x2
 1592 0227 09       		.uleb128 0x9
 1593 0228 9E030000 		.4byte	.LASF46
 1594 022c 08       		.byte	0x8
 1595 022d 39       		.byte	0x39
 1596 022e DC000000 		.4byte	0xdc
 1597 0232 03       		.byte	0x3
 1598 0233 09       		.uleb128 0x9
 1599 0234 B2030000 		.4byte	.LASF47
 1600 0238 08       		.byte	0x8
 1601 0239 3F       		.byte	0x3f
 1602 023a DC000000 		.4byte	0xdc
 1603 023e 04       		.byte	0x4
 1604 023f 09       		.uleb128 0x9
 1605 0240 62000000 		.4byte	.LASF48
 1606 0244 08       		.byte	0x8
 1607 0245 45       		.byte	0x45
 1608 0246 DC000000 		.4byte	0xdc
 1609 024a 05       		.byte	0x5
 1610 024b 09       		.uleb128 0x9
 1611 024c 77000000 		.4byte	.LASF49
 1612 0250 08       		.byte	0x8
 1613 0251 4B       		.byte	0x4b
ARM GAS  C:\Users\PC\AppData\Local\Temp\ccQeYTXk.s 			page 60


 1614 0252 DC000000 		.4byte	0xdc
 1615 0256 06       		.byte	0x6
 1616 0257 09       		.uleb128 0x9
 1617 0258 360D0000 		.4byte	.LASF50
 1618 025c 08       		.byte	0x8
 1619 025d 51       		.byte	0x51
 1620 025e DC000000 		.4byte	0xdc
 1621 0262 07       		.byte	0x7
 1622 0263 09       		.uleb128 0x9
 1623 0264 F60F0000 		.4byte	.LASF51
 1624 0268 08       		.byte	0x8
 1625 0269 57       		.byte	0x57
 1626 026a DC000000 		.4byte	0xdc
 1627 026e 08       		.byte	0x8
 1628 026f 09       		.uleb128 0x9
 1629 0270 6C010000 		.4byte	.LASF52
 1630 0274 08       		.byte	0x8
 1631 0275 5D       		.byte	0x5d
 1632 0276 DC000000 		.4byte	0xdc
 1633 027a 09       		.byte	0x9
 1634 027b 09       		.uleb128 0x9
 1635 027c C8020000 		.4byte	.LASF53
 1636 0280 08       		.byte	0x8
 1637 0281 63       		.byte	0x63
 1638 0282 DC000000 		.4byte	0xdc
 1639 0286 0A       		.byte	0xa
 1640 0287 09       		.uleb128 0x9
 1641 0288 440F0000 		.4byte	.LASF54
 1642 028c 08       		.byte	0x8
 1643 028d 69       		.byte	0x69
 1644 028e DC000000 		.4byte	0xdc
 1645 0292 0B       		.byte	0xb
 1646 0293 09       		.uleb128 0x9
 1647 0294 0A100000 		.4byte	.LASF55
 1648 0298 08       		.byte	0x8
 1649 0299 6F       		.byte	0x6f
 1650 029a DC000000 		.4byte	0xdc
 1651 029e 0C       		.byte	0xc
 1652 029f 09       		.uleb128 0x9
 1653 02a0 80010000 		.4byte	.LASF56
 1654 02a4 08       		.byte	0x8
 1655 02a5 75       		.byte	0x75
 1656 02a6 DC000000 		.4byte	0xdc
 1657 02aa 0D       		.byte	0xd
 1658 02ab 09       		.uleb128 0x9
 1659 02ac DC020000 		.4byte	.LASF57
 1660 02b0 08       		.byte	0x8
 1661 02b1 7B       		.byte	0x7b
 1662 02b2 DC000000 		.4byte	0xdc
 1663 02b6 0E       		.byte	0xe
 1664 02b7 09       		.uleb128 0x9
 1665 02b8 4A0B0000 		.4byte	.LASF58
 1666 02bc 08       		.byte	0x8
 1667 02bd 83       		.byte	0x83
 1668 02be DC000000 		.4byte	0xdc
 1669 02c2 0F       		.byte	0xf
 1670 02c3 09       		.uleb128 0x9
ARM GAS  C:\Users\PC\AppData\Local\Temp\ccQeYTXk.s 			page 61


 1671 02c4 3A020000 		.4byte	.LASF59
 1672 02c8 08       		.byte	0x8
 1673 02c9 8B       		.byte	0x8b
 1674 02ca DC000000 		.4byte	0xdc
 1675 02ce 10       		.byte	0x10
 1676 02cf 09       		.uleb128 0x9
 1677 02d0 48020000 		.4byte	.LASF60
 1678 02d4 08       		.byte	0x8
 1679 02d5 93       		.byte	0x93
 1680 02d6 DC000000 		.4byte	0xdc
 1681 02da 11       		.byte	0x11
 1682 02db 09       		.uleb128 0x9
 1683 02dc 56020000 		.4byte	.LASF61
 1684 02e0 08       		.byte	0x8
 1685 02e1 9B       		.byte	0x9b
 1686 02e2 DC000000 		.4byte	0xdc
 1687 02e6 12       		.byte	0x12
 1688 02e7 09       		.uleb128 0x9
 1689 02e8 C1080000 		.4byte	.LASF62
 1690 02ec 08       		.byte	0x8
 1691 02ed A2       		.byte	0xa2
 1692 02ee DC000000 		.4byte	0xdc
 1693 02f2 13       		.byte	0x13
 1694 02f3 09       		.uleb128 0x9
 1695 02f4 6E020000 		.4byte	.LASF63
 1696 02f8 08       		.byte	0x8
 1697 02f9 A8       		.byte	0xa8
 1698 02fa DC000000 		.4byte	0xdc
 1699 02fe 14       		.byte	0x14
 1700 02ff 09       		.uleb128 0x9
 1701 0300 9E020000 		.4byte	.LASF64
 1702 0304 08       		.byte	0x8
 1703 0305 AE       		.byte	0xae
 1704 0306 DC000000 		.4byte	0xdc
 1705 030a 15       		.byte	0x15
 1706 030b 09       		.uleb128 0x9
 1707 030c 0F050000 		.4byte	.LASF65
 1708 0310 08       		.byte	0x8
 1709 0311 B4       		.byte	0xb4
 1710 0312 DC000000 		.4byte	0xdc
 1711 0316 16       		.byte	0x16
 1712 0317 09       		.uleb128 0x9
 1713 0318 3C060000 		.4byte	.LASF66
 1714 031c 08       		.byte	0x8
 1715 031d BA       		.byte	0xba
 1716 031e DC000000 		.4byte	0xdc
 1717 0322 17       		.byte	0x17
 1718 0323 09       		.uleb128 0x9
 1719 0324 82020000 		.4byte	.LASF67
 1720 0328 08       		.byte	0x8
 1721 0329 C0       		.byte	0xc0
 1722 032a DC000000 		.4byte	0xdc
 1723 032e 18       		.byte	0x18
 1724 032f 09       		.uleb128 0x9
 1725 0330 39030000 		.4byte	.LASF68
 1726 0334 08       		.byte	0x8
 1727 0335 C6       		.byte	0xc6
ARM GAS  C:\Users\PC\AppData\Local\Temp\ccQeYTXk.s 			page 62


 1728 0336 DC000000 		.4byte	0xdc
 1729 033a 19       		.byte	0x19
 1730 033b 09       		.uleb128 0x9
 1731 033c 23050000 		.4byte	.LASF69
 1732 0340 08       		.byte	0x8
 1733 0341 CC       		.byte	0xcc
 1734 0342 DC000000 		.4byte	0xdc
 1735 0346 1A       		.byte	0x1a
 1736 0347 09       		.uleb128 0x9
 1737 0348 50060000 		.4byte	.LASF70
 1738 034c 08       		.byte	0x8
 1739 034d D2       		.byte	0xd2
 1740 034e DC000000 		.4byte	0xdc
 1741 0352 1B       		.byte	0x1b
 1742 0353 09       		.uleb128 0x9
 1743 0354 710B0000 		.4byte	.LASF71
 1744 0358 08       		.byte	0x8
 1745 0359 DA       		.byte	0xda
 1746 035a DC000000 		.4byte	0xdc
 1747 035e 1C       		.byte	0x1c
 1748 035f 09       		.uleb128 0x9
 1749 0360 7F0B0000 		.4byte	.LASF72
 1750 0364 08       		.byte	0x8
 1751 0365 E2       		.byte	0xe2
 1752 0366 DC000000 		.4byte	0xdc
 1753 036a 1D       		.byte	0x1d
 1754 036b 09       		.uleb128 0x9
 1755 036c 8D0B0000 		.4byte	.LASF73
 1756 0370 08       		.byte	0x8
 1757 0371 EA       		.byte	0xea
 1758 0372 DC000000 		.4byte	0xdc
 1759 0376 1E       		.byte	0x1e
 1760 0377 09       		.uleb128 0x9
 1761 0378 9B0B0000 		.4byte	.LASF74
 1762 037c 08       		.byte	0x8
 1763 037d F2       		.byte	0xf2
 1764 037e DC000000 		.4byte	0xdc
 1765 0382 1F       		.byte	0x1f
 1766 0383 09       		.uleb128 0x9
 1767 0384 11030000 		.4byte	.LASF75
 1768 0388 08       		.byte	0x8
 1769 0389 F9       		.byte	0xf9
 1770 038a DC000000 		.4byte	0xdc
 1771 038e 20       		.byte	0x20
 1772 038f 0A       		.uleb128 0xa
 1773 0390 50070000 		.4byte	.LASF76
 1774 0394 08       		.byte	0x8
 1775 0395 0001     		.2byte	0x100
 1776 0397 DC000000 		.4byte	0xdc
 1777 039b 21       		.byte	0x21
 1778 039c 0A       		.uleb128 0xa
 1779 039d 7B070000 		.4byte	.LASF77
 1780 03a1 08       		.byte	0x8
 1781 03a2 0701     		.2byte	0x107
 1782 03a4 DC000000 		.4byte	0xdc
 1783 03a8 22       		.byte	0x22
 1784 03a9 0A       		.uleb128 0xa
ARM GAS  C:\Users\PC\AppData\Local\Temp\ccQeYTXk.s 			page 63


 1785 03aa 92070000 		.4byte	.LASF78
 1786 03ae 08       		.byte	0x8
 1787 03af 0E01     		.2byte	0x10e
 1788 03b1 DC000000 		.4byte	0xdc
 1789 03b5 23       		.byte	0x23
 1790 03b6 0A       		.uleb128 0xa
 1791 03b7 F1000000 		.4byte	.LASF79
 1792 03bb 08       		.byte	0x8
 1793 03bc 1501     		.2byte	0x115
 1794 03be DC000000 		.4byte	0xdc
 1795 03c2 24       		.byte	0x24
 1796 03c3 0A       		.uleb128 0xa
 1797 03c4 3E010000 		.4byte	.LASF80
 1798 03c8 08       		.byte	0x8
 1799 03c9 1C01     		.2byte	0x11c
 1800 03cb DC000000 		.4byte	0xdc
 1801 03cf 25       		.byte	0x25
 1802 03d0 0A       		.uleb128 0xa
 1803 03d1 55010000 		.4byte	.LASF81
 1804 03d5 08       		.byte	0x8
 1805 03d6 2301     		.2byte	0x123
 1806 03d8 DC000000 		.4byte	0xdc
 1807 03dc 26       		.byte	0x26
 1808 03dd 0A       		.uleb128 0xa
 1809 03de 86050000 		.4byte	.LASF82
 1810 03e2 08       		.byte	0x8
 1811 03e3 2A01     		.2byte	0x12a
 1812 03e5 DC000000 		.4byte	0xdc
 1813 03e9 27       		.byte	0x27
 1814 03ea 0A       		.uleb128 0xa
 1815 03eb C90E0000 		.4byte	.LASF83
 1816 03ef 08       		.byte	0x8
 1817 03f0 3101     		.2byte	0x131
 1818 03f2 DC000000 		.4byte	0xdc
 1819 03f6 28       		.byte	0x28
 1820 03f7 0A       		.uleb128 0xa
 1821 03f8 E10E0000 		.4byte	.LASF84
 1822 03fc 08       		.byte	0x8
 1823 03fd 3701     		.2byte	0x137
 1824 03ff DC000000 		.4byte	0xdc
 1825 0403 29       		.byte	0x29
 1826 0404 0A       		.uleb128 0xa
 1827 0405 9D080000 		.4byte	.LASF85
 1828 0409 08       		.byte	0x8
 1829 040a 3D01     		.2byte	0x13d
 1830 040c DC000000 		.4byte	0xdc
 1831 0410 2A       		.byte	0x2a
 1832 0411 0A       		.uleb128 0xa
 1833 0412 24090000 		.4byte	.LASF86
 1834 0416 08       		.byte	0x8
 1835 0417 4401     		.2byte	0x144
 1836 0419 DC000000 		.4byte	0xdc
 1837 041d 2B       		.byte	0x2b
 1838 041e 0A       		.uleb128 0xa
 1839 041f DB080000 		.4byte	.LASF87
 1840 0423 08       		.byte	0x8
 1841 0424 4A01     		.2byte	0x14a
ARM GAS  C:\Users\PC\AppData\Local\Temp\ccQeYTXk.s 			page 64


 1842 0426 DC000000 		.4byte	0xdc
 1843 042a 2C       		.byte	0x2c
 1844 042b 0A       		.uleb128 0xa
 1845 042c BF0A0000 		.4byte	.LASF88
 1846 0430 08       		.byte	0x8
 1847 0431 5001     		.2byte	0x150
 1848 0433 DC000000 		.4byte	0xdc
 1849 0437 2D       		.byte	0x2d
 1850 0438 0A       		.uleb128 0xa
 1851 0439 280F0000 		.4byte	.LASF89
 1852 043d 08       		.byte	0x8
 1853 043e 5701     		.2byte	0x157
 1854 0440 DC000000 		.4byte	0xdc
 1855 0444 2E       		.byte	0x2e
 1856 0445 0A       		.uleb128 0xa
 1857 0446 FB030000 		.4byte	.LASF90
 1858 044a 08       		.byte	0x8
 1859 044b 5F01     		.2byte	0x15f
 1860 044d DC000000 		.4byte	0xdc
 1861 0451 2F       		.byte	0x2f
 1862 0452 0A       		.uleb128 0xa
 1863 0453 650F0000 		.4byte	.LASF91
 1864 0457 08       		.byte	0x8
 1865 0458 6801     		.2byte	0x168
 1866 045a DC000000 		.4byte	0xdc
 1867 045e 30       		.byte	0x30
 1868 045f 0A       		.uleb128 0xa
 1869 0460 3E070000 		.4byte	.LASF92
 1870 0464 08       		.byte	0x8
 1871 0465 6E01     		.2byte	0x16e
 1872 0467 DC000000 		.4byte	0xdc
 1873 046b 31       		.byte	0x31
 1874 046c 0A       		.uleb128 0xa
 1875 046d 82030000 		.4byte	.LASF93
 1876 0471 08       		.byte	0x8
 1877 0472 7401     		.2byte	0x174
 1878 0474 DC000000 		.4byte	0xdc
 1879 0478 32       		.byte	0x32
 1880 0479 0A       		.uleb128 0xa
 1881 047a CA090000 		.4byte	.LASF94
 1882 047e 08       		.byte	0x8
 1883 047f 7A01     		.2byte	0x17a
 1884 0481 DC000000 		.4byte	0xdc
 1885 0485 33       		.byte	0x33
 1886 0486 0A       		.uleb128 0xa
 1887 0487 D7090000 		.4byte	.LASF95
 1888 048b 08       		.byte	0x8
 1889 048c 8001     		.2byte	0x180
 1890 048e DC000000 		.4byte	0xdc
 1891 0492 34       		.byte	0x34
 1892 0493 0A       		.uleb128 0xa
 1893 0494 B6010000 		.4byte	.LASF96
 1894 0498 08       		.byte	0x8
 1895 0499 8601     		.2byte	0x186
 1896 049b E1000000 		.4byte	0xe1
 1897 049f 36       		.byte	0x36
 1898 04a0 0A       		.uleb128 0xa
ARM GAS  C:\Users\PC\AppData\Local\Temp\ccQeYTXk.s 			page 65


 1899 04a1 5A0D0000 		.4byte	.LASF97
 1900 04a5 08       		.byte	0x8
 1901 04a6 8B01     		.2byte	0x18b
 1902 04a8 E1000000 		.4byte	0xe1
 1903 04ac 38       		.byte	0x38
 1904 04ad 0A       		.uleb128 0xa
 1905 04ae 660D0000 		.4byte	.LASF98
 1906 04b2 08       		.byte	0x8
 1907 04b3 9001     		.2byte	0x190
 1908 04b5 E1000000 		.4byte	0xe1
 1909 04b9 3A       		.byte	0x3a
 1910 04ba 0A       		.uleb128 0xa
 1911 04bb 1E040000 		.4byte	.LASF99
 1912 04bf 08       		.byte	0x8
 1913 04c0 9501     		.2byte	0x195
 1914 04c2 E1000000 		.4byte	0xe1
 1915 04c6 3C       		.byte	0x3c
 1916 04c7 0A       		.uleb128 0xa
 1917 04c8 00000000 		.4byte	.LASF100
 1918 04cc 08       		.byte	0x8
 1919 04cd 9A01     		.2byte	0x19a
 1920 04cf E1000000 		.4byte	0xe1
 1921 04d3 3E       		.byte	0x3e
 1922 04d4 0A       		.uleb128 0xa
 1923 04d5 F0020000 		.4byte	.LASF101
 1924 04d9 08       		.byte	0x8
 1925 04da A001     		.2byte	0x1a0
 1926 04dc E1000000 		.4byte	0xe1
 1927 04e0 40       		.byte	0x40
 1928 04e1 0A       		.uleb128 0xa
 1929 04e2 230B0000 		.4byte	.LASF102
 1930 04e6 08       		.byte	0x8
 1931 04e7 A801     		.2byte	0x1a8
 1932 04e9 E1000000 		.4byte	0xe1
 1933 04ed 42       		.byte	0x42
 1934 04ee 0A       		.uleb128 0xa
 1935 04ef C00D0000 		.4byte	.LASF103
 1936 04f3 08       		.byte	0x8
 1937 04f4 AF01     		.2byte	0x1af
 1938 04f6 E1000000 		.4byte	0xe1
 1939 04fa 44       		.byte	0x44
 1940 04fb 0A       		.uleb128 0xa
 1941 04fc A6060000 		.4byte	.LASF104
 1942 0500 08       		.byte	0x8
 1943 0501 B701     		.2byte	0x1b7
 1944 0503 E1000000 		.4byte	0xe1
 1945 0507 46       		.byte	0x46
 1946 0508 0A       		.uleb128 0xa
 1947 0509 390E0000 		.4byte	.LASF105
 1948 050d 08       		.byte	0x8
 1949 050e BD01     		.2byte	0x1bd
 1950 0510 E1000000 		.4byte	0xe1
 1951 0514 48       		.byte	0x48
 1952 0515 0A       		.uleb128 0xa
 1953 0516 1B070000 		.4byte	.LASF106
 1954 051a 08       		.byte	0x8
 1955 051b C301     		.2byte	0x1c3
ARM GAS  C:\Users\PC\AppData\Local\Temp\ccQeYTXk.s 			page 66


 1956 051d E1000000 		.4byte	0xe1
 1957 0521 4A       		.byte	0x4a
 1958 0522 0A       		.uleb128 0xa
 1959 0523 94030000 		.4byte	.LASF107
 1960 0527 08       		.byte	0x8
 1961 0528 CC01     		.2byte	0x1cc
 1962 052a DC000000 		.4byte	0xdc
 1963 052e 4C       		.byte	0x4c
 1964 052f 0A       		.uleb128 0xa
 1965 0530 770A0000 		.4byte	.LASF108
 1966 0534 08       		.byte	0x8
 1967 0535 D101     		.2byte	0x1d1
 1968 0537 DC000000 		.4byte	0xdc
 1969 053b 4D       		.byte	0x4d
 1970 053c 0A       		.uleb128 0xa
 1971 053d B50A0000 		.4byte	.LASF109
 1972 0541 08       		.byte	0x8
 1973 0542 D601     		.2byte	0x1d6
 1974 0544 DC000000 		.4byte	0xdc
 1975 0548 4E       		.byte	0x4e
 1976 0549 0A       		.uleb128 0xa
 1977 054a B2020000 		.4byte	.LASF110
 1978 054e 08       		.byte	0x8
 1979 054f DB01     		.2byte	0x1db
 1980 0551 DC000000 		.4byte	0xdc
 1981 0555 4F       		.byte	0x4f
 1982 0556 0A       		.uleb128 0xa
 1983 0557 4D030000 		.4byte	.LASF111
 1984 055b 08       		.byte	0x8
 1985 055c E001     		.2byte	0x1e0
 1986 055e DC000000 		.4byte	0xdc
 1987 0562 50       		.byte	0x50
 1988 0563 0A       		.uleb128 0xa
 1989 0564 9D0C0000 		.4byte	.LASF112
 1990 0568 08       		.byte	0x8
 1991 0569 E501     		.2byte	0x1e5
 1992 056b DC000000 		.4byte	0xdc
 1993 056f 51       		.byte	0x51
 1994 0570 0A       		.uleb128 0xa
 1995 0571 890C0000 		.4byte	.LASF113
 1996 0575 08       		.byte	0x8
 1997 0576 EA01     		.2byte	0x1ea
 1998 0578 DC000000 		.4byte	0xdc
 1999 057c 52       		.byte	0x52
 2000 057d 0A       		.uleb128 0xa
 2001 057e 20080000 		.4byte	.LASF114
 2002 0582 08       		.byte	0x8
 2003 0583 EF01     		.2byte	0x1ef
 2004 0585 DC000000 		.4byte	0xdc
 2005 0589 53       		.byte	0x53
 2006 058a 0A       		.uleb128 0xa
 2007 058b 9C060000 		.4byte	.LASF115
 2008 058f 08       		.byte	0x8
 2009 0590 F401     		.2byte	0x1f4
 2010 0592 DC000000 		.4byte	0xdc
 2011 0596 54       		.byte	0x54
 2012 0597 00       		.byte	0
ARM GAS  C:\Users\PC\AppData\Local\Temp\ccQeYTXk.s 			page 67


 2013 0598 06       		.uleb128 0x6
 2014 0599 F80C0000 		.4byte	.LASF116
 2015 059d 08       		.byte	0x8
 2016 059e F501     		.2byte	0x1f5
 2017 05a0 FB010000 		.4byte	0x1fb
 2018 05a4 0B       		.uleb128 0xb
 2019 05a5 01       		.byte	0x1
 2020 05a6 37000000 		.4byte	0x37
 2021 05aa 09       		.byte	0x9
 2022 05ab 61       		.byte	0x61
 2023 05ac D5050000 		.4byte	0x5d5
 2024 05b0 0C       		.uleb128 0xc
 2025 05b1 3C0C0000 		.4byte	.LASF117
 2026 05b5 01       		.byte	0x1
 2027 05b6 0C       		.uleb128 0xc
 2028 05b7 5B0A0000 		.4byte	.LASF118
 2029 05bb 02       		.byte	0x2
 2030 05bc 0C       		.uleb128 0xc
 2031 05bd CA060000 		.4byte	.LASF119
 2032 05c1 03       		.byte	0x3
 2033 05c2 0C       		.uleb128 0xc
 2034 05c3 98050000 		.4byte	.LASF120
 2035 05c7 04       		.byte	0x4
 2036 05c8 0C       		.uleb128 0xc
 2037 05c9 22030000 		.4byte	.LASF121
 2038 05cd 05       		.byte	0x5
 2039 05ce 0C       		.uleb128 0xc
 2040 05cf 22000000 		.4byte	.LASF122
 2041 05d3 06       		.byte	0x6
 2042 05d4 00       		.byte	0
 2043 05d5 03       		.uleb128 0x3
 2044 05d6 000A0000 		.4byte	.LASF123
 2045 05da 09       		.byte	0x9
 2046 05db 68       		.byte	0x68
 2047 05dc A4050000 		.4byte	0x5a4
 2048 05e0 08       		.uleb128 0x8
 2049 05e1 14       		.byte	0x14
 2050 05e2 09       		.byte	0x9
 2051 05e3 8C       		.byte	0x8c
 2052 05e4 85060000 		.4byte	0x685
 2053 05e8 09       		.uleb128 0x9
 2054 05e9 4F080000 		.4byte	.LASF124
 2055 05ed 09       		.byte	0x9
 2056 05ee 92       		.byte	0x92
 2057 05ef 13010000 		.4byte	0x113
 2058 05f3 00       		.byte	0
 2059 05f4 09       		.uleb128 0x9
 2060 05f5 800C0000 		.4byte	.LASF38
 2061 05f9 09       		.byte	0x9
 2062 05fa 97       		.byte	0x97
 2063 05fb 39010000 		.4byte	0x139
 2064 05ff 02       		.byte	0x2
 2065 0600 09       		.uleb128 0x9
 2066 0601 CE070000 		.4byte	.LASF39
 2067 0605 09       		.byte	0x9
 2068 0606 9C       		.byte	0x9c
 2069 0607 07010000 		.4byte	0x107
ARM GAS  C:\Users\PC\AppData\Local\Temp\ccQeYTXk.s 			page 68


 2070 060b 04       		.byte	0x4
 2071 060c 09       		.uleb128 0x9
 2072 060d B6090000 		.4byte	.LASF40
 2073 0611 09       		.byte	0x9
 2074 0612 A1       		.byte	0xa1
 2075 0613 07010000 		.4byte	0x107
 2076 0617 05       		.byte	0x5
 2077 0618 09       		.uleb128 0x9
 2078 0619 BF060000 		.4byte	.LASF41
 2079 061d 09       		.byte	0x9
 2080 061e A6       		.byte	0xa6
 2081 061f 07010000 		.4byte	0x107
 2082 0623 06       		.byte	0x6
 2083 0624 09       		.uleb128 0x9
 2084 0625 50090000 		.4byte	.LASF125
 2085 0629 09       		.byte	0x9
 2086 062a AB       		.byte	0xab
 2087 062b 07010000 		.4byte	0x107
 2088 062f 07       		.byte	0x7
 2089 0630 09       		.uleb128 0x9
 2090 0631 33070000 		.4byte	.LASF126
 2091 0635 09       		.byte	0x9
 2092 0636 B2       		.byte	0xb2
 2093 0637 44010000 		.4byte	0x144
 2094 063b 08       		.byte	0x8
 2095 063c 09       		.uleb128 0x9
 2096 063d 2E0D0000 		.4byte	.LASF127
 2097 0641 09       		.byte	0x9
 2098 0642 BA       		.byte	0xba
 2099 0643 85060000 		.4byte	0x685
 2100 0647 09       		.byte	0x9
 2101 0648 09       		.uleb128 0x9
 2102 0649 A00E0000 		.4byte	.LASF128
 2103 064d 09       		.byte	0x9
 2104 064e C3       		.byte	0xc3
 2105 064f 13010000 		.4byte	0x113
 2106 0653 0A       		.byte	0xa
 2107 0654 09       		.uleb128 0x9
 2108 0655 580B0000 		.4byte	.LASF129
 2109 0659 09       		.byte	0x9
 2110 065a C8       		.byte	0xc8
 2111 065b 07010000 		.4byte	0x107
 2112 065f 0C       		.byte	0xc
 2113 0660 09       		.uleb128 0x9
 2114 0661 BA0C0000 		.4byte	.LASF130
 2115 0665 09       		.byte	0x9
 2116 0666 CF       		.byte	0xcf
 2117 0667 13010000 		.4byte	0x113
 2118 066b 0E       		.byte	0xe
 2119 066c 09       		.uleb128 0x9
 2120 066d B8060000 		.4byte	.LASF131
 2121 0671 09       		.byte	0x9
 2122 0672 D4       		.byte	0xd4
 2123 0673 13010000 		.4byte	0x113
 2124 0677 10       		.byte	0x10
 2125 0678 09       		.uleb128 0x9
 2126 0679 280A0000 		.4byte	.LASF132
ARM GAS  C:\Users\PC\AppData\Local\Temp\ccQeYTXk.s 			page 69


 2127 067d 09       		.byte	0x9
 2128 067e D9       		.byte	0xd9
 2129 067f 07010000 		.4byte	0x107
 2130 0683 12       		.byte	0x12
 2131 0684 00       		.byte	0
 2132 0685 0D       		.uleb128 0xd
 2133 0686 07010000 		.4byte	0x107
 2134 068a 95060000 		.4byte	0x695
 2135 068e 0E       		.uleb128 0xe
 2136 068f D5000000 		.4byte	0xd5
 2137 0693 00       		.byte	0
 2138 0694 00       		.byte	0
 2139 0695 03       		.uleb128 0x3
 2140 0696 E4090000 		.4byte	.LASF133
 2141 069a 09       		.byte	0x9
 2142 069b DA       		.byte	0xda
 2143 069c E0050000 		.4byte	0x5e0
 2144 06a0 08       		.uleb128 0x8
 2145 06a1 16       		.byte	0x16
 2146 06a2 09       		.byte	0x9
 2147 06a3 DF       		.byte	0xdf
 2148 06a4 59070000 		.4byte	0x759
 2149 06a8 09       		.uleb128 0x9
 2150 06a9 4F080000 		.4byte	.LASF124
 2151 06ad 09       		.byte	0x9
 2152 06ae E5       		.byte	0xe5
 2153 06af 13010000 		.4byte	0x113
 2154 06b3 00       		.byte	0
 2155 06b4 09       		.uleb128 0x9
 2156 06b5 800C0000 		.4byte	.LASF38
 2157 06b9 09       		.byte	0x9
 2158 06ba EA       		.byte	0xea
 2159 06bb 39010000 		.4byte	0x139
 2160 06bf 02       		.byte	0x2
 2161 06c0 09       		.uleb128 0x9
 2162 06c1 CE070000 		.4byte	.LASF39
 2163 06c5 09       		.byte	0x9
 2164 06c6 EF       		.byte	0xef
 2165 06c7 07010000 		.4byte	0x107
 2166 06cb 04       		.byte	0x4
 2167 06cc 09       		.uleb128 0x9
 2168 06cd B6090000 		.4byte	.LASF40
 2169 06d1 09       		.byte	0x9
 2170 06d2 F4       		.byte	0xf4
 2171 06d3 07010000 		.4byte	0x107
 2172 06d7 05       		.byte	0x5
 2173 06d8 09       		.uleb128 0x9
 2174 06d9 BF060000 		.4byte	.LASF41
 2175 06dd 09       		.byte	0x9
 2176 06de F9       		.byte	0xf9
 2177 06df 07010000 		.4byte	0x107
 2178 06e3 06       		.byte	0x6
 2179 06e4 09       		.uleb128 0x9
 2180 06e5 50090000 		.4byte	.LASF125
 2181 06e9 09       		.byte	0x9
 2182 06ea FE       		.byte	0xfe
 2183 06eb 07010000 		.4byte	0x107
ARM GAS  C:\Users\PC\AppData\Local\Temp\ccQeYTXk.s 			page 70


 2184 06ef 07       		.byte	0x7
 2185 06f0 0A       		.uleb128 0xa
 2186 06f1 33070000 		.4byte	.LASF126
 2187 06f5 09       		.byte	0x9
 2188 06f6 0501     		.2byte	0x105
 2189 06f8 44010000 		.4byte	0x144
 2190 06fc 08       		.byte	0x8
 2191 06fd 0A       		.uleb128 0xa
 2192 06fe 2E0D0000 		.4byte	.LASF127
 2193 0702 09       		.byte	0x9
 2194 0703 0D01     		.2byte	0x10d
 2195 0705 85060000 		.4byte	0x685
 2196 0709 09       		.byte	0x9
 2197 070a 0A       		.uleb128 0xa
 2198 070b A00E0000 		.4byte	.LASF128
 2199 070f 09       		.byte	0x9
 2200 0710 1601     		.2byte	0x116
 2201 0712 13010000 		.4byte	0x113
 2202 0716 0A       		.byte	0xa
 2203 0717 0A       		.uleb128 0xa
 2204 0718 580B0000 		.4byte	.LASF129
 2205 071c 09       		.byte	0x9
 2206 071d 1B01     		.2byte	0x11b
 2207 071f 07010000 		.4byte	0x107
 2208 0723 0C       		.byte	0xc
 2209 0724 0A       		.uleb128 0xa
 2210 0725 BA0C0000 		.4byte	.LASF130
 2211 0729 09       		.byte	0x9
 2212 072a 2201     		.2byte	0x122
 2213 072c 13010000 		.4byte	0x113
 2214 0730 0E       		.byte	0xe
 2215 0731 0A       		.uleb128 0xa
 2216 0732 B8060000 		.4byte	.LASF131
 2217 0736 09       		.byte	0x9
 2218 0737 2701     		.2byte	0x127
 2219 0739 13010000 		.4byte	0x113
 2220 073d 10       		.byte	0x10
 2221 073e 0A       		.uleb128 0xa
 2222 073f 280A0000 		.4byte	.LASF132
 2223 0743 09       		.byte	0x9
 2224 0744 2C01     		.2byte	0x12c
 2225 0746 07010000 		.4byte	0x107
 2226 074a 12       		.byte	0x12
 2227 074b 0A       		.uleb128 0xa
 2228 074c D00F0000 		.4byte	.LASF134
 2229 0750 09       		.byte	0x9
 2230 0751 3101     		.2byte	0x131
 2231 0753 59070000 		.4byte	0x759
 2232 0757 14       		.byte	0x14
 2233 0758 00       		.byte	0
 2234 0759 0D       		.uleb128 0xd
 2235 075a 13010000 		.4byte	0x113
 2236 075e 69070000 		.4byte	0x769
 2237 0762 0E       		.uleb128 0xe
 2238 0763 D5000000 		.4byte	0xd5
 2239 0767 00       		.byte	0
 2240 0768 00       		.byte	0
ARM GAS  C:\Users\PC\AppData\Local\Temp\ccQeYTXk.s 			page 71


 2241 0769 06       		.uleb128 0x6
 2242 076a DA0C0000 		.4byte	.LASF135
 2243 076e 09       		.byte	0x9
 2244 076f 3201     		.2byte	0x132
 2245 0771 A0060000 		.4byte	0x6a0
 2246 0775 0F       		.uleb128 0xf
 2247 0776 14       		.byte	0x14
 2248 0777 09       		.byte	0x9
 2249 0778 3701     		.2byte	0x137
 2250 077a 28080000 		.4byte	0x828
 2251 077e 0A       		.uleb128 0xa
 2252 077f 4F080000 		.4byte	.LASF124
 2253 0783 09       		.byte	0x9
 2254 0784 3D01     		.2byte	0x13d
 2255 0786 13010000 		.4byte	0x113
 2256 078a 00       		.byte	0
 2257 078b 0A       		.uleb128 0xa
 2258 078c 800C0000 		.4byte	.LASF38
 2259 0790 09       		.byte	0x9
 2260 0791 4201     		.2byte	0x142
 2261 0793 39010000 		.4byte	0x139
 2262 0797 02       		.byte	0x2
 2263 0798 0A       		.uleb128 0xa
 2264 0799 CE070000 		.4byte	.LASF39
 2265 079d 09       		.byte	0x9
 2266 079e 4701     		.2byte	0x147
 2267 07a0 07010000 		.4byte	0x107
 2268 07a4 04       		.byte	0x4
 2269 07a5 0A       		.uleb128 0xa
 2270 07a6 B6090000 		.4byte	.LASF40
 2271 07aa 09       		.byte	0x9
 2272 07ab 4C01     		.2byte	0x14c
 2273 07ad 07010000 		.4byte	0x107
 2274 07b1 05       		.byte	0x5
 2275 07b2 0A       		.uleb128 0xa
 2276 07b3 BF060000 		.4byte	.LASF41
 2277 07b7 09       		.byte	0x9
 2278 07b8 5101     		.2byte	0x151
 2279 07ba 07010000 		.4byte	0x107
 2280 07be 06       		.byte	0x6
 2281 07bf 0A       		.uleb128 0xa
 2282 07c0 50090000 		.4byte	.LASF125
 2283 07c4 09       		.byte	0x9
 2284 07c5 5601     		.2byte	0x156
 2285 07c7 07010000 		.4byte	0x107
 2286 07cb 07       		.byte	0x7
 2287 07cc 0A       		.uleb128 0xa
 2288 07cd 33070000 		.4byte	.LASF126
 2289 07d1 09       		.byte	0x9
 2290 07d2 5D01     		.2byte	0x15d
 2291 07d4 44010000 		.4byte	0x144
 2292 07d8 08       		.byte	0x8
 2293 07d9 0A       		.uleb128 0xa
 2294 07da 2E0D0000 		.4byte	.LASF127
 2295 07de 09       		.byte	0x9
 2296 07df 6501     		.2byte	0x165
 2297 07e1 85060000 		.4byte	0x685
ARM GAS  C:\Users\PC\AppData\Local\Temp\ccQeYTXk.s 			page 72


 2298 07e5 09       		.byte	0x9
 2299 07e6 0A       		.uleb128 0xa
 2300 07e7 A00E0000 		.4byte	.LASF128
 2301 07eb 09       		.byte	0x9
 2302 07ec 6E01     		.2byte	0x16e
 2303 07ee 13010000 		.4byte	0x113
 2304 07f2 0A       		.byte	0xa
 2305 07f3 0A       		.uleb128 0xa
 2306 07f4 580B0000 		.4byte	.LASF129
 2307 07f8 09       		.byte	0x9
 2308 07f9 7301     		.2byte	0x173
 2309 07fb 07010000 		.4byte	0x107
 2310 07ff 0C       		.byte	0xc
 2311 0800 0A       		.uleb128 0xa
 2312 0801 BA0C0000 		.4byte	.LASF130
 2313 0805 09       		.byte	0x9
 2314 0806 7A01     		.2byte	0x17a
 2315 0808 13010000 		.4byte	0x113
 2316 080c 0E       		.byte	0xe
 2317 080d 0A       		.uleb128 0xa
 2318 080e B8060000 		.4byte	.LASF131
 2319 0812 09       		.byte	0x9
 2320 0813 7F01     		.2byte	0x17f
 2321 0815 13010000 		.4byte	0x113
 2322 0819 10       		.byte	0x10
 2323 081a 0A       		.uleb128 0xa
 2324 081b 280A0000 		.4byte	.LASF132
 2325 081f 09       		.byte	0x9
 2326 0820 8401     		.2byte	0x184
 2327 0822 07010000 		.4byte	0x107
 2328 0826 12       		.byte	0x12
 2329 0827 00       		.byte	0
 2330 0828 06       		.uleb128 0x6
 2331 0829 970D0000 		.4byte	.LASF136
 2332 082d 09       		.byte	0x9
 2333 082e 8501     		.2byte	0x185
 2334 0830 75070000 		.4byte	0x775
 2335 0834 0F       		.uleb128 0xf
 2336 0835 3E       		.byte	0x3e
 2337 0836 09       		.byte	0x9
 2338 0837 8B01     		.2byte	0x18b
 2339 0839 65080000 		.4byte	0x865
 2340 083d 0A       		.uleb128 0xa
 2341 083e 7D0E0000 		.4byte	.LASF137
 2342 0842 09       		.byte	0x9
 2343 0843 9001     		.2byte	0x190
 2344 0845 69070000 		.4byte	0x769
 2345 0849 00       		.byte	0
 2346 084a 0A       		.uleb128 0xa
 2347 084b 260C0000 		.4byte	.LASF138
 2348 084f 09       		.byte	0x9
 2349 0850 9501     		.2byte	0x195
 2350 0852 28080000 		.4byte	0x828
 2351 0856 16       		.byte	0x16
 2352 0857 0A       		.uleb128 0xa
 2353 0858 2E0C0000 		.4byte	.LASF139
 2354 085c 09       		.byte	0x9
ARM GAS  C:\Users\PC\AppData\Local\Temp\ccQeYTXk.s 			page 73


 2355 085d 9A01     		.2byte	0x19a
 2356 085f 28080000 		.4byte	0x828
 2357 0863 2A       		.byte	0x2a
 2358 0864 00       		.byte	0
 2359 0865 06       		.uleb128 0x6
 2360 0866 B2000000 		.4byte	.LASF140
 2361 086a 09       		.byte	0x9
 2362 086b 9B01     		.2byte	0x19b
 2363 086d 34080000 		.4byte	0x834
 2364 0871 0F       		.uleb128 0xf
 2365 0872 0A       		.byte	0xa
 2366 0873 09       		.byte	0x9
 2367 0874 A101     		.2byte	0x1a1
 2368 0876 C9080000 		.4byte	0x8c9
 2369 087a 10       		.uleb128 0x10
 2370 087b 72617700 		.ascii	"raw\000"
 2371 087f 09       		.byte	0x9
 2372 0880 A601     		.2byte	0x1a6
 2373 0882 59070000 		.4byte	0x759
 2374 0886 00       		.byte	0
 2375 0887 0A       		.uleb128 0xa
 2376 0888 0F040000 		.4byte	.LASF141
 2377 088c 09       		.byte	0x9
 2378 088d AB01     		.2byte	0x1ab
 2379 088f 59070000 		.4byte	0x759
 2380 0893 02       		.byte	0x2
 2381 0894 0A       		.uleb128 0xa
 2382 0895 8F0D0000 		.4byte	.LASF142
 2383 0899 09       		.byte	0x9
 2384 089a B101     		.2byte	0x1b1
 2385 089c 85060000 		.4byte	0x685
 2386 08a0 04       		.byte	0x4
 2387 08a1 0A       		.uleb128 0xa
 2388 08a2 1A0C0000 		.4byte	.LASF143
 2389 08a6 09       		.byte	0x9
 2390 08a7 B601     		.2byte	0x1b6
 2391 08a9 39010000 		.4byte	0x139
 2392 08ad 06       		.byte	0x6
 2393 08ae 0A       		.uleb128 0xa
 2394 08af 740F0000 		.4byte	.LASF144
 2395 08b3 09       		.byte	0x9
 2396 08b4 BB01     		.2byte	0x1bb
 2397 08b6 C9080000 		.4byte	0x8c9
 2398 08ba 08       		.byte	0x8
 2399 08bb 0A       		.uleb128 0xa
 2400 08bc D2080000 		.4byte	.LASF145
 2401 08c0 09       		.byte	0x9
 2402 08c1 C101     		.2byte	0x1c1
 2403 08c3 85060000 		.4byte	0x685
 2404 08c7 09       		.byte	0x9
 2405 08c8 00       		.byte	0
 2406 08c9 0D       		.uleb128 0xd
 2407 08ca 44010000 		.4byte	0x144
 2408 08ce D9080000 		.4byte	0x8d9
 2409 08d2 0E       		.uleb128 0xe
 2410 08d3 D5000000 		.4byte	0xd5
 2411 08d7 00       		.byte	0
ARM GAS  C:\Users\PC\AppData\Local\Temp\ccQeYTXk.s 			page 74


 2412 08d8 00       		.byte	0
 2413 08d9 06       		.uleb128 0x6
 2414 08da 7D060000 		.4byte	.LASF146
 2415 08de 09       		.byte	0x9
 2416 08df C201     		.2byte	0x1c2
 2417 08e1 71080000 		.4byte	0x871
 2418 08e5 0F       		.uleb128 0xf
 2419 08e6 46       		.byte	0x46
 2420 08e7 09       		.byte	0x9
 2421 08e8 C801     		.2byte	0x1c8
 2422 08ea 16090000 		.4byte	0x916
 2423 08ee 0A       		.uleb128 0xa
 2424 08ef 7D0E0000 		.4byte	.LASF137
 2425 08f3 09       		.byte	0x9
 2426 08f4 CD01     		.2byte	0x1cd
 2427 08f6 16090000 		.4byte	0x916
 2428 08fa 00       		.byte	0
 2429 08fb 0A       		.uleb128 0xa
 2430 08fc 260C0000 		.4byte	.LASF138
 2431 0900 09       		.byte	0x9
 2432 0901 D201     		.2byte	0x1d2
 2433 0903 26090000 		.4byte	0x926
 2434 0907 32       		.byte	0x32
 2435 0908 0A       		.uleb128 0xa
 2436 0909 2E0C0000 		.4byte	.LASF139
 2437 090d 09       		.byte	0x9
 2438 090e D701     		.2byte	0x1d7
 2439 0910 26090000 		.4byte	0x926
 2440 0914 3C       		.byte	0x3c
 2441 0915 00       		.byte	0
 2442 0916 0D       		.uleb128 0xd
 2443 0917 D9080000 		.4byte	0x8d9
 2444 091b 26090000 		.4byte	0x926
 2445 091f 0E       		.uleb128 0xe
 2446 0920 D5000000 		.4byte	0xd5
 2447 0924 04       		.byte	0x4
 2448 0925 00       		.byte	0
 2449 0926 0D       		.uleb128 0xd
 2450 0927 D9080000 		.4byte	0x8d9
 2451 092b 36090000 		.4byte	0x936
 2452 092f 0E       		.uleb128 0xe
 2453 0930 D5000000 		.4byte	0xd5
 2454 0934 00       		.byte	0
 2455 0935 00       		.byte	0
 2456 0936 06       		.uleb128 0x6
 2457 0937 D90F0000 		.4byte	.LASF147
 2458 093b 09       		.byte	0x9
 2459 093c D801     		.2byte	0x1d8
 2460 093e E5080000 		.4byte	0x8e5
 2461 0942 11       		.uleb128 0x11
 2462 0943 0C01     		.2byte	0x10c
 2463 0945 09       		.byte	0x9
 2464 0946 DE01     		.2byte	0x1de
 2465 0948 630A0000 		.4byte	0xa63
 2466 094c 0A       		.uleb128 0xa
 2467 094d 0F0B0000 		.4byte	.LASF148
 2468 0951 09       		.byte	0x9
ARM GAS  C:\Users\PC\AppData\Local\Temp\ccQeYTXk.s 			page 75


 2469 0952 E601     		.2byte	0x1e6
 2470 0954 13010000 		.4byte	0x113
 2471 0958 00       		.byte	0
 2472 0959 0A       		.uleb128 0xa
 2473 095a BE0F0000 		.4byte	.LASF149
 2474 095e 09       		.byte	0x9
 2475 095f EB01     		.2byte	0x1eb
 2476 0961 13010000 		.4byte	0x113
 2477 0965 02       		.byte	0x2
 2478 0966 0A       		.uleb128 0xa
 2479 0967 32020000 		.4byte	.LASF150
 2480 096b 09       		.byte	0x9
 2481 096c F001     		.2byte	0x1f0
 2482 096e 13010000 		.4byte	0x113
 2483 0972 04       		.byte	0x4
 2484 0973 0A       		.uleb128 0xa
 2485 0974 860D0000 		.4byte	.LASF151
 2486 0978 09       		.byte	0x9
 2487 0979 F601     		.2byte	0x1f6
 2488 097b 13010000 		.4byte	0x113
 2489 097f 06       		.byte	0x6
 2490 0980 0A       		.uleb128 0xa
 2491 0981 09020000 		.4byte	.LASF152
 2492 0985 09       		.byte	0x9
 2493 0986 FB01     		.2byte	0x1fb
 2494 0988 13010000 		.4byte	0x113
 2495 098c 08       		.byte	0x8
 2496 098d 0A       		.uleb128 0xa
 2497 098e 62080000 		.4byte	.LASF153
 2498 0992 09       		.byte	0x9
 2499 0993 0002     		.2byte	0x200
 2500 0995 630A0000 		.4byte	0xa63
 2501 0999 0C       		.byte	0xc
 2502 099a 0A       		.uleb128 0xa
 2503 099b CF0C0000 		.4byte	.LASF154
 2504 099f 09       		.byte	0x9
 2505 09a0 0602     		.2byte	0x206
 2506 09a2 680A0000 		.4byte	0xa68
 2507 09a6 10       		.byte	0x10
 2508 09a7 0A       		.uleb128 0xa
 2509 09a8 C40C0000 		.4byte	.LASF155
 2510 09ac 09       		.byte	0x9
 2511 09ad 0C02     		.2byte	0x20c
 2512 09af 680A0000 		.4byte	0xa68
 2513 09b3 14       		.byte	0x14
 2514 09b4 0A       		.uleb128 0xa
 2515 09b5 400B0000 		.4byte	.LASF156
 2516 09b9 09       		.byte	0x9
 2517 09ba 1E02     		.2byte	0x21e
 2518 09bc 780A0000 		.4byte	0xa78
 2519 09c0 18       		.byte	0x18
 2520 09c1 0A       		.uleb128 0xa
 2521 09c2 BF090000 		.4byte	.LASF157
 2522 09c6 09       		.byte	0x9
 2523 09c7 2302     		.2byte	0x223
 2524 09c9 13010000 		.4byte	0x113
 2525 09cd 1C       		.byte	0x1c
ARM GAS  C:\Users\PC\AppData\Local\Temp\ccQeYTXk.s 			page 76


 2526 09ce 0A       		.uleb128 0xa
 2527 09cf 73060000 		.4byte	.LASF158
 2528 09d3 09       		.byte	0x9
 2529 09d4 2802     		.2byte	0x228
 2530 09d6 07010000 		.4byte	0x107
 2531 09da 1E       		.byte	0x1e
 2532 09db 0A       		.uleb128 0xa
 2533 09dc 2F0E0000 		.4byte	.LASF159
 2534 09e0 09       		.byte	0x9
 2535 09e1 2D02     		.2byte	0x22d
 2536 09e3 07010000 		.4byte	0x107
 2537 09e7 1F       		.byte	0x1f
 2538 09e8 0A       		.uleb128 0xa
 2539 09e9 65090000 		.4byte	.LASF160
 2540 09ed 09       		.byte	0x9
 2541 09ee 3202     		.2byte	0x232
 2542 09f0 65080000 		.4byte	0x865
 2543 09f4 20       		.byte	0x20
 2544 09f5 0A       		.uleb128 0xa
 2545 09f6 42050000 		.4byte	.LASF161
 2546 09fa 09       		.byte	0x9
 2547 09fb 3702     		.2byte	0x237
 2548 09fd 36090000 		.4byte	0x936
 2549 0a01 5E       		.byte	0x5e
 2550 0a02 0A       		.uleb128 0xa
 2551 0a03 190E0000 		.4byte	.LASF162
 2552 0a07 09       		.byte	0x9
 2553 0a08 3C02     		.2byte	0x23c
 2554 0a0a 98050000 		.4byte	0x598
 2555 0a0e A4       		.byte	0xa4
 2556 0a0f 0A       		.uleb128 0xa
 2557 0a10 E0030000 		.4byte	.LASF163
 2558 0a14 09       		.byte	0x9
 2559 0a15 4102     		.2byte	0x241
 2560 0a17 1F010000 		.4byte	0x11f
 2561 0a1b FC       		.byte	0xfc
 2562 0a1c 12       		.uleb128 0x12
 2563 0a1d 960E0000 		.4byte	.LASF164
 2564 0a21 09       		.byte	0x9
 2565 0a22 4602     		.2byte	0x246
 2566 0a24 1F010000 		.4byte	0x11f
 2567 0a28 0001     		.2byte	0x100
 2568 0a2a 12       		.uleb128 0x12
 2569 0a2b 14010000 		.4byte	.LASF165
 2570 0a2f 09       		.byte	0x9
 2571 0a30 4B02     		.2byte	0x24b
 2572 0a32 07010000 		.4byte	0x107
 2573 0a36 0401     		.2byte	0x104
 2574 0a38 12       		.uleb128 0x12
 2575 0a39 BF050000 		.4byte	.LASF166
 2576 0a3d 09       		.byte	0x9
 2577 0a3e 5002     		.2byte	0x250
 2578 0a40 07010000 		.4byte	0x107
 2579 0a44 0501     		.2byte	0x105
 2580 0a46 12       		.uleb128 0x12
 2581 0a47 FC0A0000 		.4byte	.LASF167
 2582 0a4b 09       		.byte	0x9
ARM GAS  C:\Users\PC\AppData\Local\Temp\ccQeYTXk.s 			page 77


 2583 0a4c 5502     		.2byte	0x255
 2584 0a4e 13010000 		.4byte	0x113
 2585 0a52 0601     		.2byte	0x106
 2586 0a54 12       		.uleb128 0x12
 2587 0a55 9F090000 		.4byte	.LASF168
 2588 0a59 09       		.byte	0x9
 2589 0a5a 5A02     		.2byte	0x25a
 2590 0a5c 59070000 		.4byte	0x759
 2591 0a60 0801     		.2byte	0x108
 2592 0a62 00       		.byte	0
 2593 0a63 05       		.uleb128 0x5
 2594 0a64 1F010000 		.4byte	0x11f
 2595 0a68 0D       		.uleb128 0xd
 2596 0a69 1F010000 		.4byte	0x11f
 2597 0a6d 780A0000 		.4byte	0xa78
 2598 0a71 0E       		.uleb128 0xe
 2599 0a72 D5000000 		.4byte	0xd5
 2600 0a76 00       		.byte	0
 2601 0a77 00       		.byte	0
 2602 0a78 0D       		.uleb128 0xd
 2603 0a79 07010000 		.4byte	0x107
 2604 0a7d 880A0000 		.4byte	0xa88
 2605 0a81 0E       		.uleb128 0xe
 2606 0a82 D5000000 		.4byte	0xd5
 2607 0a86 02       		.byte	0x2
 2608 0a87 00       		.byte	0
 2609 0a88 06       		.uleb128 0x6
 2610 0a89 B30B0000 		.4byte	.LASF169
 2611 0a8d 09       		.byte	0x9
 2612 0a8e 5B02     		.2byte	0x25b
 2613 0a90 42090000 		.4byte	0x942
 2614 0a94 0F       		.uleb128 0xf
 2615 0a95 2C       		.byte	0x2c
 2616 0a96 09       		.byte	0x9
 2617 0a97 9902     		.2byte	0x299
 2618 0a99 610B0000 		.4byte	0xb61
 2619 0a9d 0A       		.uleb128 0xa
 2620 0a9e 370F0000 		.4byte	.LASF170
 2621 0aa2 09       		.byte	0x9
 2622 0aa3 A202     		.2byte	0x2a2
 2623 0aa5 610B0000 		.4byte	0xb61
 2624 0aa9 00       		.byte	0
 2625 0aaa 0A       		.uleb128 0xa
 2626 0aab 510E0000 		.4byte	.LASF171
 2627 0aaf 09       		.byte	0x9
 2628 0ab0 A902     		.2byte	0x2a9
 2629 0ab2 37010000 		.4byte	0x137
 2630 0ab6 04       		.byte	0x4
 2631 0ab7 0A       		.uleb128 0xa
 2632 0ab8 180B0000 		.4byte	.LASF172
 2633 0abc 09       		.byte	0x9
 2634 0abd AF02     		.2byte	0x2af
 2635 0abf 680B0000 		.4byte	0xb68
 2636 0ac3 08       		.byte	0x8
 2637 0ac4 0A       		.uleb128 0xa
 2638 0ac5 4B0A0000 		.4byte	.LASF173
 2639 0ac9 09       		.byte	0x9
ARM GAS  C:\Users\PC\AppData\Local\Temp\ccQeYTXk.s 			page 78


 2640 0aca B402     		.2byte	0x2b4
 2641 0acc 37010000 		.4byte	0x137
 2642 0ad0 0C       		.byte	0xc
 2643 0ad1 0A       		.uleb128 0xa
 2644 0ad2 4A0D0000 		.4byte	.LASF174
 2645 0ad6 09       		.byte	0x9
 2646 0ad7 BB02     		.2byte	0x2bb
 2647 0ad9 6E0B0000 		.4byte	0xb6e
 2648 0add 10       		.byte	0x10
 2649 0ade 0A       		.uleb128 0xa
 2650 0adf 220E0000 		.4byte	.LASF175
 2651 0ae3 09       		.byte	0x9
 2652 0ae4 C002     		.2byte	0x2c0
 2653 0ae6 1F010000 		.4byte	0x11f
 2654 0aea 14       		.byte	0x14
 2655 0aeb 0A       		.uleb128 0xa
 2656 0aec 6F070000 		.4byte	.LASF176
 2657 0af0 09       		.byte	0x9
 2658 0af1 C702     		.2byte	0x2c7
 2659 0af3 13010000 		.4byte	0x113
 2660 0af7 18       		.byte	0x18
 2661 0af8 0A       		.uleb128 0xa
 2662 0af9 E9050000 		.4byte	.LASF177
 2663 0afd 09       		.byte	0x9
 2664 0afe D202     		.2byte	0x2d2
 2665 0b00 07010000 		.4byte	0x107
 2666 0b04 1A       		.byte	0x1a
 2667 0b05 0A       		.uleb128 0xa
 2668 0b06 18090000 		.4byte	.LASF178
 2669 0b0a 09       		.byte	0x9
 2670 0b0b D702     		.2byte	0x2d7
 2671 0b0d 07010000 		.4byte	0x107
 2672 0b11 1B       		.byte	0x1b
 2673 0b12 0A       		.uleb128 0xa
 2674 0b13 48090000 		.4byte	.LASF179
 2675 0b17 09       		.byte	0x9
 2676 0b18 DF02     		.2byte	0x2df
 2677 0b1a 07010000 		.4byte	0x107
 2678 0b1e 1C       		.byte	0x1c
 2679 0b1f 0A       		.uleb128 0xa
 2680 0b20 750E0000 		.4byte	.LASF180
 2681 0b24 09       		.byte	0x9
 2682 0b25 E602     		.2byte	0x2e6
 2683 0b27 07010000 		.4byte	0x107
 2684 0b2b 1D       		.byte	0x1d
 2685 0b2c 0A       		.uleb128 0xa
 2686 0b2d 650B0000 		.4byte	.LASF181
 2687 0b31 09       		.byte	0x9
 2688 0b32 EC02     		.2byte	0x2ec
 2689 0b34 13010000 		.4byte	0x113
 2690 0b38 1E       		.byte	0x1e
 2691 0b39 0A       		.uleb128 0xa
 2692 0b3a 720D0000 		.4byte	.LASF182
 2693 0b3e 09       		.byte	0x9
 2694 0b3f F602     		.2byte	0x2f6
 2695 0b41 1F010000 		.4byte	0x11f
 2696 0b45 20       		.byte	0x20
ARM GAS  C:\Users\PC\AppData\Local\Temp\ccQeYTXk.s 			page 79


 2697 0b46 0A       		.uleb128 0xa
 2698 0b47 CF050000 		.4byte	.LASF183
 2699 0b4b 09       		.byte	0x9
 2700 0b4c FE02     		.2byte	0x2fe
 2701 0b4e 740B0000 		.4byte	0xb74
 2702 0b52 24       		.byte	0x24
 2703 0b53 0A       		.uleb128 0xa
 2704 0b54 57030000 		.4byte	.LASF184
 2705 0b58 09       		.byte	0x9
 2706 0b59 0303     		.2byte	0x303
 2707 0b5b 07010000 		.4byte	0x107
 2708 0b5f 28       		.byte	0x28
 2709 0b60 00       		.byte	0
 2710 0b61 13       		.uleb128 0x13
 2711 0b62 04       		.byte	0x4
 2712 0b63 670B0000 		.4byte	0xb67
 2713 0b67 14       		.uleb128 0x14
 2714 0b68 13       		.uleb128 0x13
 2715 0b69 04       		.byte	0x4
 2716 0b6a D9080000 		.4byte	0x8d9
 2717 0b6e 13       		.uleb128 0x13
 2718 0b6f 04       		.byte	0x4
 2719 0b70 07010000 		.4byte	0x107
 2720 0b74 13       		.uleb128 0x13
 2721 0b75 04       		.byte	0x4
 2722 0b76 AC010000 		.4byte	0x1ac
 2723 0b7a 06       		.uleb128 0x6
 2724 0b7b 02070000 		.4byte	.LASF185
 2725 0b7f 09       		.byte	0x9
 2726 0b80 0403     		.2byte	0x304
 2727 0b82 940A0000 		.4byte	0xa94
 2728 0b86 0F       		.uleb128 0xf
 2729 0b87 84       		.byte	0x84
 2730 0b88 09       		.byte	0x9
 2731 0b89 0A03     		.2byte	0x30a
 2732 0b8b 9D0B0000 		.4byte	0xb9d
 2733 0b8f 0A       		.uleb128 0xa
 2734 0b90 1E100000 		.4byte	.LASF186
 2735 0b94 09       		.byte	0x9
 2736 0b95 0F03     		.2byte	0x30f
 2737 0b97 9D0B0000 		.4byte	0xb9d
 2738 0b9b 00       		.byte	0
 2739 0b9c 00       		.byte	0
 2740 0b9d 0D       		.uleb128 0xd
 2741 0b9e 7A0B0000 		.4byte	0xb7a
 2742 0ba2 AD0B0000 		.4byte	0xbad
 2743 0ba6 0E       		.uleb128 0xe
 2744 0ba7 D5000000 		.4byte	0xd5
 2745 0bab 02       		.byte	0x2
 2746 0bac 00       		.byte	0
 2747 0bad 06       		.uleb128 0x6
 2748 0bae 6E090000 		.4byte	.LASF187
 2749 0bb2 09       		.byte	0x9
 2750 0bb3 1003     		.2byte	0x310
 2751 0bb5 860B0000 		.4byte	0xb86
 2752 0bb9 0F       		.uleb128 0xf
 2753 0bba 0A       		.byte	0xa
ARM GAS  C:\Users\PC\AppData\Local\Temp\ccQeYTXk.s 			page 80


 2754 0bbb 09       		.byte	0x9
 2755 0bbc 4503     		.2byte	0x345
 2756 0bbe DD0B0000 		.4byte	0xbdd
 2757 0bc2 0A       		.uleb128 0xa
 2758 0bc3 910A0000 		.4byte	.LASF188
 2759 0bc7 09       		.byte	0x9
 2760 0bc8 4B03     		.2byte	0x34b
 2761 0bca DD0B0000 		.4byte	0xbdd
 2762 0bce 00       		.byte	0
 2763 0bcf 0A       		.uleb128 0xa
 2764 0bd0 350B0000 		.4byte	.LASF189
 2765 0bd4 09       		.byte	0x9
 2766 0bd5 5003     		.2byte	0x350
 2767 0bd7 ED0B0000 		.4byte	0xbed
 2768 0bdb 04       		.byte	0x4
 2769 0bdc 00       		.byte	0
 2770 0bdd 0D       		.uleb128 0xd
 2771 0bde 13010000 		.4byte	0x113
 2772 0be2 ED0B0000 		.4byte	0xbed
 2773 0be6 0E       		.uleb128 0xe
 2774 0be7 D5000000 		.4byte	0xd5
 2775 0beb 01       		.byte	0x1
 2776 0bec 00       		.byte	0
 2777 0bed 0D       		.uleb128 0xd
 2778 0bee 13010000 		.4byte	0x113
 2779 0bf2 FD0B0000 		.4byte	0xbfd
 2780 0bf6 0E       		.uleb128 0xe
 2781 0bf7 D5000000 		.4byte	0xd5
 2782 0bfb 02       		.byte	0x2
 2783 0bfc 00       		.byte	0
 2784 0bfd 06       		.uleb128 0x6
 2785 0bfe 510C0000 		.4byte	.LASF190
 2786 0c02 09       		.byte	0x9
 2787 0c03 5103     		.2byte	0x351
 2788 0c05 B90B0000 		.4byte	0xbb9
 2789 0c09 0F       		.uleb128 0xf
 2790 0c0a 0A       		.byte	0xa
 2791 0c0b 09       		.byte	0x9
 2792 0c0c 5603     		.2byte	0x356
 2793 0c0e 200C0000 		.4byte	0xc20
 2794 0c12 0A       		.uleb128 0xa
 2795 0c13 64060000 		.4byte	.LASF191
 2796 0c17 09       		.byte	0x9
 2797 0c18 5B03     		.2byte	0x35b
 2798 0c1a 200C0000 		.4byte	0xc20
 2799 0c1e 00       		.byte	0
 2800 0c1f 00       		.byte	0
 2801 0c20 0D       		.uleb128 0xd
 2802 0c21 FD0B0000 		.4byte	0xbfd
 2803 0c25 300C0000 		.4byte	0xc30
 2804 0c29 0E       		.uleb128 0xe
 2805 0c2a D5000000 		.4byte	0xd5
 2806 0c2e 00       		.byte	0
 2807 0c2f 00       		.byte	0
 2808 0c30 06       		.uleb128 0x6
 2809 0c31 C70B0000 		.4byte	.LASF192
 2810 0c35 09       		.byte	0x9
ARM GAS  C:\Users\PC\AppData\Local\Temp\ccQeYTXk.s 			page 81


 2811 0c36 5C03     		.2byte	0x35c
 2812 0c38 090C0000 		.4byte	0xc09
 2813 0c3c 15       		.uleb128 0x15
 2814 0c3d 04       		.byte	0x4
 2815 0c3e 09       		.byte	0x9
 2816 0c3f 6103     		.2byte	0x361
 2817 0c41 5E0C0000 		.4byte	0xc5e
 2818 0c45 16       		.uleb128 0x16
 2819 0c46 70747200 		.ascii	"ptr\000"
 2820 0c4a 09       		.byte	0x9
 2821 0c4b 6603     		.2byte	0x366
 2822 0c4d 37010000 		.4byte	0x137
 2823 0c51 17       		.uleb128 0x17
 2824 0c52 B4050000 		.4byte	.LASF193
 2825 0c56 09       		.byte	0x9
 2826 0c57 6B03     		.2byte	0x36b
 2827 0c59 5E0C0000 		.4byte	0xc5e
 2828 0c5d 00       		.byte	0
 2829 0c5e 13       		.uleb128 0x13
 2830 0c5f 04       		.byte	0x4
 2831 0c60 300C0000 		.4byte	0xc30
 2832 0c64 06       		.uleb128 0x6
 2833 0c65 E6060000 		.4byte	.LASF194
 2834 0c69 09       		.byte	0x9
 2835 0c6a 6C03     		.2byte	0x36c
 2836 0c6c 3C0C0000 		.4byte	0xc3c
 2837 0c70 18       		.uleb128 0x18
 2838 0c71 A70E0000 		.4byte	.LASF196
 2839 0c75 01       		.byte	0x1
 2840 0c76 3B01     		.2byte	0x13b
 2841 0c78 03       		.byte	0x3
 2842 0c79 A20C0000 		.4byte	0xca2
 2843 0c7d 19       		.uleb128 0x19
 2844 0c7e 0C0E0000 		.4byte	.LASF198
 2845 0c82 01       		.byte	0x1
 2846 0c83 3B01     		.2byte	0x13b
 2847 0c85 A20C0000 		.4byte	0xca2
 2848 0c89 1A       		.uleb128 0x1a
 2849 0c8a 69647800 		.ascii	"idx\000"
 2850 0c8e 01       		.byte	0x1
 2851 0c8f 3D01     		.2byte	0x13d
 2852 0c91 1F010000 		.4byte	0x11f
 2853 0c95 1B       		.uleb128 0x1b
 2854 0c96 84090000 		.4byte	.LASF195
 2855 0c9a 01       		.byte	0x1
 2856 0c9b 3E01     		.2byte	0x13e
 2857 0c9d AD0C0000 		.4byte	0xcad
 2858 0ca1 00       		.byte	0
 2859 0ca2 13       		.uleb128 0x13
 2860 0ca3 04       		.byte	0x4
 2861 0ca4 A80C0000 		.4byte	0xca8
 2862 0ca8 1C       		.uleb128 0x1c
 2863 0ca9 7A0B0000 		.4byte	0xb7a
 2864 0cad 13       		.uleb128 0x13
 2865 0cae 04       		.byte	0x4
 2866 0caf 69070000 		.4byte	0x769
 2867 0cb3 18       		.uleb128 0x18
ARM GAS  C:\Users\PC\AppData\Local\Temp\ccQeYTXk.s 			page 82


 2868 0cb4 390A0000 		.4byte	.LASF197
 2869 0cb8 01       		.byte	0x1
 2870 0cb9 3D06     		.2byte	0x63d
 2871 0cbb 03       		.byte	0x3
 2872 0cbc FD0C0000 		.4byte	0xcfd
 2873 0cc0 19       		.uleb128 0x19
 2874 0cc1 D60A0000 		.4byte	.LASF199
 2875 0cc5 01       		.byte	0x1
 2876 0cc6 3E06     		.2byte	0x63e
 2877 0cc8 FD0C0000 		.4byte	0xcfd
 2878 0ccc 19       		.uleb128 0x19
 2879 0ccd B50D0000 		.4byte	.LASF200
 2880 0cd1 01       		.byte	0x1
 2881 0cd2 3F06     		.2byte	0x63f
 2882 0cd4 1F010000 		.4byte	0x11f
 2883 0cd8 19       		.uleb128 0x19
 2884 0cd9 0C0E0000 		.4byte	.LASF198
 2885 0cdd 01       		.byte	0x1
 2886 0cde 4006     		.2byte	0x640
 2887 0ce0 A20C0000 		.4byte	0xca2
 2888 0ce4 19       		.uleb128 0x19
 2889 0ce5 E90A0000 		.4byte	.LASF201
 2890 0ce9 01       		.byte	0x1
 2891 0cea 4106     		.2byte	0x641
 2892 0cec AD0C0000 		.4byte	0xcad
 2893 0cf0 1B       		.uleb128 0x1b
 2894 0cf1 17080000 		.4byte	.LASF202
 2895 0cf5 01       		.byte	0x1
 2896 0cf6 4306     		.2byte	0x643
 2897 0cf8 1F010000 		.4byte	0x11f
 2898 0cfc 00       		.byte	0
 2899 0cfd 13       		.uleb128 0x13
 2900 0cfe 04       		.byte	0x4
 2901 0cff 030D0000 		.4byte	0xd03
 2902 0d03 1C       		.uleb128 0x1c
 2903 0d04 13010000 		.4byte	0x113
 2904 0d08 1D       		.uleb128 0x1d
 2905 0d09 F9040000 		.4byte	.LASF205
 2906 0d0d 01       		.byte	0x1
 2907 0d0e 9101     		.2byte	0x191
 2908 0d10 00000000 		.4byte	.LFB46
 2909 0d14 88000000 		.4byte	.LFE46-.LFB46
 2910 0d18 01       		.uleb128 0x1
 2911 0d19 9C       		.byte	0x9c
 2912 0d1a A20D0000 		.4byte	0xda2
 2913 0d1e 1E       		.uleb128 0x1e
 2914 0d1f 03010000 		.4byte	.LASF203
 2915 0d23 01       		.byte	0x1
 2916 0d24 9301     		.2byte	0x193
 2917 0d26 1F010000 		.4byte	0x11f
 2918 0d2a 00000000 		.4byte	.LLST0
 2919 0d2e 1E       		.uleb128 0x1e
 2920 0d2f 820F0000 		.4byte	.LASF204
 2921 0d33 01       		.byte	0x1
 2922 0d34 9401     		.2byte	0x194
 2923 0d36 D5050000 		.4byte	0x5d5
 2924 0d3a 4D000000 		.4byte	.LLST1
ARM GAS  C:\Users\PC\AppData\Local\Temp\ccQeYTXk.s 			page 83


 2925 0d3e 1E       		.uleb128 0x1e
 2926 0d3f E90A0000 		.4byte	.LASF201
 2927 0d43 01       		.byte	0x1
 2928 0d44 9501     		.2byte	0x195
 2929 0d46 A20D0000 		.4byte	0xda2
 2930 0d4a 6B000000 		.4byte	.LLST2
 2931 0d4e 1E       		.uleb128 0x1e
 2932 0d4f 0C0E0000 		.4byte	.LASF198
 2933 0d53 01       		.byte	0x1
 2934 0d54 9601     		.2byte	0x196
 2935 0d56 A20C0000 		.4byte	0xca2
 2936 0d5a 7E000000 		.4byte	.LLST3
 2937 0d5e 1F       		.uleb128 0x1f
 2938 0d5f 700C0000 		.4byte	0xc70
 2939 0d63 58000000 		.4byte	.LBB6
 2940 0d67 1A000000 		.4byte	.LBE6-.LBB6
 2941 0d6b 01       		.byte	0x1
 2942 0d6c DB01     		.2byte	0x1db
 2943 0d6e 980D0000 		.4byte	0xd98
 2944 0d72 20       		.uleb128 0x20
 2945 0d73 7D0C0000 		.4byte	0xc7d
 2946 0d77 91000000 		.4byte	.LLST4
 2947 0d7b 21       		.uleb128 0x21
 2948 0d7c 58000000 		.4byte	.LBB7
 2949 0d80 1A000000 		.4byte	.LBE7-.LBB7
 2950 0d84 22       		.uleb128 0x22
 2951 0d85 890C0000 		.4byte	0xc89
 2952 0d89 A4000000 		.4byte	.LLST5
 2953 0d8d 22       		.uleb128 0x22
 2954 0d8e 950C0000 		.4byte	0xc95
 2955 0d92 C3000000 		.4byte	.LLST6
 2956 0d96 00       		.byte	0
 2957 0d97 00       		.byte	0
 2958 0d98 23       		.uleb128 0x23
 2959 0d99 4C000000 		.4byte	.LVL8
 2960 0d9d 1B160000 		.4byte	0x161b
 2961 0da1 00       		.byte	0
 2962 0da2 13       		.uleb128 0x13
 2963 0da3 04       		.byte	0x4
 2964 0da4 95060000 		.4byte	0x695
 2965 0da8 1D       		.uleb128 0x1d
 2966 0da9 CE000000 		.4byte	.LASF206
 2967 0dad 01       		.byte	0x1
 2968 0dae 4E04     		.2byte	0x44e
 2969 0db0 00000000 		.4byte	.LFB53
 2970 0db4 32000000 		.4byte	.LFE53-.LFB53
 2971 0db8 01       		.uleb128 0x1
 2972 0db9 9C       		.byte	0x9c
 2973 0dba 2C0E0000 		.4byte	0xe2c
 2974 0dbe 24       		.uleb128 0x24
 2975 0dbf E90A0000 		.4byte	.LASF201
 2976 0dc3 01       		.byte	0x1
 2977 0dc4 4E04     		.2byte	0x44e
 2978 0dc6 A20D0000 		.4byte	0xda2
 2979 0dca D6000000 		.4byte	.LLST7
 2980 0dce 24       		.uleb128 0x24
 2981 0dcf 11000000 		.4byte	.LASF207
ARM GAS  C:\Users\PC\AppData\Local\Temp\ccQeYTXk.s 			page 84


 2982 0dd3 01       		.byte	0x1
 2983 0dd4 4F04     		.2byte	0x44f
 2984 0dd6 740B0000 		.4byte	0xb74
 2985 0dda 02010000 		.4byte	.LLST8
 2986 0dde 24       		.uleb128 0x24
 2987 0ddf 5B090000 		.4byte	.LASF208
 2988 0de3 01       		.byte	0x1
 2989 0de4 5004     		.2byte	0x450
 2990 0de6 1F010000 		.4byte	0x11f
 2991 0dea 2E010000 		.4byte	.LLST9
 2992 0dee 25       		.uleb128 0x25
 2993 0def 37050000 		.4byte	.LASF209
 2994 0df3 01       		.byte	0x1
 2995 0df4 5204     		.2byte	0x452
 2996 0df6 F0010000 		.4byte	0x1f0
 2997 0dfa 02       		.uleb128 0x2
 2998 0dfb 91       		.byte	0x91
 2999 0dfc 70       		.sleb128 -16
 3000 0dfd 1E       		.uleb128 0x1e
 3001 0dfe C6010000 		.4byte	.LASF210
 3002 0e02 01       		.byte	0x1
 3003 0e03 5304     		.2byte	0x453
 3004 0e05 2C0E0000 		.4byte	0xe2c
 3005 0e09 5A010000 		.4byte	.LLST10
 3006 0e0d 26       		.uleb128 0x26
 3007 0e0e 16000000 		.4byte	.LVL26
 3008 0e12 26160000 		.4byte	0x1626
 3009 0e16 27       		.uleb128 0x27
 3010 0e17 01       		.uleb128 0x1
 3011 0e18 50       		.byte	0x50
 3012 0e19 03       		.uleb128 0x3
 3013 0e1a F3       		.byte	0xf3
 3014 0e1b 01       		.uleb128 0x1
 3015 0e1c 51       		.byte	0x51
 3016 0e1d 27       		.uleb128 0x27
 3017 0e1e 01       		.uleb128 0x1
 3018 0e1f 51       		.byte	0x51
 3019 0e20 02       		.uleb128 0x2
 3020 0e21 7D       		.byte	0x7d
 3021 0e22 00       		.sleb128 0
 3022 0e23 27       		.uleb128 0x27
 3023 0e24 01       		.uleb128 0x1
 3024 0e25 53       		.byte	0x53
 3025 0e26 03       		.uleb128 0x3
 3026 0e27 F3       		.byte	0xf3
 3027 0e28 01       		.uleb128 0x1
 3028 0e29 52       		.byte	0x52
 3029 0e2a 00       		.byte	0
 3030 0e2b 00       		.byte	0
 3031 0e2c 13       		.uleb128 0x13
 3032 0e2d 04       		.byte	0x4
 3033 0e2e F0010000 		.4byte	0x1f0
 3034 0e32 1D       		.uleb128 0x1d
 3035 0e33 15020000 		.4byte	.LASF211
 3036 0e37 01       		.byte	0x1
 3037 0e38 7704     		.2byte	0x477
 3038 0e3a 00000000 		.4byte	.LFB54
ARM GAS  C:\Users\PC\AppData\Local\Temp\ccQeYTXk.s 			page 85


 3039 0e3e 16000000 		.4byte	.LFE54-.LFB54
 3040 0e42 01       		.uleb128 0x1
 3041 0e43 9C       		.byte	0x9c
 3042 0e44 770E0000 		.4byte	0xe77
 3043 0e48 24       		.uleb128 0x24
 3044 0e49 E90A0000 		.4byte	.LASF201
 3045 0e4d 01       		.byte	0x1
 3046 0e4e 7804     		.2byte	0x478
 3047 0e50 A20D0000 		.4byte	0xda2
 3048 0e54 7A010000 		.4byte	.LLST11
 3049 0e58 28       		.uleb128 0x28
 3050 0e59 07030000 		.4byte	.LASF212
 3051 0e5d 01       		.byte	0x1
 3052 0e5e 7904     		.2byte	0x479
 3053 0e60 680B0000 		.4byte	0xb68
 3054 0e64 01       		.uleb128 0x1
 3055 0e65 51       		.byte	0x51
 3056 0e66 1E       		.uleb128 0x1e
 3057 0e67 BE020000 		.4byte	.LASF213
 3058 0e6b 01       		.byte	0x1
 3059 0e6c 7B04     		.2byte	0x47b
 3060 0e6e 2B010000 		.4byte	0x12b
 3061 0e72 9B010000 		.4byte	.LLST12
 3062 0e76 00       		.byte	0
 3063 0e77 29       		.uleb128 0x29
 3064 0e78 F2050000 		.4byte	.LASF218
 3065 0e7c 01       		.byte	0x1
 3066 0e7d 2A02     		.2byte	0x22a
 3067 0e7f 1F010000 		.4byte	0x11f
 3068 0e83 00000000 		.4byte	.LFB47
 3069 0e87 46000000 		.4byte	.LFE47-.LFB47
 3070 0e8b 01       		.uleb128 0x1
 3071 0e8c 9C       		.byte	0x9c
 3072 0e8d 5A0F0000 		.4byte	0xf5a
 3073 0e91 24       		.uleb128 0x24
 3074 0e92 0C0E0000 		.4byte	.LASF198
 3075 0e96 01       		.byte	0x1
 3076 0e97 2A02     		.2byte	0x22a
 3077 0e99 A20C0000 		.4byte	0xca2
 3078 0e9d CA010000 		.4byte	.LLST13
 3079 0ea1 1E       		.uleb128 0x1e
 3080 0ea2 4A050000 		.4byte	.LASF214
 3081 0ea6 01       		.byte	0x1
 3082 0ea7 2C02     		.2byte	0x22c
 3083 0ea9 1F010000 		.4byte	0x11f
 3084 0ead EB010000 		.4byte	.LLST14
 3085 0eb1 1E       		.uleb128 0x1e
 3086 0eb2 820F0000 		.4byte	.LASF204
 3087 0eb6 01       		.byte	0x1
 3088 0eb7 2D02     		.2byte	0x22d
 3089 0eb9 1F010000 		.4byte	0x11f
 3090 0ebd 22020000 		.4byte	.LLST15
 3091 0ec1 1E       		.uleb128 0x1e
 3092 0ec2 CD0A0000 		.4byte	.LASF215
 3093 0ec6 01       		.byte	0x1
 3094 0ec7 2E02     		.2byte	0x22e
 3095 0ec9 1F010000 		.4byte	0x11f
ARM GAS  C:\Users\PC\AppData\Local\Temp\ccQeYTXk.s 			page 86


 3096 0ecd 4D020000 		.4byte	.LLST16
 3097 0ed1 1E       		.uleb128 0x1e
 3098 0ed2 760C0000 		.4byte	.LASF216
 3099 0ed6 01       		.byte	0x1
 3100 0ed7 2F02     		.2byte	0x22f
 3101 0ed9 680B0000 		.4byte	0xb68
 3102 0edd 8E020000 		.4byte	.LLST17
 3103 0ee1 1E       		.uleb128 0x1e
 3104 0ee2 E90A0000 		.4byte	.LASF201
 3105 0ee6 01       		.byte	0x1
 3106 0ee7 3002     		.2byte	0x230
 3107 0ee9 A20D0000 		.4byte	0xda2
 3108 0eed A1020000 		.4byte	.LLST18
 3109 0ef1 1E       		.uleb128 0x1e
 3110 0ef2 0A010000 		.4byte	.LASF217
 3111 0ef6 01       		.byte	0x1
 3112 0ef7 3302     		.2byte	0x233
 3113 0ef9 640C0000 		.4byte	0xc64
 3114 0efd B4020000 		.4byte	.LLST19
 3115 0f01 2A       		.uleb128 0x2a
 3116 0f02 20000000 		.4byte	.LVL44
 3117 0f06 31160000 		.4byte	0x1631
 3118 0f0a 220F0000 		.4byte	0xf22
 3119 0f0e 27       		.uleb128 0x27
 3120 0f0f 01       		.uleb128 0x1
 3121 0f10 50       		.byte	0x50
 3122 0f11 02       		.uleb128 0x2
 3123 0f12 77       		.byte	0x77
 3124 0f13 00       		.sleb128 0
 3125 0f14 27       		.uleb128 0x27
 3126 0f15 01       		.uleb128 0x1
 3127 0f16 51       		.byte	0x51
 3128 0f17 02       		.uleb128 0x2
 3129 0f18 74       		.byte	0x74
 3130 0f19 00       		.sleb128 0
 3131 0f1a 27       		.uleb128 0x27
 3132 0f1b 01       		.uleb128 0x1
 3133 0f1c 52       		.byte	0x52
 3134 0f1d 03       		.uleb128 0x3
 3135 0f1e 7D       		.byte	0x7d
 3136 0f1f 00       		.sleb128 0
 3137 0f20 06       		.byte	0x6
 3138 0f21 00       		.byte	0
 3139 0f22 2A       		.uleb128 0x2a
 3140 0f23 2A000000 		.4byte	.LVL45
 3141 0f27 3C160000 		.4byte	0x163c
 3142 0f2b 430F0000 		.4byte	0xf43
 3143 0f2f 27       		.uleb128 0x27
 3144 0f30 01       		.uleb128 0x1
 3145 0f31 50       		.byte	0x50
 3146 0f32 02       		.uleb128 0x2
 3147 0f33 76       		.byte	0x76
 3148 0f34 00       		.sleb128 0
 3149 0f35 27       		.uleb128 0x27
 3150 0f36 01       		.uleb128 0x1
 3151 0f37 51       		.byte	0x51
 3152 0f38 02       		.uleb128 0x2
ARM GAS  C:\Users\PC\AppData\Local\Temp\ccQeYTXk.s 			page 87


 3153 0f39 74       		.byte	0x74
 3154 0f3a 00       		.sleb128 0
 3155 0f3b 27       		.uleb128 0x27
 3156 0f3c 01       		.uleb128 0x1
 3157 0f3d 52       		.byte	0x52
 3158 0f3e 03       		.uleb128 0x3
 3159 0f3f 7D       		.byte	0x7d
 3160 0f40 00       		.sleb128 0
 3161 0f41 06       		.byte	0x6
 3162 0f42 00       		.byte	0
 3163 0f43 26       		.uleb128 0x26
 3164 0f44 34000000 		.4byte	.LVL48
 3165 0f48 320E0000 		.4byte	0xe32
 3166 0f4c 27       		.uleb128 0x27
 3167 0f4d 01       		.uleb128 0x1
 3168 0f4e 50       		.byte	0x50
 3169 0f4f 02       		.uleb128 0x2
 3170 0f50 76       		.byte	0x76
 3171 0f51 00       		.sleb128 0
 3172 0f52 27       		.uleb128 0x27
 3173 0f53 01       		.uleb128 0x1
 3174 0f54 51       		.byte	0x51
 3175 0f55 02       		.uleb128 0x2
 3176 0f56 74       		.byte	0x74
 3177 0f57 00       		.sleb128 0
 3178 0f58 00       		.byte	0
 3179 0f59 00       		.byte	0
 3180 0f5a 29       		.uleb128 0x29
 3181 0f5b E1010000 		.4byte	.LASF219
 3182 0f5f 01       		.byte	0x1
 3183 0f60 8202     		.2byte	0x282
 3184 0f62 1F010000 		.4byte	0x11f
 3185 0f66 00000000 		.4byte	.LFB48
 3186 0f6a 40000000 		.4byte	.LFE48-.LFB48
 3187 0f6e 01       		.uleb128 0x1
 3188 0f6f 9C       		.byte	0x9c
 3189 0f70 3C100000 		.4byte	0x103c
 3190 0f74 24       		.uleb128 0x24
 3191 0f75 0C0E0000 		.4byte	.LASF198
 3192 0f79 01       		.byte	0x1
 3193 0f7a 8302     		.2byte	0x283
 3194 0f7c A20C0000 		.4byte	0xca2
 3195 0f80 C7020000 		.4byte	.LLST20
 3196 0f84 24       		.uleb128 0x24
 3197 0f85 07030000 		.4byte	.LASF212
 3198 0f89 01       		.byte	0x1
 3199 0f8a 8402     		.2byte	0x284
 3200 0f8c 680B0000 		.4byte	0xb68
 3201 0f90 E8020000 		.4byte	.LLST21
 3202 0f94 24       		.uleb128 0x24
 3203 0f95 0A010000 		.4byte	.LASF217
 3204 0f99 01       		.byte	0x1
 3205 0f9a 8502     		.2byte	0x285
 3206 0f9c 640C0000 		.4byte	0xc64
 3207 0fa0 14030000 		.4byte	.LLST22
 3208 0fa4 24       		.uleb128 0x24
 3209 0fa5 02030000 		.4byte	.LASF220
ARM GAS  C:\Users\PC\AppData\Local\Temp\ccQeYTXk.s 			page 88


 3210 0fa9 01       		.byte	0x1
 3211 0faa 8602     		.2byte	0x286
 3212 0fac 1F010000 		.4byte	0x11f
 3213 0fb0 48030000 		.4byte	.LLST23
 3214 0fb4 1E       		.uleb128 0x1e
 3215 0fb5 4A050000 		.4byte	.LASF214
 3216 0fb9 01       		.byte	0x1
 3217 0fba 8802     		.2byte	0x288
 3218 0fbc 1F010000 		.4byte	0x11f
 3219 0fc0 74030000 		.4byte	.LLST24
 3220 0fc4 1E       		.uleb128 0x1e
 3221 0fc5 820F0000 		.4byte	.LASF204
 3222 0fc9 01       		.byte	0x1
 3223 0fca 8902     		.2byte	0x289
 3224 0fcc 1F010000 		.4byte	0x11f
 3225 0fd0 B5030000 		.4byte	.LLST25
 3226 0fd4 1E       		.uleb128 0x1e
 3227 0fd5 E90A0000 		.4byte	.LASF201
 3228 0fd9 01       		.byte	0x1
 3229 0fda 8A02     		.2byte	0x28a
 3230 0fdc A20D0000 		.4byte	0xda2
 3231 0fe0 D3030000 		.4byte	.LLST26
 3232 0fe4 2A       		.uleb128 0x2a
 3233 0fe5 1A000000 		.4byte	.LVL64
 3234 0fe9 31160000 		.4byte	0x1631
 3235 0fed 05100000 		.4byte	0x1005
 3236 0ff1 27       		.uleb128 0x27
 3237 0ff2 01       		.uleb128 0x1
 3238 0ff3 50       		.byte	0x50
 3239 0ff4 03       		.uleb128 0x3
 3240 0ff5 91       		.byte	0x91
 3241 0ff6 64       		.sleb128 -28
 3242 0ff7 06       		.byte	0x6
 3243 0ff8 27       		.uleb128 0x27
 3244 0ff9 01       		.uleb128 0x1
 3245 0ffa 51       		.byte	0x51
 3246 0ffb 02       		.uleb128 0x2
 3247 0ffc 76       		.byte	0x76
 3248 0ffd 00       		.sleb128 0
 3249 0ffe 27       		.uleb128 0x27
 3250 0fff 01       		.uleb128 0x1
 3251 1000 52       		.byte	0x52
 3252 1001 02       		.uleb128 0x2
 3253 1002 75       		.byte	0x75
 3254 1003 00       		.sleb128 0
 3255 1004 00       		.byte	0
 3256 1005 2A       		.uleb128 0x2a
 3257 1006 28000000 		.4byte	.LVL66
 3258 100a 3C160000 		.4byte	0x163c
 3259 100e 25100000 		.4byte	0x1025
 3260 1012 27       		.uleb128 0x27
 3261 1013 01       		.uleb128 0x1
 3262 1014 50       		.byte	0x50
 3263 1015 02       		.uleb128 0x2
 3264 1016 77       		.byte	0x77
 3265 1017 00       		.sleb128 0
 3266 1018 27       		.uleb128 0x27
ARM GAS  C:\Users\PC\AppData\Local\Temp\ccQeYTXk.s 			page 89


 3267 1019 01       		.uleb128 0x1
 3268 101a 51       		.byte	0x51
 3269 101b 02       		.uleb128 0x2
 3270 101c 76       		.byte	0x76
 3271 101d 00       		.sleb128 0
 3272 101e 27       		.uleb128 0x27
 3273 101f 01       		.uleb128 0x1
 3274 1020 52       		.byte	0x52
 3275 1021 02       		.uleb128 0x2
 3276 1022 75       		.byte	0x75
 3277 1023 00       		.sleb128 0
 3278 1024 00       		.byte	0
 3279 1025 26       		.uleb128 0x26
 3280 1026 3A000000 		.4byte	.LVL70
 3281 102a 320E0000 		.4byte	0xe32
 3282 102e 27       		.uleb128 0x27
 3283 102f 01       		.uleb128 0x1
 3284 1030 50       		.byte	0x50
 3285 1031 02       		.uleb128 0x2
 3286 1032 77       		.byte	0x77
 3287 1033 00       		.sleb128 0
 3288 1034 27       		.uleb128 0x27
 3289 1035 01       		.uleb128 0x1
 3290 1036 51       		.byte	0x51
 3291 1037 02       		.uleb128 0x2
 3292 1038 76       		.byte	0x76
 3293 1039 00       		.sleb128 0
 3294 103a 00       		.byte	0
 3295 103b 00       		.byte	0
 3296 103c 29       		.uleb128 0x29
 3297 103d F2070000 		.4byte	.LASF221
 3298 1041 01       		.byte	0x1
 3299 1042 1103     		.2byte	0x311
 3300 1044 1F010000 		.4byte	0x11f
 3301 1048 00000000 		.4byte	.LFB50
 3302 104c 90000000 		.4byte	.LFE50-.LFB50
 3303 1050 01       		.uleb128 0x1
 3304 1051 9C       		.byte	0x9c
 3305 1052 73110000 		.4byte	0x1173
 3306 1056 24       		.uleb128 0x24
 3307 1057 0C0E0000 		.4byte	.LASF198
 3308 105b 01       		.byte	0x1
 3309 105c 1103     		.2byte	0x311
 3310 105e A20C0000 		.4byte	0xca2
 3311 1062 E6030000 		.4byte	.LLST27
 3312 1066 1E       		.uleb128 0x1e
 3313 1067 4A050000 		.4byte	.LASF214
 3314 106b 01       		.byte	0x1
 3315 106c 1303     		.2byte	0x313
 3316 106e 1F010000 		.4byte	0x11f
 3317 1072 12040000 		.4byte	.LLST28
 3318 1076 1E       		.uleb128 0x1e
 3319 1077 820F0000 		.4byte	.LASF204
 3320 107b 01       		.byte	0x1
 3321 107c 1903     		.2byte	0x319
 3322 107e 1F010000 		.4byte	0x11f
 3323 1082 49040000 		.4byte	.LLST29
ARM GAS  C:\Users\PC\AppData\Local\Temp\ccQeYTXk.s 			page 90


 3324 1086 1E       		.uleb128 0x1e
 3325 1087 360C0000 		.4byte	.LASF222
 3326 108b 01       		.byte	0x1
 3327 108c 1A03     		.2byte	0x31a
 3328 108e 1F010000 		.4byte	0x11f
 3329 1092 69040000 		.4byte	.LLST30
 3330 1096 1E       		.uleb128 0x1e
 3331 1097 760C0000 		.4byte	.LASF216
 3332 109b 01       		.byte	0x1
 3333 109c 1B03     		.2byte	0x31b
 3334 109e 680B0000 		.4byte	0xb68
 3335 10a2 88040000 		.4byte	.LLST31
 3336 10a6 1E       		.uleb128 0x1e
 3337 10a7 E90A0000 		.4byte	.LASF201
 3338 10ab 01       		.byte	0x1
 3339 10ac 1C03     		.2byte	0x31c
 3340 10ae A20D0000 		.4byte	0xda2
 3341 10b2 9B040000 		.4byte	.LLST32
 3342 10b6 1E       		.uleb128 0x1e
 3343 10b7 11000000 		.4byte	.LASF207
 3344 10bb 01       		.byte	0x1
 3345 10bc 2003     		.2byte	0x320
 3346 10be 740B0000 		.4byte	0xb74
 3347 10c2 AE040000 		.4byte	.LLST33
 3348 10c6 1E       		.uleb128 0x1e
 3349 10c7 0A010000 		.4byte	.LASF217
 3350 10cb 01       		.byte	0x1
 3351 10cc 2703     		.2byte	0x327
 3352 10ce 640C0000 		.4byte	0xc64
 3353 10d2 C1040000 		.4byte	.LLST34
 3354 10d6 1E       		.uleb128 0x1e
 3355 10d7 010E0000 		.4byte	.LASF223
 3356 10db 01       		.byte	0x1
 3357 10dc 2A03     		.2byte	0x32a
 3358 10de 1F010000 		.4byte	0x11f
 3359 10e2 DF040000 		.4byte	.LLST35
 3360 10e6 2A       		.uleb128 0x2a
 3361 10e7 40000000 		.4byte	.LVL85
 3362 10eb 31160000 		.4byte	0x1631
 3363 10ef 07110000 		.4byte	0x1107
 3364 10f3 27       		.uleb128 0x27
 3365 10f4 01       		.uleb128 0x1
 3366 10f5 50       		.byte	0x50
 3367 10f6 02       		.uleb128 0x2
 3368 10f7 79       		.byte	0x79
 3369 10f8 00       		.sleb128 0
 3370 10f9 27       		.uleb128 0x27
 3371 10fa 01       		.uleb128 0x1
 3372 10fb 51       		.byte	0x51
 3373 10fc 02       		.uleb128 0x2
 3374 10fd 74       		.byte	0x74
 3375 10fe 00       		.sleb128 0
 3376 10ff 27       		.uleb128 0x27
 3377 1100 01       		.uleb128 0x1
 3378 1101 52       		.byte	0x52
 3379 1102 03       		.uleb128 0x3
 3380 1103 7D       		.byte	0x7d
ARM GAS  C:\Users\PC\AppData\Local\Temp\ccQeYTXk.s 			page 91


 3381 1104 00       		.sleb128 0
 3382 1105 06       		.byte	0x6
 3383 1106 00       		.byte	0
 3384 1107 2A       		.uleb128 0x2a
 3385 1108 4A000000 		.4byte	.LVL86
 3386 110c 47160000 		.4byte	0x1647
 3387 1110 1B110000 		.4byte	0x111b
 3388 1114 27       		.uleb128 0x27
 3389 1115 01       		.uleb128 0x1
 3390 1116 52       		.byte	0x52
 3391 1117 02       		.uleb128 0x2
 3392 1118 77       		.byte	0x77
 3393 1119 00       		.sleb128 0
 3394 111a 00       		.byte	0
 3395 111b 2A       		.uleb128 0x2a
 3396 111c 54000000 		.4byte	.LVL87
 3397 1120 A80D0000 		.4byte	0xda8
 3398 1124 3B110000 		.4byte	0x113b
 3399 1128 27       		.uleb128 0x27
 3400 1129 01       		.uleb128 0x1
 3401 112a 50       		.byte	0x50
 3402 112b 02       		.uleb128 0x2
 3403 112c 76       		.byte	0x76
 3404 112d 00       		.sleb128 0
 3405 112e 27       		.uleb128 0x27
 3406 112f 01       		.uleb128 0x1
 3407 1130 51       		.byte	0x51
 3408 1131 02       		.uleb128 0x2
 3409 1132 77       		.byte	0x77
 3410 1133 00       		.sleb128 0
 3411 1134 27       		.uleb128 0x27
 3412 1135 01       		.uleb128 0x1
 3413 1136 52       		.byte	0x52
 3414 1137 02       		.uleb128 0x2
 3415 1138 75       		.byte	0x75
 3416 1139 00       		.sleb128 0
 3417 113a 00       		.byte	0
 3418 113b 2A       		.uleb128 0x2a
 3419 113c 60000000 		.4byte	.LVL89
 3420 1140 3C160000 		.4byte	0x163c
 3421 1144 5C110000 		.4byte	0x115c
 3422 1148 27       		.uleb128 0x27
 3423 1149 01       		.uleb128 0x1
 3424 114a 50       		.byte	0x50
 3425 114b 02       		.uleb128 0x2
 3426 114c 76       		.byte	0x76
 3427 114d 00       		.sleb128 0
 3428 114e 27       		.uleb128 0x27
 3429 114f 01       		.uleb128 0x1
 3430 1150 51       		.byte	0x51
 3431 1151 02       		.uleb128 0x2
 3432 1152 74       		.byte	0x74
 3433 1153 00       		.sleb128 0
 3434 1154 27       		.uleb128 0x27
 3435 1155 01       		.uleb128 0x1
 3436 1156 52       		.byte	0x52
 3437 1157 03       		.uleb128 0x3
ARM GAS  C:\Users\PC\AppData\Local\Temp\ccQeYTXk.s 			page 92


 3438 1158 7D       		.byte	0x7d
 3439 1159 00       		.sleb128 0
 3440 115a 06       		.byte	0x6
 3441 115b 00       		.byte	0
 3442 115c 26       		.uleb128 0x26
 3443 115d 6A000000 		.4byte	.LVL92
 3444 1161 320E0000 		.4byte	0xe32
 3445 1165 27       		.uleb128 0x27
 3446 1166 01       		.uleb128 0x1
 3447 1167 50       		.byte	0x50
 3448 1168 02       		.uleb128 0x2
 3449 1169 76       		.byte	0x76
 3450 116a 00       		.sleb128 0
 3451 116b 27       		.uleb128 0x27
 3452 116c 01       		.uleb128 0x1
 3453 116d 51       		.byte	0x51
 3454 116e 02       		.uleb128 0x2
 3455 116f 74       		.byte	0x74
 3456 1170 00       		.sleb128 0
 3457 1171 00       		.byte	0
 3458 1172 00       		.byte	0
 3459 1173 29       		.uleb128 0x29
 3460 1174 3A000000 		.4byte	.LASF224
 3461 1178 01       		.byte	0x1
 3462 1179 9303     		.2byte	0x393
 3463 117b 1F010000 		.4byte	0x11f
 3464 117f 00000000 		.4byte	.LFB51
 3465 1183 60000000 		.4byte	.LFE51-.LFB51
 3466 1187 01       		.uleb128 0x1
 3467 1188 9C       		.byte	0x9c
 3468 1189 9B120000 		.4byte	0x129b
 3469 118d 24       		.uleb128 0x24
 3470 118e 0C0E0000 		.4byte	.LASF198
 3471 1192 01       		.byte	0x1
 3472 1193 9403     		.2byte	0x394
 3473 1195 A20C0000 		.4byte	0xca2
 3474 1199 08050000 		.4byte	.LLST36
 3475 119d 24       		.uleb128 0x24
 3476 119e 07030000 		.4byte	.LASF212
 3477 11a2 01       		.byte	0x1
 3478 11a3 9503     		.2byte	0x395
 3479 11a5 680B0000 		.4byte	0xb68
 3480 11a9 29050000 		.4byte	.LLST37
 3481 11ad 24       		.uleb128 0x24
 3482 11ae 0A010000 		.4byte	.LASF217
 3483 11b2 01       		.byte	0x1
 3484 11b3 9603     		.2byte	0x396
 3485 11b5 640C0000 		.4byte	0xc64
 3486 11b9 54050000 		.4byte	.LLST38
 3487 11bd 24       		.uleb128 0x24
 3488 11be 02030000 		.4byte	.LASF220
 3489 11c2 01       		.byte	0x1
 3490 11c3 9703     		.2byte	0x397
 3491 11c5 1F010000 		.4byte	0x11f
 3492 11c9 9E050000 		.4byte	.LLST39
 3493 11cd 1E       		.uleb128 0x1e
 3494 11ce 4A050000 		.4byte	.LASF214
ARM GAS  C:\Users\PC\AppData\Local\Temp\ccQeYTXk.s 			page 93


 3495 11d2 01       		.byte	0x1
 3496 11d3 9903     		.2byte	0x399
 3497 11d5 1F010000 		.4byte	0x11f
 3498 11d9 CA050000 		.4byte	.LLST40
 3499 11dd 1E       		.uleb128 0x1e
 3500 11de 820F0000 		.4byte	.LASF204
 3501 11e2 01       		.byte	0x1
 3502 11e3 9A03     		.2byte	0x39a
 3503 11e5 1F010000 		.4byte	0x11f
 3504 11e9 0B060000 		.4byte	.LLST41
 3505 11ed 1E       		.uleb128 0x1e
 3506 11ee E90A0000 		.4byte	.LASF201
 3507 11f2 01       		.byte	0x1
 3508 11f3 9B03     		.2byte	0x39b
 3509 11f5 A20D0000 		.4byte	0xda2
 3510 11f9 29060000 		.4byte	.LLST42
 3511 11fd 1E       		.uleb128 0x1e
 3512 11fe 11000000 		.4byte	.LASF207
 3513 1202 01       		.byte	0x1
 3514 1203 9E03     		.2byte	0x39e
 3515 1205 740B0000 		.4byte	0xb74
 3516 1209 3C060000 		.4byte	.LLST43
 3517 120d 2A       		.uleb128 0x2a
 3518 120e 1C000000 		.4byte	.LVL114
 3519 1212 31160000 		.4byte	0x1631
 3520 1216 2F120000 		.4byte	0x122f
 3521 121a 27       		.uleb128 0x27
 3522 121b 01       		.uleb128 0x1
 3523 121c 50       		.byte	0x50
 3524 121d 03       		.uleb128 0x3
 3525 121e 91       		.byte	0x91
 3526 121f 64       		.sleb128 -28
 3527 1220 06       		.byte	0x6
 3528 1221 27       		.uleb128 0x27
 3529 1222 01       		.uleb128 0x1
 3530 1223 51       		.byte	0x51
 3531 1224 03       		.uleb128 0x3
 3532 1225 7D       		.byte	0x7d
 3533 1226 00       		.sleb128 0
 3534 1227 06       		.byte	0x6
 3535 1228 27       		.uleb128 0x27
 3536 1229 01       		.uleb128 0x1
 3537 122a 52       		.byte	0x52
 3538 122b 02       		.uleb128 0x2
 3539 122c 77       		.byte	0x77
 3540 122d 00       		.sleb128 0
 3541 122e 00       		.byte	0
 3542 122f 2A       		.uleb128 0x2a
 3543 1230 2C000000 		.4byte	.LVL116
 3544 1234 47160000 		.4byte	0x1647
 3545 1238 43120000 		.4byte	0x1243
 3546 123c 27       		.uleb128 0x27
 3547 123d 01       		.uleb128 0x1
 3548 123e 52       		.byte	0x52
 3549 123f 02       		.uleb128 0x2
 3550 1240 76       		.byte	0x76
 3551 1241 00       		.sleb128 0
ARM GAS  C:\Users\PC\AppData\Local\Temp\ccQeYTXk.s 			page 94


 3552 1242 00       		.byte	0
 3553 1243 2A       		.uleb128 0x2a
 3554 1244 3A000000 		.4byte	.LVL118
 3555 1248 A80D0000 		.4byte	0xda8
 3556 124c 62120000 		.4byte	0x1262
 3557 1250 27       		.uleb128 0x27
 3558 1251 01       		.uleb128 0x1
 3559 1252 50       		.byte	0x50
 3560 1253 02       		.uleb128 0x2
 3561 1254 75       		.byte	0x75
 3562 1255 00       		.sleb128 0
 3563 1256 27       		.uleb128 0x27
 3564 1257 01       		.uleb128 0x1
 3565 1258 51       		.byte	0x51
 3566 1259 02       		.uleb128 0x2
 3567 125a 76       		.byte	0x76
 3568 125b 00       		.sleb128 0
 3569 125c 27       		.uleb128 0x27
 3570 125d 01       		.uleb128 0x1
 3571 125e 52       		.byte	0x52
 3572 125f 01       		.uleb128 0x1
 3573 1260 30       		.byte	0x30
 3574 1261 00       		.byte	0
 3575 1262 2A       		.uleb128 0x2a
 3576 1263 48000000 		.4byte	.LVL120
 3577 1267 3C160000 		.4byte	0x163c
 3578 126b 83120000 		.4byte	0x1283
 3579 126f 27       		.uleb128 0x27
 3580 1270 01       		.uleb128 0x1
 3581 1271 50       		.byte	0x50
 3582 1272 02       		.uleb128 0x2
 3583 1273 75       		.byte	0x75
 3584 1274 00       		.sleb128 0
 3585 1275 27       		.uleb128 0x27
 3586 1276 01       		.uleb128 0x1
 3587 1277 51       		.byte	0x51
 3588 1278 03       		.uleb128 0x3
 3589 1279 7D       		.byte	0x7d
 3590 127a 00       		.sleb128 0
 3591 127b 06       		.byte	0x6
 3592 127c 27       		.uleb128 0x27
 3593 127d 01       		.uleb128 0x1
 3594 127e 52       		.byte	0x52
 3595 127f 02       		.uleb128 0x2
 3596 1280 77       		.byte	0x77
 3597 1281 00       		.sleb128 0
 3598 1282 00       		.byte	0
 3599 1283 26       		.uleb128 0x26
 3600 1284 5A000000 		.4byte	.LVL124
 3601 1288 320E0000 		.4byte	0xe32
 3602 128c 27       		.uleb128 0x27
 3603 128d 01       		.uleb128 0x1
 3604 128e 50       		.byte	0x50
 3605 128f 02       		.uleb128 0x2
 3606 1290 75       		.byte	0x75
 3607 1291 00       		.sleb128 0
 3608 1292 27       		.uleb128 0x27
ARM GAS  C:\Users\PC\AppData\Local\Temp\ccQeYTXk.s 			page 95


 3609 1293 01       		.uleb128 0x1
 3610 1294 51       		.byte	0x51
 3611 1295 03       		.uleb128 0x3
 3612 1296 7D       		.byte	0x7d
 3613 1297 00       		.sleb128 0
 3614 1298 06       		.byte	0x6
 3615 1299 00       		.byte	0
 3616 129a 00       		.byte	0
 3617 129b 29       		.uleb128 0x29
 3618 129c 84080000 		.4byte	.LASF225
 3619 12a0 01       		.byte	0x1
 3620 12a1 C104     		.2byte	0x4c1
 3621 12a3 1F010000 		.4byte	0x11f
 3622 12a7 00000000 		.4byte	.LFB55
 3623 12ab 64000000 		.4byte	.LFE55-.LFB55
 3624 12af 01       		.uleb128 0x1
 3625 12b0 9C       		.byte	0x9c
 3626 12b1 44130000 		.4byte	0x1344
 3627 12b5 24       		.uleb128 0x24
 3628 12b6 8B0E0000 		.4byte	.LASF226
 3629 12ba 01       		.byte	0x1
 3630 12bb C104     		.2byte	0x4c1
 3631 12bd 1F010000 		.4byte	0x11f
 3632 12c1 4F060000 		.4byte	.LLST44
 3633 12c5 24       		.uleb128 0x24
 3634 12c6 0C0E0000 		.4byte	.LASF198
 3635 12ca 01       		.byte	0x1
 3636 12cb C104     		.2byte	0x4c1
 3637 12cd A20C0000 		.4byte	0xca2
 3638 12d1 6D060000 		.4byte	.LLST45
 3639 12d5 1E       		.uleb128 0x1e
 3640 12d6 EA000000 		.4byte	.LASF227
 3641 12da 01       		.byte	0x1
 3642 12db C304     		.2byte	0x4c3
 3643 12dd 1F010000 		.4byte	0x11f
 3644 12e1 8E060000 		.4byte	.LLST46
 3645 12e5 1E       		.uleb128 0x1e
 3646 12e6 F40A0000 		.4byte	.LASF228
 3647 12ea 01       		.byte	0x1
 3648 12eb C404     		.2byte	0x4c4
 3649 12ed 1F010000 		.4byte	0x11f
 3650 12f1 D8060000 		.4byte	.LLST47
 3651 12f5 1E       		.uleb128 0x1e
 3652 12f6 14040000 		.4byte	.LASF229
 3653 12fa 01       		.byte	0x1
 3654 12fb C504     		.2byte	0x4c5
 3655 12fd 1F010000 		.4byte	0x11f
 3656 1301 F7060000 		.4byte	.LLST48
 3657 1305 1E       		.uleb128 0x1e
 3658 1306 67070000 		.4byte	.LASF230
 3659 130a 01       		.byte	0x1
 3660 130b C604     		.2byte	0x4c6
 3661 130d 1F010000 		.4byte	0x11f
 3662 1311 15070000 		.4byte	.LLST49
 3663 1315 1E       		.uleb128 0x1e
 3664 1316 760C0000 		.4byte	.LASF216
 3665 131a 01       		.byte	0x1
ARM GAS  C:\Users\PC\AppData\Local\Temp\ccQeYTXk.s 			page 96


 3666 131b C704     		.2byte	0x4c7
 3667 131d 680B0000 		.4byte	0xb68
 3668 1321 33070000 		.4byte	.LLST50
 3669 1325 1E       		.uleb128 0x1e
 3670 1326 E90A0000 		.4byte	.LASF201
 3671 132a 01       		.byte	0x1
 3672 132b C804     		.2byte	0x4c8
 3673 132d A20D0000 		.4byte	0xda2
 3674 1331 46070000 		.4byte	.LLST51
 3675 1335 25       		.uleb128 0x25
 3676 1336 B2080000 		.4byte	.LASF231
 3677 133a 01       		.byte	0x1
 3678 133b C904     		.2byte	0x4c9
 3679 133d 6E0B0000 		.4byte	0xb6e
 3680 1341 01       		.uleb128 0x1
 3681 1342 53       		.byte	0x53
 3682 1343 00       		.byte	0
 3683 1344 1D       		.uleb128 0x1d
 3684 1345 060F0000 		.4byte	.LASF232
 3685 1349 01       		.byte	0x1
 3686 134a C102     		.2byte	0x2c1
 3687 134c 00000000 		.4byte	.LFB49
 3688 1350 60000000 		.4byte	.LFE49-.LFB49
 3689 1354 01       		.uleb128 0x1
 3690 1355 9C       		.byte	0x9c
 3691 1356 F0130000 		.4byte	0x13f0
 3692 135a 24       		.uleb128 0x24
 3693 135b C70F0000 		.4byte	.LASF233
 3694 135f 01       		.byte	0x1
 3695 1360 C102     		.2byte	0x2c1
 3696 1362 1F010000 		.4byte	0x11f
 3697 1366 59070000 		.4byte	.LLST52
 3698 136a 24       		.uleb128 0x24
 3699 136b 0C0E0000 		.4byte	.LASF198
 3700 136f 01       		.byte	0x1
 3701 1370 C102     		.2byte	0x2c1
 3702 1372 A20C0000 		.4byte	0xca2
 3703 1376 9B070000 		.4byte	.LLST53
 3704 137a 1E       		.uleb128 0x1e
 3705 137b 160A0000 		.4byte	.LASF234
 3706 137f 01       		.byte	0x1
 3707 1380 C302     		.2byte	0x2c3
 3708 1382 1F010000 		.4byte	0x11f
 3709 1386 D5070000 		.4byte	.LLST54
 3710 138a 1E       		.uleb128 0x1e
 3711 138b 830A0000 		.4byte	.LASF235
 3712 138f 01       		.byte	0x1
 3713 1390 C402     		.2byte	0x2c4
 3714 1392 1F010000 		.4byte	0x11f
 3715 1396 FE070000 		.4byte	.LLST55
 3716 139a 1E       		.uleb128 0x1e
 3717 139b E90D0000 		.4byte	.LASF236
 3718 139f 01       		.byte	0x1
 3719 13a0 C502     		.2byte	0x2c5
 3720 13a2 1F010000 		.4byte	0x11f
 3721 13a6 56080000 		.4byte	.LLST56
 3722 13aa 1E       		.uleb128 0x1e
ARM GAS  C:\Users\PC\AppData\Local\Temp\ccQeYTXk.s 			page 97


 3723 13ab 820F0000 		.4byte	.LASF204
 3724 13af 01       		.byte	0x1
 3725 13b0 C602     		.2byte	0x2c6
 3726 13b2 D5050000 		.4byte	0x5d5
 3727 13b6 8A080000 		.4byte	.LLST57
 3728 13ba 2A       		.uleb128 0x2a
 3729 13bb 16000000 		.4byte	.LVL159
 3730 13bf 9B120000 		.4byte	0x129b
 3731 13c3 D5130000 		.4byte	0x13d5
 3732 13c7 27       		.uleb128 0x27
 3733 13c8 01       		.uleb128 0x1
 3734 13c9 50       		.byte	0x50
 3735 13ca 02       		.uleb128 0x2
 3736 13cb 75       		.byte	0x75
 3737 13cc 00       		.sleb128 0
 3738 13cd 27       		.uleb128 0x27
 3739 13ce 01       		.uleb128 0x1
 3740 13cf 51       		.byte	0x51
 3741 13d0 03       		.uleb128 0x3
 3742 13d1 F3       		.byte	0xf3
 3743 13d2 01       		.uleb128 0x1
 3744 13d3 51       		.byte	0x51
 3745 13d4 00       		.byte	0
 3746 13d5 26       		.uleb128 0x26
 3747 13d6 24000000 		.4byte	.LVL164
 3748 13da 52160000 		.4byte	0x1652
 3749 13de 27       		.uleb128 0x27
 3750 13df 01       		.uleb128 0x1
 3751 13e0 50       		.byte	0x50
 3752 13e1 05       		.uleb128 0x5
 3753 13e2 03       		.byte	0x3
 3754 13e3 00000000 		.4byte	.LC3
 3755 13e7 27       		.uleb128 0x27
 3756 13e8 01       		.uleb128 0x1
 3757 13e9 51       		.byte	0x51
 3758 13ea 03       		.uleb128 0x3
 3759 13eb 0A       		.byte	0xa
 3760 13ec E002     		.2byte	0x2e0
 3761 13ee 00       		.byte	0
 3762 13ef 00       		.byte	0
 3763 13f0 29       		.uleb128 0x29
 3764 13f1 9C0A0000 		.4byte	.LASF237
 3765 13f5 01       		.byte	0x1
 3766 13f6 9405     		.2byte	0x594
 3767 13f8 1F010000 		.4byte	0x11f
 3768 13fc 00000000 		.4byte	.LFB56
 3769 1400 DC000000 		.4byte	.LFE56-.LFB56
 3770 1404 01       		.uleb128 0x1
 3771 1405 9C       		.byte	0x9c
 3772 1406 45150000 		.4byte	0x1545
 3773 140a 24       		.uleb128 0x24
 3774 140b 8B0E0000 		.4byte	.LASF226
 3775 140f 01       		.byte	0x1
 3776 1410 9405     		.2byte	0x594
 3777 1412 1F010000 		.4byte	0x11f
 3778 1416 A8080000 		.4byte	.LLST58
 3779 141a 24       		.uleb128 0x24
ARM GAS  C:\Users\PC\AppData\Local\Temp\ccQeYTXk.s 			page 98


 3780 141b 0C0E0000 		.4byte	.LASF198
 3781 141f 01       		.byte	0x1
 3782 1420 9405     		.2byte	0x594
 3783 1422 A20C0000 		.4byte	0xca2
 3784 1426 F2080000 		.4byte	.LLST59
 3785 142a 1E       		.uleb128 0x1e
 3786 142b EA000000 		.4byte	.LASF227
 3787 142f 01       		.byte	0x1
 3788 1430 9605     		.2byte	0x596
 3789 1432 1F010000 		.4byte	0x11f
 3790 1436 1E090000 		.4byte	.LLST60
 3791 143a 1E       		.uleb128 0x1e
 3792 143b F40A0000 		.4byte	.LASF228
 3793 143f 01       		.byte	0x1
 3794 1440 9705     		.2byte	0x597
 3795 1442 1F010000 		.4byte	0x11f
 3796 1446 52090000 		.4byte	.LLST61
 3797 144a 1E       		.uleb128 0x1e
 3798 144b 67070000 		.4byte	.LASF230
 3799 144f 01       		.byte	0x1
 3800 1450 9805     		.2byte	0x598
 3801 1452 1F010000 		.4byte	0x11f
 3802 1456 7C090000 		.4byte	.LLST62
 3803 145a 1E       		.uleb128 0x1e
 3804 145b 14040000 		.4byte	.LASF229
 3805 145f 01       		.byte	0x1
 3806 1460 9905     		.2byte	0x599
 3807 1462 1F010000 		.4byte	0x11f
 3808 1466 A5090000 		.4byte	.LLST63
 3809 146a 1E       		.uleb128 0x1e
 3810 146b B2080000 		.4byte	.LASF231
 3811 146f 01       		.byte	0x1
 3812 1470 9A05     		.2byte	0x59a
 3813 1472 6E0B0000 		.4byte	0xb6e
 3814 1476 CF090000 		.4byte	.LLST64
 3815 147a 1E       		.uleb128 0x1e
 3816 147b 760C0000 		.4byte	.LASF216
 3817 147f 01       		.byte	0x1
 3818 1480 9B05     		.2byte	0x59b
 3819 1482 680B0000 		.4byte	0xb68
 3820 1486 030A0000 		.4byte	.LLST65
 3821 148a 1E       		.uleb128 0x1e
 3822 148b E90A0000 		.4byte	.LASF201
 3823 148f 01       		.byte	0x1
 3824 1490 9C05     		.2byte	0x59c
 3825 1492 AD0C0000 		.4byte	0xcad
 3826 1496 210A0000 		.4byte	.LLST66
 3827 149a 1E       		.uleb128 0x1e
 3828 149b 17080000 		.4byte	.LASF202
 3829 149f 01       		.byte	0x1
 3830 14a0 A205     		.2byte	0x5a2
 3831 14a2 1F010000 		.4byte	0x11f
 3832 14a6 340A0000 		.4byte	.LLST67
 3833 14aa 1E       		.uleb128 0x1e
 3834 14ab 110C0000 		.4byte	.LASF238
 3835 14af 01       		.byte	0x1
 3836 14b0 A305     		.2byte	0x5a3
ARM GAS  C:\Users\PC\AppData\Local\Temp\ccQeYTXk.s 			page 99


 3837 14b2 1F010000 		.4byte	0x11f
 3838 14b6 470A0000 		.4byte	.LLST68
 3839 14ba 25       		.uleb128 0x25
 3840 14bb D60A0000 		.4byte	.LASF199
 3841 14bf 01       		.byte	0x1
 3842 14c0 A405     		.2byte	0x5a4
 3843 14c2 59070000 		.4byte	0x759
 3844 14c6 02       		.uleb128 0x2
 3845 14c7 91       		.byte	0x91
 3846 14c8 64       		.sleb128 -28
 3847 14c9 1F       		.uleb128 0x1f
 3848 14ca B30C0000 		.4byte	0xcb3
 3849 14ce 9C000000 		.4byte	.LBB8
 3850 14d2 22000000 		.4byte	.LBE8-.LBB8
 3851 14d6 01       		.byte	0x1
 3852 14d7 0A06     		.2byte	0x60a
 3853 14d9 15150000 		.4byte	0x1515
 3854 14dd 20       		.uleb128 0x20
 3855 14de E40C0000 		.4byte	0xce4
 3856 14e2 880A0000 		.4byte	.LLST69
 3857 14e6 20       		.uleb128 0x20
 3858 14e7 D80C0000 		.4byte	0xcd8
 3859 14eb 9B0A0000 		.4byte	.LLST70
 3860 14ef 20       		.uleb128 0x20
 3861 14f0 CC0C0000 		.4byte	0xccc
 3862 14f4 AE0A0000 		.4byte	.LLST71
 3863 14f8 20       		.uleb128 0x20
 3864 14f9 C00C0000 		.4byte	0xcc0
 3865 14fd C10A0000 		.4byte	.LLST72
 3866 1501 21       		.uleb128 0x21
 3867 1502 9C000000 		.4byte	.LBB9
 3868 1506 22000000 		.4byte	.LBE9-.LBB9
 3869 150a 22       		.uleb128 0x22
 3870 150b F00C0000 		.4byte	0xcf0
 3871 150f D60A0000 		.4byte	.LLST73
 3872 1513 00       		.byte	0
 3873 1514 00       		.byte	0
 3874 1515 2A       		.uleb128 0x2a
 3875 1516 80000000 		.4byte	.LVL203
 3876 151a 5E160000 		.4byte	0x165e
 3877 151e 29150000 		.4byte	0x1529
 3878 1522 27       		.uleb128 0x27
 3879 1523 01       		.uleb128 0x1
 3880 1524 51       		.byte	0x51
 3881 1525 02       		.uleb128 0x2
 3882 1526 76       		.byte	0x76
 3883 1527 00       		.sleb128 0
 3884 1528 00       		.byte	0
 3885 1529 26       		.uleb128 0x26
 3886 152a 9C000000 		.4byte	.LVL208
 3887 152e 69160000 		.4byte	0x1669
 3888 1532 27       		.uleb128 0x27
 3889 1533 01       		.uleb128 0x1
 3890 1534 50       		.byte	0x50
 3891 1535 02       		.uleb128 0x2
 3892 1536 91       		.byte	0x91
 3893 1537 64       		.sleb128 -28
ARM GAS  C:\Users\PC\AppData\Local\Temp\ccQeYTXk.s 			page 100


 3894 1538 27       		.uleb128 0x27
 3895 1539 01       		.uleb128 0x1
 3896 153a 52       		.byte	0x52
 3897 153b 02       		.uleb128 0x2
 3898 153c 76       		.byte	0x76
 3899 153d 00       		.sleb128 0
 3900 153e 27       		.uleb128 0x27
 3901 153f 01       		.uleb128 0x1
 3902 1540 53       		.byte	0x53
 3903 1541 01       		.uleb128 0x1
 3904 1542 30       		.byte	0x30
 3905 1543 00       		.byte	0
 3906 1544 00       		.byte	0
 3907 1545 1D       		.uleb128 0x1d
 3908 1546 94010000 		.4byte	.LASF239
 3909 154a 01       		.byte	0x1
 3910 154b F703     		.2byte	0x3f7
 3911 154d 00000000 		.4byte	.LFB52
 3912 1551 78000000 		.4byte	.LFE52-.LFB52
 3913 1555 01       		.uleb128 0x1
 3914 1556 9C       		.byte	0x9c
 3915 1557 FE150000 		.4byte	0x15fe
 3916 155b 24       		.uleb128 0x24
 3917 155c C70F0000 		.4byte	.LASF233
 3918 1560 01       		.byte	0x1
 3919 1561 F703     		.2byte	0x3f7
 3920 1563 1F010000 		.4byte	0x11f
 3921 1567 F50A0000 		.4byte	.LLST74
 3922 156b 24       		.uleb128 0x24
 3923 156c 0C0E0000 		.4byte	.LASF198
 3924 1570 01       		.byte	0x1
 3925 1571 F703     		.2byte	0x3f7
 3926 1573 A20C0000 		.4byte	0xca2
 3927 1577 4D0B0000 		.4byte	.LLST75
 3928 157b 1E       		.uleb128 0x1e
 3929 157c 160A0000 		.4byte	.LASF234
 3930 1580 01       		.byte	0x1
 3931 1581 F903     		.2byte	0x3f9
 3932 1583 1F010000 		.4byte	0x11f
 3933 1587 A00B0000 		.4byte	.LLST76
 3934 158b 1E       		.uleb128 0x1e
 3935 158c 830A0000 		.4byte	.LASF235
 3936 1590 01       		.byte	0x1
 3937 1591 FA03     		.2byte	0x3fa
 3938 1593 1F010000 		.4byte	0x11f
 3939 1597 DF0B0000 		.4byte	.LLST77
 3940 159b 1E       		.uleb128 0x1e
 3941 159c E90D0000 		.4byte	.LASF236
 3942 15a0 01       		.byte	0x1
 3943 15a1 FB03     		.2byte	0x3fb
 3944 15a3 1F010000 		.4byte	0x11f
 3945 15a7 370C0000 		.4byte	.LLST78
 3946 15ab 1E       		.uleb128 0x1e
 3947 15ac 820F0000 		.4byte	.LASF204
 3948 15b0 01       		.byte	0x1
 3949 15b1 FC03     		.2byte	0x3fc
 3950 15b3 D5050000 		.4byte	0x5d5
ARM GAS  C:\Users\PC\AppData\Local\Temp\ccQeYTXk.s 			page 101


 3951 15b7 6B0C0000 		.4byte	.LLST79
 3952 15bb 2A       		.uleb128 0x2a
 3953 15bc 20000000 		.4byte	.LVL223
 3954 15c0 9B120000 		.4byte	0x129b
 3955 15c4 CF150000 		.4byte	0x15cf
 3956 15c8 27       		.uleb128 0x27
 3957 15c9 01       		.uleb128 0x1
 3958 15ca 50       		.byte	0x50
 3959 15cb 02       		.uleb128 0x2
 3960 15cc 75       		.byte	0x75
 3961 15cd 00       		.sleb128 0
 3962 15ce 00       		.byte	0
 3963 15cf 2A       		.uleb128 0x2a
 3964 15d0 2A000000 		.4byte	.LVL227
 3965 15d4 F0130000 		.4byte	0x13f0
 3966 15d8 E3150000 		.4byte	0x15e3
 3967 15dc 27       		.uleb128 0x27
 3968 15dd 01       		.uleb128 0x1
 3969 15de 50       		.byte	0x50
 3970 15df 02       		.uleb128 0x2
 3971 15e0 75       		.byte	0x75
 3972 15e1 00       		.sleb128 0
 3973 15e2 00       		.byte	0
 3974 15e3 26       		.uleb128 0x26
 3975 15e4 36000000 		.4byte	.LVL232
 3976 15e8 52160000 		.4byte	0x1652
 3977 15ec 27       		.uleb128 0x27
 3978 15ed 01       		.uleb128 0x1
 3979 15ee 50       		.byte	0x50
 3980 15ef 05       		.uleb128 0x5
 3981 15f0 03       		.byte	0x3
 3982 15f1 00000000 		.4byte	.LC3
 3983 15f5 27       		.uleb128 0x27
 3984 15f6 01       		.uleb128 0x1
 3985 15f7 51       		.byte	0x51
 3986 15f8 03       		.uleb128 0x3
 3987 15f9 0A       		.byte	0xa
 3988 15fa 2604     		.2byte	0x426
 3989 15fc 00       		.byte	0
 3990 15fd 00       		.byte	0
 3991 15fe 2B       		.uleb128 0x2b
 3992 15ff 90090000 		.4byte	.LASF240
 3993 1603 09       		.byte	0x9
 3994 1604 A604     		.2byte	0x4a6
 3995 1606 880A0000 		.4byte	0xa88
 3996 160a 2B       		.uleb128 0x2b
 3997 160b A90C0000 		.4byte	.LASF241
 3998 160f 09       		.byte	0x9
 3999 1610 A704     		.2byte	0x4a7
 4000 1612 16160000 		.4byte	0x1616
 4001 1616 1C       		.uleb128 0x1c
 4002 1617 AD0B0000 		.4byte	0xbad
 4003 161b 2C       		.uleb128 0x2c
 4004 161c AF090000 		.4byte	.LASF242
 4005 1620 AF090000 		.4byte	.LASF242
 4006 1624 0A       		.byte	0xa
 4007 1625 19       		.byte	0x19
ARM GAS  C:\Users\PC\AppData\Local\Temp\ccQeYTXk.s 			page 102


 4008 1626 2C       		.uleb128 0x2c
 4009 1627 66030000 		.4byte	.LASF243
 4010 162b 66030000 		.4byte	.LASF243
 4011 162f 07       		.byte	0x7
 4012 1630 B3       		.byte	0xb3
 4013 1631 2C       		.uleb128 0x2c
 4014 1632 17060000 		.4byte	.LASF244
 4015 1636 17060000 		.4byte	.LASF244
 4016 163a 0B       		.byte	0xb
 4017 163b 83       		.byte	0x83
 4018 163c 2C       		.uleb128 0x2c
 4019 163d C6030000 		.4byte	.LASF245
 4020 1641 C6030000 		.4byte	.LASF245
 4021 1645 0B       		.byte	0xb
 4022 1646 70       		.byte	0x70
 4023 1647 2C       		.uleb128 0x2c
 4024 1648 2C080000 		.4byte	.LASF246
 4025 164c 2C080000 		.4byte	.LASF246
 4026 1650 07       		.byte	0x7
 4027 1651 BC       		.byte	0xbc
 4028 1652 2D       		.uleb128 0x2d
 4029 1653 DB070000 		.4byte	.LASF247
 4030 1657 DB070000 		.4byte	.LASF247
 4031 165b 05       		.byte	0x5
 4032 165c 9203     		.2byte	0x392
 4033 165e 2C       		.uleb128 0x2c
 4034 165f 24010000 		.4byte	.LASF248
 4035 1663 24010000 		.4byte	.LASF248
 4036 1667 0C       		.byte	0xc
 4037 1668 4E       		.byte	0x4e
 4038 1669 2C       		.uleb128 0x2c
 4039 166a 51050000 		.4byte	.LASF249
 4040 166e 51050000 		.4byte	.LASF249
 4041 1672 0C       		.byte	0xc
 4042 1673 5D       		.byte	0x5d
 4043 1674 00       		.byte	0
 4044              		.section	.debug_abbrev,"",%progbits
 4045              	.Ldebug_abbrev0:
 4046 0000 01       		.uleb128 0x1
 4047 0001 11       		.uleb128 0x11
 4048 0002 01       		.byte	0x1
 4049 0003 25       		.uleb128 0x25
 4050 0004 0E       		.uleb128 0xe
 4051 0005 13       		.uleb128 0x13
 4052 0006 0B       		.uleb128 0xb
 4053 0007 03       		.uleb128 0x3
 4054 0008 0E       		.uleb128 0xe
 4055 0009 1B       		.uleb128 0x1b
 4056 000a 0E       		.uleb128 0xe
 4057 000b 55       		.uleb128 0x55
 4058 000c 17       		.uleb128 0x17
 4059 000d 11       		.uleb128 0x11
 4060 000e 01       		.uleb128 0x1
 4061 000f 10       		.uleb128 0x10
 4062 0010 17       		.uleb128 0x17
 4063 0011 00       		.byte	0
 4064 0012 00       		.byte	0
ARM GAS  C:\Users\PC\AppData\Local\Temp\ccQeYTXk.s 			page 103


 4065 0013 02       		.uleb128 0x2
 4066 0014 24       		.uleb128 0x24
 4067 0015 00       		.byte	0
 4068 0016 0B       		.uleb128 0xb
 4069 0017 0B       		.uleb128 0xb
 4070 0018 3E       		.uleb128 0x3e
 4071 0019 0B       		.uleb128 0xb
 4072 001a 03       		.uleb128 0x3
 4073 001b 0E       		.uleb128 0xe
 4074 001c 00       		.byte	0
 4075 001d 00       		.byte	0
 4076 001e 03       		.uleb128 0x3
 4077 001f 16       		.uleb128 0x16
 4078 0020 00       		.byte	0
 4079 0021 03       		.uleb128 0x3
 4080 0022 0E       		.uleb128 0xe
 4081 0023 3A       		.uleb128 0x3a
 4082 0024 0B       		.uleb128 0xb
 4083 0025 3B       		.uleb128 0x3b
 4084 0026 0B       		.uleb128 0xb
 4085 0027 49       		.uleb128 0x49
 4086 0028 13       		.uleb128 0x13
 4087 0029 00       		.byte	0
 4088 002a 00       		.byte	0
 4089 002b 04       		.uleb128 0x4
 4090 002c 24       		.uleb128 0x24
 4091 002d 00       		.byte	0
 4092 002e 0B       		.uleb128 0xb
 4093 002f 0B       		.uleb128 0xb
 4094 0030 3E       		.uleb128 0x3e
 4095 0031 0B       		.uleb128 0xb
 4096 0032 03       		.uleb128 0x3
 4097 0033 08       		.uleb128 0x8
 4098 0034 00       		.byte	0
 4099 0035 00       		.byte	0
 4100 0036 05       		.uleb128 0x5
 4101 0037 35       		.uleb128 0x35
 4102 0038 00       		.byte	0
 4103 0039 49       		.uleb128 0x49
 4104 003a 13       		.uleb128 0x13
 4105 003b 00       		.byte	0
 4106 003c 00       		.byte	0
 4107 003d 06       		.uleb128 0x6
 4108 003e 16       		.uleb128 0x16
 4109 003f 00       		.byte	0
 4110 0040 03       		.uleb128 0x3
 4111 0041 0E       		.uleb128 0xe
 4112 0042 3A       		.uleb128 0x3a
 4113 0043 0B       		.uleb128 0xb
 4114 0044 3B       		.uleb128 0x3b
 4115 0045 05       		.uleb128 0x5
 4116 0046 49       		.uleb128 0x49
 4117 0047 13       		.uleb128 0x13
 4118 0048 00       		.byte	0
 4119 0049 00       		.byte	0
 4120 004a 07       		.uleb128 0x7
 4121 004b 0F       		.uleb128 0xf
ARM GAS  C:\Users\PC\AppData\Local\Temp\ccQeYTXk.s 			page 104


 4122 004c 00       		.byte	0
 4123 004d 0B       		.uleb128 0xb
 4124 004e 0B       		.uleb128 0xb
 4125 004f 00       		.byte	0
 4126 0050 00       		.byte	0
 4127 0051 08       		.uleb128 0x8
 4128 0052 13       		.uleb128 0x13
 4129 0053 01       		.byte	0x1
 4130 0054 0B       		.uleb128 0xb
 4131 0055 0B       		.uleb128 0xb
 4132 0056 3A       		.uleb128 0x3a
 4133 0057 0B       		.uleb128 0xb
 4134 0058 3B       		.uleb128 0x3b
 4135 0059 0B       		.uleb128 0xb
 4136 005a 01       		.uleb128 0x1
 4137 005b 13       		.uleb128 0x13
 4138 005c 00       		.byte	0
 4139 005d 00       		.byte	0
 4140 005e 09       		.uleb128 0x9
 4141 005f 0D       		.uleb128 0xd
 4142 0060 00       		.byte	0
 4143 0061 03       		.uleb128 0x3
 4144 0062 0E       		.uleb128 0xe
 4145 0063 3A       		.uleb128 0x3a
 4146 0064 0B       		.uleb128 0xb
 4147 0065 3B       		.uleb128 0x3b
 4148 0066 0B       		.uleb128 0xb
 4149 0067 49       		.uleb128 0x49
 4150 0068 13       		.uleb128 0x13
 4151 0069 38       		.uleb128 0x38
 4152 006a 0B       		.uleb128 0xb
 4153 006b 00       		.byte	0
 4154 006c 00       		.byte	0
 4155 006d 0A       		.uleb128 0xa
 4156 006e 0D       		.uleb128 0xd
 4157 006f 00       		.byte	0
 4158 0070 03       		.uleb128 0x3
 4159 0071 0E       		.uleb128 0xe
 4160 0072 3A       		.uleb128 0x3a
 4161 0073 0B       		.uleb128 0xb
 4162 0074 3B       		.uleb128 0x3b
 4163 0075 05       		.uleb128 0x5
 4164 0076 49       		.uleb128 0x49
 4165 0077 13       		.uleb128 0x13
 4166 0078 38       		.uleb128 0x38
 4167 0079 0B       		.uleb128 0xb
 4168 007a 00       		.byte	0
 4169 007b 00       		.byte	0
 4170 007c 0B       		.uleb128 0xb
 4171 007d 04       		.uleb128 0x4
 4172 007e 01       		.byte	0x1
 4173 007f 0B       		.uleb128 0xb
 4174 0080 0B       		.uleb128 0xb
 4175 0081 49       		.uleb128 0x49
 4176 0082 13       		.uleb128 0x13
 4177 0083 3A       		.uleb128 0x3a
 4178 0084 0B       		.uleb128 0xb
ARM GAS  C:\Users\PC\AppData\Local\Temp\ccQeYTXk.s 			page 105


 4179 0085 3B       		.uleb128 0x3b
 4180 0086 0B       		.uleb128 0xb
 4181 0087 01       		.uleb128 0x1
 4182 0088 13       		.uleb128 0x13
 4183 0089 00       		.byte	0
 4184 008a 00       		.byte	0
 4185 008b 0C       		.uleb128 0xc
 4186 008c 28       		.uleb128 0x28
 4187 008d 00       		.byte	0
 4188 008e 03       		.uleb128 0x3
 4189 008f 0E       		.uleb128 0xe
 4190 0090 1C       		.uleb128 0x1c
 4191 0091 0B       		.uleb128 0xb
 4192 0092 00       		.byte	0
 4193 0093 00       		.byte	0
 4194 0094 0D       		.uleb128 0xd
 4195 0095 01       		.uleb128 0x1
 4196 0096 01       		.byte	0x1
 4197 0097 49       		.uleb128 0x49
 4198 0098 13       		.uleb128 0x13
 4199 0099 01       		.uleb128 0x1
 4200 009a 13       		.uleb128 0x13
 4201 009b 00       		.byte	0
 4202 009c 00       		.byte	0
 4203 009d 0E       		.uleb128 0xe
 4204 009e 21       		.uleb128 0x21
 4205 009f 00       		.byte	0
 4206 00a0 49       		.uleb128 0x49
 4207 00a1 13       		.uleb128 0x13
 4208 00a2 2F       		.uleb128 0x2f
 4209 00a3 0B       		.uleb128 0xb
 4210 00a4 00       		.byte	0
 4211 00a5 00       		.byte	0
 4212 00a6 0F       		.uleb128 0xf
 4213 00a7 13       		.uleb128 0x13
 4214 00a8 01       		.byte	0x1
 4215 00a9 0B       		.uleb128 0xb
 4216 00aa 0B       		.uleb128 0xb
 4217 00ab 3A       		.uleb128 0x3a
 4218 00ac 0B       		.uleb128 0xb
 4219 00ad 3B       		.uleb128 0x3b
 4220 00ae 05       		.uleb128 0x5
 4221 00af 01       		.uleb128 0x1
 4222 00b0 13       		.uleb128 0x13
 4223 00b1 00       		.byte	0
 4224 00b2 00       		.byte	0
 4225 00b3 10       		.uleb128 0x10
 4226 00b4 0D       		.uleb128 0xd
 4227 00b5 00       		.byte	0
 4228 00b6 03       		.uleb128 0x3
 4229 00b7 08       		.uleb128 0x8
 4230 00b8 3A       		.uleb128 0x3a
 4231 00b9 0B       		.uleb128 0xb
 4232 00ba 3B       		.uleb128 0x3b
 4233 00bb 05       		.uleb128 0x5
 4234 00bc 49       		.uleb128 0x49
 4235 00bd 13       		.uleb128 0x13
ARM GAS  C:\Users\PC\AppData\Local\Temp\ccQeYTXk.s 			page 106


 4236 00be 38       		.uleb128 0x38
 4237 00bf 0B       		.uleb128 0xb
 4238 00c0 00       		.byte	0
 4239 00c1 00       		.byte	0
 4240 00c2 11       		.uleb128 0x11
 4241 00c3 13       		.uleb128 0x13
 4242 00c4 01       		.byte	0x1
 4243 00c5 0B       		.uleb128 0xb
 4244 00c6 05       		.uleb128 0x5
 4245 00c7 3A       		.uleb128 0x3a
 4246 00c8 0B       		.uleb128 0xb
 4247 00c9 3B       		.uleb128 0x3b
 4248 00ca 05       		.uleb128 0x5
 4249 00cb 01       		.uleb128 0x1
 4250 00cc 13       		.uleb128 0x13
 4251 00cd 00       		.byte	0
 4252 00ce 00       		.byte	0
 4253 00cf 12       		.uleb128 0x12
 4254 00d0 0D       		.uleb128 0xd
 4255 00d1 00       		.byte	0
 4256 00d2 03       		.uleb128 0x3
 4257 00d3 0E       		.uleb128 0xe
 4258 00d4 3A       		.uleb128 0x3a
 4259 00d5 0B       		.uleb128 0xb
 4260 00d6 3B       		.uleb128 0x3b
 4261 00d7 05       		.uleb128 0x5
 4262 00d8 49       		.uleb128 0x49
 4263 00d9 13       		.uleb128 0x13
 4264 00da 38       		.uleb128 0x38
 4265 00db 05       		.uleb128 0x5
 4266 00dc 00       		.byte	0
 4267 00dd 00       		.byte	0
 4268 00de 13       		.uleb128 0x13
 4269 00df 0F       		.uleb128 0xf
 4270 00e0 00       		.byte	0
 4271 00e1 0B       		.uleb128 0xb
 4272 00e2 0B       		.uleb128 0xb
 4273 00e3 49       		.uleb128 0x49
 4274 00e4 13       		.uleb128 0x13
 4275 00e5 00       		.byte	0
 4276 00e6 00       		.byte	0
 4277 00e7 14       		.uleb128 0x14
 4278 00e8 26       		.uleb128 0x26
 4279 00e9 00       		.byte	0
 4280 00ea 00       		.byte	0
 4281 00eb 00       		.byte	0
 4282 00ec 15       		.uleb128 0x15
 4283 00ed 17       		.uleb128 0x17
 4284 00ee 01       		.byte	0x1
 4285 00ef 0B       		.uleb128 0xb
 4286 00f0 0B       		.uleb128 0xb
 4287 00f1 3A       		.uleb128 0x3a
 4288 00f2 0B       		.uleb128 0xb
 4289 00f3 3B       		.uleb128 0x3b
 4290 00f4 05       		.uleb128 0x5
 4291 00f5 01       		.uleb128 0x1
 4292 00f6 13       		.uleb128 0x13
ARM GAS  C:\Users\PC\AppData\Local\Temp\ccQeYTXk.s 			page 107


 4293 00f7 00       		.byte	0
 4294 00f8 00       		.byte	0
 4295 00f9 16       		.uleb128 0x16
 4296 00fa 0D       		.uleb128 0xd
 4297 00fb 00       		.byte	0
 4298 00fc 03       		.uleb128 0x3
 4299 00fd 08       		.uleb128 0x8
 4300 00fe 3A       		.uleb128 0x3a
 4301 00ff 0B       		.uleb128 0xb
 4302 0100 3B       		.uleb128 0x3b
 4303 0101 05       		.uleb128 0x5
 4304 0102 49       		.uleb128 0x49
 4305 0103 13       		.uleb128 0x13
 4306 0104 00       		.byte	0
 4307 0105 00       		.byte	0
 4308 0106 17       		.uleb128 0x17
 4309 0107 0D       		.uleb128 0xd
 4310 0108 00       		.byte	0
 4311 0109 03       		.uleb128 0x3
 4312 010a 0E       		.uleb128 0xe
 4313 010b 3A       		.uleb128 0x3a
 4314 010c 0B       		.uleb128 0xb
 4315 010d 3B       		.uleb128 0x3b
 4316 010e 05       		.uleb128 0x5
 4317 010f 49       		.uleb128 0x49
 4318 0110 13       		.uleb128 0x13
 4319 0111 00       		.byte	0
 4320 0112 00       		.byte	0
 4321 0113 18       		.uleb128 0x18
 4322 0114 2E       		.uleb128 0x2e
 4323 0115 01       		.byte	0x1
 4324 0116 03       		.uleb128 0x3
 4325 0117 0E       		.uleb128 0xe
 4326 0118 3A       		.uleb128 0x3a
 4327 0119 0B       		.uleb128 0xb
 4328 011a 3B       		.uleb128 0x3b
 4329 011b 05       		.uleb128 0x5
 4330 011c 27       		.uleb128 0x27
 4331 011d 19       		.uleb128 0x19
 4332 011e 20       		.uleb128 0x20
 4333 011f 0B       		.uleb128 0xb
 4334 0120 01       		.uleb128 0x1
 4335 0121 13       		.uleb128 0x13
 4336 0122 00       		.byte	0
 4337 0123 00       		.byte	0
 4338 0124 19       		.uleb128 0x19
 4339 0125 05       		.uleb128 0x5
 4340 0126 00       		.byte	0
 4341 0127 03       		.uleb128 0x3
 4342 0128 0E       		.uleb128 0xe
 4343 0129 3A       		.uleb128 0x3a
 4344 012a 0B       		.uleb128 0xb
 4345 012b 3B       		.uleb128 0x3b
 4346 012c 05       		.uleb128 0x5
 4347 012d 49       		.uleb128 0x49
 4348 012e 13       		.uleb128 0x13
 4349 012f 00       		.byte	0
ARM GAS  C:\Users\PC\AppData\Local\Temp\ccQeYTXk.s 			page 108


 4350 0130 00       		.byte	0
 4351 0131 1A       		.uleb128 0x1a
 4352 0132 34       		.uleb128 0x34
 4353 0133 00       		.byte	0
 4354 0134 03       		.uleb128 0x3
 4355 0135 08       		.uleb128 0x8
 4356 0136 3A       		.uleb128 0x3a
 4357 0137 0B       		.uleb128 0xb
 4358 0138 3B       		.uleb128 0x3b
 4359 0139 05       		.uleb128 0x5
 4360 013a 49       		.uleb128 0x49
 4361 013b 13       		.uleb128 0x13
 4362 013c 00       		.byte	0
 4363 013d 00       		.byte	0
 4364 013e 1B       		.uleb128 0x1b
 4365 013f 34       		.uleb128 0x34
 4366 0140 00       		.byte	0
 4367 0141 03       		.uleb128 0x3
 4368 0142 0E       		.uleb128 0xe
 4369 0143 3A       		.uleb128 0x3a
 4370 0144 0B       		.uleb128 0xb
 4371 0145 3B       		.uleb128 0x3b
 4372 0146 05       		.uleb128 0x5
 4373 0147 49       		.uleb128 0x49
 4374 0148 13       		.uleb128 0x13
 4375 0149 00       		.byte	0
 4376 014a 00       		.byte	0
 4377 014b 1C       		.uleb128 0x1c
 4378 014c 26       		.uleb128 0x26
 4379 014d 00       		.byte	0
 4380 014e 49       		.uleb128 0x49
 4381 014f 13       		.uleb128 0x13
 4382 0150 00       		.byte	0
 4383 0151 00       		.byte	0
 4384 0152 1D       		.uleb128 0x1d
 4385 0153 2E       		.uleb128 0x2e
 4386 0154 01       		.byte	0x1
 4387 0155 3F       		.uleb128 0x3f
 4388 0156 19       		.uleb128 0x19
 4389 0157 03       		.uleb128 0x3
 4390 0158 0E       		.uleb128 0xe
 4391 0159 3A       		.uleb128 0x3a
 4392 015a 0B       		.uleb128 0xb
 4393 015b 3B       		.uleb128 0x3b
 4394 015c 05       		.uleb128 0x5
 4395 015d 27       		.uleb128 0x27
 4396 015e 19       		.uleb128 0x19
 4397 015f 11       		.uleb128 0x11
 4398 0160 01       		.uleb128 0x1
 4399 0161 12       		.uleb128 0x12
 4400 0162 06       		.uleb128 0x6
 4401 0163 40       		.uleb128 0x40
 4402 0164 18       		.uleb128 0x18
 4403 0165 9742     		.uleb128 0x2117
 4404 0167 19       		.uleb128 0x19
 4405 0168 01       		.uleb128 0x1
 4406 0169 13       		.uleb128 0x13
ARM GAS  C:\Users\PC\AppData\Local\Temp\ccQeYTXk.s 			page 109


 4407 016a 00       		.byte	0
 4408 016b 00       		.byte	0
 4409 016c 1E       		.uleb128 0x1e
 4410 016d 34       		.uleb128 0x34
 4411 016e 00       		.byte	0
 4412 016f 03       		.uleb128 0x3
 4413 0170 0E       		.uleb128 0xe
 4414 0171 3A       		.uleb128 0x3a
 4415 0172 0B       		.uleb128 0xb
 4416 0173 3B       		.uleb128 0x3b
 4417 0174 05       		.uleb128 0x5
 4418 0175 49       		.uleb128 0x49
 4419 0176 13       		.uleb128 0x13
 4420 0177 02       		.uleb128 0x2
 4421 0178 17       		.uleb128 0x17
 4422 0179 00       		.byte	0
 4423 017a 00       		.byte	0
 4424 017b 1F       		.uleb128 0x1f
 4425 017c 1D       		.uleb128 0x1d
 4426 017d 01       		.byte	0x1
 4427 017e 31       		.uleb128 0x31
 4428 017f 13       		.uleb128 0x13
 4429 0180 11       		.uleb128 0x11
 4430 0181 01       		.uleb128 0x1
 4431 0182 12       		.uleb128 0x12
 4432 0183 06       		.uleb128 0x6
 4433 0184 58       		.uleb128 0x58
 4434 0185 0B       		.uleb128 0xb
 4435 0186 59       		.uleb128 0x59
 4436 0187 05       		.uleb128 0x5
 4437 0188 01       		.uleb128 0x1
 4438 0189 13       		.uleb128 0x13
 4439 018a 00       		.byte	0
 4440 018b 00       		.byte	0
 4441 018c 20       		.uleb128 0x20
 4442 018d 05       		.uleb128 0x5
 4443 018e 00       		.byte	0
 4444 018f 31       		.uleb128 0x31
 4445 0190 13       		.uleb128 0x13
 4446 0191 02       		.uleb128 0x2
 4447 0192 17       		.uleb128 0x17
 4448 0193 00       		.byte	0
 4449 0194 00       		.byte	0
 4450 0195 21       		.uleb128 0x21
 4451 0196 0B       		.uleb128 0xb
 4452 0197 01       		.byte	0x1
 4453 0198 11       		.uleb128 0x11
 4454 0199 01       		.uleb128 0x1
 4455 019a 12       		.uleb128 0x12
 4456 019b 06       		.uleb128 0x6
 4457 019c 00       		.byte	0
 4458 019d 00       		.byte	0
 4459 019e 22       		.uleb128 0x22
 4460 019f 34       		.uleb128 0x34
 4461 01a0 00       		.byte	0
 4462 01a1 31       		.uleb128 0x31
 4463 01a2 13       		.uleb128 0x13
ARM GAS  C:\Users\PC\AppData\Local\Temp\ccQeYTXk.s 			page 110


 4464 01a3 02       		.uleb128 0x2
 4465 01a4 17       		.uleb128 0x17
 4466 01a5 00       		.byte	0
 4467 01a6 00       		.byte	0
 4468 01a7 23       		.uleb128 0x23
 4469 01a8 898201   		.uleb128 0x4109
 4470 01ab 00       		.byte	0
 4471 01ac 11       		.uleb128 0x11
 4472 01ad 01       		.uleb128 0x1
 4473 01ae 31       		.uleb128 0x31
 4474 01af 13       		.uleb128 0x13
 4475 01b0 00       		.byte	0
 4476 01b1 00       		.byte	0
 4477 01b2 24       		.uleb128 0x24
 4478 01b3 05       		.uleb128 0x5
 4479 01b4 00       		.byte	0
 4480 01b5 03       		.uleb128 0x3
 4481 01b6 0E       		.uleb128 0xe
 4482 01b7 3A       		.uleb128 0x3a
 4483 01b8 0B       		.uleb128 0xb
 4484 01b9 3B       		.uleb128 0x3b
 4485 01ba 05       		.uleb128 0x5
 4486 01bb 49       		.uleb128 0x49
 4487 01bc 13       		.uleb128 0x13
 4488 01bd 02       		.uleb128 0x2
 4489 01be 17       		.uleb128 0x17
 4490 01bf 00       		.byte	0
 4491 01c0 00       		.byte	0
 4492 01c1 25       		.uleb128 0x25
 4493 01c2 34       		.uleb128 0x34
 4494 01c3 00       		.byte	0
 4495 01c4 03       		.uleb128 0x3
 4496 01c5 0E       		.uleb128 0xe
 4497 01c6 3A       		.uleb128 0x3a
 4498 01c7 0B       		.uleb128 0xb
 4499 01c8 3B       		.uleb128 0x3b
 4500 01c9 05       		.uleb128 0x5
 4501 01ca 49       		.uleb128 0x49
 4502 01cb 13       		.uleb128 0x13
 4503 01cc 02       		.uleb128 0x2
 4504 01cd 18       		.uleb128 0x18
 4505 01ce 00       		.byte	0
 4506 01cf 00       		.byte	0
 4507 01d0 26       		.uleb128 0x26
 4508 01d1 898201   		.uleb128 0x4109
 4509 01d4 01       		.byte	0x1
 4510 01d5 11       		.uleb128 0x11
 4511 01d6 01       		.uleb128 0x1
 4512 01d7 31       		.uleb128 0x31
 4513 01d8 13       		.uleb128 0x13
 4514 01d9 00       		.byte	0
 4515 01da 00       		.byte	0
 4516 01db 27       		.uleb128 0x27
 4517 01dc 8A8201   		.uleb128 0x410a
 4518 01df 00       		.byte	0
 4519 01e0 02       		.uleb128 0x2
 4520 01e1 18       		.uleb128 0x18
ARM GAS  C:\Users\PC\AppData\Local\Temp\ccQeYTXk.s 			page 111


 4521 01e2 9142     		.uleb128 0x2111
 4522 01e4 18       		.uleb128 0x18
 4523 01e5 00       		.byte	0
 4524 01e6 00       		.byte	0
 4525 01e7 28       		.uleb128 0x28
 4526 01e8 05       		.uleb128 0x5
 4527 01e9 00       		.byte	0
 4528 01ea 03       		.uleb128 0x3
 4529 01eb 0E       		.uleb128 0xe
 4530 01ec 3A       		.uleb128 0x3a
 4531 01ed 0B       		.uleb128 0xb
 4532 01ee 3B       		.uleb128 0x3b
 4533 01ef 05       		.uleb128 0x5
 4534 01f0 49       		.uleb128 0x49
 4535 01f1 13       		.uleb128 0x13
 4536 01f2 02       		.uleb128 0x2
 4537 01f3 18       		.uleb128 0x18
 4538 01f4 00       		.byte	0
 4539 01f5 00       		.byte	0
 4540 01f6 29       		.uleb128 0x29
 4541 01f7 2E       		.uleb128 0x2e
 4542 01f8 01       		.byte	0x1
 4543 01f9 3F       		.uleb128 0x3f
 4544 01fa 19       		.uleb128 0x19
 4545 01fb 03       		.uleb128 0x3
 4546 01fc 0E       		.uleb128 0xe
 4547 01fd 3A       		.uleb128 0x3a
 4548 01fe 0B       		.uleb128 0xb
 4549 01ff 3B       		.uleb128 0x3b
 4550 0200 05       		.uleb128 0x5
 4551 0201 27       		.uleb128 0x27
 4552 0202 19       		.uleb128 0x19
 4553 0203 49       		.uleb128 0x49
 4554 0204 13       		.uleb128 0x13
 4555 0205 11       		.uleb128 0x11
 4556 0206 01       		.uleb128 0x1
 4557 0207 12       		.uleb128 0x12
 4558 0208 06       		.uleb128 0x6
 4559 0209 40       		.uleb128 0x40
 4560 020a 18       		.uleb128 0x18
 4561 020b 9742     		.uleb128 0x2117
 4562 020d 19       		.uleb128 0x19
 4563 020e 01       		.uleb128 0x1
 4564 020f 13       		.uleb128 0x13
 4565 0210 00       		.byte	0
 4566 0211 00       		.byte	0
 4567 0212 2A       		.uleb128 0x2a
 4568 0213 898201   		.uleb128 0x4109
 4569 0216 01       		.byte	0x1
 4570 0217 11       		.uleb128 0x11
 4571 0218 01       		.uleb128 0x1
 4572 0219 31       		.uleb128 0x31
 4573 021a 13       		.uleb128 0x13
 4574 021b 01       		.uleb128 0x1
 4575 021c 13       		.uleb128 0x13
 4576 021d 00       		.byte	0
 4577 021e 00       		.byte	0
ARM GAS  C:\Users\PC\AppData\Local\Temp\ccQeYTXk.s 			page 112


 4578 021f 2B       		.uleb128 0x2b
 4579 0220 34       		.uleb128 0x34
 4580 0221 00       		.byte	0
 4581 0222 03       		.uleb128 0x3
 4582 0223 0E       		.uleb128 0xe
 4583 0224 3A       		.uleb128 0x3a
 4584 0225 0B       		.uleb128 0xb
 4585 0226 3B       		.uleb128 0x3b
 4586 0227 05       		.uleb128 0x5
 4587 0228 49       		.uleb128 0x49
 4588 0229 13       		.uleb128 0x13
 4589 022a 3F       		.uleb128 0x3f
 4590 022b 19       		.uleb128 0x19
 4591 022c 3C       		.uleb128 0x3c
 4592 022d 19       		.uleb128 0x19
 4593 022e 00       		.byte	0
 4594 022f 00       		.byte	0
 4595 0230 2C       		.uleb128 0x2c
 4596 0231 2E       		.uleb128 0x2e
 4597 0232 00       		.byte	0
 4598 0233 3F       		.uleb128 0x3f
 4599 0234 19       		.uleb128 0x19
 4600 0235 3C       		.uleb128 0x3c
 4601 0236 19       		.uleb128 0x19
 4602 0237 6E       		.uleb128 0x6e
 4603 0238 0E       		.uleb128 0xe
 4604 0239 03       		.uleb128 0x3
 4605 023a 0E       		.uleb128 0xe
 4606 023b 3A       		.uleb128 0x3a
 4607 023c 0B       		.uleb128 0xb
 4608 023d 3B       		.uleb128 0x3b
 4609 023e 0B       		.uleb128 0xb
 4610 023f 00       		.byte	0
 4611 0240 00       		.byte	0
 4612 0241 2D       		.uleb128 0x2d
 4613 0242 2E       		.uleb128 0x2e
 4614 0243 00       		.byte	0
 4615 0244 3F       		.uleb128 0x3f
 4616 0245 19       		.uleb128 0x19
 4617 0246 3C       		.uleb128 0x3c
 4618 0247 19       		.uleb128 0x19
 4619 0248 6E       		.uleb128 0x6e
 4620 0249 0E       		.uleb128 0xe
 4621 024a 03       		.uleb128 0x3
 4622 024b 0E       		.uleb128 0xe
 4623 024c 3A       		.uleb128 0x3a
 4624 024d 0B       		.uleb128 0xb
 4625 024e 3B       		.uleb128 0x3b
 4626 024f 05       		.uleb128 0x5
 4627 0250 00       		.byte	0
 4628 0251 00       		.byte	0
 4629 0252 00       		.byte	0
 4630              		.section	.debug_loc,"",%progbits
 4631              	.Ldebug_loc0:
 4632              	.LLST0:
 4633 0000 02000000 		.4byte	.LVL0
 4634 0004 06000000 		.4byte	.LVL1
ARM GAS  C:\Users\PC\AppData\Local\Temp\ccQeYTXk.s 			page 113


 4635 0008 0200     		.2byte	0x2
 4636 000a 30       		.byte	0x30
 4637 000b 9F       		.byte	0x9f
 4638 000c 06000000 		.4byte	.LVL1
 4639 0010 22000000 		.4byte	.LVL3
 4640 0014 0100     		.2byte	0x1
 4641 0016 53       		.byte	0x53
 4642 0017 24000000 		.4byte	.LVL4
 4643 001b 76000000 		.4byte	.LVL17
 4644 001f 0100     		.2byte	0x1
 4645 0021 55       		.byte	0x55
 4646 0022 76000000 		.4byte	.LVL17
 4647 0026 78000000 		.4byte	.LVL18
 4648 002a 0100     		.2byte	0x1
 4649 002c 53       		.byte	0x53
 4650 002d 78000000 		.4byte	.LVL18
 4651 0031 7C000000 		.4byte	.LVL20
 4652 0035 0100     		.2byte	0x1
 4653 0037 55       		.byte	0x55
 4654 0038 7C000000 		.4byte	.LVL20
 4655 003c 88000000 		.4byte	.LFE46
 4656 0040 0300     		.2byte	0x3
 4657 0042 73       		.byte	0x73
 4658 0043 7F       		.sleb128 -1
 4659 0044 9F       		.byte	0x9f
 4660 0045 00000000 		.4byte	0
 4661 0049 00000000 		.4byte	0
 4662              	.LLST1:
 4663 004d 28000000 		.4byte	.LVL6
 4664 0051 48000000 		.4byte	.LVL7
 4665 0055 0100     		.2byte	0x1
 4666 0057 52       		.byte	0x52
 4667 0058 4E000000 		.4byte	.LVL9
 4668 005c 56000000 		.4byte	.LVL10
 4669 0060 0100     		.2byte	0x1
 4670 0062 52       		.byte	0x52
 4671 0063 00000000 		.4byte	0
 4672 0067 00000000 		.4byte	0
 4673              	.LLST2:
 4674 006b 26000000 		.4byte	.LVL5
 4675 006f 76000000 		.4byte	.LVL17
 4676 0073 0100     		.2byte	0x1
 4677 0075 56       		.byte	0x56
 4678 0076 00000000 		.4byte	0
 4679 007a 00000000 		.4byte	0
 4680              	.LLST3:
 4681 007e 24000000 		.4byte	.LVL4
 4682 0082 7C000000 		.4byte	.LVL19
 4683 0086 0100     		.2byte	0x1
 4684 0088 54       		.byte	0x54
 4685 0089 00000000 		.4byte	0
 4686 008d 00000000 		.4byte	0
 4687              	.LLST4:
 4688 0091 58000000 		.4byte	.LVL11
 4689 0095 72000000 		.4byte	.LVL15
 4690 0099 0100     		.2byte	0x1
 4691 009b 54       		.byte	0x54
ARM GAS  C:\Users\PC\AppData\Local\Temp\ccQeYTXk.s 			page 114


 4692 009c 00000000 		.4byte	0
 4693 00a0 00000000 		.4byte	0
 4694              	.LLST5:
 4695 00a4 5A000000 		.4byte	.LVL12
 4696 00a8 5E000000 		.4byte	.LVL13
 4697 00ac 0200     		.2byte	0x2
 4698 00ae 30       		.byte	0x30
 4699 00af 9F       		.byte	0x9f
 4700 00b0 5E000000 		.4byte	.LVL13
 4701 00b4 72000000 		.4byte	.LVL15
 4702 00b8 0100     		.2byte	0x1
 4703 00ba 52       		.byte	0x52
 4704 00bb 00000000 		.4byte	0
 4705 00bf 00000000 		.4byte	0
 4706              	.LLST6:
 4707 00c3 5A000000 		.4byte	.LVL12
 4708 00c7 72000000 		.4byte	.LVL15
 4709 00cb 0100     		.2byte	0x1
 4710 00cd 51       		.byte	0x51
 4711 00ce 00000000 		.4byte	0
 4712 00d2 00000000 		.4byte	0
 4713              	.LLST7:
 4714 00d6 00000000 		.4byte	.LVL21
 4715 00da 08000000 		.4byte	.LVL22
 4716 00de 0100     		.2byte	0x1
 4717 00e0 50       		.byte	0x50
 4718 00e1 08000000 		.4byte	.LVL22
 4719 00e5 30000000 		.4byte	.LVL28
 4720 00e9 0100     		.2byte	0x1
 4721 00eb 54       		.byte	0x54
 4722 00ec 30000000 		.4byte	.LVL28
 4723 00f0 32000000 		.4byte	.LFE53
 4724 00f4 0400     		.2byte	0x4
 4725 00f6 F3       		.byte	0xf3
 4726 00f7 01       		.uleb128 0x1
 4727 00f8 50       		.byte	0x50
 4728 00f9 9F       		.byte	0x9f
 4729 00fa 00000000 		.4byte	0
 4730 00fe 00000000 		.4byte	0
 4731              	.LLST8:
 4732 0102 00000000 		.4byte	.LVL21
 4733 0106 0E000000 		.4byte	.LVL25
 4734 010a 0100     		.2byte	0x1
 4735 010c 51       		.byte	0x51
 4736 010d 0E000000 		.4byte	.LVL25
 4737 0111 15000000 		.4byte	.LVL26-1
 4738 0115 0100     		.2byte	0x1
 4739 0117 50       		.byte	0x50
 4740 0118 15000000 		.4byte	.LVL26-1
 4741 011c 32000000 		.4byte	.LFE53
 4742 0120 0400     		.2byte	0x4
 4743 0122 F3       		.byte	0xf3
 4744 0123 01       		.uleb128 0x1
 4745 0124 51       		.byte	0x51
 4746 0125 9F       		.byte	0x9f
 4747 0126 00000000 		.4byte	0
 4748 012a 00000000 		.4byte	0
ARM GAS  C:\Users\PC\AppData\Local\Temp\ccQeYTXk.s 			page 115


 4749              	.LLST9:
 4750 012e 00000000 		.4byte	.LVL21
 4751 0132 0C000000 		.4byte	.LVL24
 4752 0136 0100     		.2byte	0x1
 4753 0138 52       		.byte	0x52
 4754 0139 0C000000 		.4byte	.LVL24
 4755 013d 15000000 		.4byte	.LVL26-1
 4756 0141 0100     		.2byte	0x1
 4757 0143 53       		.byte	0x53
 4758 0144 15000000 		.4byte	.LVL26-1
 4759 0148 32000000 		.4byte	.LFE53
 4760 014c 0400     		.2byte	0x4
 4761 014e F3       		.byte	0xf3
 4762 014f 01       		.uleb128 0x1
 4763 0150 52       		.byte	0x52
 4764 0151 9F       		.byte	0x9f
 4765 0152 00000000 		.4byte	0
 4766 0156 00000000 		.4byte	0
 4767              	.LLST10:
 4768 015a 0A000000 		.4byte	.LVL23
 4769 015e 30000000 		.4byte	.LVL27
 4770 0162 0100     		.2byte	0x1
 4771 0164 5D       		.byte	0x5d
 4772 0165 30000000 		.4byte	.LVL27
 4773 0169 32000000 		.4byte	.LFE53
 4774 016d 0300     		.2byte	0x3
 4775 016f 91       		.byte	0x91
 4776 0170 70       		.sleb128 -16
 4777 0171 9F       		.byte	0x9f
 4778 0172 00000000 		.4byte	0
 4779 0176 00000000 		.4byte	0
 4780              	.LLST11:
 4781 017a 00000000 		.4byte	.LVL29
 4782 017e 0E000000 		.4byte	.LVL32
 4783 0182 0100     		.2byte	0x1
 4784 0184 50       		.byte	0x50
 4785 0185 0E000000 		.4byte	.LVL32
 4786 0189 16000000 		.4byte	.LFE54
 4787 018d 0400     		.2byte	0x4
 4788 018f F3       		.byte	0xf3
 4789 0190 01       		.uleb128 0x1
 4790 0191 50       		.byte	0x50
 4791 0192 9F       		.byte	0x9f
 4792 0193 00000000 		.4byte	0
 4793 0197 00000000 		.4byte	0
 4794              	.LLST12:
 4795 019b 02000000 		.4byte	.LVL30
 4796 019f 08000000 		.4byte	.LVL31
 4797 01a3 0200     		.2byte	0x2
 4798 01a5 30       		.byte	0x30
 4799 01a6 9F       		.byte	0x9f
 4800 01a7 08000000 		.4byte	.LVL31
 4801 01ab 14000000 		.4byte	.LVL33
 4802 01af 0100     		.2byte	0x1
 4803 01b1 54       		.byte	0x54
 4804 01b2 14000000 		.4byte	.LVL33
 4805 01b6 16000000 		.4byte	.LFE54
ARM GAS  C:\Users\PC\AppData\Local\Temp\ccQeYTXk.s 			page 116


 4806 01ba 0600     		.2byte	0x6
 4807 01bc 73       		.byte	0x73
 4808 01bd 00       		.sleb128 0
 4809 01be 72       		.byte	0x72
 4810 01bf 00       		.sleb128 0
 4811 01c0 1C       		.byte	0x1c
 4812 01c1 9F       		.byte	0x9f
 4813 01c2 00000000 		.4byte	0
 4814 01c6 00000000 		.4byte	0
 4815              	.LLST13:
 4816 01ca 00000000 		.4byte	.LVL34
 4817 01ce 16000000 		.4byte	.LVL42
 4818 01d2 0100     		.2byte	0x1
 4819 01d4 50       		.byte	0x50
 4820 01d5 16000000 		.4byte	.LVL42
 4821 01d9 46000000 		.4byte	.LFE47
 4822 01dd 0400     		.2byte	0x4
 4823 01df F3       		.byte	0xf3
 4824 01e0 01       		.uleb128 0x1
 4825 01e1 50       		.byte	0x50
 4826 01e2 9F       		.byte	0x9f
 4827 01e3 00000000 		.4byte	0
 4828 01e7 00000000 		.4byte	0
 4829              	.LLST14:
 4830 01eb 04000000 		.4byte	.LVL35
 4831 01ef 16000000 		.4byte	.LVL42
 4832 01f3 0200     		.2byte	0x2
 4833 01f5 30       		.byte	0x30
 4834 01f6 9F       		.byte	0x9f
 4835 01f7 16000000 		.4byte	.LVL42
 4836 01fb 2C000000 		.4byte	.LVL46
 4837 01ff 0200     		.2byte	0x2
 4838 0201 91       		.byte	0x91
 4839 0202 64       		.sleb128 -28
 4840 0203 2C000000 		.4byte	.LVL46
 4841 0207 30000000 		.4byte	.LVL47
 4842 020b 0100     		.2byte	0x1
 4843 020d 50       		.byte	0x50
 4844 020e 30000000 		.4byte	.LVL47
 4845 0212 46000000 		.4byte	.LFE47
 4846 0216 0200     		.2byte	0x2
 4847 0218 91       		.byte	0x91
 4848 0219 64       		.sleb128 -28
 4849 021a 00000000 		.4byte	0
 4850 021e 00000000 		.4byte	0
 4851              	.LLST15:
 4852 0222 10000000 		.4byte	.LVL40
 4853 0226 12000000 		.4byte	.LVL41
 4854 022a 0100     		.2byte	0x1
 4855 022c 52       		.byte	0x52
 4856 022d 12000000 		.4byte	.LVL41
 4857 0231 44000000 		.4byte	.LVL53
 4858 0235 0200     		.2byte	0x2
 4859 0237 7D       		.byte	0x7d
 4860 0238 00       		.sleb128 0
 4861 0239 44000000 		.4byte	.LVL53
 4862 023d 46000000 		.4byte	.LFE47
ARM GAS  C:\Users\PC\AppData\Local\Temp\ccQeYTXk.s 			page 117


 4863 0241 0200     		.2byte	0x2
 4864 0243 91       		.byte	0x91
 4865 0244 60       		.sleb128 -32
 4866 0245 00000000 		.4byte	0
 4867 0249 00000000 		.4byte	0
 4868              	.LLST16:
 4869 024d 0A000000 		.4byte	.LVL38
 4870 0251 16000000 		.4byte	.LVL42
 4871 0255 0100     		.2byte	0x1
 4872 0257 53       		.byte	0x53
 4873 0258 16000000 		.4byte	.LVL42
 4874 025c 3A000000 		.4byte	.LVL51
 4875 0260 0100     		.2byte	0x1
 4876 0262 55       		.byte	0x55
 4877 0263 3A000000 		.4byte	.LVL51
 4878 0267 3C000000 		.4byte	.LVL52
 4879 026b 0100     		.2byte	0x1
 4880 026d 53       		.byte	0x53
 4881 026e 3C000000 		.4byte	.LVL52
 4882 0272 44000000 		.4byte	.LVL55
 4883 0276 0100     		.2byte	0x1
 4884 0278 55       		.byte	0x55
 4885 0279 44000000 		.4byte	.LVL55
 4886 027d 46000000 		.4byte	.LFE47
 4887 0281 0300     		.2byte	0x3
 4888 0283 73       		.byte	0x73
 4889 0284 7F       		.sleb128 -1
 4890 0285 9F       		.byte	0x9f
 4891 0286 00000000 		.4byte	0
 4892 028a 00000000 		.4byte	0
 4893              	.LLST17:
 4894 028e 08000000 		.4byte	.LVL37
 4895 0292 44000000 		.4byte	.LVL54
 4896 0296 0100     		.2byte	0x1
 4897 0298 54       		.byte	0x54
 4898 0299 00000000 		.4byte	0
 4899 029d 00000000 		.4byte	0
 4900              	.LLST18:
 4901 02a1 0C000000 		.4byte	.LVL39
 4902 02a5 44000000 		.4byte	.LVL56
 4903 02a9 0100     		.2byte	0x1
 4904 02ab 56       		.byte	0x56
 4905 02ac 00000000 		.4byte	0
 4906 02b0 00000000 		.4byte	0
 4907              	.LLST19:
 4908 02b4 1A000000 		.4byte	.LVL43
 4909 02b8 38000000 		.4byte	.LVL50
 4910 02bc 0100     		.2byte	0x1
 4911 02be 57       		.byte	0x57
 4912 02bf 00000000 		.4byte	0
 4913 02c3 00000000 		.4byte	0
 4914              	.LLST20:
 4915 02c7 00000000 		.4byte	.LVL57
 4916 02cb 16000000 		.4byte	.LVL63
 4917 02cf 0100     		.2byte	0x1
 4918 02d1 50       		.byte	0x50
 4919 02d2 16000000 		.4byte	.LVL63
ARM GAS  C:\Users\PC\AppData\Local\Temp\ccQeYTXk.s 			page 118


 4920 02d6 40000000 		.4byte	.LFE48
 4921 02da 0400     		.2byte	0x4
 4922 02dc F3       		.byte	0xf3
 4923 02dd 01       		.uleb128 0x1
 4924 02de 50       		.byte	0x50
 4925 02df 9F       		.byte	0x9f
 4926 02e0 00000000 		.4byte	0
 4927 02e4 00000000 		.4byte	0
 4928              	.LLST21:
 4929 02e8 00000000 		.4byte	.LVL57
 4930 02ec 19000000 		.4byte	.LVL64-1
 4931 02f0 0100     		.2byte	0x1
 4932 02f2 51       		.byte	0x51
 4933 02f3 19000000 		.4byte	.LVL64-1
 4934 02f7 3E000000 		.4byte	.LVL73
 4935 02fb 0100     		.2byte	0x1
 4936 02fd 56       		.byte	0x56
 4937 02fe 3E000000 		.4byte	.LVL73
 4938 0302 40000000 		.4byte	.LFE48
 4939 0306 0400     		.2byte	0x4
 4940 0308 F3       		.byte	0xf3
 4941 0309 01       		.uleb128 0x1
 4942 030a 51       		.byte	0x51
 4943 030b 9F       		.byte	0x9f
 4944 030c 00000000 		.4byte	0
 4945 0310 00000000 		.4byte	0
 4946              	.LLST22:
 4947 0314 00000000 		.4byte	.LVL57
 4948 0318 14000000 		.4byte	.LVL62
 4949 031c 0100     		.2byte	0x1
 4950 031e 52       		.byte	0x52
 4951 031f 1A000000 		.4byte	.LVL64
 4952 0323 20000000 		.4byte	.LVL65
 4953 0327 0100     		.2byte	0x1
 4954 0329 52       		.byte	0x52
 4955 032a 2C000000 		.4byte	.LVL68
 4956 032e 39000000 		.4byte	.LVL70-1
 4957 0332 0100     		.2byte	0x1
 4958 0334 52       		.byte	0x52
 4959 0335 3A000000 		.4byte	.LVL70
 4960 0339 40000000 		.4byte	.LFE48
 4961 033d 0100     		.2byte	0x1
 4962 033f 52       		.byte	0x52
 4963 0340 00000000 		.4byte	0
 4964 0344 00000000 		.4byte	0
 4965              	.LLST23:
 4966 0348 00000000 		.4byte	.LVL57
 4967 034c 12000000 		.4byte	.LVL61
 4968 0350 0100     		.2byte	0x1
 4969 0352 53       		.byte	0x53
 4970 0353 12000000 		.4byte	.LVL61
 4971 0357 3E000000 		.4byte	.LVL71
 4972 035b 0100     		.2byte	0x1
 4973 035d 54       		.byte	0x54
 4974 035e 3E000000 		.4byte	.LVL71
 4975 0362 40000000 		.4byte	.LFE48
 4976 0366 0400     		.2byte	0x4
ARM GAS  C:\Users\PC\AppData\Local\Temp\ccQeYTXk.s 			page 119


 4977 0368 F3       		.byte	0xf3
 4978 0369 01       		.uleb128 0x1
 4979 036a 53       		.byte	0x53
 4980 036b 9F       		.byte	0x9f
 4981 036c 00000000 		.4byte	0
 4982 0370 00000000 		.4byte	0
 4983              	.LLST24:
 4984 0374 0A000000 		.4byte	.LVL58
 4985 0378 2A000000 		.4byte	.LVL67
 4986 037c 0200     		.2byte	0x2
 4987 037e 30       		.byte	0x30
 4988 037f 9F       		.byte	0x9f
 4989 0380 2A000000 		.4byte	.LVL67
 4990 0384 2C000000 		.4byte	.LVL68
 4991 0388 0100     		.2byte	0x1
 4992 038a 50       		.byte	0x50
 4993 038b 2C000000 		.4byte	.LVL68
 4994 038f 2E000000 		.4byte	.LVL69
 4995 0393 0200     		.2byte	0x2
 4996 0395 30       		.byte	0x30
 4997 0396 9F       		.byte	0x9f
 4998 0397 2E000000 		.4byte	.LVL69
 4999 039b 3E000000 		.4byte	.LVL72
 5000 039f 0100     		.2byte	0x1
 5001 03a1 55       		.byte	0x55
 5002 03a2 3E000000 		.4byte	.LVL72
 5003 03a6 40000000 		.4byte	.LFE48
 5004 03aa 0100     		.2byte	0x1
 5005 03ac 50       		.byte	0x50
 5006 03ad 00000000 		.4byte	0
 5007 03b1 00000000 		.4byte	0
 5008              	.LLST25:
 5009 03b5 0C000000 		.4byte	.LVL59
 5010 03b9 2A000000 		.4byte	.LVL67
 5011 03bd 0100     		.2byte	0x1
 5012 03bf 55       		.byte	0x55
 5013 03c0 2C000000 		.4byte	.LVL68
 5014 03c4 2E000000 		.4byte	.LVL69
 5015 03c8 0100     		.2byte	0x1
 5016 03ca 55       		.byte	0x55
 5017 03cb 00000000 		.4byte	0
 5018 03cf 00000000 		.4byte	0
 5019              	.LLST26:
 5020 03d3 0E000000 		.4byte	.LVL60
 5021 03d7 3E000000 		.4byte	.LVL74
 5022 03db 0100     		.2byte	0x1
 5023 03dd 57       		.byte	0x57
 5024 03de 00000000 		.4byte	0
 5025 03e2 00000000 		.4byte	0
 5026              	.LLST27:
 5027 03e6 00000000 		.4byte	.LVL75
 5028 03ea 36000000 		.4byte	.LVL84
 5029 03ee 0100     		.2byte	0x1
 5030 03f0 50       		.byte	0x50
 5031 03f1 36000000 		.4byte	.LVL84
 5032 03f5 86000000 		.4byte	.LVL104
 5033 03f9 0100     		.2byte	0x1
ARM GAS  C:\Users\PC\AppData\Local\Temp\ccQeYTXk.s 			page 120


 5034 03fb 5A       		.byte	0x5a
 5035 03fc 86000000 		.4byte	.LVL104
 5036 0400 90000000 		.4byte	.LFE50
 5037 0404 0400     		.2byte	0x4
 5038 0406 F3       		.byte	0xf3
 5039 0407 01       		.uleb128 0x1
 5040 0408 50       		.byte	0x50
 5041 0409 9F       		.byte	0x9f
 5042 040a 00000000 		.4byte	0
 5043 040e 00000000 		.4byte	0
 5044              	.LLST28:
 5045 0412 0E000000 		.4byte	.LVL76
 5046 0416 36000000 		.4byte	.LVL84
 5047 041a 0200     		.2byte	0x2
 5048 041c 30       		.byte	0x30
 5049 041d 9F       		.byte	0x9f
 5050 041e 36000000 		.4byte	.LVL84
 5051 0422 62000000 		.4byte	.LVL90
 5052 0426 0200     		.2byte	0x2
 5053 0428 91       		.byte	0x91
 5054 0429 5C       		.sleb128 -36
 5055 042a 62000000 		.4byte	.LVL90
 5056 042e 66000000 		.4byte	.LVL91
 5057 0432 0100     		.2byte	0x1
 5058 0434 50       		.byte	0x50
 5059 0435 66000000 		.4byte	.LVL91
 5060 0439 90000000 		.4byte	.LFE50
 5061 043d 0200     		.2byte	0x2
 5062 043f 91       		.byte	0x91
 5063 0440 5C       		.sleb128 -36
 5064 0441 00000000 		.4byte	0
 5065 0445 00000000 		.4byte	0
 5066              	.LLST29:
 5067 0449 2C000000 		.4byte	.LVL82
 5068 044d 86000000 		.4byte	.LVL98
 5069 0451 0200     		.2byte	0x2
 5070 0453 7D       		.byte	0x7d
 5071 0454 00       		.sleb128 0
 5072 0455 86000000 		.4byte	.LVL98
 5073 0459 90000000 		.4byte	.LFE50
 5074 045d 0200     		.2byte	0x2
 5075 045f 91       		.byte	0x91
 5076 0460 58       		.sleb128 -40
 5077 0461 00000000 		.4byte	0
 5078 0465 00000000 		.4byte	0
 5079              	.LLST30:
 5080 0469 2E000000 		.4byte	.LVL83
 5081 046d 36000000 		.4byte	.LVL84
 5082 0471 0200     		.2byte	0x2
 5083 0473 30       		.byte	0x30
 5084 0474 9F       		.byte	0x9f
 5085 0475 36000000 		.4byte	.LVL84
 5086 0479 86000000 		.4byte	.LVL100
 5087 047d 0100     		.2byte	0x1
 5088 047f 55       		.byte	0x55
 5089 0480 00000000 		.4byte	0
 5090 0484 00000000 		.4byte	0
ARM GAS  C:\Users\PC\AppData\Local\Temp\ccQeYTXk.s 			page 121


 5091              	.LLST31:
 5092 0488 28000000 		.4byte	.LVL80
 5093 048c 86000000 		.4byte	.LVL99
 5094 0490 0100     		.2byte	0x1
 5095 0492 54       		.byte	0x54
 5096 0493 00000000 		.4byte	0
 5097 0497 00000000 		.4byte	0
 5098              	.LLST32:
 5099 049b 2A000000 		.4byte	.LVL81
 5100 049f 86000000 		.4byte	.LVL101
 5101 04a3 0100     		.2byte	0x1
 5102 04a5 56       		.byte	0x56
 5103 04a6 00000000 		.4byte	0
 5104 04aa 00000000 		.4byte	0
 5105              	.LLST33:
 5106 04ae 2E000000 		.4byte	.LVL83
 5107 04b2 86000000 		.4byte	.LVL102
 5108 04b6 0100     		.2byte	0x1
 5109 04b8 57       		.byte	0x57
 5110 04b9 00000000 		.4byte	0
 5111 04bd 00000000 		.4byte	0
 5112              	.LLST34:
 5113 04c1 22000000 		.4byte	.LVL78
 5114 04c5 26000000 		.4byte	.LVL79
 5115 04c9 0100     		.2byte	0x1
 5116 04cb 52       		.byte	0x52
 5117 04cc 36000000 		.4byte	.LVL84
 5118 04d0 86000000 		.4byte	.LVL103
 5119 04d4 0100     		.2byte	0x1
 5120 04d6 59       		.byte	0x59
 5121 04d7 00000000 		.4byte	0
 5122 04db 00000000 		.4byte	0
 5123              	.LLST35:
 5124 04df 1E000000 		.4byte	.LVL77
 5125 04e3 72000000 		.4byte	.LVL94
 5126 04e7 0100     		.2byte	0x1
 5127 04e9 5B       		.byte	0x5b
 5128 04ea 72000000 		.4byte	.LVL94
 5129 04ee 74000000 		.4byte	.LVL95
 5130 04f2 0100     		.2byte	0x1
 5131 04f4 53       		.byte	0x53
 5132 04f5 74000000 		.4byte	.LVL95
 5133 04f9 86000000 		.4byte	.LVL105
 5134 04fd 0100     		.2byte	0x1
 5135 04ff 5B       		.byte	0x5b
 5136 0500 00000000 		.4byte	0
 5137 0504 00000000 		.4byte	0
 5138              	.LLST36:
 5139 0508 00000000 		.4byte	.LVL106
 5140 050c 18000000 		.4byte	.LVL113
 5141 0510 0100     		.2byte	0x1
 5142 0512 50       		.byte	0x50
 5143 0513 18000000 		.4byte	.LVL113
 5144 0517 60000000 		.4byte	.LFE51
 5145 051b 0400     		.2byte	0x4
 5146 051d F3       		.byte	0xf3
 5147 051e 01       		.uleb128 0x1
ARM GAS  C:\Users\PC\AppData\Local\Temp\ccQeYTXk.s 			page 122


 5148 051f 50       		.byte	0x50
 5149 0520 9F       		.byte	0x9f
 5150 0521 00000000 		.4byte	0
 5151 0525 00000000 		.4byte	0
 5152              	.LLST37:
 5153 0529 00000000 		.4byte	.LVL106
 5154 052d 1B000000 		.4byte	.LVL114-1
 5155 0531 0100     		.2byte	0x1
 5156 0533 51       		.byte	0x51
 5157 0534 1B000000 		.4byte	.LVL114-1
 5158 0538 5E000000 		.4byte	.LVL125
 5159 053c 0200     		.2byte	0x2
 5160 053e 7D       		.byte	0x7d
 5161 053f 00       		.sleb128 0
 5162 0540 5E000000 		.4byte	.LVL125
 5163 0544 60000000 		.4byte	.LFE51
 5164 0548 0200     		.2byte	0x2
 5165 054a 91       		.byte	0x91
 5166 054b 60       		.sleb128 -32
 5167 054c 00000000 		.4byte	0
 5168 0550 00000000 		.4byte	0
 5169              	.LLST38:
 5170 0554 00000000 		.4byte	.LVL106
 5171 0558 16000000 		.4byte	.LVL112
 5172 055c 0100     		.2byte	0x1
 5173 055e 52       		.byte	0x52
 5174 055f 1C000000 		.4byte	.LVL114
 5175 0563 28000000 		.4byte	.LVL115
 5176 0567 0100     		.2byte	0x1
 5177 0569 52       		.byte	0x52
 5178 056a 2C000000 		.4byte	.LVL116
 5179 056e 32000000 		.4byte	.LVL117
 5180 0572 0100     		.2byte	0x1
 5181 0574 52       		.byte	0x52
 5182 0575 3A000000 		.4byte	.LVL118
 5183 0579 40000000 		.4byte	.LVL119
 5184 057d 0100     		.2byte	0x1
 5185 057f 52       		.byte	0x52
 5186 0580 4C000000 		.4byte	.LVL122
 5187 0584 59000000 		.4byte	.LVL124-1
 5188 0588 0100     		.2byte	0x1
 5189 058a 52       		.byte	0x52
 5190 058b 5A000000 		.4byte	.LVL124
 5191 058f 60000000 		.4byte	.LFE51
 5192 0593 0100     		.2byte	0x1
 5193 0595 52       		.byte	0x52
 5194 0596 00000000 		.4byte	0
 5195 059a 00000000 		.4byte	0
 5196              	.LLST39:
 5197 059e 00000000 		.4byte	.LVL106
 5198 05a2 14000000 		.4byte	.LVL111
 5199 05a6 0100     		.2byte	0x1
 5200 05a8 53       		.byte	0x53
 5201 05a9 14000000 		.4byte	.LVL111
 5202 05ad 5E000000 		.4byte	.LVL126
 5203 05b1 0100     		.2byte	0x1
 5204 05b3 54       		.byte	0x54
ARM GAS  C:\Users\PC\AppData\Local\Temp\ccQeYTXk.s 			page 123


 5205 05b4 5E000000 		.4byte	.LVL126
 5206 05b8 60000000 		.4byte	.LFE51
 5207 05bc 0400     		.2byte	0x4
 5208 05be F3       		.byte	0xf3
 5209 05bf 01       		.uleb128 0x1
 5210 05c0 53       		.byte	0x53
 5211 05c1 9F       		.byte	0x9f
 5212 05c2 00000000 		.4byte	0
 5213 05c6 00000000 		.4byte	0
 5214              	.LLST40:
 5215 05ca 0A000000 		.4byte	.LVL107
 5216 05ce 4A000000 		.4byte	.LVL121
 5217 05d2 0200     		.2byte	0x2
 5218 05d4 30       		.byte	0x30
 5219 05d5 9F       		.byte	0x9f
 5220 05d6 4A000000 		.4byte	.LVL121
 5221 05da 4C000000 		.4byte	.LVL122
 5222 05de 0100     		.2byte	0x1
 5223 05e0 50       		.byte	0x50
 5224 05e1 4C000000 		.4byte	.LVL122
 5225 05e5 4E000000 		.4byte	.LVL123
 5226 05e9 0200     		.2byte	0x2
 5227 05eb 30       		.byte	0x30
 5228 05ec 9F       		.byte	0x9f
 5229 05ed 4E000000 		.4byte	.LVL123
 5230 05f1 5E000000 		.4byte	.LVL129
 5231 05f5 0100     		.2byte	0x1
 5232 05f7 57       		.byte	0x57
 5233 05f8 5E000000 		.4byte	.LVL129
 5234 05fc 60000000 		.4byte	.LFE51
 5235 0600 0100     		.2byte	0x1
 5236 0602 50       		.byte	0x50
 5237 0603 00000000 		.4byte	0
 5238 0607 00000000 		.4byte	0
 5239              	.LLST41:
 5240 060b 0E000000 		.4byte	.LVL109
 5241 060f 4A000000 		.4byte	.LVL121
 5242 0613 0100     		.2byte	0x1
 5243 0615 57       		.byte	0x57
 5244 0616 4C000000 		.4byte	.LVL122
 5245 061a 4E000000 		.4byte	.LVL123
 5246 061e 0100     		.2byte	0x1
 5247 0620 57       		.byte	0x57
 5248 0621 00000000 		.4byte	0
 5249 0625 00000000 		.4byte	0
 5250              	.LLST42:
 5251 0629 10000000 		.4byte	.LVL110
 5252 062d 5E000000 		.4byte	.LVL127
 5253 0631 0100     		.2byte	0x1
 5254 0633 55       		.byte	0x55
 5255 0634 00000000 		.4byte	0
 5256 0638 00000000 		.4byte	0
 5257              	.LLST43:
 5258 063c 0C000000 		.4byte	.LVL108
 5259 0640 5E000000 		.4byte	.LVL128
 5260 0644 0100     		.2byte	0x1
 5261 0646 56       		.byte	0x56
ARM GAS  C:\Users\PC\AppData\Local\Temp\ccQeYTXk.s 			page 124


 5262 0647 00000000 		.4byte	0
 5263 064b 00000000 		.4byte	0
 5264              	.LLST44:
 5265 064f 00000000 		.4byte	.LVL130
 5266 0653 44000000 		.4byte	.LVL142
 5267 0657 0100     		.2byte	0x1
 5268 0659 50       		.byte	0x50
 5269 065a 44000000 		.4byte	.LVL142
 5270 065e 64000000 		.4byte	.LFE55
 5271 0662 0100     		.2byte	0x1
 5272 0664 50       		.byte	0x50
 5273 0665 00000000 		.4byte	0
 5274 0669 00000000 		.4byte	0
 5275              	.LLST45:
 5276 066d 00000000 		.4byte	.LVL130
 5277 0671 0C000000 		.4byte	.LVL135
 5278 0675 0100     		.2byte	0x1
 5279 0677 51       		.byte	0x51
 5280 0678 0C000000 		.4byte	.LVL135
 5281 067c 64000000 		.4byte	.LFE55
 5282 0680 0400     		.2byte	0x4
 5283 0682 F3       		.byte	0xf3
 5284 0683 01       		.uleb128 0x1
 5285 0684 51       		.byte	0x51
 5286 0685 9F       		.byte	0x9f
 5287 0686 00000000 		.4byte	0
 5288 068a 00000000 		.4byte	0
 5289              	.LLST46:
 5290 068e 04000000 		.4byte	.LVL131
 5291 0692 0E000000 		.4byte	.LVL136
 5292 0696 0100     		.2byte	0x1
 5293 0698 52       		.byte	0x52
 5294 0699 0E000000 		.4byte	.LVL136
 5295 069d 10000000 		.4byte	.LVL137
 5296 06a1 0100     		.2byte	0x1
 5297 06a3 54       		.byte	0x54
 5298 06a4 10000000 		.4byte	.LVL137
 5299 06a8 5A000000 		.4byte	.LVL150
 5300 06ac 0100     		.2byte	0x1
 5301 06ae 5C       		.byte	0x5c
 5302 06af 5A000000 		.4byte	.LVL150
 5303 06b3 5E000000 		.4byte	.LVL151
 5304 06b7 0100     		.2byte	0x1
 5305 06b9 52       		.byte	0x52
 5306 06ba 5E000000 		.4byte	.LVL151
 5307 06be 62000000 		.4byte	.LVL152
 5308 06c2 0100     		.2byte	0x1
 5309 06c4 54       		.byte	0x54
 5310 06c5 62000000 		.4byte	.LVL152
 5311 06c9 64000000 		.4byte	.LFE55
 5312 06cd 0100     		.2byte	0x1
 5313 06cf 5C       		.byte	0x5c
 5314 06d0 00000000 		.4byte	0
 5315 06d4 00000000 		.4byte	0
 5316              	.LLST47:
 5317 06d8 0A000000 		.4byte	.LVL134
 5318 06dc 0E000000 		.4byte	.LVL136
ARM GAS  C:\Users\PC\AppData\Local\Temp\ccQeYTXk.s 			page 125


 5319 06e0 0200     		.2byte	0x2
 5320 06e2 31       		.byte	0x31
 5321 06e3 9F       		.byte	0x9f
 5322 06e4 0E000000 		.4byte	.LVL136
 5323 06e8 64000000 		.4byte	.LFE55
 5324 06ec 0100     		.2byte	0x1
 5325 06ee 51       		.byte	0x51
 5326 06ef 00000000 		.4byte	0
 5327 06f3 00000000 		.4byte	0
 5328              	.LLST48:
 5329 06f7 2E000000 		.4byte	.LVL141
 5330 06fb 4C000000 		.4byte	.LVL144
 5331 06ff 0100     		.2byte	0x1
 5332 0701 52       		.byte	0x52
 5333 0702 4E000000 		.4byte	.LVL145
 5334 0706 50000000 		.4byte	.LVL146
 5335 070a 0100     		.2byte	0x1
 5336 070c 52       		.byte	0x52
 5337 070d 00000000 		.4byte	0
 5338 0711 00000000 		.4byte	0
 5339              	.LLST49:
 5340 0715 22000000 		.4byte	.LVL138
 5341 0719 2A000000 		.4byte	.LVL139
 5342 071d 0100     		.2byte	0x1
 5343 071f 52       		.byte	0x52
 5344 0720 2C000000 		.4byte	.LVL140
 5345 0724 2E000000 		.4byte	.LVL141
 5346 0728 0100     		.2byte	0x1
 5347 072a 52       		.byte	0x52
 5348 072b 00000000 		.4byte	0
 5349 072f 00000000 		.4byte	0
 5350              	.LLST50:
 5351 0733 06000000 		.4byte	.LVL132
 5352 0737 62000000 		.4byte	.LVL153
 5353 073b 0100     		.2byte	0x1
 5354 073d 55       		.byte	0x55
 5355 073e 00000000 		.4byte	0
 5356 0742 00000000 		.4byte	0
 5357              	.LLST51:
 5358 0746 08000000 		.4byte	.LVL133
 5359 074a 62000000 		.4byte	.LVL154
 5360 074e 0100     		.2byte	0x1
 5361 0750 57       		.byte	0x57
 5362 0751 00000000 		.4byte	0
 5363 0755 00000000 		.4byte	0
 5364              	.LLST52:
 5365 0759 00000000 		.4byte	.LVL155
 5366 075d 12000000 		.4byte	.LVL158
 5367 0761 0100     		.2byte	0x1
 5368 0763 50       		.byte	0x50
 5369 0764 12000000 		.4byte	.LVL158
 5370 0768 1A000000 		.4byte	.LVL161
 5371 076c 0100     		.2byte	0x1
 5372 076e 54       		.byte	0x54
 5373 076f 1A000000 		.4byte	.LVL161
 5374 0773 20000000 		.4byte	.LVL163
 5375 0777 0100     		.2byte	0x1
ARM GAS  C:\Users\PC\AppData\Local\Temp\ccQeYTXk.s 			page 126


 5376 0779 50       		.byte	0x50
 5377 077a 20000000 		.4byte	.LVL163
 5378 077e 30000000 		.4byte	.LVL166
 5379 0782 0100     		.2byte	0x1
 5380 0784 54       		.byte	0x54
 5381 0785 30000000 		.4byte	.LVL166
 5382 0789 60000000 		.4byte	.LFE49
 5383 078d 0400     		.2byte	0x4
 5384 078f F3       		.byte	0xf3
 5385 0790 01       		.uleb128 0x1
 5386 0791 50       		.byte	0x50
 5387 0792 9F       		.byte	0x9f
 5388 0793 00000000 		.4byte	0
 5389 0797 00000000 		.4byte	0
 5390              	.LLST53:
 5391 079b 00000000 		.4byte	.LVL155
 5392 079f 15000000 		.4byte	.LVL159-1
 5393 07a3 0100     		.2byte	0x1
 5394 07a5 51       		.byte	0x51
 5395 07a6 15000000 		.4byte	.LVL159-1
 5396 07aa 1A000000 		.4byte	.LVL161
 5397 07ae 0400     		.2byte	0x4
 5398 07b0 F3       		.byte	0xf3
 5399 07b1 01       		.uleb128 0x1
 5400 07b2 51       		.byte	0x51
 5401 07b3 9F       		.byte	0x9f
 5402 07b4 1A000000 		.4byte	.LVL161
 5403 07b8 1C000000 		.4byte	.LVL162
 5404 07bc 0100     		.2byte	0x1
 5405 07be 51       		.byte	0x51
 5406 07bf 1C000000 		.4byte	.LVL162
 5407 07c3 60000000 		.4byte	.LFE49
 5408 07c7 0400     		.2byte	0x4
 5409 07c9 F3       		.byte	0xf3
 5410 07ca 01       		.uleb128 0x1
 5411 07cb 51       		.byte	0x51
 5412 07cc 9F       		.byte	0x9f
 5413 07cd 00000000 		.4byte	0
 5414 07d1 00000000 		.4byte	0
 5415              	.LLST54:
 5416 07d5 0C000000 		.4byte	.LVL157
 5417 07d9 18000000 		.4byte	.LVL160
 5418 07dd 0100     		.2byte	0x1
 5419 07df 55       		.byte	0x55
 5420 07e0 18000000 		.4byte	.LVL160
 5421 07e4 1A000000 		.4byte	.LVL161
 5422 07e8 0100     		.2byte	0x1
 5423 07ea 50       		.byte	0x50
 5424 07eb 1A000000 		.4byte	.LVL161
 5425 07ef 56000000 		.4byte	.LVL175
 5426 07f3 0100     		.2byte	0x1
 5427 07f5 55       		.byte	0x55
 5428 07f6 00000000 		.4byte	0
 5429 07fa 00000000 		.4byte	0
 5430              	.LLST55:
 5431 07fe 2C000000 		.4byte	.LVL165
 5432 0802 3A000000 		.4byte	.LVL168
ARM GAS  C:\Users\PC\AppData\Local\Temp\ccQeYTXk.s 			page 127


 5433 0806 0100     		.2byte	0x1
 5434 0808 53       		.byte	0x53
 5435 0809 3A000000 		.4byte	.LVL168
 5436 080d 3C000000 		.4byte	.LVL169
 5437 0811 0300     		.2byte	0x3
 5438 0813 73       		.byte	0x73
 5439 0814 7C       		.sleb128 -4
 5440 0815 9F       		.byte	0x9f
 5441 0816 3C000000 		.4byte	.LVL169
 5442 081a 48000000 		.4byte	.LVL170
 5443 081e 0600     		.2byte	0x6
 5444 0820 F3       		.byte	0xf3
 5445 0821 01       		.uleb128 0x1
 5446 0822 50       		.byte	0x50
 5447 0823 35       		.byte	0x35
 5448 0824 25       		.byte	0x25
 5449 0825 9F       		.byte	0x9f
 5450 0826 48000000 		.4byte	.LVL170
 5451 082a 4A000000 		.4byte	.LVL171
 5452 082e 0100     		.2byte	0x1
 5453 0830 53       		.byte	0x53
 5454 0831 4A000000 		.4byte	.LVL171
 5455 0835 4C000000 		.4byte	.LVL172
 5456 0839 0300     		.2byte	0x3
 5457 083b 73       		.byte	0x73
 5458 083c 7C       		.sleb128 -4
 5459 083d 9F       		.byte	0x9f
 5460 083e 4C000000 		.4byte	.LVL172
 5461 0842 60000000 		.4byte	.LFE49
 5462 0846 0600     		.2byte	0x6
 5463 0848 F3       		.byte	0xf3
 5464 0849 01       		.uleb128 0x1
 5465 084a 50       		.byte	0x50
 5466 084b 35       		.byte	0x35
 5467 084c 25       		.byte	0x25
 5468 084d 9F       		.byte	0x9f
 5469 084e 00000000 		.4byte	0
 5470 0852 00000000 		.4byte	0
 5471              	.LLST56:
 5472 0856 34000000 		.4byte	.LVL167
 5473 085a 54000000 		.4byte	.LVL173
 5474 085e 0100     		.2byte	0x1
 5475 0860 52       		.byte	0x52
 5476 0861 54000000 		.4byte	.LVL173
 5477 0865 56000000 		.4byte	.LVL174
 5478 0869 0500     		.2byte	0x5
 5479 086b 31       		.byte	0x31
 5480 086c 74       		.byte	0x74
 5481 086d 00       		.sleb128 0
 5482 086e 24       		.byte	0x24
 5483 086f 9F       		.byte	0x9f
 5484 0870 56000000 		.4byte	.LVL174
 5485 0874 60000000 		.4byte	.LFE49
 5486 0878 0800     		.2byte	0x8
 5487 087a 31       		.byte	0x31
 5488 087b F3       		.byte	0xf3
 5489 087c 01       		.uleb128 0x1
ARM GAS  C:\Users\PC\AppData\Local\Temp\ccQeYTXk.s 			page 128


 5490 087d 50       		.byte	0x50
 5491 087e 4F       		.byte	0x4f
 5492 087f 1A       		.byte	0x1a
 5493 0880 24       		.byte	0x24
 5494 0881 9F       		.byte	0x9f
 5495 0882 00000000 		.4byte	0
 5496 0886 00000000 		.4byte	0
 5497              	.LLST57:
 5498 088a 06000000 		.4byte	.LVL156
 5499 088e 15000000 		.4byte	.LVL159-1
 5500 0892 0100     		.2byte	0x1
 5501 0894 52       		.byte	0x52
 5502 0895 1A000000 		.4byte	.LVL161
 5503 0899 23000000 		.4byte	.LVL164-1
 5504 089d 0100     		.2byte	0x1
 5505 089f 52       		.byte	0x52
 5506 08a0 00000000 		.4byte	0
 5507 08a4 00000000 		.4byte	0
 5508              	.LLST58:
 5509 08a8 00000000 		.4byte	.LVL176
 5510 08ac 1C000000 		.4byte	.LVL183
 5511 08b0 0100     		.2byte	0x1
 5512 08b2 50       		.byte	0x50
 5513 08b3 1C000000 		.4byte	.LVL183
 5514 08b7 22000000 		.4byte	.LVL185
 5515 08bb 0100     		.2byte	0x1
 5516 08bd 5C       		.byte	0x5c
 5517 08be 22000000 		.4byte	.LVL185
 5518 08c2 26000000 		.4byte	.LVL187
 5519 08c6 0100     		.2byte	0x1
 5520 08c8 50       		.byte	0x50
 5521 08c9 26000000 		.4byte	.LVL187
 5522 08cd 6C000000 		.4byte	.LVL199
 5523 08d1 0100     		.2byte	0x1
 5524 08d3 5C       		.byte	0x5c
 5525 08d4 6C000000 		.4byte	.LVL199
 5526 08d8 D6000000 		.4byte	.LVL214
 5527 08dc 0100     		.2byte	0x1
 5528 08de 54       		.byte	0x54
 5529 08df D6000000 		.4byte	.LVL214
 5530 08e3 DC000000 		.4byte	.LFE56
 5531 08e7 0100     		.2byte	0x1
 5532 08e9 50       		.byte	0x50
 5533 08ea 00000000 		.4byte	0
 5534 08ee 00000000 		.4byte	0
 5535              	.LLST59:
 5536 08f2 00000000 		.4byte	.LVL176
 5537 08f6 14000000 		.4byte	.LVL181
 5538 08fa 0100     		.2byte	0x1
 5539 08fc 51       		.byte	0x51
 5540 08fd 14000000 		.4byte	.LVL181
 5541 0901 D6000000 		.4byte	.LVL217
 5542 0905 0100     		.2byte	0x1
 5543 0907 57       		.byte	0x57
 5544 0908 D6000000 		.4byte	.LVL217
 5545 090c DC000000 		.4byte	.LFE56
 5546 0910 0400     		.2byte	0x4
ARM GAS  C:\Users\PC\AppData\Local\Temp\ccQeYTXk.s 			page 129


 5547 0912 F3       		.byte	0xf3
 5548 0913 01       		.uleb128 0x1
 5549 0914 51       		.byte	0x51
 5550 0915 9F       		.byte	0x9f
 5551 0916 00000000 		.4byte	0
 5552 091a 00000000 		.4byte	0
 5553              	.LLST60:
 5554 091e 0E000000 		.4byte	.LVL178
 5555 0922 2E000000 		.4byte	.LVL189
 5556 0926 0100     		.2byte	0x1
 5557 0928 53       		.byte	0x53
 5558 0929 2E000000 		.4byte	.LVL189
 5559 092d 42000000 		.4byte	.LVL193
 5560 0931 0100     		.2byte	0x1
 5561 0933 56       		.byte	0x56
 5562 0934 42000000 		.4byte	.LVL193
 5563 0938 44000000 		.4byte	.LVL194
 5564 093c 0100     		.2byte	0x1
 5565 093e 53       		.byte	0x53
 5566 093f 44000000 		.4byte	.LVL194
 5567 0943 D6000000 		.4byte	.LVL216
 5568 0947 0100     		.2byte	0x1
 5569 0949 56       		.byte	0x56
 5570 094a 00000000 		.4byte	0
 5571 094e 00000000 		.4byte	0
 5572              	.LLST61:
 5573 0952 28000000 		.4byte	.LVL188
 5574 0956 2E000000 		.4byte	.LVL189
 5575 095a 0200     		.2byte	0x2
 5576 095c 31       		.byte	0x31
 5577 095d 9F       		.byte	0x9f
 5578 095e 2E000000 		.4byte	.LVL189
 5579 0962 7A000000 		.4byte	.LVL202
 5580 0966 0100     		.2byte	0x1
 5581 0968 51       		.byte	0x51
 5582 0969 86000000 		.4byte	.LVL204
 5583 096d 8A000000 		.4byte	.LVL206
 5584 0971 0100     		.2byte	0x1
 5585 0973 51       		.byte	0x51
 5586 0974 00000000 		.4byte	0
 5587 0978 00000000 		.4byte	0
 5588              	.LLST62:
 5589 097c 28000000 		.4byte	.LVL188
 5590 0980 76000000 		.4byte	.LVL200
 5591 0984 0100     		.2byte	0x1
 5592 0986 50       		.byte	0x50
 5593 0987 76000000 		.4byte	.LVL200
 5594 098b 7F000000 		.4byte	.LVL203-1
 5595 098f 0100     		.2byte	0x1
 5596 0991 52       		.byte	0x52
 5597 0992 86000000 		.4byte	.LVL204
 5598 0996 88000000 		.4byte	.LVL205
 5599 099a 0100     		.2byte	0x1
 5600 099c 50       		.byte	0x50
 5601 099d 00000000 		.4byte	0
 5602 09a1 00000000 		.4byte	0
 5603              	.LLST63:
ARM GAS  C:\Users\PC\AppData\Local\Temp\ccQeYTXk.s 			page 130


 5604 09a5 0C000000 		.4byte	.LVL177
 5605 09a9 2E000000 		.4byte	.LVL189
 5606 09ad 0200     		.2byte	0x2
 5607 09af 30       		.byte	0x30
 5608 09b0 9F       		.byte	0x9f
 5609 09b1 2E000000 		.4byte	.LVL189
 5610 09b5 64000000 		.4byte	.LVL196
 5611 09b9 0100     		.2byte	0x1
 5612 09bb 54       		.byte	0x54
 5613 09bc 66000000 		.4byte	.LVL197
 5614 09c0 6C000000 		.4byte	.LVL199
 5615 09c4 0100     		.2byte	0x1
 5616 09c6 54       		.byte	0x54
 5617 09c7 00000000 		.4byte	0
 5618 09cb 00000000 		.4byte	0
 5619              	.LLST64:
 5620 09cf 16000000 		.4byte	.LVL182
 5621 09d3 1E000000 		.4byte	.LVL184
 5622 09d7 0100     		.2byte	0x1
 5623 09d9 51       		.byte	0x51
 5624 09da 1E000000 		.4byte	.LVL184
 5625 09de 22000000 		.4byte	.LVL185
 5626 09e2 0100     		.2byte	0x1
 5627 09e4 58       		.byte	0x58
 5628 09e5 22000000 		.4byte	.LVL185
 5629 09e9 24000000 		.4byte	.LVL186
 5630 09ed 0100     		.2byte	0x1
 5631 09ef 51       		.byte	0x51
 5632 09f0 24000000 		.4byte	.LVL186
 5633 09f4 D6000000 		.4byte	.LVL218
 5634 09f8 0100     		.2byte	0x1
 5635 09fa 58       		.byte	0x58
 5636 09fb 00000000 		.4byte	0
 5637 09ff 00000000 		.4byte	0
 5638              	.LLST65:
 5639 0a03 10000000 		.4byte	.LVL179
 5640 0a07 58000000 		.4byte	.LVL195
 5641 0a0b 0100     		.2byte	0x1
 5642 0a0d 52       		.byte	0x52
 5643 0a0e 66000000 		.4byte	.LVL197
 5644 0a12 6A000000 		.4byte	.LVL198
 5645 0a16 0100     		.2byte	0x1
 5646 0a18 52       		.byte	0x52
 5647 0a19 00000000 		.4byte	0
 5648 0a1d 00000000 		.4byte	0
 5649              	.LLST66:
 5650 0a21 12000000 		.4byte	.LVL180
 5651 0a25 D6000000 		.4byte	.LVL215
 5652 0a29 0100     		.2byte	0x1
 5653 0a2b 55       		.byte	0x55
 5654 0a2c 00000000 		.4byte	0
 5655 0a30 00000000 		.4byte	0
 5656              	.LLST67:
 5657 0a34 BE000000 		.4byte	.LVL211
 5658 0a38 D4000000 		.4byte	.LVL213
 5659 0a3c 0100     		.2byte	0x1
 5660 0a3e 50       		.byte	0x50
ARM GAS  C:\Users\PC\AppData\Local\Temp\ccQeYTXk.s 			page 131


 5661 0a3f 00000000 		.4byte	0
 5662 0a43 00000000 		.4byte	0
 5663              	.LLST68:
 5664 0a47 0C000000 		.4byte	.LVL177
 5665 0a4b 80000000 		.4byte	.LVL203
 5666 0a4f 0200     		.2byte	0x2
 5667 0a51 30       		.byte	0x30
 5668 0a52 9F       		.byte	0x9f
 5669 0a53 80000000 		.4byte	.LVL203
 5670 0a57 86000000 		.4byte	.LVL204
 5671 0a5b 0100     		.2byte	0x1
 5672 0a5d 50       		.byte	0x50
 5673 0a5e 86000000 		.4byte	.LVL204
 5674 0a62 8A000000 		.4byte	.LVL206
 5675 0a66 0200     		.2byte	0x2
 5676 0a68 30       		.byte	0x30
 5677 0a69 9F       		.byte	0x9f
 5678 0a6a 8A000000 		.4byte	.LVL206
 5679 0a6e 98000000 		.4byte	.LVL207
 5680 0a72 0100     		.2byte	0x1
 5681 0a74 50       		.byte	0x50
 5682 0a75 9C000000 		.4byte	.LVL208
 5683 0a79 BE000000 		.4byte	.LVL211
 5684 0a7d 0100     		.2byte	0x1
 5685 0a7f 50       		.byte	0x50
 5686 0a80 00000000 		.4byte	0
 5687 0a84 00000000 		.4byte	0
 5688              	.LLST69:
 5689 0a88 9C000000 		.4byte	.LVL208
 5690 0a8c BE000000 		.4byte	.LVL211
 5691 0a90 0100     		.2byte	0x1
 5692 0a92 55       		.byte	0x55
 5693 0a93 00000000 		.4byte	0
 5694 0a97 00000000 		.4byte	0
 5695              	.LLST70:
 5696 0a9b 9C000000 		.4byte	.LVL208
 5697 0a9f BE000000 		.4byte	.LVL211
 5698 0aa3 0100     		.2byte	0x1
 5699 0aa5 57       		.byte	0x57
 5700 0aa6 00000000 		.4byte	0
 5701 0aaa 00000000 		.4byte	0
 5702              	.LLST71:
 5703 0aae 9C000000 		.4byte	.LVL208
 5704 0ab2 BE000000 		.4byte	.LVL211
 5705 0ab6 0100     		.2byte	0x1
 5706 0ab8 50       		.byte	0x50
 5707 0ab9 00000000 		.4byte	0
 5708 0abd 00000000 		.4byte	0
 5709              	.LLST72:
 5710 0ac1 9C000000 		.4byte	.LVL208
 5711 0ac5 BE000000 		.4byte	.LVL211
 5712 0ac9 0300     		.2byte	0x3
 5713 0acb 91       		.byte	0x91
 5714 0acc 64       		.sleb128 -28
 5715 0acd 9F       		.byte	0x9f
 5716 0ace 00000000 		.4byte	0
 5717 0ad2 00000000 		.4byte	0
ARM GAS  C:\Users\PC\AppData\Local\Temp\ccQeYTXk.s 			page 132


 5718              	.LLST73:
 5719 0ad6 9C000000 		.4byte	.LVL208
 5720 0ada A0000000 		.4byte	.LVL209
 5721 0ade 0200     		.2byte	0x2
 5722 0ae0 30       		.byte	0x30
 5723 0ae1 9F       		.byte	0x9f
 5724 0ae2 A0000000 		.4byte	.LVL209
 5725 0ae6 BE000000 		.4byte	.LVL211
 5726 0aea 0100     		.2byte	0x1
 5727 0aec 52       		.byte	0x52
 5728 0aed 00000000 		.4byte	0
 5729 0af1 00000000 		.4byte	0
 5730              	.LLST74:
 5731 0af5 00000000 		.4byte	.LVL219
 5732 0af9 1C000000 		.4byte	.LVL222
 5733 0afd 0100     		.2byte	0x1
 5734 0aff 50       		.byte	0x50
 5735 0b00 1C000000 		.4byte	.LVL222
 5736 0b04 24000000 		.4byte	.LVL225
 5737 0b08 0100     		.2byte	0x1
 5738 0b0a 54       		.byte	0x54
 5739 0b0b 24000000 		.4byte	.LVL225
 5740 0b0f 26000000 		.4byte	.LVL226
 5741 0b13 0100     		.2byte	0x1
 5742 0b15 50       		.byte	0x50
 5743 0b16 26000000 		.4byte	.LVL226
 5744 0b1a 2E000000 		.4byte	.LVL229
 5745 0b1e 0100     		.2byte	0x1
 5746 0b20 54       		.byte	0x54
 5747 0b21 2E000000 		.4byte	.LVL229
 5748 0b25 32000000 		.4byte	.LVL231
 5749 0b29 0100     		.2byte	0x1
 5750 0b2b 50       		.byte	0x50
 5751 0b2c 32000000 		.4byte	.LVL231
 5752 0b30 42000000 		.4byte	.LVL234
 5753 0b34 0100     		.2byte	0x1
 5754 0b36 54       		.byte	0x54
 5755 0b37 42000000 		.4byte	.LVL234
 5756 0b3b 78000000 		.4byte	.LFE52
 5757 0b3f 0400     		.2byte	0x4
 5758 0b41 F3       		.byte	0xf3
 5759 0b42 01       		.uleb128 0x1
 5760 0b43 50       		.byte	0x50
 5761 0b44 9F       		.byte	0x9f
 5762 0b45 00000000 		.4byte	0
 5763 0b49 00000000 		.4byte	0
 5764              	.LLST75:
 5765 0b4d 00000000 		.4byte	.LVL219
 5766 0b51 1F000000 		.4byte	.LVL223-1
 5767 0b55 0100     		.2byte	0x1
 5768 0b57 51       		.byte	0x51
 5769 0b58 1F000000 		.4byte	.LVL223-1
 5770 0b5c 24000000 		.4byte	.LVL225
 5771 0b60 0400     		.2byte	0x4
 5772 0b62 F3       		.byte	0xf3
 5773 0b63 01       		.uleb128 0x1
 5774 0b64 51       		.byte	0x51
ARM GAS  C:\Users\PC\AppData\Local\Temp\ccQeYTXk.s 			page 133


 5775 0b65 9F       		.byte	0x9f
 5776 0b66 24000000 		.4byte	.LVL225
 5777 0b6a 29000000 		.4byte	.LVL227-1
 5778 0b6e 0100     		.2byte	0x1
 5779 0b70 51       		.byte	0x51
 5780 0b71 29000000 		.4byte	.LVL227-1
 5781 0b75 2E000000 		.4byte	.LVL229
 5782 0b79 0400     		.2byte	0x4
 5783 0b7b F3       		.byte	0xf3
 5784 0b7c 01       		.uleb128 0x1
 5785 0b7d 51       		.byte	0x51
 5786 0b7e 9F       		.byte	0x9f
 5787 0b7f 2E000000 		.4byte	.LVL229
 5788 0b83 30000000 		.4byte	.LVL230
 5789 0b87 0100     		.2byte	0x1
 5790 0b89 51       		.byte	0x51
 5791 0b8a 30000000 		.4byte	.LVL230
 5792 0b8e 78000000 		.4byte	.LFE52
 5793 0b92 0400     		.2byte	0x4
 5794 0b94 F3       		.byte	0xf3
 5795 0b95 01       		.uleb128 0x1
 5796 0b96 51       		.byte	0x51
 5797 0b97 9F       		.byte	0x9f
 5798 0b98 00000000 		.4byte	0
 5799 0b9c 00000000 		.4byte	0
 5800              	.LLST76:
 5801 0ba0 0C000000 		.4byte	.LVL221
 5802 0ba4 22000000 		.4byte	.LVL224
 5803 0ba8 0100     		.2byte	0x1
 5804 0baa 55       		.byte	0x55
 5805 0bab 22000000 		.4byte	.LVL224
 5806 0baf 24000000 		.4byte	.LVL225
 5807 0bb3 0100     		.2byte	0x1
 5808 0bb5 50       		.byte	0x50
 5809 0bb6 24000000 		.4byte	.LVL225
 5810 0bba 2C000000 		.4byte	.LVL228
 5811 0bbe 0100     		.2byte	0x1
 5812 0bc0 55       		.byte	0x55
 5813 0bc1 2C000000 		.4byte	.LVL228
 5814 0bc5 2E000000 		.4byte	.LVL229
 5815 0bc9 0100     		.2byte	0x1
 5816 0bcb 50       		.byte	0x50
 5817 0bcc 2E000000 		.4byte	.LVL229
 5818 0bd0 68000000 		.4byte	.LVL243
 5819 0bd4 0100     		.2byte	0x1
 5820 0bd6 55       		.byte	0x55
 5821 0bd7 00000000 		.4byte	0
 5822 0bdb 00000000 		.4byte	0
 5823              	.LLST77:
 5824 0bdf 3E000000 		.4byte	.LVL233
 5825 0be3 4C000000 		.4byte	.LVL236
 5826 0be7 0100     		.2byte	0x1
 5827 0be9 53       		.byte	0x53
 5828 0bea 4C000000 		.4byte	.LVL236
 5829 0bee 4E000000 		.4byte	.LVL237
 5830 0bf2 0300     		.2byte	0x3
 5831 0bf4 73       		.byte	0x73
ARM GAS  C:\Users\PC\AppData\Local\Temp\ccQeYTXk.s 			page 134


 5832 0bf5 7C       		.sleb128 -4
 5833 0bf6 9F       		.byte	0x9f
 5834 0bf7 4E000000 		.4byte	.LVL237
 5835 0bfb 5A000000 		.4byte	.LVL238
 5836 0bff 0600     		.2byte	0x6
 5837 0c01 F3       		.byte	0xf3
 5838 0c02 01       		.uleb128 0x1
 5839 0c03 50       		.byte	0x50
 5840 0c04 35       		.byte	0x35
 5841 0c05 25       		.byte	0x25
 5842 0c06 9F       		.byte	0x9f
 5843 0c07 5A000000 		.4byte	.LVL238
 5844 0c0b 5C000000 		.4byte	.LVL239
 5845 0c0f 0100     		.2byte	0x1
 5846 0c11 53       		.byte	0x53
 5847 0c12 5C000000 		.4byte	.LVL239
 5848 0c16 5E000000 		.4byte	.LVL240
 5849 0c1a 0300     		.2byte	0x3
 5850 0c1c 73       		.byte	0x73
 5851 0c1d 7C       		.sleb128 -4
 5852 0c1e 9F       		.byte	0x9f
 5853 0c1f 5E000000 		.4byte	.LVL240
 5854 0c23 78000000 		.4byte	.LFE52
 5855 0c27 0600     		.2byte	0x6
 5856 0c29 F3       		.byte	0xf3
 5857 0c2a 01       		.uleb128 0x1
 5858 0c2b 50       		.byte	0x50
 5859 0c2c 35       		.byte	0x35
 5860 0c2d 25       		.byte	0x25
 5861 0c2e 9F       		.byte	0x9f
 5862 0c2f 00000000 		.4byte	0
 5863 0c33 00000000 		.4byte	0
 5864              	.LLST78:
 5865 0c37 46000000 		.4byte	.LVL235
 5866 0c3b 66000000 		.4byte	.LVL241
 5867 0c3f 0100     		.2byte	0x1
 5868 0c41 52       		.byte	0x52
 5869 0c42 66000000 		.4byte	.LVL241
 5870 0c46 68000000 		.4byte	.LVL242
 5871 0c4a 0500     		.2byte	0x5
 5872 0c4c 31       		.byte	0x31
 5873 0c4d 74       		.byte	0x74
 5874 0c4e 00       		.sleb128 0
 5875 0c4f 24       		.byte	0x24
 5876 0c50 9F       		.byte	0x9f
 5877 0c51 68000000 		.4byte	.LVL242
 5878 0c55 78000000 		.4byte	.LFE52
 5879 0c59 0800     		.2byte	0x8
 5880 0c5b 31       		.byte	0x31
 5881 0c5c F3       		.byte	0xf3
 5882 0c5d 01       		.uleb128 0x1
 5883 0c5e 50       		.byte	0x50
 5884 0c5f 4F       		.byte	0x4f
 5885 0c60 1A       		.byte	0x1a
 5886 0c61 24       		.byte	0x24
 5887 0c62 9F       		.byte	0x9f
 5888 0c63 00000000 		.4byte	0
ARM GAS  C:\Users\PC\AppData\Local\Temp\ccQeYTXk.s 			page 135


 5889 0c67 00000000 		.4byte	0
 5890              	.LLST79:
 5891 0c6b 06000000 		.4byte	.LVL220
 5892 0c6f 1F000000 		.4byte	.LVL223-1
 5893 0c73 0100     		.2byte	0x1
 5894 0c75 52       		.byte	0x52
 5895 0c76 24000000 		.4byte	.LVL225
 5896 0c7a 29000000 		.4byte	.LVL227-1
 5897 0c7e 0100     		.2byte	0x1
 5898 0c80 52       		.byte	0x52
 5899 0c81 2E000000 		.4byte	.LVL229
 5900 0c85 35000000 		.4byte	.LVL232-1
 5901 0c89 0100     		.2byte	0x1
 5902 0c8b 52       		.byte	0x52
 5903 0c8c 00000000 		.4byte	0
 5904 0c90 00000000 		.4byte	0
 5905              		.section	.debug_aranges,"",%progbits
 5906 0000 6C000000 		.4byte	0x6c
 5907 0004 0200     		.2byte	0x2
 5908 0006 00000000 		.4byte	.Ldebug_info0
 5909 000a 04       		.byte	0x4
 5910 000b 00       		.byte	0
 5911 000c 0000     		.2byte	0
 5912 000e 0000     		.2byte	0
 5913 0010 00000000 		.4byte	.LFB46
 5914 0014 88000000 		.4byte	.LFE46-.LFB46
 5915 0018 00000000 		.4byte	.LFB53
 5916 001c 32000000 		.4byte	.LFE53-.LFB53
 5917 0020 00000000 		.4byte	.LFB54
 5918 0024 16000000 		.4byte	.LFE54-.LFB54
 5919 0028 00000000 		.4byte	.LFB47
 5920 002c 46000000 		.4byte	.LFE47-.LFB47
 5921 0030 00000000 		.4byte	.LFB48
 5922 0034 40000000 		.4byte	.LFE48-.LFB48
 5923 0038 00000000 		.4byte	.LFB50
 5924 003c 90000000 		.4byte	.LFE50-.LFB50
 5925 0040 00000000 		.4byte	.LFB51
 5926 0044 60000000 		.4byte	.LFE51-.LFB51
 5927 0048 00000000 		.4byte	.LFB55
 5928 004c 64000000 		.4byte	.LFE55-.LFB55
 5929 0050 00000000 		.4byte	.LFB49
 5930 0054 60000000 		.4byte	.LFE49-.LFB49
 5931 0058 00000000 		.4byte	.LFB56
 5932 005c DC000000 		.4byte	.LFE56-.LFB56
 5933 0060 00000000 		.4byte	.LFB52
 5934 0064 78000000 		.4byte	.LFE52-.LFB52
 5935 0068 00000000 		.4byte	0
 5936 006c 00000000 		.4byte	0
 5937              		.section	.debug_ranges,"",%progbits
 5938              	.Ldebug_ranges0:
 5939 0000 00000000 		.4byte	.LFB46
 5940 0004 88000000 		.4byte	.LFE46
 5941 0008 00000000 		.4byte	.LFB53
 5942 000c 32000000 		.4byte	.LFE53
 5943 0010 00000000 		.4byte	.LFB54
 5944 0014 16000000 		.4byte	.LFE54
 5945 0018 00000000 		.4byte	.LFB47
ARM GAS  C:\Users\PC\AppData\Local\Temp\ccQeYTXk.s 			page 136


 5946 001c 46000000 		.4byte	.LFE47
 5947 0020 00000000 		.4byte	.LFB48
 5948 0024 40000000 		.4byte	.LFE48
 5949 0028 00000000 		.4byte	.LFB50
 5950 002c 90000000 		.4byte	.LFE50
 5951 0030 00000000 		.4byte	.LFB51
 5952 0034 60000000 		.4byte	.LFE51
 5953 0038 00000000 		.4byte	.LFB55
 5954 003c 64000000 		.4byte	.LFE55
 5955 0040 00000000 		.4byte	.LFB49
 5956 0044 60000000 		.4byte	.LFE49
 5957 0048 00000000 		.4byte	.LFB56
 5958 004c DC000000 		.4byte	.LFE56
 5959 0050 00000000 		.4byte	.LFB52
 5960 0054 78000000 		.4byte	.LFE52
 5961 0058 00000000 		.4byte	0
 5962 005c 00000000 		.4byte	0
 5963              		.section	.debug_line,"",%progbits
 5964              	.Ldebug_line0:
 5965 0000 88050000 		.section	.debug_str,"MS",%progbits,1
 5965      02000B03 
 5965      00000201 
 5965      FB0E0D00 
 5965      01010101 
 5966              	.LASF100:
 5967 0000 65646765 		.ascii	"edgeSwipeTimeout\000"
 5967      53776970 
 5967      6554696D 
 5967      656F7574 
 5967      00
 5968              	.LASF207:
 5969 0011 7074724E 		.ascii	"ptrNoiseEnvelope\000"
 5969      6F697365 
 5969      456E7665 
 5969      6C6F7065 
 5969      00
 5970              	.LASF122:
 5971 0022 43617053 		.ascii	"CapSense_WD_PROXIMITY_E\000"
 5971      656E7365 
 5971      5F57445F 
 5971      50524F58 
 5971      494D4954 
 5972              	.LASF224:
 5973 003a 43617053 		.ascii	"CapSense_DpProcessCsdSensorRawCountsExt\000"
 5973      656E7365 
 5973      5F447050 
 5973      726F6365 
 5973      73734373 
 5974              	.LASF48:
 5975 0062 666C6963 		.ascii	"flickActiveDistanceX\000"
 5975      6B416374 
 5975      69766544 
 5975      69737461 
 5975      6E636558 
 5976              	.LASF49:
 5977 0077 666C6963 		.ascii	"flickActiveDistanceY\000"
 5977      6B416374 
ARM GAS  C:\Users\PC\AppData\Local\Temp\ccQeYTXk.s 			page 137


 5977      69766544 
 5977      69737461 
 5977      6E636559 
 5978              	.LASF44:
 5979 008c 70616E41 		.ascii	"panActiveDistanceX\000"
 5979      63746976 
 5979      65446973 
 5979      74616E63 
 5979      655800
 5980              	.LASF45:
 5981 009f 70616E41 		.ascii	"panActiveDistanceY\000"
 5981      63746976 
 5981      65446973 
 5981      74616E63 
 5981      655900
 5982              	.LASF140:
 5983 00b2 43617053 		.ascii	"CapSense_RAM_WD_LIST_STRUCT\000"
 5983      656E7365 
 5983      5F52414D 
 5983      5F57445F 
 5983      4C495354 
 5984              	.LASF206:
 5985 00ce 43617053 		.ascii	"CapSense_DpUpdateThresholds\000"
 5985      656E7365 
 5985      5F447055 
 5985      70646174 
 5985      65546872 
 5986              	.LASF227:
 5987 00ea 736E7343 		.ascii	"snsCnt\000"
 5987      6E7400
 5988              	.LASF79:
 5989 00f1 7374496E 		.ascii	"stInScrCountLevel\000"
 5989      53637243 
 5989      6F756E74 
 5989      4C657665 
 5989      6C00
 5990              	.LASF203:
 5991 0103 77646774 		.ascii	"wdgtId\000"
 5991      496400
 5992              	.LASF217:
 5993 010a 666C7472 		.ascii	"fltrHistV\000"
 5993      48697374 
 5993      5600
 5994              	.LASF165:
 5995 0114 736E7254 		.ascii	"snrTestWidgetId\000"
 5995      65737457 
 5995      69646765 
 5995      74496400 
 5996              	.LASF248:
 5997 0124 43617053 		.ascii	"CapSense_DpFindLocalMaxSd\000"
 5997      656E7365 
 5997      5F447046 
 5997      696E644C 
 5997      6F63616C 
 5998              	.LASF80:
 5999 013e 6474496E 		.ascii	"dtInScrActiveDistanceX\000"
 5999      53637241 
ARM GAS  C:\Users\PC\AppData\Local\Temp\ccQeYTXk.s 			page 138


 5999      63746976 
 5999      65446973 
 5999      74616E63 
 6000              	.LASF81:
 6001 0155 6474496E 		.ascii	"dtInScrActiveDistanceY\000"
 6001      53637241 
 6001      63746976 
 6001      65446973 
 6001      74616E63 
 6002              	.LASF52:
 6003 016c 73745363 		.ascii	"stScrollThreshold3X\000"
 6003      726F6C6C 
 6003      54687265 
 6003      73686F6C 
 6003      64335800 
 6004              	.LASF56:
 6005 0180 73745363 		.ascii	"stScrollThreshold3Y\000"
 6005      726F6C6C 
 6005      54687265 
 6005      73686F6C 
 6005      64335900 
 6006              	.LASF239:
 6007 0194 43617053 		.ascii	"CapSense_DpProcessCsdWidgetStatus\000"
 6007      656E7365 
 6007      5F447050 
 6007      726F6365 
 6007      73734373 
 6008              	.LASF96:
 6009 01b6 73657474 		.ascii	"settlingTimeout\000"
 6009      6C696E67 
 6009      54696D65 
 6009      6F757400 
 6010              	.LASF210:
 6011 01c6 70747254 		.ascii	"ptrThresholds\000"
 6011      68726573 
 6011      686F6C64 
 6011      7300
 6012              	.LASF12:
 6013 01d4 756E7369 		.ascii	"unsigned int\000"
 6013      676E6564 
 6013      20696E74 
 6013      00
 6014              	.LASF219:
 6015 01e1 43617053 		.ascii	"CapSense_DpProcessCsxSensorRawCountsExt\000"
 6015      656E7365 
 6015      5F447050 
 6015      726F6365 
 6015      73734373 
 6016              	.LASF152:
 6017 0209 7363616E 		.ascii	"scanCounter\000"
 6017      436F756E 
 6017      74657200 
 6018              	.LASF211:
 6019 0215 43617053 		.ascii	"CapSense_DpUpdateDifferences\000"
 6019      656E7365 
 6019      5F447055 
 6019      70646174 
ARM GAS  C:\Users\PC\AppData\Local\Temp\ccQeYTXk.s 			page 139


 6019      65446966 
 6020              	.LASF150:
 6021 0232 6877436C 		.ascii	"hwClock\000"
 6021      6F636B00 
 6022              	.LASF59:
 6023 023a 73745363 		.ascii	"stScrollStep2\000"
 6023      726F6C6C 
 6023      53746570 
 6023      3200
 6024              	.LASF60:
 6025 0248 73745363 		.ascii	"stScrollStep3\000"
 6025      726F6C6C 
 6025      53746570 
 6025      3300
 6026              	.LASF61:
 6027 0256 73745363 		.ascii	"stScrollStep4\000"
 6027      726F6C6C 
 6027      53746570 
 6027      3400
 6028              	.LASF6:
 6029 0264 5F5F696E 		.ascii	"__int32_t\000"
 6029      7433325F 
 6029      7400
 6030              	.LASF63:
 6031 026e 64745363 		.ascii	"dtScrollThreshold1X\000"
 6031      726F6C6C 
 6031      54687265 
 6031      73686F6C 
 6031      64315800 
 6032              	.LASF67:
 6033 0282 64745363 		.ascii	"dtScrollThreshold1Y\000"
 6033      726F6C6C 
 6033      54687265 
 6033      73686F6C 
 6033      64315900 
 6034              	.LASF15:
 6035 0296 696E7433 		.ascii	"int32_t\000"
 6035      325F7400 
 6036              	.LASF64:
 6037 029e 64745363 		.ascii	"dtScrollThreshold2X\000"
 6037      726F6C6C 
 6037      54687265 
 6037      73686F6C 
 6037      64325800 
 6038              	.LASF110:
 6039 02b2 67726F75 		.ascii	"group2Start\000"
 6039      70325374 
 6039      61727400 
 6040              	.LASF213:
 6041 02be 64696666 		.ascii	"diffValue\000"
 6041      56616C75 
 6041      6500
 6042              	.LASF53:
 6043 02c8 73745363 		.ascii	"stScrollThreshold4X\000"
 6043      726F6C6C 
 6043      54687265 
 6043      73686F6C 
ARM GAS  C:\Users\PC\AppData\Local\Temp\ccQeYTXk.s 			page 140


 6043      64345800 
 6044              	.LASF57:
 6045 02dc 73745363 		.ascii	"stScrollThreshold4Y\000"
 6045      726F6C6C 
 6045      54687265 
 6045      73686F6C 
 6045      64345900 
 6046              	.LASF101:
 6047 02f0 4454436C 		.ascii	"DTClickTimeoutMax\000"
 6047      69636B54 
 6047      696D656F 
 6047      75744D61 
 6047      7800
 6048              	.LASF220:
 6049 0302 6D6F6465 		.ascii	"mode\000"
 6049      00
 6050              	.LASF212:
 6051 0307 63757253 		.ascii	"curSnsPtr\000"
 6051      6E735074 
 6051      7200
 6052              	.LASF75:
 6053 0311 64745363 		.ascii	"dtScrollDebounce\000"
 6053      726F6C6C 
 6053      4465626F 
 6053      756E6365 
 6053      00
 6054              	.LASF121:
 6055 0322 43617053 		.ascii	"CapSense_WD_TOUCHPAD_E\000"
 6055      656E7365 
 6055      5F57445F 
 6055      544F5543 
 6055      48504144 
 6056              	.LASF68:
 6057 0339 64745363 		.ascii	"dtScrollThreshold2Y\000"
 6057      726F6C6C 
 6057      54687265 
 6057      73686F6C 
 6057      64325900 
 6058              	.LASF111:
 6059 034d 67726F75 		.ascii	"group2End\000"
 6059      7032456E 
 6059      6400
 6060              	.LASF184:
 6061 0357 69697246 		.ascii	"iirFilterCoeff\000"
 6061      696C7465 
 6061      72436F65 
 6061      666600
 6062              	.LASF243:
 6063 0366 536D6172 		.ascii	"SmartSense_UpdateThresholds\000"
 6063      7453656E 
 6063      73655F55 
 6063      70646174 
 6063      65546872 
 6064              	.LASF93:
 6065 0382 646F7562 		.ascii	"doubleClickRadius\000"
 6065      6C65436C 
 6065      69636B52 
ARM GAS  C:\Users\PC\AppData\Local\Temp\ccQeYTXk.s 			page 141


 6065      61646975 
 6065      7300
 6066              	.LASF107:
 6067 0394 67726F75 		.ascii	"groupMask\000"
 6067      704D6173 
 6067      6B00
 6068              	.LASF46:
 6069 039e 7A6F6F6D 		.ascii	"zoomActiveDistanceX\000"
 6069      41637469 
 6069      76654469 
 6069      7374616E 
 6069      63655800 
 6070              	.LASF47:
 6071 03b2 7A6F6F6D 		.ascii	"zoomActiveDistanceY\000"
 6071      41637469 
 6071      76654469 
 6071      7374616E 
 6071      63655900 
 6072              	.LASF245:
 6073 03c6 43617053 		.ascii	"CapSense_FtUpdateBaseline\000"
 6073      656E7365 
 6073      5F467455 
 6073      70646174 
 6073      65426173 
 6074              	.LASF163:
 6075 03e0 74696D65 		.ascii	"timestampInterval\000"
 6075      7374616D 
 6075      70496E74 
 6075      65727661 
 6075      6C00
 6076              	.LASF16:
 6077 03f2 75696E74 		.ascii	"uint32_t\000"
 6077      33325F74 
 6077      00
 6078              	.LASF90:
 6079 03fb 44545061 		.ascii	"DTPanToZoomDebounce\000"
 6079      6E546F5A 
 6079      6F6F6D44 
 6079      65626F75 
 6079      6E636500 
 6080              	.LASF141:
 6081 040f 62736C6E 		.ascii	"bsln\000"
 6081      00
 6082              	.LASF229:
 6083 0414 6E657753 		.ascii	"newStatus\000"
 6083      74617475 
 6083      7300
 6084              	.LASF99:
 6085 041e 666C6963 		.ascii	"flickSampleTime\000"
 6085      6B53616D 
 6085      706C6554 
 6085      696D6500 
 6086              	.LASF22:
 6087 042e 666C6F61 		.ascii	"float\000"
 6087      7400
 6088              	.LASF250:
 6089 0434 474E5520 		.ascii	"GNU C11 5.4.1 20160609 (release) [ARM/embedded-5-br"
ARM GAS  C:\Users\PC\AppData\Local\Temp\ccQeYTXk.s 			page 142


 6089      43313120 
 6089      352E342E 
 6089      31203230 
 6089      31363036 
 6090 0467 616E6368 		.ascii	"anch revision 237715] -mcpu=cortex-m0plus -mthumb -"
 6090      20726576 
 6090      6973696F 
 6090      6E203233 
 6090      37373135 
 6091 049a 67202D4F 		.ascii	"g -Og -ffunction-sections -ffat-lto-objects\000"
 6091      67202D66 
 6091      66756E63 
 6091      74696F6E 
 6091      2D736563 
 6092              	.LASF27:
 6093 04c6 696E7433 		.ascii	"int32\000"
 6093      3200
 6094              	.LASF251:
 6095 04cc 47656E65 		.ascii	"Generated_Source\\PSoC6\\CapSense_Processing.c\000"
 6095      72617465 
 6095      645F536F 
 6095      75726365 
 6095      5C50536F 
 6096              	.LASF205:
 6097 04f9 43617053 		.ascii	"CapSense_DpInitialize\000"
 6097      656E7365 
 6097      5F447049 
 6097      6E697469 
 6097      616C697A 
 6098              	.LASF65:
 6099 050f 64745363 		.ascii	"dtScrollThreshold3X\000"
 6099      726F6C6C 
 6099      54687265 
 6099      73686F6C 
 6099      64335800 
 6100              	.LASF69:
 6101 0523 64745363 		.ascii	"dtScrollThreshold3Y\000"
 6101      726F6C6C 
 6101      54687265 
 6101      73686F6C 
 6101      64335900 
 6102              	.LASF209:
 6103 0537 74687265 		.ascii	"thresholds\000"
 6103      73686F6C 
 6103      647300
 6104              	.LASF161:
 6105 0542 736E734C 		.ascii	"snsList\000"
 6105      69737400 
 6106              	.LASF214:
 6107 054a 72657375 		.ascii	"result\000"
 6107      6C7400
 6108              	.LASF249:
 6109 0551 43617053 		.ascii	"CapSense_DpCalcLinearCentroid\000"
 6109      656E7365 
 6109      5F447043 
 6109      616C634C 
 6109      696E6561 
ARM GAS  C:\Users\PC\AppData\Local\Temp\ccQeYTXk.s 			page 143


 6110              	.LASF11:
 6111 056f 6C6F6E67 		.ascii	"long long unsigned int\000"
 6111      206C6F6E 
 6111      6720756E 
 6111      7369676E 
 6111      65642069 
 6112              	.LASF82:
 6113 0586 6474496E 		.ascii	"dtInScrCountLevel\000"
 6113      53637243 
 6113      6F756E74 
 6113      4C657665 
 6113      6C00
 6114              	.LASF120:
 6115 0598 43617053 		.ascii	"CapSense_WD_MATRIX_BUTTON_E\000"
 6115      656E7365 
 6115      5F57445F 
 6115      4D415452 
 6115      49585F42 
 6116              	.LASF193:
 6117 05b4 70747252 		.ascii	"ptrRegular\000"
 6117      6567756C 
 6117      617200
 6118              	.LASF166:
 6119 05bf 736E7254 		.ascii	"snrTestSensorId\000"
 6119      65737453 
 6119      656E736F 
 6119      72496400 
 6120              	.LASF183:
 6121 05cf 70747232 		.ascii	"ptr2NoiseEnvlp\000"
 6121      4E6F6973 
 6121      65456E76 
 6121      6C7000
 6122              	.LASF4:
 6123 05de 5F5F7569 		.ascii	"__uint16_t\000"
 6123      6E743136 
 6123      5F7400
 6124              	.LASF177:
 6125 05e9 77646774 		.ascii	"wdgtType\000"
 6125      54797065 
 6125      00
 6126              	.LASF218:
 6127 05f2 43617053 		.ascii	"CapSense_DpProcessCsxWidgetRawCounts\000"
 6127      656E7365 
 6127      5F447050 
 6127      726F6365 
 6127      73734373 
 6128              	.LASF244:
 6129 0617 43617053 		.ascii	"CapSense_FtRunEnabledFiltersInternal\000"
 6129      656E7365 
 6129      5F467452 
 6129      756E456E 
 6129      61626C65 
 6130              	.LASF66:
 6131 063c 64745363 		.ascii	"dtScrollThreshold4X\000"
 6131      726F6C6C 
 6131      54687265 
 6131      73686F6C 
ARM GAS  C:\Users\PC\AppData\Local\Temp\ccQeYTXk.s 			page 144


 6131      64345800 
 6132              	.LASF70:
 6133 0650 64745363 		.ascii	"dtScrollThreshold4Y\000"
 6133      726F6C6C 
 6133      54687265 
 6133      73686F6C 
 6133      64345900 
 6134              	.LASF191:
 6135 0664 72656775 		.ascii	"regularChannel\000"
 6135      6C617243 
 6135      68616E6E 
 6135      656C00
 6136              	.LASF158:
 6137 0673 6D6F6443 		.ascii	"modCsdClk\000"
 6137      7364436C 
 6137      6B00
 6138              	.LASF146:
 6139 067d 43617053 		.ascii	"CapSense_RAM_SNS_STRUCT\000"
 6139      656E7365 
 6139      5F52414D 
 6139      5F534E53 
 6139      5F535452 
 6140              	.LASF17:
 6141 0695 73697A65 		.ascii	"size_t\000"
 6141      5F7400
 6142              	.LASF115:
 6143 069c 67726F75 		.ascii	"group4End\000"
 6143      7034456E 
 6143      6400
 6144              	.LASF104:
 6145 06a6 5354436C 		.ascii	"STClickTimeoutMin\000"
 6145      69636B54 
 6145      696D656F 
 6145      75744D69 
 6145      6E00
 6146              	.LASF131:
 6147 06b8 73696750 		.ascii	"sigPFC\000"
 6147      464300
 6148              	.LASF41:
 6149 06bf 68797374 		.ascii	"hysteresis\000"
 6149      65726573 
 6149      697300
 6150              	.LASF119:
 6151 06ca 43617053 		.ascii	"CapSense_WD_RADIAL_SLIDER_E\000"
 6151      656E7365 
 6151      5F57445F 
 6151      52414449 
 6151      414C5F53 
 6152              	.LASF194:
 6153 06e6 43617053 		.ascii	"CapSense_PTR_FILTER_VARIANT\000"
 6153      656E7365 
 6153      5F505452 
 6153      5F46494C 
 6153      5445525F 
 6154              	.LASF185:
 6155 0702 43617053 		.ascii	"CapSense_FLASH_WD_STRUCT\000"
 6155      656E7365 
ARM GAS  C:\Users\PC\AppData\Local\Temp\ccQeYTXk.s 			page 145


 6155      5F464C41 
 6155      53485F57 
 6155      445F5354 
 6156              	.LASF106:
 6157 071b 5354446F 		.ascii	"STDoubleClickTimeoutMin\000"
 6157      75626C65 
 6157      436C6963 
 6157      6B54696D 
 6157      656F7574 
 6158              	.LASF126:
 6159 0733 6C6F7742 		.ascii	"lowBslnRst\000"
 6159      736C6E52 
 6159      737400
 6160              	.LASF92:
 6161 073e 636F6D70 		.ascii	"completedDebounce\000"
 6161      6C657465 
 6161      64446562 
 6161      6F756E63 
 6161      6500
 6162              	.LASF76:
 6163 0750 64745363 		.ascii	"dtScrollToZoomDebounce\000"
 6163      726F6C6C 
 6163      546F5A6F 
 6163      6F6D4465 
 6163      626F756E 
 6164              	.LASF230:
 6165 0767 746F7563 		.ascii	"touchTh\000"
 6165      68546800 
 6166              	.LASF176:
 6167 076f 746F7461 		.ascii	"totalNumSns\000"
 6167      6C4E756D 
 6167      536E7300 
 6168              	.LASF77:
 6169 077b 7374496E 		.ascii	"stInScrActiveDistanceX\000"
 6169      53637241 
 6169      63746976 
 6169      65446973 
 6169      74616E63 
 6170              	.LASF78:
 6171 0792 7374496E 		.ascii	"stInScrActiveDistanceY\000"
 6171      53637241 
 6171      63746976 
 6171      65446973 
 6171      74616E63 
 6172              	.LASF37:
 6173 07a9 534D4152 		.ascii	"SMARTSENSE_CSD_NOISE_ENVELOPE_STRUCT\000"
 6173      5453454E 
 6173      53455F43 
 6173      53445F4E 
 6173      4F495345 
 6174              	.LASF39:
 6175 07ce 6E6F6973 		.ascii	"noiseTh\000"
 6175      65546800 
 6176              	.LASF21:
 6177 07d6 63686172 		.ascii	"char\000"
 6177      00
 6178              	.LASF247:
ARM GAS  C:\Users\PC\AppData\Local\Temp\ccQeYTXk.s 			page 146


 6179 07db 43795F53 		.ascii	"Cy_SysLib_AssertFailed\000"
 6179      79734C69 
 6179      625F4173 
 6179      73657274 
 6179      4661696C 
 6180              	.LASF221:
 6181 07f2 43617053 		.ascii	"CapSense_DpProcessCsdWidgetRawCounts\000"
 6181      656E7365 
 6181      5F447050 
 6181      726F6365 
 6181      73734373 
 6182              	.LASF202:
 6183 0817 746F7563 		.ascii	"touchIdx\000"
 6183      68496478 
 6183      00
 6184              	.LASF114:
 6185 0820 67726F75 		.ascii	"group4Start\000"
 6185      70345374 
 6185      61727400 
 6186              	.LASF246:
 6187 082c 536D6172 		.ascii	"SmartSense_RunNoiseEnvelope\000"
 6187      7453656E 
 6187      73655F52 
 6187      756E4E6F 
 6187      69736545 
 6188              	.LASF25:
 6189 0848 75696E74 		.ascii	"uint16\000"
 6189      313600
 6190              	.LASF124:
 6191 084f 7265736F 		.ascii	"resolution\000"
 6191      6C757469 
 6191      6F6E00
 6192              	.LASF13:
 6193 085a 75696E74 		.ascii	"uint8_t\000"
 6193      385F7400 
 6194              	.LASF153:
 6195 0862 73746174 		.ascii	"status\000"
 6195      757300
 6196              	.LASF29:
 6197 0869 43617053 		.ascii	"CapSense_LOW_BSLN_RST_TYPE\000"
 6197      656E7365 
 6197      5F4C4F57 
 6197      5F42534C 
 6197      4E5F5253 
 6198              	.LASF225:
 6199 0884 43617053 		.ascii	"CapSense_DpProcessButton\000"
 6199      656E7365 
 6199      5F447050 
 6199      726F6365 
 6199      73734275 
 6200              	.LASF85:
 6201 089d 626F7474 		.ascii	"bottomAngleThreshold\000"
 6201      6F6D416E 
 6201      676C6554 
 6201      68726573 
 6201      686F6C64 
 6202              	.LASF231:
ARM GAS  C:\Users\PC\AppData\Local\Temp\ccQeYTXk.s 			page 147


 6203 08b2 70747244 		.ascii	"ptrDebounceCnt\000"
 6203      65626F75 
 6203      6E636543 
 6203      6E7400
 6204              	.LASF62:
 6205 08c1 73745363 		.ascii	"stScrollDebounce\000"
 6205      726F6C6C 
 6205      4465626F 
 6205      756E6365 
 6205      00
 6206              	.LASF145:
 6207 08d2 69646163 		.ascii	"idacComp\000"
 6207      436F6D70 
 6207      00
 6208              	.LASF87:
 6209 08db 53545061 		.ascii	"STPanDebounce\000"
 6209      6E446562 
 6209      6F756E63 
 6209      6500
 6210              	.LASF252:
 6211 08e9 433A5C55 		.ascii	"C:\\Users\\PC\\Desktop\\Workspace01\\Design01.cydsn"
 6211      73657273 
 6211      5C50435C 
 6211      4465736B 
 6211      746F705C 
 6212 0917 00       		.ascii	"\000"
 6213              	.LASF178:
 6214 0918 73656E73 		.ascii	"senseMethod\000"
 6214      654D6574 
 6214      686F6400 
 6215              	.LASF86:
 6216 0924 77696474 		.ascii	"widthOfDisambiguation\000"
 6216      684F6644 
 6216      6973616D 
 6216      62696775 
 6216      6174696F 
 6217              	.LASF10:
 6218 093a 6C6F6E67 		.ascii	"long long int\000"
 6218      206C6F6E 
 6218      6720696E 
 6218      7400
 6219              	.LASF179:
 6220 0948 6E756D43 		.ascii	"numCols\000"
 6220      6F6C7300 
 6221              	.LASF125:
 6222 0950 6F6E4465 		.ascii	"onDebounce\000"
 6222      626F756E 
 6222      636500
 6223              	.LASF208:
 6224 095b 73746172 		.ascii	"startFlag\000"
 6224      74466C61 
 6224      6700
 6225              	.LASF160:
 6226 0965 77646774 		.ascii	"wdgtList\000"
 6226      4C697374 
 6226      00
 6227              	.LASF187:
ARM GAS  C:\Users\PC\AppData\Local\Temp\ccQeYTXk.s 			page 148


 6228 096e 43617053 		.ascii	"CapSense_FLASH_STRUCT\000"
 6228      656E7365 
 6228      5F464C41 
 6228      53485F53 
 6228      54525543 
 6229              	.LASF195:
 6230 0984 70747257 		.ascii	"ptrWdSlider\000"
 6230      64536C69 
 6230      64657200 
 6231              	.LASF240:
 6232 0990 43617053 		.ascii	"CapSense_dsRam\000"
 6232      656E7365 
 6232      5F647352 
 6232      616D00
 6233              	.LASF168:
 6234 099f 736E7254 		.ascii	"snrTestRawCount\000"
 6234      65737452 
 6234      6177436F 
 6234      756E7400 
 6235              	.LASF242:
 6236 09af 6D656D73 		.ascii	"memset\000"
 6236      657400
 6237              	.LASF40:
 6238 09b6 6E4E6F69 		.ascii	"nNoiseTh\000"
 6238      73655468 
 6238      00
 6239              	.LASF157:
 6240 09bf 63736430 		.ascii	"csd0Config\000"
 6240      436F6E66 
 6240      696700
 6241              	.LASF94:
 6242 09ca 636C6963 		.ascii	"clickRadiusX\000"
 6242      6B526164 
 6242      69757358 
 6242      00
 6243              	.LASF95:
 6244 09d7 636C6963 		.ascii	"clickRadiusY\000"
 6244      6B526164 
 6244      69757359 
 6244      00
 6245              	.LASF133:
 6246 09e4 43617053 		.ascii	"CapSense_RAM_WD_BASE_STRUCT\000"
 6246      656E7365 
 6246      5F52414D 
 6246      5F57445F 
 6246      42415345 
 6247              	.LASF123:
 6248 0a00 43617053 		.ascii	"CapSense_WD_TYPE_ENUM\000"
 6248      656E7365 
 6248      5F57445F 
 6248      54595045 
 6248      5F454E55 
 6249              	.LASF234:
 6250 0a16 73656E73 		.ascii	"sensorStatus\000"
 6250      6F725374 
 6250      61747573 
 6250      00
ARM GAS  C:\Users\PC\AppData\Local\Temp\ccQeYTXk.s 			page 149


 6251              	.LASF43:
 6252 0a23 73697A65 		.ascii	"size\000"
 6252      00
 6253              	.LASF132:
 6254 0a28 67657374 		.ascii	"gestureId\000"
 6254      75726549 
 6254      6400
 6255              	.LASF26:
 6256 0a32 75696E74 		.ascii	"uint32\000"
 6256      333200
 6257              	.LASF197:
 6258 0a39 44705570 		.ascii	"DpUpdateLinSlider\000"
 6258      64617465 
 6258      4C696E53 
 6258      6C696465 
 6258      7200
 6259              	.LASF173:
 6260 0a4b 70747232 		.ascii	"ptr2FltrHistory\000"
 6260      466C7472 
 6260      48697374 
 6260      6F727900 
 6261              	.LASF118:
 6262 0a5b 43617053 		.ascii	"CapSense_WD_LINEAR_SLIDER_E\000"
 6262      656E7365 
 6262      5F57445F 
 6262      4C494E45 
 6262      41525F53 
 6263              	.LASF108:
 6264 0a77 67726F75 		.ascii	"group1Start\000"
 6264      70315374 
 6264      61727400 
 6265              	.LASF235:
 6266 0a83 77645374 		.ascii	"wdStatusIndex\000"
 6266      61747573 
 6266      496E6465 
 6266      7800
 6267              	.LASF188:
 6268 0a91 6D656448 		.ascii	"medHistory\000"
 6268      6973746F 
 6268      727900
 6269              	.LASF237:
 6270 0a9c 43617053 		.ascii	"CapSense_DpProcessSlider\000"
 6270      656E7365 
 6270      5F447050 
 6270      726F6365 
 6270      7373536C 
 6271              	.LASF109:
 6272 0ab5 67726F75 		.ascii	"group1End\000"
 6272      7031456E 
 6272      6400
 6273              	.LASF88:
 6274 0abf 44545061 		.ascii	"DTPanDebounce\000"
 6274      6E446562 
 6274      6F756E63 
 6274      6500
 6275              	.LASF215:
 6276 0acd 736E7343 		.ascii	"snsCount\000"
ARM GAS  C:\Users\PC\AppData\Local\Temp\ccQeYTXk.s 			page 150


 6276      6F756E74 
 6276      00
 6277              	.LASF199:
 6278 0ad6 6E657750 		.ascii	"newPos\000"
 6278      6F7300
 6279              	.LASF18:
 6280 0add 6C6F6E67 		.ascii	"long double\000"
 6280      20646F75 
 6280      626C6500 
 6281              	.LASF201:
 6282 0ae9 70747252 		.ascii	"ptrRamWdgt\000"
 6282      616D5764 
 6282      677400
 6283              	.LASF228:
 6284 0af4 736E734D 		.ascii	"snsMask\000"
 6284      61736B00 
 6285              	.LASF167:
 6286 0afc 736E7254 		.ascii	"snrTestScanCounter\000"
 6286      65737453 
 6286      63616E43 
 6286      6F756E74 
 6286      657200
 6287              	.LASF148:
 6288 0b0f 636F6E66 		.ascii	"configId\000"
 6288      69674964 
 6288      00
 6289              	.LASF172:
 6290 0b18 70747232 		.ascii	"ptr2SnsRam\000"
 6290      536E7352 
 6290      616D00
 6291              	.LASF102:
 6292 0b23 4454436C 		.ascii	"DTClickTimeoutMin\000"
 6292      69636B54 
 6292      696D656F 
 6292      75744D69 
 6292      6E00
 6293              	.LASF189:
 6294 0b35 61766748 		.ascii	"avgHistory\000"
 6294      6973746F 
 6294      727900
 6295              	.LASF156:
 6296 0b40 736E7353 		.ascii	"snsStatus\000"
 6296      74617475 
 6296      7300
 6297              	.LASF58:
 6298 0b4a 73745363 		.ascii	"stScrollStep1\000"
 6298      726F6C6C 
 6298      53746570 
 6298      3100
 6299              	.LASF129:
 6300 0b58 736E7343 		.ascii	"snsClkSource\000"
 6300      6C6B536F 
 6300      75726365 
 6300      00
 6301              	.LASF181:
 6302 0b65 78526573 		.ascii	"xResolution\000"
 6302      6F6C7574 
ARM GAS  C:\Users\PC\AppData\Local\Temp\ccQeYTXk.s 			page 151


 6302      696F6E00 
 6303              	.LASF71:
 6304 0b71 64745363 		.ascii	"dtScrollStep1\000"
 6304      726F6C6C 
 6304      53746570 
 6304      3100
 6305              	.LASF72:
 6306 0b7f 64745363 		.ascii	"dtScrollStep2\000"
 6306      726F6C6C 
 6306      53746570 
 6306      3200
 6307              	.LASF73:
 6308 0b8d 64745363 		.ascii	"dtScrollStep3\000"
 6308      726F6C6C 
 6308      53746570 
 6308      3300
 6309              	.LASF74:
 6310 0b9b 64745363 		.ascii	"dtScrollStep4\000"
 6310      726F6C6C 
 6310      53746570 
 6310      3400
 6311              	.LASF2:
 6312 0ba9 73686F72 		.ascii	"short int\000"
 6312      7420696E 
 6312      7400
 6313              	.LASF169:
 6314 0bb3 43617053 		.ascii	"CapSense_RAM_STRUCT\000"
 6314      656E7365 
 6314      5F52414D 
 6314      5F535452 
 6314      55435400 
 6315              	.LASF192:
 6316 0bc7 43617053 		.ascii	"CapSense_REGULAR_FLTR_STRUCT\000"
 6316      656E7365 
 6316      5F524547 
 6316      554C4152 
 6316      5F464C54 
 6317              	.LASF7:
 6318 0be4 6C6F6E67 		.ascii	"long int\000"
 6318      20696E74 
 6318      00
 6319              	.LASF42:
 6320 0bed 534D4152 		.ascii	"SMARTSENSE_UPDATE_THRESHOLDS_STRUCT\000"
 6320      5453454E 
 6320      53455F55 
 6320      50444154 
 6320      455F5448 
 6321              	.LASF238:
 6322 0c11 746F7563 		.ascii	"touchCnt\000"
 6322      68436E74 
 6322      00
 6323              	.LASF143:
 6324 0c1a 64696666 		.ascii	"diff\000"
 6324      00
 6325              	.LASF20:
 6326 0c1f 63686172 		.ascii	"char_t\000"
 6326      5F7400
ARM GAS  C:\Users\PC\AppData\Local\Temp\ccQeYTXk.s 			page 152


 6327              	.LASF138:
 6328 0c26 62757474 		.ascii	"button0\000"
 6328      6F6E3000 
 6329              	.LASF139:
 6330 0c2e 62757474 		.ascii	"button1\000"
 6330      6F6E3100 
 6331              	.LASF222:
 6332 0c36 736E7349 		.ascii	"snsId\000"
 6332      6400
 6333              	.LASF117:
 6334 0c3c 43617053 		.ascii	"CapSense_WD_BUTTON_E\000"
 6334      656E7365 
 6334      5F57445F 
 6334      42555454 
 6334      4F4E5F45 
 6335              	.LASF190:
 6336 0c51 43617053 		.ascii	"CapSense_REGULAR_FLTR_CHANNEL_STRUCT\000"
 6336      656E7365 
 6336      5F524547 
 6336      554C4152 
 6336      5F464C54 
 6337              	.LASF216:
 6338 0c76 70747253 		.ascii	"ptrSnsTmp\000"
 6338      6E73546D 
 6338      7000
 6339              	.LASF38:
 6340 0c80 66696E67 		.ascii	"fingerTh\000"
 6340      65725468 
 6340      00
 6341              	.LASF113:
 6342 0c89 67726F75 		.ascii	"group3End\000"
 6342      7033456E 
 6342      6400
 6343              	.LASF3:
 6344 0c93 5F5F7569 		.ascii	"__uint8_t\000"
 6344      6E74385F 
 6344      7400
 6345              	.LASF112:
 6346 0c9d 67726F75 		.ascii	"group3Start\000"
 6346      70335374 
 6346      61727400 
 6347              	.LASF241:
 6348 0ca9 43617053 		.ascii	"CapSense_dsFlash\000"
 6348      656E7365 
 6348      5F647346 
 6348      6C617368 
 6348      00
 6349              	.LASF130:
 6350 0cba 66696E67 		.ascii	"fingerCap\000"
 6350      65724361 
 6350      7000
 6351              	.LASF155:
 6352 0cc4 77646774 		.ascii	"wdgtStatus\000"
 6352      53746174 
 6352      757300
 6353              	.LASF154:
 6354 0ccf 77646774 		.ascii	"wdgtEnable\000"
ARM GAS  C:\Users\PC\AppData\Local\Temp\ccQeYTXk.s 			page 153


 6354      456E6162 
 6354      6C6500
 6355              	.LASF135:
 6356 0cda 43617053 		.ascii	"CapSense_RAM_WD_SLIDER_STRUCT\000"
 6356      656E7365 
 6356      5F52414D 
 6356      5F57445F 
 6356      534C4944 
 6357              	.LASF116:
 6358 0cf8 43617053 		.ascii	"CapSense_TMG_CONFIG_STRUCT\000"
 6358      656E7365 
 6358      5F544D47 
 6358      5F434F4E 
 6358      4649475F 
 6359              	.LASF19:
 6360 0d13 73697A65 		.ascii	"sizetype\000"
 6360      74797065 
 6360      00
 6361              	.LASF9:
 6362 0d1c 6C6F6E67 		.ascii	"long unsigned int\000"
 6362      20756E73 
 6362      69676E65 
 6362      6420696E 
 6362      7400
 6363              	.LASF127:
 6364 0d2e 69646163 		.ascii	"idacMod\000"
 6364      4D6F6400 
 6365              	.LASF50:
 6366 0d36 73745363 		.ascii	"stScrollThreshold1X\000"
 6366      726F6C6C 
 6366      54687265 
 6366      73686F6C 
 6366      64315800 
 6367              	.LASF174:
 6368 0d4a 70747232 		.ascii	"ptr2DebounceArr\000"
 6368      4465626F 
 6368      756E6365 
 6368      41727200 
 6369              	.LASF97:
 6370 0d5a 7265736F 		.ascii	"resolutionX\000"
 6370      6C757469 
 6370      6F6E5800 
 6371              	.LASF98:
 6372 0d66 7265736F 		.ascii	"resolutionY\000"
 6372      6C757469 
 6372      6F6E5900 
 6373              	.LASF182:
 6374 0d72 7843656E 		.ascii	"xCentroidMultiplier\000"
 6374      74726F69 
 6374      644D756C 
 6374      7469706C 
 6374      69657200 
 6375              	.LASF151:
 6376 0d86 74756E65 		.ascii	"tunerCmd\000"
 6376      72436D64 
 6376      00
 6377              	.LASF142:
ARM GAS  C:\Users\PC\AppData\Local\Temp\ccQeYTXk.s 			page 154


 6378 0d8f 62736C6E 		.ascii	"bslnExt\000"
 6378      45787400 
 6379              	.LASF136:
 6380 0d97 43617053 		.ascii	"CapSense_RAM_WD_BUTTON_STRUCT\000"
 6380      656E7365 
 6380      5F52414D 
 6380      5F57445F 
 6380      42555454 
 6381              	.LASF200:
 6382 0db5 6E756D54 		.ascii	"numTouches\000"
 6382      6F756368 
 6382      657300
 6383              	.LASF103:
 6384 0dc0 5354436C 		.ascii	"STClickTimeoutMax\000"
 6384      69636B54 
 6384      696D656F 
 6384      75744D61 
 6384      7800
 6385              	.LASF14:
 6386 0dd2 75696E74 		.ascii	"uint16_t\000"
 6386      31365F74 
 6386      00
 6387              	.LASF1:
 6388 0ddb 756E7369 		.ascii	"unsigned char\000"
 6388      676E6564 
 6388      20636861 
 6388      7200
 6389              	.LASF236:
 6390 0de9 77645374 		.ascii	"wdStatusMask\000"
 6390      61747573 
 6390      4D61736B 
 6390      00
 6391              	.LASF8:
 6392 0df6 5F5F7569 		.ascii	"__uint32_t\000"
 6392      6E743332 
 6392      5F7400
 6393              	.LASF223:
 6394 0e01 69735072 		.ascii	"isProxWdgt\000"
 6394      6F785764 
 6394      677400
 6395              	.LASF198:
 6396 0e0c 70747246 		.ascii	"ptrFlashWdgt\000"
 6396      6C617368 
 6396      57646774 
 6396      00
 6397              	.LASF162:
 6398 0e19 67657374 		.ascii	"gestures\000"
 6398      75726573 
 6398      00
 6399              	.LASF175:
 6400 0e22 73746174 		.ascii	"staticConfig\000"
 6400      6963436F 
 6400      6E666967 
 6400      00
 6401              	.LASF159:
 6402 0e2f 6D6F6443 		.ascii	"modCsxClk\000"
 6402      7378436C 
ARM GAS  C:\Users\PC\AppData\Local\Temp\ccQeYTXk.s 			page 155


 6402      6B00
 6403              	.LASF105:
 6404 0e39 5354446F 		.ascii	"STDoubleClickTimeoutMax\000"
 6404      75626C65 
 6404      436C6963 
 6404      6B54696D 
 6404      656F7574 
 6405              	.LASF171:
 6406 0e51 70747232 		.ascii	"ptr2WdgtRam\000"
 6406      57646774 
 6406      52616D00 
 6407              	.LASF28:
 6408 0e5d 43617053 		.ascii	"CapSense_THRESHOLD_TYPE\000"
 6408      656E7365 
 6408      5F544852 
 6408      4553484F 
 6408      4C445F54 
 6409              	.LASF180:
 6410 0e75 6E756D52 		.ascii	"numRows\000"
 6410      6F777300 
 6411              	.LASF137:
 6412 0e7d 6C696E65 		.ascii	"linearslider0\000"
 6412      6172736C 
 6412      69646572 
 6412      3000
 6413              	.LASF226:
 6414 0e8b 63757272 		.ascii	"currStatus\000"
 6414      53746174 
 6414      757300
 6415              	.LASF164:
 6416 0e96 74696D65 		.ascii	"timestamp\000"
 6416      7374616D 
 6416      7000
 6417              	.LASF128:
 6418 0ea0 736E7343 		.ascii	"snsClk\000"
 6418      6C6B00
 6419              	.LASF196:
 6420 0ea7 43617053 		.ascii	"CapSense_DpInitSlider\000"
 6420      656E7365 
 6420      5F447049 
 6420      6E697453 
 6420      6C696465 
 6421              	.LASF0:
 6422 0ebd 7369676E 		.ascii	"signed char\000"
 6422      65642063 
 6422      68617200 
 6423              	.LASF83:
 6424 0ec9 65646765 		.ascii	"edgeSwipeActiveDistance\000"
 6424      53776970 
 6424      65416374 
 6424      69766544 
 6424      69737461 
 6425              	.LASF84:
 6426 0ee1 746F7041 		.ascii	"topAngleThreshold\000"
 6426      6E676C65 
 6426      54687265 
 6426      73686F6C 
ARM GAS  C:\Users\PC\AppData\Local\Temp\ccQeYTXk.s 			page 156


 6426      6400
 6427              	.LASF5:
 6428 0ef3 73686F72 		.ascii	"short unsigned int\000"
 6428      7420756E 
 6428      7369676E 
 6428      65642069 
 6428      6E7400
 6429              	.LASF232:
 6430 0f06 43617053 		.ascii	"CapSense_DpProcessCsxWidgetStatus\000"
 6430      656E7365 
 6430      5F447050 
 6430      726F6365 
 6430      73734373 
 6431              	.LASF89:
 6432 0f28 44545A6F 		.ascii	"DTZoomDebounce\000"
 6432      6F6D4465 
 6432      626F756E 
 6432      636500
 6433              	.LASF170:
 6434 0f37 70747232 		.ascii	"ptr2SnsFlash\000"
 6434      536E7346 
 6434      6C617368 
 6434      00
 6435              	.LASF54:
 6436 0f44 73745363 		.ascii	"stScrollThreshold1Y\000"
 6436      726F6C6C 
 6436      54687265 
 6436      73686F6C 
 6436      64315900 
 6437              	.LASF24:
 6438 0f58 75696E74 		.ascii	"uint8\000"
 6438      3800
 6439              	.LASF23:
 6440 0f5e 646F7562 		.ascii	"double\000"
 6440      6C6500
 6441              	.LASF91:
 6442 0f65 726F7461 		.ascii	"rotateDebounce\000"
 6442      74654465 
 6442      626F756E 
 6442      636500
 6443              	.LASF144:
 6444 0f74 6E656742 		.ascii	"negBslnRstCnt\000"
 6444      736C6E52 
 6444      7374436E 
 6444      7400
 6445              	.LASF204:
 6446 0f82 77696467 		.ascii	"widgetType\000"
 6446      65745479 
 6446      706500
 6447              	.LASF30:
 6448 0f8d 70617261 		.ascii	"param0\000"
 6448      6D3000
 6449              	.LASF31:
 6450 0f94 70617261 		.ascii	"param1\000"
 6450      6D3100
 6451              	.LASF32:
 6452 0f9b 70617261 		.ascii	"param2\000"
ARM GAS  C:\Users\PC\AppData\Local\Temp\ccQeYTXk.s 			page 157


 6452      6D3200
 6453              	.LASF33:
 6454 0fa2 70617261 		.ascii	"param3\000"
 6454      6D3300
 6455              	.LASF34:
 6456 0fa9 70617261 		.ascii	"param4\000"
 6456      6D3400
 6457              	.LASF35:
 6458 0fb0 70617261 		.ascii	"param5\000"
 6458      6D3500
 6459              	.LASF36:
 6460 0fb7 70617261 		.ascii	"param6\000"
 6460      6D3600
 6461              	.LASF149:
 6462 0fbe 64657669 		.ascii	"deviceId\000"
 6462      63654964 
 6462      00
 6463              	.LASF233:
 6464 0fc7 77696467 		.ascii	"widgetId\000"
 6464      65744964 
 6464      00
 6465              	.LASF134:
 6466 0fd0 706F7369 		.ascii	"position\000"
 6466      74696F6E 
 6466      00
 6467              	.LASF147:
 6468 0fd9 43617053 		.ascii	"CapSense_RAM_SNS_LIST_STRUCT\000"
 6468      656E7365 
 6468      5F52414D 
 6468      5F534E53 
 6468      5F4C4953 
 6469              	.LASF51:
 6470 0ff6 73745363 		.ascii	"stScrollThreshold2X\000"
 6470      726F6C6C 
 6470      54687265 
 6470      73686F6C 
 6470      64325800 
 6471              	.LASF55:
 6472 100a 73745363 		.ascii	"stScrollThreshold2Y\000"
 6472      726F6C6C 
 6472      54687265 
 6472      73686F6C 
 6472      64325900 
 6473              	.LASF186:
 6474 101e 77646774 		.ascii	"wdgtArray\000"
 6474      41727261 
 6474      7900
 6475              		.ident	"GCC: (GNU Tools for ARM Embedded Processors) 5.4.1 20160609 (release) [ARM/embedded-5-bran
