ARM GAS  C:\Users\PC\AppData\Local\Temp\ccyhv7od.s 			page 1


   1              		.syntax unified
   2              		.cpu cortex-m0plus
   3              		.fpu softvfp
   4              		.eabi_attribute 20, 1
   5              		.eabi_attribute 21, 1
   6              		.eabi_attribute 23, 3
   7              		.eabi_attribute 24, 1
   8              		.eabi_attribute 25, 1
   9              		.eabi_attribute 26, 1
  10              		.eabi_attribute 30, 1
  11              		.eabi_attribute 34, 0
  12              		.eabi_attribute 18, 4
  13              		.thumb
  14              		.syntax unified
  15              		.file	"CapSense_Filter.c"
  16              		.text
  17              	.Ltext0:
  18              		.cfi_sections	.debug_frame
  19              		.section	.text.CapSense_FtInitializeBaselineChannel,"ax",%progbits
  20              		.align	2
  21              		.global	CapSense_FtInitializeBaselineChannel
  22              		.code	16
  23              		.thumb_func
  24              		.type	CapSense_FtInitializeBaselineChannel, %function
  25              	CapSense_FtInitializeBaselineChannel:
  26              	.LFB54:
  27              		.file 1 "Generated_Source\\PSoC6\\CapSense_Filter.c"
   1:Generated_Source\PSoC6/CapSense_Filter.c **** /***************************************************************************//**
   2:Generated_Source\PSoC6/CapSense_Filter.c **** * \file CapSense_Filter.c
   3:Generated_Source\PSoC6/CapSense_Filter.c **** * \version 3.0
   4:Generated_Source\PSoC6/CapSense_Filter.c **** *
   5:Generated_Source\PSoC6/CapSense_Filter.c **** * \brief
   6:Generated_Source\PSoC6/CapSense_Filter.c **** *   This file contains the implementation source code to implement all
   7:Generated_Source\PSoC6/CapSense_Filter.c **** *   firmware filters.
   8:Generated_Source\PSoC6/CapSense_Filter.c **** *
   9:Generated_Source\PSoC6/CapSense_Filter.c **** * \see CapSense v3.0 Datasheet
  10:Generated_Source\PSoC6/CapSense_Filter.c **** *
  11:Generated_Source\PSoC6/CapSense_Filter.c **** *//*****************************************************************************
  12:Generated_Source\PSoC6/CapSense_Filter.c **** * Copyright (2016-2017), Cypress Semiconductor Corporation.
  13:Generated_Source\PSoC6/CapSense_Filter.c **** ********************************************************************************
  14:Generated_Source\PSoC6/CapSense_Filter.c **** * This software is owned by Cypress Semiconductor Corporation (Cypress) and is
  15:Generated_Source\PSoC6/CapSense_Filter.c **** * protected by and subject to worldwide patent protection (United States and
  16:Generated_Source\PSoC6/CapSense_Filter.c **** * foreign), United States copyright laws and international treaty provisions.
  17:Generated_Source\PSoC6/CapSense_Filter.c **** * Cypress hereby grants to licensee a personal, non-exclusive, non-transferable
  18:Generated_Source\PSoC6/CapSense_Filter.c **** * license to copy, use, modify, create derivative works of, and compile the
  19:Generated_Source\PSoC6/CapSense_Filter.c **** * Cypress Source Code and derivative works for the sole purpose of creating
  20:Generated_Source\PSoC6/CapSense_Filter.c **** * custom software in support of licensee product to be used only in conjunction
  21:Generated_Source\PSoC6/CapSense_Filter.c **** * with a Cypress integrated circuit as specified in the applicable agreement.
  22:Generated_Source\PSoC6/CapSense_Filter.c **** * Any reproduction, modification, translation, compilation, or representation of
  23:Generated_Source\PSoC6/CapSense_Filter.c **** * this software except as specified above is prohibited without the express
  24:Generated_Source\PSoC6/CapSense_Filter.c **** * written permission of Cypress.
  25:Generated_Source\PSoC6/CapSense_Filter.c **** *
  26:Generated_Source\PSoC6/CapSense_Filter.c **** * Disclaimer: CYPRESS MAKES NO WARRANTY OF ANY KIND, EXPRESS OR IMPLIED, WITH
  27:Generated_Source\PSoC6/CapSense_Filter.c **** * REGARD TO THIS MATERIAL, INCLUDING, BUT NOT LIMITED TO, THE IMPLIED
  28:Generated_Source\PSoC6/CapSense_Filter.c **** * WARRANTIES OF MERCHANTABILITY AND FITNESS FOR A PARTICULAR PURPOSE.
  29:Generated_Source\PSoC6/CapSense_Filter.c **** * Cypress reserves the right to make changes without further notice to the
  30:Generated_Source\PSoC6/CapSense_Filter.c **** * materials described herein. Cypress does not assume any liability arising out
ARM GAS  C:\Users\PC\AppData\Local\Temp\ccyhv7od.s 			page 2


  31:Generated_Source\PSoC6/CapSense_Filter.c **** * of the application or use of any product or circuit described herein. Cypress
  32:Generated_Source\PSoC6/CapSense_Filter.c **** * does not authorize its products for use as critical components in life-support
  33:Generated_Source\PSoC6/CapSense_Filter.c **** * systems where a malfunction or failure may reasonably be expected to result in
  34:Generated_Source\PSoC6/CapSense_Filter.c **** * significant injury to the user. The inclusion of Cypress' product in a life-
  35:Generated_Source\PSoC6/CapSense_Filter.c **** * support systems application implies that the manufacturer assumes all risk of
  36:Generated_Source\PSoC6/CapSense_Filter.c **** * such use and in doing so indemnifies Cypress against all charges. Use may be
  37:Generated_Source\PSoC6/CapSense_Filter.c **** * limited by and subject to the applicable Cypress software license agreement.
  38:Generated_Source\PSoC6/CapSense_Filter.c **** *******************************************************************************/
  39:Generated_Source\PSoC6/CapSense_Filter.c **** 
  40:Generated_Source\PSoC6/CapSense_Filter.c **** #include "stddef.h"
  41:Generated_Source\PSoC6/CapSense_Filter.c **** #include "CapSense_Filter.h"
  42:Generated_Source\PSoC6/CapSense_Filter.c **** #include "CapSense_Configuration.h"
  43:Generated_Source\PSoC6/CapSense_Filter.c **** 
  44:Generated_Source\PSoC6/CapSense_Filter.c **** #if (0 != (CapSense_CSD_AUTOTUNE & CapSense_CSD_SS_TH_EN))
  45:Generated_Source\PSoC6/CapSense_Filter.c ****     #include "CapSense_SmartSense_LL.h"
  46:Generated_Source\PSoC6/CapSense_Filter.c **** #endif /* (0 != (CapSense_CSD_AUTOTUNE & CapSense_CSD_SS_TH_EN)) */
  47:Generated_Source\PSoC6/CapSense_Filter.c **** 
  48:Generated_Source\PSoC6/CapSense_Filter.c **** #if (CapSense_ENABLE == CapSense_SELF_TEST_EN)
  49:Generated_Source\PSoC6/CapSense_Filter.c ****     #include "CapSense_SelfTest.h"
  50:Generated_Source\PSoC6/CapSense_Filter.c **** #endif
  51:Generated_Source\PSoC6/CapSense_Filter.c **** 
  52:Generated_Source\PSoC6/CapSense_Filter.c **** /*******************************************************************************
  53:Generated_Source\PSoC6/CapSense_Filter.c **** * Function Name: CapSense_FtInitialize
  54:Generated_Source\PSoC6/CapSense_Filter.c **** ****************************************************************************//**
  55:Generated_Source\PSoC6/CapSense_Filter.c **** *
  56:Generated_Source\PSoC6/CapSense_Filter.c **** * \brief
  57:Generated_Source\PSoC6/CapSense_Filter.c **** *    Initializes all the firmware filter history, except the baseline filter.
  58:Generated_Source\PSoC6/CapSense_Filter.c **** *
  59:Generated_Source\PSoC6/CapSense_Filter.c **** * \details
  60:Generated_Source\PSoC6/CapSense_Filter.c **** *    Initializes all the firmware filter history, except the baseline filter.
  61:Generated_Source\PSoC6/CapSense_Filter.c **** *
  62:Generated_Source\PSoC6/CapSense_Filter.c **** *******************************************************************************/
  63:Generated_Source\PSoC6/CapSense_Filter.c **** void CapSense_FtInitialize(void)
  64:Generated_Source\PSoC6/CapSense_Filter.c **** {
  65:Generated_Source\PSoC6/CapSense_Filter.c ****     #if ((CapSense_ENABLE == CapSense_RC_FILTER_EN) || \
  66:Generated_Source\PSoC6/CapSense_Filter.c ****          (0u != (CapSense_CSD_AUTOTUNE & CapSense_CSD_SS_TH_EN)))
  67:Generated_Source\PSoC6/CapSense_Filter.c ****         CapSense_InitializeAllFilters();
  68:Generated_Source\PSoC6/CapSense_Filter.c ****     #endif /* ((CapSense_ENABLE == CapSense_RC_FILTER_EN) || \
  69:Generated_Source\PSoC6/CapSense_Filter.c ****                (0u != (CapSense_CSD_AUTOTUNE & CapSense_CSD_SS_TH_EN))) */
  70:Generated_Source\PSoC6/CapSense_Filter.c **** }
  71:Generated_Source\PSoC6/CapSense_Filter.c **** 
  72:Generated_Source\PSoC6/CapSense_Filter.c **** 
  73:Generated_Source\PSoC6/CapSense_Filter.c **** /*******************************************************************************
  74:Generated_Source\PSoC6/CapSense_Filter.c **** * Function Name: CapSense_UpdateAllBaselines
  75:Generated_Source\PSoC6/CapSense_Filter.c **** ****************************************************************************//**
  76:Generated_Source\PSoC6/CapSense_Filter.c **** *
  77:Generated_Source\PSoC6/CapSense_Filter.c **** * \brief
  78:Generated_Source\PSoC6/CapSense_Filter.c **** *  Updates the baseline for all the sensors in all the widgets.
  79:Generated_Source\PSoC6/CapSense_Filter.c **** *
  80:Generated_Source\PSoC6/CapSense_Filter.c **** * \details
  81:Generated_Source\PSoC6/CapSense_Filter.c **** *  Updates the baseline for all the sensors in all the widgets. Baseline updating is a
  82:Generated_Source\PSoC6/CapSense_Filter.c **** *  part of data processing performed by the process functions. So, no need to
  83:Generated_Source\PSoC6/CapSense_Filter.c **** *  call this function except a specific process flow is implemented.
  84:Generated_Source\PSoC6/CapSense_Filter.c **** *
  85:Generated_Source\PSoC6/CapSense_Filter.c **** *  This function ignores the value of the wdgtEnable register. Multiple calling
  86:Generated_Source\PSoC6/CapSense_Filter.c **** *  of this function (or any other function with a baseline updating task)
  87:Generated_Source\PSoC6/CapSense_Filter.c **** *  without scanning leads to unexpected behavior.
ARM GAS  C:\Users\PC\AppData\Local\Temp\ccyhv7od.s 			page 3


  88:Generated_Source\PSoC6/CapSense_Filter.c **** *
  89:Generated_Source\PSoC6/CapSense_Filter.c **** *  If the Self-test library is enabled, this function executes the baseline duplication
  90:Generated_Source\PSoC6/CapSense_Filter.c **** *  test. Refer to CapSense_CheckBaselineDuplication() for details.
  91:Generated_Source\PSoC6/CapSense_Filter.c **** *
  92:Generated_Source\PSoC6/CapSense_Filter.c **** * \return
  93:Generated_Source\PSoC6/CapSense_Filter.c **** *  Returns the status of the update baseline operation of all the widgets:
  94:Generated_Source\PSoC6/CapSense_Filter.c **** *  - CY_RET_SUCCESS - The operation is successfully completed.
  95:Generated_Source\PSoC6/CapSense_Filter.c **** *  - CY_RET_BAD_DATA - The baseline processing failed.
  96:Generated_Source\PSoC6/CapSense_Filter.c **** *
  97:Generated_Source\PSoC6/CapSense_Filter.c **** *******************************************************************************/
  98:Generated_Source\PSoC6/CapSense_Filter.c **** cy_status CapSense_UpdateAllBaselines(void)
  99:Generated_Source\PSoC6/CapSense_Filter.c **** {
 100:Generated_Source\PSoC6/CapSense_Filter.c ****     uint32 widgetId;
 101:Generated_Source\PSoC6/CapSense_Filter.c ****     cy_status bslnStatus = CY_RET_SUCCESS;
 102:Generated_Source\PSoC6/CapSense_Filter.c **** 
 103:Generated_Source\PSoC6/CapSense_Filter.c ****     for(widgetId = CapSense_TOTAL_WIDGETS; widgetId-- > 0u;)
 104:Generated_Source\PSoC6/CapSense_Filter.c ****     {
 105:Generated_Source\PSoC6/CapSense_Filter.c ****         bslnStatus |= CapSense_UpdateWidgetBaseline(widgetId);
 106:Generated_Source\PSoC6/CapSense_Filter.c ****     }
 107:Generated_Source\PSoC6/CapSense_Filter.c **** 
 108:Generated_Source\PSoC6/CapSense_Filter.c ****     return(bslnStatus);
 109:Generated_Source\PSoC6/CapSense_Filter.c **** }
 110:Generated_Source\PSoC6/CapSense_Filter.c **** 
 111:Generated_Source\PSoC6/CapSense_Filter.c **** 
 112:Generated_Source\PSoC6/CapSense_Filter.c **** /*******************************************************************************
 113:Generated_Source\PSoC6/CapSense_Filter.c **** * Function Name: CapSense_UpdateWidgetBaseline
 114:Generated_Source\PSoC6/CapSense_Filter.c **** ****************************************************************************//**
 115:Generated_Source\PSoC6/CapSense_Filter.c **** *
 116:Generated_Source\PSoC6/CapSense_Filter.c **** * \brief
 117:Generated_Source\PSoC6/CapSense_Filter.c **** *  Updates the baselines for all the sensors in a widget specified by the input parameter.
 118:Generated_Source\PSoC6/CapSense_Filter.c **** *
 119:Generated_Source\PSoC6/CapSense_Filter.c **** * \details
 120:Generated_Source\PSoC6/CapSense_Filter.c **** *  This function performs exactly the same tasks as
 121:Generated_Source\PSoC6/CapSense_Filter.c **** *  CapSense_UpdateAllBaselines() but only for a specified widget.
 122:Generated_Source\PSoC6/CapSense_Filter.c **** *
 123:Generated_Source\PSoC6/CapSense_Filter.c **** *  This function ignores the value of the wdgtEnable register. Multiple calling
 124:Generated_Source\PSoC6/CapSense_Filter.c **** *  of this function (or any other function with a baseline updating task)
 125:Generated_Source\PSoC6/CapSense_Filter.c **** *  without scanning leads to unexpected behavior.
 126:Generated_Source\PSoC6/CapSense_Filter.c **** *
 127:Generated_Source\PSoC6/CapSense_Filter.c **** *  If the Self-test library is enabled, this function executes the baseline duplication
 128:Generated_Source\PSoC6/CapSense_Filter.c **** *  test. Refer to CapSense_CheckBaselineDuplication() for details.
 129:Generated_Source\PSoC6/CapSense_Filter.c **** *
 130:Generated_Source\PSoC6/CapSense_Filter.c **** * \param widgetId
 131:Generated_Source\PSoC6/CapSense_Filter.c **** *  Specifies the ID number of the widget to update the baseline of all the sensors
 132:Generated_Source\PSoC6/CapSense_Filter.c **** *  in the widget.
 133:Generated_Source\PSoC6/CapSense_Filter.c **** *  A macro for the widget ID can be found in the
 134:Generated_Source\PSoC6/CapSense_Filter.c **** *  CapSense Configuration header file defined as
 135:Generated_Source\PSoC6/CapSense_Filter.c **** *  CapSense_<WidgetName>_WDGT_ID.
 136:Generated_Source\PSoC6/CapSense_Filter.c **** *
 137:Generated_Source\PSoC6/CapSense_Filter.c **** * \return
 138:Generated_Source\PSoC6/CapSense_Filter.c **** *  Returns the status of the specified widget update baseline operation:
 139:Generated_Source\PSoC6/CapSense_Filter.c **** *  - CY_RET_SUCCESS - The operation is successfully completed.
 140:Generated_Source\PSoC6/CapSense_Filter.c **** *  - CY_RET_BAD_DATA - The baseline processing failed.
 141:Generated_Source\PSoC6/CapSense_Filter.c **** *
 142:Generated_Source\PSoC6/CapSense_Filter.c **** *******************************************************************************/
 143:Generated_Source\PSoC6/CapSense_Filter.c **** cy_status CapSense_UpdateWidgetBaseline(uint32 widgetId)
 144:Generated_Source\PSoC6/CapSense_Filter.c **** {
ARM GAS  C:\Users\PC\AppData\Local\Temp\ccyhv7od.s 			page 4


 145:Generated_Source\PSoC6/CapSense_Filter.c ****     uint32 sensorId;
 146:Generated_Source\PSoC6/CapSense_Filter.c ****     uint32 sensorsNumber;
 147:Generated_Source\PSoC6/CapSense_Filter.c **** 
 148:Generated_Source\PSoC6/CapSense_Filter.c ****     CapSense_FLASH_WD_STRUCT const *ptrWidget = &CapSense_dsFlash.wdgtArray[widgetId];
 149:Generated_Source\PSoC6/CapSense_Filter.c ****     cy_status bslnStatus = CY_RET_SUCCESS;
 150:Generated_Source\PSoC6/CapSense_Filter.c **** 
 151:Generated_Source\PSoC6/CapSense_Filter.c ****     /* Find total amount of sensors in specified widget */
 152:Generated_Source\PSoC6/CapSense_Filter.c ****     sensorsNumber = CapSense_GET_SNS_CNT_BY_PTR(ptrWidget);
 153:Generated_Source\PSoC6/CapSense_Filter.c **** 
 154:Generated_Source\PSoC6/CapSense_Filter.c ****     for(sensorId = sensorsNumber; sensorId-- > 0u;)
 155:Generated_Source\PSoC6/CapSense_Filter.c ****     {
 156:Generated_Source\PSoC6/CapSense_Filter.c ****         bslnStatus |= CapSense_UpdateSensorBaseline(widgetId, sensorId);
 157:Generated_Source\PSoC6/CapSense_Filter.c ****     }
 158:Generated_Source\PSoC6/CapSense_Filter.c **** 
 159:Generated_Source\PSoC6/CapSense_Filter.c ****     return(bslnStatus);
 160:Generated_Source\PSoC6/CapSense_Filter.c **** }
 161:Generated_Source\PSoC6/CapSense_Filter.c **** 
 162:Generated_Source\PSoC6/CapSense_Filter.c **** 
 163:Generated_Source\PSoC6/CapSense_Filter.c **** /*******************************************************************************
 164:Generated_Source\PSoC6/CapSense_Filter.c **** * Function Name: CapSense_UpdateSensorBaseline
 165:Generated_Source\PSoC6/CapSense_Filter.c **** ****************************************************************************//**
 166:Generated_Source\PSoC6/CapSense_Filter.c **** *
 167:Generated_Source\PSoC6/CapSense_Filter.c **** * \brief
 168:Generated_Source\PSoC6/CapSense_Filter.c **** *  Updates the baseline for a sensor in a widget specified by the input parameters.
 169:Generated_Source\PSoC6/CapSense_Filter.c **** *
 170:Generated_Source\PSoC6/CapSense_Filter.c **** * \details
 171:Generated_Source\PSoC6/CapSense_Filter.c **** *  This function performs exactly the same tasks as
 172:Generated_Source\PSoC6/CapSense_Filter.c **** *  CapSense_UpdateAllBaselines() and
 173:Generated_Source\PSoC6/CapSense_Filter.c **** *  CapSense_UpdateWidgetBaseline() but only for a specified sensor.
 174:Generated_Source\PSoC6/CapSense_Filter.c **** *
 175:Generated_Source\PSoC6/CapSense_Filter.c **** *  This function ignores the value of the wdgtEnable register. Multiple calling
 176:Generated_Source\PSoC6/CapSense_Filter.c **** *  of this function (or any other function with a baseline updating task)
 177:Generated_Source\PSoC6/CapSense_Filter.c **** *  without scanning leads to unexpected behavior.
 178:Generated_Source\PSoC6/CapSense_Filter.c **** *
 179:Generated_Source\PSoC6/CapSense_Filter.c **** *  If the Self-test library is enabled, this function executes the baseline duplication
 180:Generated_Source\PSoC6/CapSense_Filter.c **** *  test. Refer to CapSense_CheckBaselineDuplication() for details.
 181:Generated_Source\PSoC6/CapSense_Filter.c **** *
 182:Generated_Source\PSoC6/CapSense_Filter.c **** * \param   widgetId
 183:Generated_Source\PSoC6/CapSense_Filter.c **** *  Specifies the ID number of the widget to update the baseline of the sensor
 184:Generated_Source\PSoC6/CapSense_Filter.c **** *  specified by the sensorId argument.
 185:Generated_Source\PSoC6/CapSense_Filter.c **** *  A macro for the widget ID can be found in the CapSense Configuration header
 186:Generated_Source\PSoC6/CapSense_Filter.c **** *  file defined as CapSense_<WidgetName>_WDGT_ID.
 187:Generated_Source\PSoC6/CapSense_Filter.c **** *
 188:Generated_Source\PSoC6/CapSense_Filter.c **** * \param   sensorId
 189:Generated_Source\PSoC6/CapSense_Filter.c **** *  Specifies the ID number of the sensor within the widget to update its baseline.
 190:Generated_Source\PSoC6/CapSense_Filter.c **** *  A macro for the sensor ID within a specified widget can be found in the
 191:Generated_Source\PSoC6/CapSense_Filter.c **** *  CapSense Configuration header file defined as
 192:Generated_Source\PSoC6/CapSense_Filter.c **** *  CapSense_<WidgetName>_SNS<SensorNumber>_ID.
 193:Generated_Source\PSoC6/CapSense_Filter.c **** *
 194:Generated_Source\PSoC6/CapSense_Filter.c **** * \return
 195:Generated_Source\PSoC6/CapSense_Filter.c **** *  Returns the status of the specified sensor update baseline operation:
 196:Generated_Source\PSoC6/CapSense_Filter.c **** *  - CY_RET_SUCCESS - The operation is successfully completed.
 197:Generated_Source\PSoC6/CapSense_Filter.c **** *  - CY_RET_BAD_DATA - The baseline processing failed.
 198:Generated_Source\PSoC6/CapSense_Filter.c **** *
 199:Generated_Source\PSoC6/CapSense_Filter.c **** *******************************************************************************/
 200:Generated_Source\PSoC6/CapSense_Filter.c **** cy_status CapSense_UpdateSensorBaseline(uint32 widgetId, uint32 sensorId)
 201:Generated_Source\PSoC6/CapSense_Filter.c **** {
ARM GAS  C:\Users\PC\AppData\Local\Temp\ccyhv7od.s 			page 5


 202:Generated_Source\PSoC6/CapSense_Filter.c ****     uint32 result = CY_RET_SUCCESS;
 203:Generated_Source\PSoC6/CapSense_Filter.c **** 
 204:Generated_Source\PSoC6/CapSense_Filter.c ****     CapSense_RAM_SNS_STRUCT *ptrSensor = NULL;
 205:Generated_Source\PSoC6/CapSense_Filter.c ****     CapSense_FLASH_WD_STRUCT const *ptrWidget = &CapSense_dsFlash.wdgtArray[widgetId];
 206:Generated_Source\PSoC6/CapSense_Filter.c ****     CapSense_RAM_WD_BASE_STRUCT *ptrWidgetRam = (CapSense_RAM_WD_BASE_STRUCT *)ptrWidget->ptr2WdgtR
 207:Generated_Source\PSoC6/CapSense_Filter.c **** 
 208:Generated_Source\PSoC6/CapSense_Filter.c ****     /* Find pointer to specified sensor object */
 209:Generated_Source\PSoC6/CapSense_Filter.c ****     ptrSensor = ptrWidget->ptr2SnsRam;
 210:Generated_Source\PSoC6/CapSense_Filter.c ****     ptrSensor = &ptrSensor[sensorId];
 211:Generated_Source\PSoC6/CapSense_Filter.c ****     result = CapSense_FtUpdateBaseline(ptrWidgetRam, ptrSensor, (uint32)ptrWidget->wdgtType);
 212:Generated_Source\PSoC6/CapSense_Filter.c **** 
 213:Generated_Source\PSoC6/CapSense_Filter.c ****     #if (CapSense_ENABLE == CapSense_TST_BSLN_DUPLICATION_EN)
 214:Generated_Source\PSoC6/CapSense_Filter.c ****         if (CY_RET_SUCCESS != result)
 215:Generated_Source\PSoC6/CapSense_Filter.c ****         {
 216:Generated_Source\PSoC6/CapSense_Filter.c ****             result = CY_RET_BAD_DATA;
 217:Generated_Source\PSoC6/CapSense_Filter.c ****             CapSense_UpdateTestResultBaselineDuplication(widgetId, sensorId);
 218:Generated_Source\PSoC6/CapSense_Filter.c ****         }
 219:Generated_Source\PSoC6/CapSense_Filter.c ****     #endif /* (CapSense_ENABLE == CapSense_TST_BSLN_DUPLICATION_EN) */
 220:Generated_Source\PSoC6/CapSense_Filter.c **** 
 221:Generated_Source\PSoC6/CapSense_Filter.c ****     return result;
 222:Generated_Source\PSoC6/CapSense_Filter.c **** }
 223:Generated_Source\PSoC6/CapSense_Filter.c **** 
 224:Generated_Source\PSoC6/CapSense_Filter.c **** /*******************************************************************************
 225:Generated_Source\PSoC6/CapSense_Filter.c **** * Function Name: CapSense_FtUpdateBaseline
 226:Generated_Source\PSoC6/CapSense_Filter.c **** ****************************************************************************//**
 227:Generated_Source\PSoC6/CapSense_Filter.c **** *
 228:Generated_Source\PSoC6/CapSense_Filter.c **** * \brief
 229:Generated_Source\PSoC6/CapSense_Filter.c **** *  Updates the baseline for a sensor specified by an input parameter.
 230:Generated_Source\PSoC6/CapSense_Filter.c **** *
 231:Generated_Source\PSoC6/CapSense_Filter.c **** * \details
 232:Generated_Source\PSoC6/CapSense_Filter.c **** *  Check a matching of present baseline and its inverse duplication. If they
 233:Generated_Source\PSoC6/CapSense_Filter.c **** *  match then updates the baseline for a sensor specified by an input parameter.
 234:Generated_Source\PSoC6/CapSense_Filter.c **** *  If don't match the function return CapSense_TST_BSLN_DUPLICATION
 235:Generated_Source\PSoC6/CapSense_Filter.c **** *  result and don't update baseline.
 236:Generated_Source\PSoC6/CapSense_Filter.c **** *
 237:Generated_Source\PSoC6/CapSense_Filter.c **** * \param    ptrWidgetRam
 238:Generated_Source\PSoC6/CapSense_Filter.c **** *  The pointer to the widget RAM structure where all the widget parameters
 239:Generated_Source\PSoC6/CapSense_Filter.c **** *  are stored.
 240:Generated_Source\PSoC6/CapSense_Filter.c **** *
 241:Generated_Source\PSoC6/CapSense_Filter.c **** * \param    ptrSensor
 242:Generated_Source\PSoC6/CapSense_Filter.c **** *  The pointer to the sensor RAM structure where all the sensor parameters
 243:Generated_Source\PSoC6/CapSense_Filter.c **** *  are stored.
 244:Generated_Source\PSoC6/CapSense_Filter.c **** *
 245:Generated_Source\PSoC6/CapSense_Filter.c **** * \param    wdType
 246:Generated_Source\PSoC6/CapSense_Filter.c **** *  Specifies the type of a widget.
 247:Generated_Source\PSoC6/CapSense_Filter.c **** *
 248:Generated_Source\PSoC6/CapSense_Filter.c **** * \return
 249:Generated_Source\PSoC6/CapSense_Filter.c **** *  Returns a status indicating whether the baseline has been updated:
 250:Generated_Source\PSoC6/CapSense_Filter.c **** *  - CY_RET_SUCCESS if baseline updating was successful;
 251:Generated_Source\PSoC6/CapSense_Filter.c **** *  - CapSense_PROCESS_BASELINE_FAILED if present sensor's any channel
 252:Generated_Source\PSoC6/CapSense_Filter.c **** *    baseline and its inversion doesn't matched
 253:Generated_Source\PSoC6/CapSense_Filter.c **** *
 254:Generated_Source\PSoC6/CapSense_Filter.c **** *******************************************************************************/
 255:Generated_Source\PSoC6/CapSense_Filter.c **** uint32 CapSense_FtUpdateBaseline(
 256:Generated_Source\PSoC6/CapSense_Filter.c ****                                 CapSense_RAM_WD_BASE_STRUCT *ptrWidgetRam,
 257:Generated_Source\PSoC6/CapSense_Filter.c ****                                 CapSense_RAM_SNS_STRUCT *ptrSensor,
 258:Generated_Source\PSoC6/CapSense_Filter.c ****                                 uint32 wdType)
ARM GAS  C:\Users\PC\AppData\Local\Temp\ccyhv7od.s 			page 6


 259:Generated_Source\PSoC6/CapSense_Filter.c **** {
 260:Generated_Source\PSoC6/CapSense_Filter.c ****     uint32 sign;
 261:Generated_Source\PSoC6/CapSense_Filter.c ****     uint32 difference;
 262:Generated_Source\PSoC6/CapSense_Filter.c ****     uint32 freqChannel;
 263:Generated_Source\PSoC6/CapSense_Filter.c ****     uint32 baselineCoeff;
 264:Generated_Source\PSoC6/CapSense_Filter.c ****     uint32 result = CY_RET_SUCCESS;
 265:Generated_Source\PSoC6/CapSense_Filter.c **** 
 266:Generated_Source\PSoC6/CapSense_Filter.c ****     #if (CapSense_TOTAL_WIDGETS)
 267:Generated_Source\PSoC6/CapSense_Filter.c ****         uint32 history;
 268:Generated_Source\PSoC6/CapSense_Filter.c ****     #endif /* (CapSense_TOTAL_WIDGETS) */
 269:Generated_Source\PSoC6/CapSense_Filter.c **** 
 270:Generated_Source\PSoC6/CapSense_Filter.c ****     /* Apply baseline to every channel in sensor */
 271:Generated_Source\PSoC6/CapSense_Filter.c ****     for(freqChannel = CapSense_NUM_SCAN_FREQS; freqChannel-- > 0u;)
 272:Generated_Source\PSoC6/CapSense_Filter.c ****     {
 273:Generated_Source\PSoC6/CapSense_Filter.c ****         #if (CapSense_ENABLE == CapSense_TST_BSLN_DUPLICATION_EN)
 274:Generated_Source\PSoC6/CapSense_Filter.c ****             if (ptrSensor->bslnInv[freqChannel] != ((uint16) ~(ptrSensor->bsln[freqChannel])))
 275:Generated_Source\PSoC6/CapSense_Filter.c ****             {
 276:Generated_Source\PSoC6/CapSense_Filter.c ****                 result = CapSense_PROCESS_BASELINE_FAILED;
 277:Generated_Source\PSoC6/CapSense_Filter.c ****             }
 278:Generated_Source\PSoC6/CapSense_Filter.c ****             else
 279:Generated_Source\PSoC6/CapSense_Filter.c ****             {
 280:Generated_Source\PSoC6/CapSense_Filter.c ****         #endif /* (CapSense_ENABLE == CapSense_TST_BSLN_DUPLICATION_EN) */
 281:Generated_Source\PSoC6/CapSense_Filter.c **** 
 282:Generated_Source\PSoC6/CapSense_Filter.c ****         /* Calculate signal value and its sign */
 283:Generated_Source\PSoC6/CapSense_Filter.c ****         if(ptrSensor->raw[freqChannel] >= ptrSensor->bsln[freqChannel])
 284:Generated_Source\PSoC6/CapSense_Filter.c ****         {
 285:Generated_Source\PSoC6/CapSense_Filter.c ****             difference = (uint32)ptrSensor->raw[freqChannel] - (uint32)ptrSensor->bsln[freqChannel]
 286:Generated_Source\PSoC6/CapSense_Filter.c ****             sign = 1u;
 287:Generated_Source\PSoC6/CapSense_Filter.c ****             ptrSensor->negBslnRstCnt[freqChannel] = 0u;
 288:Generated_Source\PSoC6/CapSense_Filter.c ****         }
 289:Generated_Source\PSoC6/CapSense_Filter.c ****         else
 290:Generated_Source\PSoC6/CapSense_Filter.c ****         {
 291:Generated_Source\PSoC6/CapSense_Filter.c ****             difference = (uint32)ptrSensor->bsln[freqChannel] - (uint32)ptrSensor->raw[freqChannel]
 292:Generated_Source\PSoC6/CapSense_Filter.c ****             sign = 0u;
 293:Generated_Source\PSoC6/CapSense_Filter.c ****         }
 294:Generated_Source\PSoC6/CapSense_Filter.c **** 
 295:Generated_Source\PSoC6/CapSense_Filter.c ****         /* Reset baseline if condition is met */
 296:Generated_Source\PSoC6/CapSense_Filter.c ****         if((sign == 0u) && (difference > (uint32) ptrWidgetRam->nNoiseTh))
 297:Generated_Source\PSoC6/CapSense_Filter.c ****         {
 298:Generated_Source\PSoC6/CapSense_Filter.c ****             if(ptrSensor->negBslnRstCnt[freqChannel] >= ptrWidgetRam->lowBslnRst)
 299:Generated_Source\PSoC6/CapSense_Filter.c ****             {
 300:Generated_Source\PSoC6/CapSense_Filter.c ****                 CapSense_FtInitializeBaselineChannel(ptrSensor, wdType, freqChannel);
 301:Generated_Source\PSoC6/CapSense_Filter.c ****             }
 302:Generated_Source\PSoC6/CapSense_Filter.c ****             else
 303:Generated_Source\PSoC6/CapSense_Filter.c ****             {
 304:Generated_Source\PSoC6/CapSense_Filter.c ****                 ptrSensor->negBslnRstCnt[freqChannel]++;
 305:Generated_Source\PSoC6/CapSense_Filter.c ****             }
 306:Generated_Source\PSoC6/CapSense_Filter.c ****         }
 307:Generated_Source\PSoC6/CapSense_Filter.c ****         else
 308:Generated_Source\PSoC6/CapSense_Filter.c ****         {
 309:Generated_Source\PSoC6/CapSense_Filter.c ****             #if (!CapSense_SENSOR_AUTO_RESET_EN)
 310:Generated_Source\PSoC6/CapSense_Filter.c ****                 /* Update baseline only if signal is in range between noiseThreshold and negativeno
 311:Generated_Source\PSoC6/CapSense_Filter.c ****                 if ((difference <= (uint32)ptrWidgetRam->noiseTh) ||
 312:Generated_Source\PSoC6/CapSense_Filter.c ****                     ((difference <= (uint32) ptrWidgetRam->nNoiseTh) && (sign == 0u)))
 313:Generated_Source\PSoC6/CapSense_Filter.c ****                 {
 314:Generated_Source\PSoC6/CapSense_Filter.c ****             #endif /* (CapSense_CSD_AUTO_RESET == CapSense_CSD_AUTO_RESET_DISABLE) */
 315:Generated_Source\PSoC6/CapSense_Filter.c **** 
ARM GAS  C:\Users\PC\AppData\Local\Temp\ccyhv7od.s 			page 7


 316:Generated_Source\PSoC6/CapSense_Filter.c ****             #if (CapSense_BASELINE_TYPE == CapSense_IIR_BASELINE)
 317:Generated_Source\PSoC6/CapSense_Filter.c ****                 /* Calculate baseline value */
 318:Generated_Source\PSoC6/CapSense_Filter.c ****                 if ((CapSense_WD_TYPE_ENUM)wdType != CapSense_WD_PROXIMITY_E)
 319:Generated_Source\PSoC6/CapSense_Filter.c ****                 {
 320:Generated_Source\PSoC6/CapSense_Filter.c ****                     #if (CapSense_REGULAR_SENSOR_EN)
 321:Generated_Source\PSoC6/CapSense_Filter.c ****                         #if (CapSense_REGULAR_IIR_BL_TYPE == CapSense_IIR_FILTER_PERFORMANCE)
 322:Generated_Source\PSoC6/CapSense_Filter.c ****                             history = (uint32) ptrSensor->bsln[freqChannel] << 8u;
 323:Generated_Source\PSoC6/CapSense_Filter.c ****                             history |= ptrSensor->bslnExt[freqChannel];
 324:Generated_Source\PSoC6/CapSense_Filter.c ****                         #else
 325:Generated_Source\PSoC6/CapSense_Filter.c ****                             history = ptrSensor->bsln[freqChannel];
 326:Generated_Source\PSoC6/CapSense_Filter.c ****                         #endif /* (CapSense_REGULAR_IIR_BL_TYPE == CapSense_IIR_FILTER_PERFORMANCE)
 327:Generated_Source\PSoC6/CapSense_Filter.c **** 
 328:Generated_Source\PSoC6/CapSense_Filter.c ****                         #if (CapSense_ENABLE == CapSense_WD_BSLN_COEFF_EN)
 329:Generated_Source\PSoC6/CapSense_Filter.c ****                             baselineCoeff = ptrWidgetRam->bslnCoeff;
 330:Generated_Source\PSoC6/CapSense_Filter.c ****                         #else /* (CapSense_ENABLE == CapSense_WD_BSLN_COEFF_EN) */
 331:Generated_Source\PSoC6/CapSense_Filter.c ****                             baselineCoeff = CapSense_REGULAR_IIR_BL_N;
 332:Generated_Source\PSoC6/CapSense_Filter.c ****                         #endif /* (CapSense_ENABLE == CapSense_WD_BSLN_COEFF_EN) */
 333:Generated_Source\PSoC6/CapSense_Filter.c **** 
 334:Generated_Source\PSoC6/CapSense_Filter.c ****                         history =  CapSense_FtIIR1stOrder(
 335:Generated_Source\PSoC6/CapSense_Filter.c ****                                         (uint32)ptrSensor->raw[freqChannel],
 336:Generated_Source\PSoC6/CapSense_Filter.c ****                                         history, baselineCoeff,
 337:Generated_Source\PSoC6/CapSense_Filter.c ****                                         CapSense_REGULAR_IIR_BL_SHIFT);
 338:Generated_Source\PSoC6/CapSense_Filter.c **** 
 339:Generated_Source\PSoC6/CapSense_Filter.c ****                         #if (CapSense_REGULAR_IIR_BL_TYPE == CapSense_IIR_FILTER_PERFORMANCE)
 340:Generated_Source\PSoC6/CapSense_Filter.c ****                                     ptrSensor->bsln[freqChannel] = CY_LO16(history >> 8u);
 341:Generated_Source\PSoC6/CapSense_Filter.c ****                                     ptrSensor->bslnExt[freqChannel] = CY_LO8(history);
 342:Generated_Source\PSoC6/CapSense_Filter.c ****                         #else
 343:Generated_Source\PSoC6/CapSense_Filter.c ****                                     ptrSensor->bsln[freqChannel] = CY_LO16(history);
 344:Generated_Source\PSoC6/CapSense_Filter.c ****                         #endif /* (CapSense_REGULAR_IIR_BL_TYPE == CapSense_IIR_FILTER_PERFORMANCE)
 345:Generated_Source\PSoC6/CapSense_Filter.c ****                     #endif /* (CapSense_REGULAR_SENSOR_EN) */
 346:Generated_Source\PSoC6/CapSense_Filter.c ****                 }
 347:Generated_Source\PSoC6/CapSense_Filter.c ****                 else
 348:Generated_Source\PSoC6/CapSense_Filter.c ****                 {
 349:Generated_Source\PSoC6/CapSense_Filter.c ****                     #if (CapSense_PROXIMITY_SENSOR_EN)
 350:Generated_Source\PSoC6/CapSense_Filter.c ****                         #if (CapSense_PROX_IIR_BL_TYPE == CapSense_IIR_FILTER_PERFORMANCE)
 351:Generated_Source\PSoC6/CapSense_Filter.c ****                             history = (uint32) ptrSensor->bsln[freqChannel] << 8u;
 352:Generated_Source\PSoC6/CapSense_Filter.c ****                             history |= ptrSensor->bslnExt[freqChannel];
 353:Generated_Source\PSoC6/CapSense_Filter.c ****                         #else
 354:Generated_Source\PSoC6/CapSense_Filter.c ****                             history = (uint32) ptrSensor->bsln[freqChannel];
 355:Generated_Source\PSoC6/CapSense_Filter.c ****                         #endif /* (CapSense_PROX_IIR_BL_TYPE == CapSense_IIR_FILTER_PERFORMANCE) */
 356:Generated_Source\PSoC6/CapSense_Filter.c **** 
 357:Generated_Source\PSoC6/CapSense_Filter.c ****                         #if (CapSense_ENABLE == CapSense_WD_BSLN_COEFF_EN)
 358:Generated_Source\PSoC6/CapSense_Filter.c ****                             baselineCoeff = ptrWidgetRam->bslnCoeff;
 359:Generated_Source\PSoC6/CapSense_Filter.c ****                         #else /* (CapSense_ENABLE == CapSense_WD_BSLN_COEFF_EN) */
 360:Generated_Source\PSoC6/CapSense_Filter.c ****                             baselineCoeff = CapSense_PROX_IIR_BL_N;
 361:Generated_Source\PSoC6/CapSense_Filter.c ****                         #endif /* (CapSense_ENABLE == CapSense_WD_BSLN_COEFF_EN) */
 362:Generated_Source\PSoC6/CapSense_Filter.c **** 
 363:Generated_Source\PSoC6/CapSense_Filter.c ****                         history = CapSense_FtIIR1stOrder(
 364:Generated_Source\PSoC6/CapSense_Filter.c ****                                         (uint32)ptrSensor->raw[freqChannel],
 365:Generated_Source\PSoC6/CapSense_Filter.c ****                                         history, baselineCoeff,
 366:Generated_Source\PSoC6/CapSense_Filter.c ****                                         CapSense_PROX_IIR_BL_SHIFT);
 367:Generated_Source\PSoC6/CapSense_Filter.c **** 
 368:Generated_Source\PSoC6/CapSense_Filter.c ****                         #if (CapSense_PROX_IIR_BL_TYPE == CapSense_IIR_FILTER_PERFORMANCE)
 369:Generated_Source\PSoC6/CapSense_Filter.c ****                                     ptrSensor->bsln[freqChannel] = CY_LO16(history >> 8u);
 370:Generated_Source\PSoC6/CapSense_Filter.c ****                                     ptrSensor->bslnExt[freqChannel] = CY_LO8(history);
 371:Generated_Source\PSoC6/CapSense_Filter.c ****                         #else
 372:Generated_Source\PSoC6/CapSense_Filter.c ****                                     ptrSensor->bsln[freqChannel] = CY_LO16(history);
ARM GAS  C:\Users\PC\AppData\Local\Temp\ccyhv7od.s 			page 8


 373:Generated_Source\PSoC6/CapSense_Filter.c ****                         #endif /* (CapSense_PROX_IIR_BL_TYPE == CapSense_IIR_FILTER_PERFORMANCE) */
 374:Generated_Source\PSoC6/CapSense_Filter.c ****                     #endif /* (CapSense_PROX_SENSOR_EN) */
 375:Generated_Source\PSoC6/CapSense_Filter.c ****                 }
 376:Generated_Source\PSoC6/CapSense_Filter.c ****             #else /* (CapSense_CSD_BASELINE_TYPE == CapSense_IIR_BASELINE) */
 377:Generated_Source\PSoC6/CapSense_Filter.c **** 
 378:Generated_Source\PSoC6/CapSense_Filter.c ****                 /******************************************************************
 379:Generated_Source\PSoC6/CapSense_Filter.c ****                 * This is the place where the bucket algorithm should be implemented.
 380:Generated_Source\PSoC6/CapSense_Filter.c ****                 * The bucket method will be implemented in future Component version.
 381:Generated_Source\PSoC6/CapSense_Filter.c ****                 *******************************************************************/
 382:Generated_Source\PSoC6/CapSense_Filter.c **** 
 383:Generated_Source\PSoC6/CapSense_Filter.c ****             #endif /* (CapSense_CSD_BASELINE_TYPE == CapSense_IIR_BASELINE) */
 384:Generated_Source\PSoC6/CapSense_Filter.c **** 
 385:Generated_Source\PSoC6/CapSense_Filter.c ****             #if (!CapSense_SENSOR_AUTO_RESET_EN)
 386:Generated_Source\PSoC6/CapSense_Filter.c ****                 }
 387:Generated_Source\PSoC6/CapSense_Filter.c ****             #endif /* (!CapSense_SENSOR_AUTO_RESET_EN) */
 388:Generated_Source\PSoC6/CapSense_Filter.c ****         }
 389:Generated_Source\PSoC6/CapSense_Filter.c **** 
 390:Generated_Source\PSoC6/CapSense_Filter.c ****         #if (CapSense_ENABLE == CapSense_TST_BSLN_DUPLICATION_EN)
 391:Generated_Source\PSoC6/CapSense_Filter.c ****             /* Update baseline inversion of every channel in sensor */
 392:Generated_Source\PSoC6/CapSense_Filter.c ****             ptrSensor->bslnInv[freqChannel] = ~(ptrSensor->bsln[freqChannel]);
 393:Generated_Source\PSoC6/CapSense_Filter.c ****             }
 394:Generated_Source\PSoC6/CapSense_Filter.c ****         #endif /* (CapSense_ENABLE == CapSense_TST_BSLN_DUPLICATION_EN) */
 395:Generated_Source\PSoC6/CapSense_Filter.c **** 
 396:Generated_Source\PSoC6/CapSense_Filter.c ****     }
 397:Generated_Source\PSoC6/CapSense_Filter.c ****     return result;
 398:Generated_Source\PSoC6/CapSense_Filter.c **** }
 399:Generated_Source\PSoC6/CapSense_Filter.c **** 
 400:Generated_Source\PSoC6/CapSense_Filter.c **** 
 401:Generated_Source\PSoC6/CapSense_Filter.c **** /*******************************************************************************
 402:Generated_Source\PSoC6/CapSense_Filter.c **** * Function Name: CapSense_InitializeAllBaselines
 403:Generated_Source\PSoC6/CapSense_Filter.c **** ****************************************************************************//**
 404:Generated_Source\PSoC6/CapSense_Filter.c **** *
 405:Generated_Source\PSoC6/CapSense_Filter.c **** * \brief
 406:Generated_Source\PSoC6/CapSense_Filter.c **** *  Initializes (or re-initializes) the baselines of all the sensors of all the widgets.
 407:Generated_Source\PSoC6/CapSense_Filter.c **** *
 408:Generated_Source\PSoC6/CapSense_Filter.c **** * \details
 409:Generated_Source\PSoC6/CapSense_Filter.c **** *  Initializes the baseline for all the sensors of all the widgets. Also, this function
 410:Generated_Source\PSoC6/CapSense_Filter.c **** *  can be used to re-initialize baselines. CapSense_Start() calls this
 411:Generated_Source\PSoC6/CapSense_Filter.c **** *  API as part of CapSense operation initialization.
 412:Generated_Source\PSoC6/CapSense_Filter.c **** *  
 413:Generated_Source\PSoC6/CapSense_Filter.c **** *  If any raw count filter is enabled, make sure the raw count filter history is 
 414:Generated_Source\PSoC6/CapSense_Filter.c **** *  initialized as well using one of these functions:
 415:Generated_Source\PSoC6/CapSense_Filter.c **** *  - CapSense_InitializeAllFilters().
 416:Generated_Source\PSoC6/CapSense_Filter.c **** *  - CapSense_InitializeWidgetFilter().
 417:Generated_Source\PSoC6/CapSense_Filter.c **** *
 418:Generated_Source\PSoC6/CapSense_Filter.c **** *******************************************************************************/
 419:Generated_Source\PSoC6/CapSense_Filter.c **** void CapSense_InitializeAllBaselines(void)
 420:Generated_Source\PSoC6/CapSense_Filter.c **** {
 421:Generated_Source\PSoC6/CapSense_Filter.c ****     uint32 widgetId;
 422:Generated_Source\PSoC6/CapSense_Filter.c **** 
 423:Generated_Source\PSoC6/CapSense_Filter.c ****     for(widgetId = CapSense_TOTAL_WIDGETS; widgetId-- > 0u;)
 424:Generated_Source\PSoC6/CapSense_Filter.c ****     {
 425:Generated_Source\PSoC6/CapSense_Filter.c ****         CapSense_InitializeWidgetBaseline(widgetId);
 426:Generated_Source\PSoC6/CapSense_Filter.c ****     }
 427:Generated_Source\PSoC6/CapSense_Filter.c **** }
 428:Generated_Source\PSoC6/CapSense_Filter.c **** 
 429:Generated_Source\PSoC6/CapSense_Filter.c **** 
ARM GAS  C:\Users\PC\AppData\Local\Temp\ccyhv7od.s 			page 9


 430:Generated_Source\PSoC6/CapSense_Filter.c **** /*******************************************************************************
 431:Generated_Source\PSoC6/CapSense_Filter.c **** * Function Name: CapSense_InitializeWidgetBaseline
 432:Generated_Source\PSoC6/CapSense_Filter.c **** ****************************************************************************//**
 433:Generated_Source\PSoC6/CapSense_Filter.c **** *
 434:Generated_Source\PSoC6/CapSense_Filter.c **** * \brief
 435:Generated_Source\PSoC6/CapSense_Filter.c **** *  Initializes (or re-initializes) the baselines of all the sensors in a widget
 436:Generated_Source\PSoC6/CapSense_Filter.c **** *  specified by the input parameter.
 437:Generated_Source\PSoC6/CapSense_Filter.c **** *
 438:Generated_Source\PSoC6/CapSense_Filter.c **** * \details
 439:Generated_Source\PSoC6/CapSense_Filter.c **** *  Initializes (or re-initializes) the baseline for all the sensors of the
 440:Generated_Source\PSoC6/CapSense_Filter.c **** *  specified widget.
 441:Generated_Source\PSoC6/CapSense_Filter.c **** *  
 442:Generated_Source\PSoC6/CapSense_Filter.c **** *  If any raw count filter is enabled, make sure the raw count filter history is 
 443:Generated_Source\PSoC6/CapSense_Filter.c **** *  initialized as well using one of these functions:
 444:Generated_Source\PSoC6/CapSense_Filter.c **** *  - CapSense_InitializeAllFilters().
 445:Generated_Source\PSoC6/CapSense_Filter.c **** *  - CapSense_InitializeWidgetFilter().
 446:Generated_Source\PSoC6/CapSense_Filter.c **** *
 447:Generated_Source\PSoC6/CapSense_Filter.c **** * \param  widgetId
 448:Generated_Source\PSoC6/CapSense_Filter.c **** *  Specifies the ID number of a widget to initialize the baseline of all the sensors
 449:Generated_Source\PSoC6/CapSense_Filter.c **** *  in the widget.
 450:Generated_Source\PSoC6/CapSense_Filter.c **** *  A macro for the widget ID can be found in the
 451:Generated_Source\PSoC6/CapSense_Filter.c **** *  CapSense Configuration header file defined as
 452:Generated_Source\PSoC6/CapSense_Filter.c **** *  CapSense_<WidgetName>_WDGT_ID.
 453:Generated_Source\PSoC6/CapSense_Filter.c **** *
 454:Generated_Source\PSoC6/CapSense_Filter.c **** *******************************************************************************/
 455:Generated_Source\PSoC6/CapSense_Filter.c **** void CapSense_InitializeWidgetBaseline(uint32 widgetId)
 456:Generated_Source\PSoC6/CapSense_Filter.c **** {
 457:Generated_Source\PSoC6/CapSense_Filter.c ****     uint32 sensorId;
 458:Generated_Source\PSoC6/CapSense_Filter.c ****     uint32 sensorsNumber;
 459:Generated_Source\PSoC6/CapSense_Filter.c **** 
 460:Generated_Source\PSoC6/CapSense_Filter.c ****     CapSense_FLASH_WD_STRUCT const *ptrWidget = &CapSense_dsFlash.wdgtArray[widgetId];
 461:Generated_Source\PSoC6/CapSense_Filter.c **** 
 462:Generated_Source\PSoC6/CapSense_Filter.c ****     /* Find total amount of sensors in specified widget */
 463:Generated_Source\PSoC6/CapSense_Filter.c ****     sensorsNumber = CapSense_GET_SNS_CNT_BY_PTR(ptrWidget);
 464:Generated_Source\PSoC6/CapSense_Filter.c **** 
 465:Generated_Source\PSoC6/CapSense_Filter.c ****     for(sensorId = sensorsNumber; sensorId-- > 0u;)
 466:Generated_Source\PSoC6/CapSense_Filter.c ****     {
 467:Generated_Source\PSoC6/CapSense_Filter.c ****         CapSense_InitializeSensorBaseline(widgetId, sensorId);
 468:Generated_Source\PSoC6/CapSense_Filter.c ****     }
 469:Generated_Source\PSoC6/CapSense_Filter.c **** }
 470:Generated_Source\PSoC6/CapSense_Filter.c **** 
 471:Generated_Source\PSoC6/CapSense_Filter.c **** 
 472:Generated_Source\PSoC6/CapSense_Filter.c **** /*******************************************************************************
 473:Generated_Source\PSoC6/CapSense_Filter.c **** * Function Name: CapSense_InitializeSensorBaseline
 474:Generated_Source\PSoC6/CapSense_Filter.c **** ****************************************************************************//**
 475:Generated_Source\PSoC6/CapSense_Filter.c **** *
 476:Generated_Source\PSoC6/CapSense_Filter.c **** * \brief
 477:Generated_Source\PSoC6/CapSense_Filter.c **** *  Initializes (or re-initializes) the baseline of a sensor in a widget specified
 478:Generated_Source\PSoC6/CapSense_Filter.c **** *  by the input parameters.
 479:Generated_Source\PSoC6/CapSense_Filter.c **** *
 480:Generated_Source\PSoC6/CapSense_Filter.c **** * \details
 481:Generated_Source\PSoC6/CapSense_Filter.c **** *  Initializes (or re-initializes) the baseline for a specified sensor within
 482:Generated_Source\PSoC6/CapSense_Filter.c **** *  a specified widget.
 483:Generated_Source\PSoC6/CapSense_Filter.c **** *
 484:Generated_Source\PSoC6/CapSense_Filter.c **** * \param    widgetId
 485:Generated_Source\PSoC6/CapSense_Filter.c **** *  Specifies the ID number of a widget to initialize the baseline of the sensor
 486:Generated_Source\PSoC6/CapSense_Filter.c **** *  in the widget.
ARM GAS  C:\Users\PC\AppData\Local\Temp\ccyhv7od.s 			page 10


 487:Generated_Source\PSoC6/CapSense_Filter.c **** *  A macro for the widget ID can be found in the
 488:Generated_Source\PSoC6/CapSense_Filter.c **** *  CapSense Configuration header file defined as
 489:Generated_Source\PSoC6/CapSense_Filter.c **** *  CapSense_<WidgetName>_WDGT_ID.
 490:Generated_Source\PSoC6/CapSense_Filter.c **** *
 491:Generated_Source\PSoC6/CapSense_Filter.c **** * \param    sensorId
 492:Generated_Source\PSoC6/CapSense_Filter.c **** *  Specifies the ID number of the sensor within the widget to initialize its
 493:Generated_Source\PSoC6/CapSense_Filter.c **** *  baseline.
 494:Generated_Source\PSoC6/CapSense_Filter.c **** *  A macro for the sensor ID within a specified widget can be found in the
 495:Generated_Source\PSoC6/CapSense_Filter.c **** *  CapSense Configuration header file defined as
 496:Generated_Source\PSoC6/CapSense_Filter.c **** *  CapSense_<WidgetName>_SNS<SensorNumber>_ID.
 497:Generated_Source\PSoC6/CapSense_Filter.c **** *
 498:Generated_Source\PSoC6/CapSense_Filter.c **** *******************************************************************************/
 499:Generated_Source\PSoC6/CapSense_Filter.c **** void CapSense_InitializeSensorBaseline(uint32 widgetId, uint32 sensorId)
 500:Generated_Source\PSoC6/CapSense_Filter.c **** {
 501:Generated_Source\PSoC6/CapSense_Filter.c ****     CapSense_RAM_SNS_STRUCT *ptrSensor = NULL;
 502:Generated_Source\PSoC6/CapSense_Filter.c ****     CapSense_FLASH_WD_STRUCT const *ptrWidget = NULL;
 503:Generated_Source\PSoC6/CapSense_Filter.c ****     ptrWidget = &CapSense_dsFlash.wdgtArray[widgetId];
 504:Generated_Source\PSoC6/CapSense_Filter.c **** 
 505:Generated_Source\PSoC6/CapSense_Filter.c ****     /* Find pointer to specified sensor object */
 506:Generated_Source\PSoC6/CapSense_Filter.c ****     ptrSensor = ptrWidget->ptr2SnsRam;
 507:Generated_Source\PSoC6/CapSense_Filter.c ****     ptrSensor = &ptrSensor[sensorId];
 508:Generated_Source\PSoC6/CapSense_Filter.c **** 
 509:Generated_Source\PSoC6/CapSense_Filter.c ****     CapSense_FtInitializeBaseline(ptrSensor, (uint32)ptrWidget->wdgtType);
 510:Generated_Source\PSoC6/CapSense_Filter.c **** }
 511:Generated_Source\PSoC6/CapSense_Filter.c **** 
 512:Generated_Source\PSoC6/CapSense_Filter.c **** 
 513:Generated_Source\PSoC6/CapSense_Filter.c **** /*******************************************************************************
 514:Generated_Source\PSoC6/CapSense_Filter.c **** * Function Name: CapSense_FtInitializeBaseline
 515:Generated_Source\PSoC6/CapSense_Filter.c **** ****************************************************************************//**
 516:Generated_Source\PSoC6/CapSense_Filter.c **** *
 517:Generated_Source\PSoC6/CapSense_Filter.c **** * \brief    Initializes the baseline history for a sensor indicated by an input
 518:Generated_Source\PSoC6/CapSense_Filter.c **** *           parameter.
 519:Generated_Source\PSoC6/CapSense_Filter.c **** *
 520:Generated_Source\PSoC6/CapSense_Filter.c **** * \details  Initializes the baseline history for a sensor indicated by an input
 521:Generated_Source\PSoC6/CapSense_Filter.c **** *           parameter.
 522:Generated_Source\PSoC6/CapSense_Filter.c **** *
 523:Generated_Source\PSoC6/CapSense_Filter.c **** * \param    *ptrSensor The pointer to the sensor RAM object.
 524:Generated_Source\PSoC6/CapSense_Filter.c **** * \param    wdType     Specifies the type of a widget.
 525:Generated_Source\PSoC6/CapSense_Filter.c **** *
 526:Generated_Source\PSoC6/CapSense_Filter.c **** *******************************************************************************/
 527:Generated_Source\PSoC6/CapSense_Filter.c **** void CapSense_FtInitializeBaseline(CapSense_RAM_SNS_STRUCT *ptrSensor, uint32 wdType)
 528:Generated_Source\PSoC6/CapSense_Filter.c **** {
 529:Generated_Source\PSoC6/CapSense_Filter.c ****     uint32 freqChannel;
 530:Generated_Source\PSoC6/CapSense_Filter.c **** 
 531:Generated_Source\PSoC6/CapSense_Filter.c ****     /* Apply baseline initialization to every channel in sensor */
 532:Generated_Source\PSoC6/CapSense_Filter.c ****     for(freqChannel = CapSense_NUM_SCAN_FREQS; freqChannel-- > 0u;)
 533:Generated_Source\PSoC6/CapSense_Filter.c ****     {
 534:Generated_Source\PSoC6/CapSense_Filter.c ****         CapSense_FtInitializeBaselineChannel(ptrSensor, wdType, freqChannel);
 535:Generated_Source\PSoC6/CapSense_Filter.c ****     }
 536:Generated_Source\PSoC6/CapSense_Filter.c **** }
 537:Generated_Source\PSoC6/CapSense_Filter.c **** 
 538:Generated_Source\PSoC6/CapSense_Filter.c **** 
 539:Generated_Source\PSoC6/CapSense_Filter.c **** /*******************************************************************************
 540:Generated_Source\PSoC6/CapSense_Filter.c **** * Function Name: CapSense_FtInitializeBaselineChannel
 541:Generated_Source\PSoC6/CapSense_Filter.c **** ****************************************************************************//**
 542:Generated_Source\PSoC6/CapSense_Filter.c **** *
 543:Generated_Source\PSoC6/CapSense_Filter.c **** * \brief    Initializes the baseline history for a sensor indicated by an input
ARM GAS  C:\Users\PC\AppData\Local\Temp\ccyhv7od.s 			page 11


 544:Generated_Source\PSoC6/CapSense_Filter.c **** *           parameter.
 545:Generated_Source\PSoC6/CapSense_Filter.c **** *
 546:Generated_Source\PSoC6/CapSense_Filter.c **** * \details  Initializes the baseline history for a sensor indicated by an input
 547:Generated_Source\PSoC6/CapSense_Filter.c **** *           parameter.
 548:Generated_Source\PSoC6/CapSense_Filter.c **** *
 549:Generated_Source\PSoC6/CapSense_Filter.c **** * \param    *ptrSensor The pointer to the sensor RAM object.
 550:Generated_Source\PSoC6/CapSense_Filter.c **** * \param    wdType     Specifies the type of a widget.
 551:Generated_Source\PSoC6/CapSense_Filter.c **** * \param    channel    Specifies the number of the channel to be initialized.
 552:Generated_Source\PSoC6/CapSense_Filter.c **** *
 553:Generated_Source\PSoC6/CapSense_Filter.c **** *******************************************************************************/
 554:Generated_Source\PSoC6/CapSense_Filter.c **** void CapSense_FtInitializeBaselineChannel(CapSense_RAM_SNS_STRUCT *ptrSensor, uint32 wdType, uint32
 555:Generated_Source\PSoC6/CapSense_Filter.c **** {
  28              		.loc 1 555 0
  29              		.cfi_startproc
  30              		@ args = 0, pretend = 0, frame = 0
  31              		@ frame_needed = 0, uses_anonymous_args = 0
  32              		@ link register save eliminated.
  33              	.LVL0:
 556:Generated_Source\PSoC6/CapSense_Filter.c ****     #if (CapSense_BASELINE_TYPE == CapSense_IIR_BASELINE)
 557:Generated_Source\PSoC6/CapSense_Filter.c ****         if ((CapSense_WD_TYPE_ENUM)wdType != CapSense_WD_PROXIMITY_E)
  34              		.loc 1 557 0
  35 0000 FF23     		movs	r3, #255
  36 0002 1940     		ands	r1, r3
  37              	.LVL1:
  38 0004 0629     		cmp	r1, #6
  39 0006 02D0     		beq	.L2
 558:Generated_Source\PSoC6/CapSense_Filter.c ****         {
 559:Generated_Source\PSoC6/CapSense_Filter.c ****             #if (CapSense_REGULAR_SENSOR_EN)
 560:Generated_Source\PSoC6/CapSense_Filter.c ****                 #if (CapSense_REGULAR_IIR_BL_TYPE == CapSense_IIR_FILTER_PERFORMANCE)
 561:Generated_Source\PSoC6/CapSense_Filter.c ****                     ptrSensor->bslnExt[channel] = 0u;
  40              		.loc 1 561 0
  41 0008 8318     		adds	r3, r0, r2
  42 000a 0021     		movs	r1, #0
  43 000c 1971     		strb	r1, [r3, #4]
  44              	.L2:
 562:Generated_Source\PSoC6/CapSense_Filter.c ****                 #endif /* (CapSense_REGULAR_IIR_BL_TYPE == CapSense_IIR_FILTER_PERFORMANCE) */
 563:Generated_Source\PSoC6/CapSense_Filter.c ****             #endif /* (CapSense_REGULAR_SENSOR_EN) */
 564:Generated_Source\PSoC6/CapSense_Filter.c ****         }
 565:Generated_Source\PSoC6/CapSense_Filter.c ****         else
 566:Generated_Source\PSoC6/CapSense_Filter.c ****         {
 567:Generated_Source\PSoC6/CapSense_Filter.c ****             #if (CapSense_PROXIMITY_SENSOR_EN)
 568:Generated_Source\PSoC6/CapSense_Filter.c ****                 #if (CapSense_PROX_IIR_BL_TYPE == CapSense_IIR_FILTER_PERFORMANCE)
 569:Generated_Source\PSoC6/CapSense_Filter.c ****                     ptrSensor->bslnExt[channel] = 0u;
 570:Generated_Source\PSoC6/CapSense_Filter.c ****                 #endif /* (CapSense_PROX_IIR_BL_TYPE == CapSense_IIR_FILTER_PERFORMANCE) */
 571:Generated_Source\PSoC6/CapSense_Filter.c ****             #endif /* (CapSense_PROX_SENSOR_EN) */
 572:Generated_Source\PSoC6/CapSense_Filter.c ****         }
 573:Generated_Source\PSoC6/CapSense_Filter.c ****     #else
 574:Generated_Source\PSoC6/CapSense_Filter.c ****         /* CapSense_BASELINE_TYPE == CapSense_BUCKET_BASELINE */
 575:Generated_Source\PSoC6/CapSense_Filter.c ****         ptrSensor->bslnExt[channel] = 0u;
 576:Generated_Source\PSoC6/CapSense_Filter.c ****     #endif /* (CapSense_BASELINE_TYPE == CapSense_IIR_BASELINE) */
 577:Generated_Source\PSoC6/CapSense_Filter.c **** 
 578:Generated_Source\PSoC6/CapSense_Filter.c ****     ptrSensor->bsln[channel] = ptrSensor->raw[channel];
  45              		.loc 1 578 0
  46 000e 5300     		lsls	r3, r2, #1
  47 0010 195A     		ldrh	r1, [r3, r0]
  48 0012 C318     		adds	r3, r0, r3
  49 0014 5980     		strh	r1, [r3, #2]
ARM GAS  C:\Users\PC\AppData\Local\Temp\ccyhv7od.s 			page 12


 579:Generated_Source\PSoC6/CapSense_Filter.c **** 
 580:Generated_Source\PSoC6/CapSense_Filter.c ****     #if (CapSense_ENABLE == CapSense_TST_BSLN_DUPLICATION_EN)
 581:Generated_Source\PSoC6/CapSense_Filter.c ****     /* Update baseline inversion of the channel in sensor */
 582:Generated_Source\PSoC6/CapSense_Filter.c ****         ptrSensor->bslnInv[channel] = ~(ptrSensor->bsln[channel]);
 583:Generated_Source\PSoC6/CapSense_Filter.c ****     #endif /* (CapSense_ENABLE == CapSense_TST_BSLN_DUPLICATION_EN) */
 584:Generated_Source\PSoC6/CapSense_Filter.c **** 
 585:Generated_Source\PSoC6/CapSense_Filter.c ****     ptrSensor->negBslnRstCnt[channel] = 0u;
  50              		.loc 1 585 0
  51 0016 8218     		adds	r2, r0, r2
  52              	.LVL2:
  53 0018 0023     		movs	r3, #0
  54 001a 1372     		strb	r3, [r2, #8]
 586:Generated_Source\PSoC6/CapSense_Filter.c **** }
  55              		.loc 1 586 0
  56              		@ sp needed
  57 001c 7047     		bx	lr
  58              		.cfi_endproc
  59              	.LFE54:
  60              		.size	CapSense_FtInitializeBaselineChannel, .-CapSense_FtInitializeBaselineChannel
  61 001e C046     		.section	.text.CapSense_FtInitializeBaseline,"ax",%progbits
  62              		.align	2
  63              		.global	CapSense_FtInitializeBaseline
  64              		.code	16
  65              		.thumb_func
  66              		.type	CapSense_FtInitializeBaseline, %function
  67              	CapSense_FtInitializeBaseline:
  68              	.LFB53:
 528:Generated_Source\PSoC6/CapSense_Filter.c ****     uint32 freqChannel;
  69              		.loc 1 528 0
  70              		.cfi_startproc
  71              		@ args = 0, pretend = 0, frame = 0
  72              		@ frame_needed = 0, uses_anonymous_args = 0
  73              	.LVL3:
  74 0000 70B5     		push	{r4, r5, r6, lr}
  75              		.cfi_def_cfa_offset 16
  76              		.cfi_offset 4, -16
  77              		.cfi_offset 5, -12
  78              		.cfi_offset 6, -8
  79              		.cfi_offset 14, -4
  80 0002 0600     		movs	r6, r0
  81 0004 0D00     		movs	r5, r1
  82              	.LVL4:
 532:Generated_Source\PSoC6/CapSense_Filter.c ****     {
  83              		.loc 1 532 0
  84 0006 0123     		movs	r3, #1
  85 0008 05E0     		b	.L4
  86              	.LVL5:
  87              	.L5:
 534:Generated_Source\PSoC6/CapSense_Filter.c ****     }
  88              		.loc 1 534 0
  89 000a 2200     		movs	r2, r4
  90 000c 2900     		movs	r1, r5
  91 000e 3000     		movs	r0, r6
  92 0010 FFF7FEFF 		bl	CapSense_FtInitializeBaselineChannel
  93              	.LVL6:
 532:Generated_Source\PSoC6/CapSense_Filter.c ****     {
  94              		.loc 1 532 0
ARM GAS  C:\Users\PC\AppData\Local\Temp\ccyhv7od.s 			page 13


  95 0014 2300     		movs	r3, r4
  96              	.LVL7:
  97              	.L4:
 532:Generated_Source\PSoC6/CapSense_Filter.c ****     {
  98              		.loc 1 532 0 is_stmt 0 discriminator 1
  99 0016 5C1E     		subs	r4, r3, #1
 100              	.LVL8:
 101 0018 002B     		cmp	r3, #0
 102 001a F6D1     		bne	.L5
 536:Generated_Source\PSoC6/CapSense_Filter.c **** 
 103              		.loc 1 536 0 is_stmt 1
 104              		@ sp needed
 105              	.LVL9:
 106              	.LVL10:
 107              	.LVL11:
 108 001c 70BD     		pop	{r4, r5, r6, pc}
 109              		.cfi_endproc
 110              	.LFE53:
 111              		.size	CapSense_FtInitializeBaseline, .-CapSense_FtInitializeBaseline
 112 001e C046     		.section	.text.CapSense_InitializeSensorBaseline,"ax",%progbits
 113              		.align	2
 114              		.global	CapSense_InitializeSensorBaseline
 115              		.code	16
 116              		.thumb_func
 117              		.type	CapSense_InitializeSensorBaseline, %function
 118              	CapSense_InitializeSensorBaseline:
 119              	.LFB52:
 500:Generated_Source\PSoC6/CapSense_Filter.c ****     CapSense_RAM_SNS_STRUCT *ptrSensor = NULL;
 120              		.loc 1 500 0
 121              		.cfi_startproc
 122              		@ args = 0, pretend = 0, frame = 0
 123              		@ frame_needed = 0, uses_anonymous_args = 0
 124              	.LVL12:
 125 0000 10B5     		push	{r4, lr}
 126              		.cfi_def_cfa_offset 8
 127              		.cfi_offset 4, -8
 128              		.cfi_offset 14, -4
 129              	.LVL13:
 506:Generated_Source\PSoC6/CapSense_Filter.c ****     ptrSensor = &ptrSensor[sensorId];
 130              		.loc 1 506 0
 131 0002 2C23     		movs	r3, #44
 132 0004 5843     		muls	r0, r3
 133              	.LVL14:
 134 0006 064B     		ldr	r3, .L7
 135 0008 1B18     		adds	r3, r3, r0
 136              	.LVL15:
 507:Generated_Source\PSoC6/CapSense_Filter.c **** 
 137              		.loc 1 507 0
 138 000a 8A00     		lsls	r2, r1, #2
 139 000c 5118     		adds	r1, r2, r1
 140              	.LVL16:
 141 000e 4800     		lsls	r0, r1, #1
 142 0010 9A68     		ldr	r2, [r3, #8]
 143 0012 9446     		mov	ip, r2
 144 0014 6044     		add	r0, r0, ip
 145              	.LVL17:
 509:Generated_Source\PSoC6/CapSense_Filter.c **** }
ARM GAS  C:\Users\PC\AppData\Local\Temp\ccyhv7od.s 			page 14


 146              		.loc 1 509 0
 147 0016 997E     		ldrb	r1, [r3, #26]
 148 0018 FFF7FEFF 		bl	CapSense_FtInitializeBaseline
 149              	.LVL18:
 510:Generated_Source\PSoC6/CapSense_Filter.c **** 
 150              		.loc 1 510 0
 151              		@ sp needed
 152 001c 10BD     		pop	{r4, pc}
 153              	.L8:
 154 001e C046     		.align	2
 155              	.L7:
 156 0020 00000000 		.word	CapSense_dsFlash
 157              		.cfi_endproc
 158              	.LFE52:
 159              		.size	CapSense_InitializeSensorBaseline, .-CapSense_InitializeSensorBaseline
 160              		.section	.text.CapSense_InitializeWidgetBaseline,"ax",%progbits
 161              		.align	2
 162              		.global	CapSense_InitializeWidgetBaseline
 163              		.code	16
 164              		.thumb_func
 165              		.type	CapSense_InitializeWidgetBaseline, %function
 166              	CapSense_InitializeWidgetBaseline:
 167              	.LFB51:
 456:Generated_Source\PSoC6/CapSense_Filter.c ****     uint32 sensorId;
 168              		.loc 1 456 0
 169              		.cfi_startproc
 170              		@ args = 0, pretend = 0, frame = 0
 171              		@ frame_needed = 0, uses_anonymous_args = 0
 172              	.LVL19:
 173 0000 70B5     		push	{r4, r5, r6, lr}
 174              		.cfi_def_cfa_offset 16
 175              		.cfi_offset 4, -16
 176              		.cfi_offset 5, -12
 177              		.cfi_offset 6, -8
 178              		.cfi_offset 14, -4
 179 0002 0500     		movs	r5, r0
 180              	.LVL20:
 463:Generated_Source\PSoC6/CapSense_Filter.c **** 
 181              		.loc 1 463 0
 182 0004 2C23     		movs	r3, #44
 183 0006 4343     		muls	r3, r0
 184 0008 064A     		ldr	r2, .L12
 185 000a D318     		adds	r3, r2, r3
 186              	.LVL21:
 187 000c 1B8B     		ldrh	r3, [r3, #24]
 188              	.LVL22:
 465:Generated_Source\PSoC6/CapSense_Filter.c ****     {
 189              		.loc 1 465 0
 190 000e 04E0     		b	.L10
 191              	.LVL23:
 192              	.L11:
 467:Generated_Source\PSoC6/CapSense_Filter.c ****     }
 193              		.loc 1 467 0
 194 0010 2100     		movs	r1, r4
 195 0012 2800     		movs	r0, r5
 196 0014 FFF7FEFF 		bl	CapSense_InitializeSensorBaseline
 197              	.LVL24:
ARM GAS  C:\Users\PC\AppData\Local\Temp\ccyhv7od.s 			page 15


 465:Generated_Source\PSoC6/CapSense_Filter.c ****     {
 198              		.loc 1 465 0
 199 0018 2300     		movs	r3, r4
 200              	.LVL25:
 201              	.L10:
 465:Generated_Source\PSoC6/CapSense_Filter.c ****     {
 202              		.loc 1 465 0 is_stmt 0 discriminator 1
 203 001a 5C1E     		subs	r4, r3, #1
 204              	.LVL26:
 205 001c 002B     		cmp	r3, #0
 206 001e F7D1     		bne	.L11
 469:Generated_Source\PSoC6/CapSense_Filter.c **** 
 207              		.loc 1 469 0 is_stmt 1
 208              		@ sp needed
 209              	.LVL27:
 210              	.LVL28:
 211 0020 70BD     		pop	{r4, r5, r6, pc}
 212              	.L13:
 213 0022 C046     		.align	2
 214              	.L12:
 215 0024 00000000 		.word	CapSense_dsFlash
 216              		.cfi_endproc
 217              	.LFE51:
 218              		.size	CapSense_InitializeWidgetBaseline, .-CapSense_InitializeWidgetBaseline
 219              		.section	.text.CapSense_InitializeAllBaselines,"ax",%progbits
 220              		.align	2
 221              		.global	CapSense_InitializeAllBaselines
 222              		.code	16
 223              		.thumb_func
 224              		.type	CapSense_InitializeAllBaselines, %function
 225              	CapSense_InitializeAllBaselines:
 226              	.LFB50:
 420:Generated_Source\PSoC6/CapSense_Filter.c ****     uint32 widgetId;
 227              		.loc 1 420 0
 228              		.cfi_startproc
 229              		@ args = 0, pretend = 0, frame = 0
 230              		@ frame_needed = 0, uses_anonymous_args = 0
 231 0000 10B5     		push	{r4, lr}
 232              		.cfi_def_cfa_offset 8
 233              		.cfi_offset 4, -8
 234              		.cfi_offset 14, -4
 235              	.LVL29:
 423:Generated_Source\PSoC6/CapSense_Filter.c ****     {
 236              		.loc 1 423 0
 237 0002 0323     		movs	r3, #3
 238 0004 03E0     		b	.L15
 239              	.LVL30:
 240              	.L16:
 425:Generated_Source\PSoC6/CapSense_Filter.c ****     }
 241              		.loc 1 425 0
 242 0006 2000     		movs	r0, r4
 243 0008 FFF7FEFF 		bl	CapSense_InitializeWidgetBaseline
 244              	.LVL31:
 423:Generated_Source\PSoC6/CapSense_Filter.c ****     {
 245              		.loc 1 423 0
 246 000c 2300     		movs	r3, r4
 247              	.LVL32:
ARM GAS  C:\Users\PC\AppData\Local\Temp\ccyhv7od.s 			page 16


 248              	.L15:
 423:Generated_Source\PSoC6/CapSense_Filter.c ****     {
 249              		.loc 1 423 0 is_stmt 0 discriminator 1
 250 000e 5C1E     		subs	r4, r3, #1
 251              	.LVL33:
 252 0010 002B     		cmp	r3, #0
 253 0012 F8D1     		bne	.L16
 427:Generated_Source\PSoC6/CapSense_Filter.c **** 
 254              		.loc 1 427 0 is_stmt 1
 255              		@ sp needed
 256              	.LVL34:
 257 0014 10BD     		pop	{r4, pc}
 258              		.cfi_endproc
 259              	.LFE50:
 260              		.size	CapSense_InitializeAllBaselines, .-CapSense_InitializeAllBaselines
 261 0016 C046     		.section	.text.CapSense_InitializeMedianInternal,"ax",%progbits
 262              		.align	2
 263              		.global	CapSense_InitializeMedianInternal
 264              		.code	16
 265              		.thumb_func
 266              		.type	CapSense_InitializeMedianInternal, %function
 267              	CapSense_InitializeMedianInternal:
 268              	.LFB59:
 587:Generated_Source\PSoC6/CapSense_Filter.c **** 
 588:Generated_Source\PSoC6/CapSense_Filter.c **** #if ((CapSense_ENABLE == CapSense_RC_FILTER_EN) || \
 589:Generated_Source\PSoC6/CapSense_Filter.c ****      (0u != (CapSense_CSD_AUTOTUNE & CapSense_CSD_SS_TH_EN)))
 590:Generated_Source\PSoC6/CapSense_Filter.c **** /*******************************************************************************
 591:Generated_Source\PSoC6/CapSense_Filter.c **** * Function Name: CapSense_InitializeAllFilters
 592:Generated_Source\PSoC6/CapSense_Filter.c **** ****************************************************************************//**
 593:Generated_Source\PSoC6/CapSense_Filter.c **** *
 594:Generated_Source\PSoC6/CapSense_Filter.c **** * \brief
 595:Generated_Source\PSoC6/CapSense_Filter.c **** *  Initializes (or re-initializes) the raw count filter history of all the 
 596:Generated_Source\PSoC6/CapSense_Filter.c **** *  sensors of all the widgets.
 597:Generated_Source\PSoC6/CapSense_Filter.c **** *
 598:Generated_Source\PSoC6/CapSense_Filter.c **** * \details
 599:Generated_Source\PSoC6/CapSense_Filter.c **** *  Initializes the raw count filter history for all the sensors of all the 
 600:Generated_Source\PSoC6/CapSense_Filter.c **** *  widgets. Also, this function can be used to re-initialize baselines. 
 601:Generated_Source\PSoC6/CapSense_Filter.c **** *  CapSense_Start() calls this API as part of CapSense 
 602:Generated_Source\PSoC6/CapSense_Filter.c **** *  operation initialization.
 603:Generated_Source\PSoC6/CapSense_Filter.c **** *
 604:Generated_Source\PSoC6/CapSense_Filter.c **** *******************************************************************************/
 605:Generated_Source\PSoC6/CapSense_Filter.c **** void CapSense_InitializeAllFilters(void)
 606:Generated_Source\PSoC6/CapSense_Filter.c **** {
 607:Generated_Source\PSoC6/CapSense_Filter.c ****     uint32 widgetId;
 608:Generated_Source\PSoC6/CapSense_Filter.c **** 
 609:Generated_Source\PSoC6/CapSense_Filter.c ****     for(widgetId = CapSense_TOTAL_WIDGETS; widgetId-- > 0u;)
 610:Generated_Source\PSoC6/CapSense_Filter.c ****     {
 611:Generated_Source\PSoC6/CapSense_Filter.c ****         CapSense_InitializeWidgetFilter(widgetId);
 612:Generated_Source\PSoC6/CapSense_Filter.c ****     }
 613:Generated_Source\PSoC6/CapSense_Filter.c **** }
 614:Generated_Source\PSoC6/CapSense_Filter.c **** 
 615:Generated_Source\PSoC6/CapSense_Filter.c **** /*******************************************************************************
 616:Generated_Source\PSoC6/CapSense_Filter.c **** * Function Name: CapSense_InitializeWidgetFilter
 617:Generated_Source\PSoC6/CapSense_Filter.c **** ****************************************************************************//**
 618:Generated_Source\PSoC6/CapSense_Filter.c **** *
 619:Generated_Source\PSoC6/CapSense_Filter.c **** * \brief
 620:Generated_Source\PSoC6/CapSense_Filter.c **** *  Initializes (or re-initializes) the raw count filter history of all the sensors 
ARM GAS  C:\Users\PC\AppData\Local\Temp\ccyhv7od.s 			page 17


 621:Generated_Source\PSoC6/CapSense_Filter.c **** *  in a widget specified by the input parameter.
 622:Generated_Source\PSoC6/CapSense_Filter.c **** *
 623:Generated_Source\PSoC6/CapSense_Filter.c **** * \details
 624:Generated_Source\PSoC6/CapSense_Filter.c **** *  Initializes (or re-initializes) the raw count filter history of all the sensors 
 625:Generated_Source\PSoC6/CapSense_Filter.c **** *  in a widget specified by the input parameter.
 626:Generated_Source\PSoC6/CapSense_Filter.c **** *
 627:Generated_Source\PSoC6/CapSense_Filter.c **** * \param  widgetId
 628:Generated_Source\PSoC6/CapSense_Filter.c **** *  Specifies the ID number of a widget to initialize the filter history of all 
 629:Generated_Source\PSoC6/CapSense_Filter.c **** *  the sensors in the widget.
 630:Generated_Source\PSoC6/CapSense_Filter.c **** *  A macro for the widget ID can be found in the
 631:Generated_Source\PSoC6/CapSense_Filter.c **** *  CapSense Configuration header file defined as
 632:Generated_Source\PSoC6/CapSense_Filter.c **** *  CapSense_<WidgetName>_WDGT_ID.
 633:Generated_Source\PSoC6/CapSense_Filter.c **** *
 634:Generated_Source\PSoC6/CapSense_Filter.c **** *******************************************************************************/
 635:Generated_Source\PSoC6/CapSense_Filter.c **** void CapSense_InitializeWidgetFilter(uint32 widgetId)
 636:Generated_Source\PSoC6/CapSense_Filter.c **** {
 637:Generated_Source\PSoC6/CapSense_Filter.c ****     uint32 sensorId;
 638:Generated_Source\PSoC6/CapSense_Filter.c ****     uint32 sensorsNumber;
 639:Generated_Source\PSoC6/CapSense_Filter.c **** 
 640:Generated_Source\PSoC6/CapSense_Filter.c ****     CapSense_FLASH_WD_STRUCT const *ptrWidget;
 641:Generated_Source\PSoC6/CapSense_Filter.c ****     CapSense_RAM_SNS_STRUCT *ptrSensor = NULL;
 642:Generated_Source\PSoC6/CapSense_Filter.c ****     #if (CapSense_ENABLE == CapSense_RC_FILTER_EN)
 643:Generated_Source\PSoC6/CapSense_Filter.c ****         CapSense_PTR_FILTER_VARIANT ptrFilterHistObj;
 644:Generated_Source\PSoC6/CapSense_Filter.c ****     #endif
 645:Generated_Source\PSoC6/CapSense_Filter.c ****     
 646:Generated_Source\PSoC6/CapSense_Filter.c ****     #if (0u != (CapSense_CSD_AUTOTUNE & CapSense_CSD_SS_TH_EN))
 647:Generated_Source\PSoC6/CapSense_Filter.c ****         CapSense_RAM_WD_BASE_STRUCT *ptrWidgetRam;
 648:Generated_Source\PSoC6/CapSense_Filter.c ****         SMARTSENSE_CSD_NOISE_ENVELOPE_STRUCT *ptrNoiseEnvelope = NULL;
 649:Generated_Source\PSoC6/CapSense_Filter.c ****     #endif /* (0u != (CapSense_CSD_AUTOTUNE & CapSense_CSD_SS_TH_EN)) */
 650:Generated_Source\PSoC6/CapSense_Filter.c **** 
 651:Generated_Source\PSoC6/CapSense_Filter.c ****     ptrWidget = &CapSense_dsFlash.wdgtArray[widgetId];
 652:Generated_Source\PSoC6/CapSense_Filter.c **** 
 653:Generated_Source\PSoC6/CapSense_Filter.c ****     #if (0u != (CapSense_CSD_AUTOTUNE & CapSense_CSD_SS_TH_EN))
 654:Generated_Source\PSoC6/CapSense_Filter.c ****         ptrWidgetRam = ptrWidget->ptr2WdgtRam;
 655:Generated_Source\PSoC6/CapSense_Filter.c ****     #endif /* (0u != (CapSense_CSD_AUTOTUNE & CapSense_CSD_SS_TH_EN)) */
 656:Generated_Source\PSoC6/CapSense_Filter.c **** 
 657:Generated_Source\PSoC6/CapSense_Filter.c ****     /* Find total amount of sensors in specified widget */
 658:Generated_Source\PSoC6/CapSense_Filter.c ****     sensorsNumber = CapSense_GET_SNS_CNT_BY_PTR(ptrWidget);
 659:Generated_Source\PSoC6/CapSense_Filter.c **** 
 660:Generated_Source\PSoC6/CapSense_Filter.c ****     for (sensorId = sensorsNumber; sensorId-- > 0u;)
 661:Generated_Source\PSoC6/CapSense_Filter.c ****     {
 662:Generated_Source\PSoC6/CapSense_Filter.c ****         /* Find pointer to specified sensor object */
 663:Generated_Source\PSoC6/CapSense_Filter.c ****         ptrSensor = ptrWidget->ptr2SnsRam;
 664:Generated_Source\PSoC6/CapSense_Filter.c ****         ptrSensor = &ptrSensor[sensorId];
 665:Generated_Source\PSoC6/CapSense_Filter.c **** 
 666:Generated_Source\PSoC6/CapSense_Filter.c ****         #if (CapSense_ENABLE == CapSense_RC_FILTER_EN)
 667:Generated_Source\PSoC6/CapSense_Filter.c ****             /* Find pointer to to specified filter sensor object */
 668:Generated_Source\PSoC6/CapSense_Filter.c ****             ptrFilterHistObj.ptr = ptrWidget->ptr2FltrHistory;
 669:Generated_Source\PSoC6/CapSense_Filter.c ****         #endif
 670:Generated_Source\PSoC6/CapSense_Filter.c **** 
 671:Generated_Source\PSoC6/CapSense_Filter.c ****         #if (0u != (CapSense_CSD_AUTOTUNE & CapSense_CSD_SS_TH_EN))
 672:Generated_Source\PSoC6/CapSense_Filter.c ****             /* Find pointer to specified noise envelope sensor object */
 673:Generated_Source\PSoC6/CapSense_Filter.c ****             ptrNoiseEnvelope = ptrWidget->ptr2NoiseEnvlp;
 674:Generated_Source\PSoC6/CapSense_Filter.c ****             ptrNoiseEnvelope = &ptrNoiseEnvelope[sensorId];
 675:Generated_Source\PSoC6/CapSense_Filter.c ****         #endif /* (0u != (CapSense_CSD_AUTOTUNE & CapSense_CSD_SS_TH_EN)) */
 676:Generated_Source\PSoC6/CapSense_Filter.c **** 
 677:Generated_Source\PSoC6/CapSense_Filter.c ****         if ((CapSense_WD_TYPE_ENUM)ptrWidget->wdgtType != CapSense_WD_PROXIMITY_E)
ARM GAS  C:\Users\PC\AppData\Local\Temp\ccyhv7od.s 			page 18


 678:Generated_Source\PSoC6/CapSense_Filter.c ****         {
 679:Generated_Source\PSoC6/CapSense_Filter.c ****             #if (0u != CapSense_REGULAR_RC_ALP_FILTER_EN)
 680:Generated_Source\PSoC6/CapSense_Filter.c ****                 ptrFilterHistObj.ptrAlp = &ptrFilterHistObj.ptrAlp[sensorId];
 681:Generated_Source\PSoC6/CapSense_Filter.c ****             #elif (0u != CapSense_REGULAR_RC_FILTER_EN)
 682:Generated_Source\PSoC6/CapSense_Filter.c ****                 ptrFilterHistObj.ptrRegular = &ptrFilterHistObj.ptrRegular[sensorId];
 683:Generated_Source\PSoC6/CapSense_Filter.c ****             #endif
 684:Generated_Source\PSoC6/CapSense_Filter.c ****         }
 685:Generated_Source\PSoC6/CapSense_Filter.c ****         else
 686:Generated_Source\PSoC6/CapSense_Filter.c ****         {
 687:Generated_Source\PSoC6/CapSense_Filter.c ****             #if (0u != CapSense_PROX_RC_ALP_FILTER_EN)
 688:Generated_Source\PSoC6/CapSense_Filter.c ****                 ptrFilterHistObj.ptrAlp = &ptrFilterHistObj.ptrAlp[sensorId];
 689:Generated_Source\PSoC6/CapSense_Filter.c ****             #elif (0u != CapSense_PROX_RC_FILTER_EN)
 690:Generated_Source\PSoC6/CapSense_Filter.c ****                 ptrFilterHistObj.ptrProx = &ptrFilterHistObj.ptrProx[sensorId];
 691:Generated_Source\PSoC6/CapSense_Filter.c ****             #endif /* #if (0u != CapSense_PROX_RC_FILTER_EN) */
 692:Generated_Source\PSoC6/CapSense_Filter.c ****         }
 693:Generated_Source\PSoC6/CapSense_Filter.c **** 
 694:Generated_Source\PSoC6/CapSense_Filter.c ****         #if (CapSense_REGULAR_RC_IIR_FILTER_EN || CapSense_PROX_RC_IIR_FILTER_EN)
 695:Generated_Source\PSoC6/CapSense_Filter.c ****             CapSense_InitializeIIRInternal(ptrFilterHistObj, ptrSensor, (uint32)ptrWidget->wdgtType
 696:Generated_Source\PSoC6/CapSense_Filter.c ****         #endif /* (CapSense_REGULAR_RC_IIR_FILTER_EN || CapSense_PROX_RC_IIR_FILTER_EN) */
 697:Generated_Source\PSoC6/CapSense_Filter.c **** 
 698:Generated_Source\PSoC6/CapSense_Filter.c ****         #if (CapSense_REGULAR_RC_MEDIAN_FILTER_EN || CapSense_PROX_RC_MEDIAN_FILTER_EN)
 699:Generated_Source\PSoC6/CapSense_Filter.c ****             CapSense_InitializeMedianInternal(ptrFilterHistObj, ptrSensor, (uint32)ptrWidget->wdgtT
 700:Generated_Source\PSoC6/CapSense_Filter.c ****         #endif /* (CapSense_REGULAR_RC_MEDIAN_FILTER_EN || CapSense_PROX_RC_MEDIAN_FILTER_EN) */
 701:Generated_Source\PSoC6/CapSense_Filter.c **** 
 702:Generated_Source\PSoC6/CapSense_Filter.c ****         #if (CapSense_REGULAR_RC_AVERAGE_FILTER_EN || CapSense_PROX_RC_AVERAGE_FILTER_EN)
 703:Generated_Source\PSoC6/CapSense_Filter.c ****             CapSense_InitializeAverageInternal(ptrFilterHistObj, ptrSensor, (uint32)ptrWidget->wdgt
 704:Generated_Source\PSoC6/CapSense_Filter.c ****         #endif /* (CapSense_REGULAR_RC_AVERAGE_FILTER_EN || CapSense_PROX_RC_AVERAGE_FILTER_EN) */
 705:Generated_Source\PSoC6/CapSense_Filter.c **** 
 706:Generated_Source\PSoC6/CapSense_Filter.c ****         #if (CapSense_ALP_FILTER_EN)
 707:Generated_Source\PSoC6/CapSense_Filter.c ****             CapSense_InitializeALPInternal(ptrFilterHistObj, ptrSensor, (uint32)ptrWidget->wdgtType
 708:Generated_Source\PSoC6/CapSense_Filter.c ****         #endif
 709:Generated_Source\PSoC6/CapSense_Filter.c **** 
 710:Generated_Source\PSoC6/CapSense_Filter.c ****         #if (0u != (CapSense_CSD_AUTOTUNE & CapSense_CSD_SS_TH_EN))
 711:Generated_Source\PSoC6/CapSense_Filter.c ****             if (CapSense_SENSE_METHOD_CSD_E ==
 712:Generated_Source\PSoC6/CapSense_Filter.c ****                 CapSense_GET_SENSE_METHOD(&CapSense_dsFlash.wdgtArray[widgetId]))
 713:Generated_Source\PSoC6/CapSense_Filter.c ****             {
 714:Generated_Source\PSoC6/CapSense_Filter.c ****                 SmartSense_InitializeNoiseEnvelope(ptrSensor->raw[0u], ptrWidgetRam->sigPFC, ptrNoi
 715:Generated_Source\PSoC6/CapSense_Filter.c ****             }
 716:Generated_Source\PSoC6/CapSense_Filter.c ****         #endif /* (0u != (CapSense_CSD_AUTOTUNE & CapSense_CSD_SS_TH_EN)) */
 717:Generated_Source\PSoC6/CapSense_Filter.c ****     }
 718:Generated_Source\PSoC6/CapSense_Filter.c **** }
 719:Generated_Source\PSoC6/CapSense_Filter.c **** #endif /* ((CapSense_ENABLE == CapSense_RC_FILTER_EN) || \
 720:Generated_Source\PSoC6/CapSense_Filter.c ****            (0u != (CapSense_CSD_AUTOTUNE & CapSense_CSD_SS_TH_EN))) */
 721:Generated_Source\PSoC6/CapSense_Filter.c **** 
 722:Generated_Source\PSoC6/CapSense_Filter.c **** #if (CapSense_REGULAR_RC_IIR_FILTER_EN || CapSense_PROX_RC_IIR_FILTER_EN)
 723:Generated_Source\PSoC6/CapSense_Filter.c **** /*******************************************************************************
 724:Generated_Source\PSoC6/CapSense_Filter.c **** * Function Name: CapSense_InitializeIIR
 725:Generated_Source\PSoC6/CapSense_Filter.c **** ****************************************************************************//**
 726:Generated_Source\PSoC6/CapSense_Filter.c **** *
 727:Generated_Source\PSoC6/CapSense_Filter.c **** * \brief    Initialize the IIR filter history.
 728:Generated_Source\PSoC6/CapSense_Filter.c **** *
 729:Generated_Source\PSoC6/CapSense_Filter.c **** * \details  Initialize the IIR filter history.
 730:Generated_Source\PSoC6/CapSense_Filter.c **** *
 731:Generated_Source\PSoC6/CapSense_Filter.c **** * \param    widgetId Specifies the ID number of the widget.
 732:Generated_Source\PSoC6/CapSense_Filter.c **** * \param    sensorId Specifies the ID number of the sensor in the widget.
 733:Generated_Source\PSoC6/CapSense_Filter.c **** *
 734:Generated_Source\PSoC6/CapSense_Filter.c **** *******************************************************************************/
ARM GAS  C:\Users\PC\AppData\Local\Temp\ccyhv7od.s 			page 19


 735:Generated_Source\PSoC6/CapSense_Filter.c **** void CapSense_InitializeIIR(uint32 widgetId, uint32 sensorId)
 736:Generated_Source\PSoC6/CapSense_Filter.c **** {
 737:Generated_Source\PSoC6/CapSense_Filter.c ****     CapSense_FLASH_WD_STRUCT const *ptrWidget = &CapSense_dsFlash.wdgtArray[widgetId];
 738:Generated_Source\PSoC6/CapSense_Filter.c ****     CapSense_RAM_SNS_STRUCT *ptrSensor = NULL;
 739:Generated_Source\PSoC6/CapSense_Filter.c ****     CapSense_PTR_FILTER_VARIANT ptrFilterHistObj;
 740:Generated_Source\PSoC6/CapSense_Filter.c **** 
 741:Generated_Source\PSoC6/CapSense_Filter.c ****     /* Find pointer to specified sensor object */
 742:Generated_Source\PSoC6/CapSense_Filter.c ****     ptrSensor = ptrWidget->ptr2SnsRam;
 743:Generated_Source\PSoC6/CapSense_Filter.c ****     ptrSensor = &ptrSensor[sensorId];
 744:Generated_Source\PSoC6/CapSense_Filter.c **** 
 745:Generated_Source\PSoC6/CapSense_Filter.c ****     /* Find pointer to specified filter sensor object */
 746:Generated_Source\PSoC6/CapSense_Filter.c ****     ptrFilterHistObj.ptr = ptrWidget->ptr2FltrHistory;
 747:Generated_Source\PSoC6/CapSense_Filter.c **** 
 748:Generated_Source\PSoC6/CapSense_Filter.c ****     if ((CapSense_WD_TYPE_ENUM)ptrWidget->wdgtType != CapSense_WD_PROXIMITY_E)
 749:Generated_Source\PSoC6/CapSense_Filter.c ****     {
 750:Generated_Source\PSoC6/CapSense_Filter.c ****         #if (CapSense_REGULAR_SENSOR_EN)
 751:Generated_Source\PSoC6/CapSense_Filter.c ****             ptrFilterHistObj.ptrRegular = &ptrFilterHistObj.ptrRegular[sensorId];
 752:Generated_Source\PSoC6/CapSense_Filter.c ****         #endif /* (CapSense_REGULAR_SENSOR_EN) */
 753:Generated_Source\PSoC6/CapSense_Filter.c ****     }
 754:Generated_Source\PSoC6/CapSense_Filter.c ****     else
 755:Generated_Source\PSoC6/CapSense_Filter.c ****     {
 756:Generated_Source\PSoC6/CapSense_Filter.c ****         #if (CapSense_PROXIMITY_SENSOR_EN)
 757:Generated_Source\PSoC6/CapSense_Filter.c ****             ptrFilterHistObj.ptrProx = &ptrFilterHistObj.ptrProx[sensorId];
 758:Generated_Source\PSoC6/CapSense_Filter.c ****         #endif /* (CapSense_PROXIMITY_SENSOR_EN) */
 759:Generated_Source\PSoC6/CapSense_Filter.c ****     }
 760:Generated_Source\PSoC6/CapSense_Filter.c **** 
 761:Generated_Source\PSoC6/CapSense_Filter.c ****     CapSense_InitializeIIRInternal(ptrFilterHistObj, ptrSensor, (uint32)ptrWidget->wdgtType);
 762:Generated_Source\PSoC6/CapSense_Filter.c **** }
 763:Generated_Source\PSoC6/CapSense_Filter.c **** 
 764:Generated_Source\PSoC6/CapSense_Filter.c **** 
 765:Generated_Source\PSoC6/CapSense_Filter.c **** /*******************************************************************************
 766:Generated_Source\PSoC6/CapSense_Filter.c **** * Function Name: CapSense_RunIIR
 767:Generated_Source\PSoC6/CapSense_Filter.c **** ****************************************************************************//**
 768:Generated_Source\PSoC6/CapSense_Filter.c **** *
 769:Generated_Source\PSoC6/CapSense_Filter.c **** * \brief    Executes the IIR filter algorithm on a sensor indicated by an input
 770:Generated_Source\PSoC6/CapSense_Filter.c **** *           parameter.
 771:Generated_Source\PSoC6/CapSense_Filter.c **** *
 772:Generated_Source\PSoC6/CapSense_Filter.c **** * \details  Executes the IIR filter algorithm on a sensor indicated by an input
 773:Generated_Source\PSoC6/CapSense_Filter.c **** *           parameter.
 774:Generated_Source\PSoC6/CapSense_Filter.c **** *
 775:Generated_Source\PSoC6/CapSense_Filter.c **** * \param    widgetId Specifies the ID number of the widget.
 776:Generated_Source\PSoC6/CapSense_Filter.c **** * \param    sensorId Specifies the ID number of the sensor in the widget.
 777:Generated_Source\PSoC6/CapSense_Filter.c **** *
 778:Generated_Source\PSoC6/CapSense_Filter.c **** *******************************************************************************/
 779:Generated_Source\PSoC6/CapSense_Filter.c **** void CapSense_RunIIR(uint32 widgetId, uint32 sensorId)
 780:Generated_Source\PSoC6/CapSense_Filter.c **** {
 781:Generated_Source\PSoC6/CapSense_Filter.c ****     CapSense_FLASH_WD_STRUCT const *ptrWidget = &CapSense_dsFlash.wdgtArray[widgetId];
 782:Generated_Source\PSoC6/CapSense_Filter.c ****     CapSense_RAM_SNS_STRUCT *ptrSensor = NULL;
 783:Generated_Source\PSoC6/CapSense_Filter.c ****     CapSense_PTR_FILTER_VARIANT ptrFilterHistObj;
 784:Generated_Source\PSoC6/CapSense_Filter.c **** 
 785:Generated_Source\PSoC6/CapSense_Filter.c ****     /* Find pointer to specified sensor object */
 786:Generated_Source\PSoC6/CapSense_Filter.c ****     ptrSensor = ptrWidget->ptr2SnsRam;
 787:Generated_Source\PSoC6/CapSense_Filter.c ****     ptrSensor = &ptrSensor[sensorId];
 788:Generated_Source\PSoC6/CapSense_Filter.c **** 
 789:Generated_Source\PSoC6/CapSense_Filter.c ****     /* Find pointer to specified filter sensor object */
 790:Generated_Source\PSoC6/CapSense_Filter.c ****     ptrFilterHistObj.ptr = ptrWidget->ptr2FltrHistory;
 791:Generated_Source\PSoC6/CapSense_Filter.c **** 
ARM GAS  C:\Users\PC\AppData\Local\Temp\ccyhv7od.s 			page 20


 792:Generated_Source\PSoC6/CapSense_Filter.c ****     if ((CapSense_WD_TYPE_ENUM)ptrWidget->wdgtType != CapSense_WD_PROXIMITY_E)
 793:Generated_Source\PSoC6/CapSense_Filter.c ****     {
 794:Generated_Source\PSoC6/CapSense_Filter.c ****         #if (CapSense_REGULAR_SENSOR_EN)
 795:Generated_Source\PSoC6/CapSense_Filter.c ****             ptrFilterHistObj.ptrRegular = &ptrFilterHistObj.ptrRegular[sensorId];
 796:Generated_Source\PSoC6/CapSense_Filter.c ****         #endif /* (CapSense_REGULAR_SENSOR_EN) */
 797:Generated_Source\PSoC6/CapSense_Filter.c ****     }
 798:Generated_Source\PSoC6/CapSense_Filter.c ****     else
 799:Generated_Source\PSoC6/CapSense_Filter.c ****     {
 800:Generated_Source\PSoC6/CapSense_Filter.c ****         #if (CapSense_PROXIMITY_SENSOR_EN)
 801:Generated_Source\PSoC6/CapSense_Filter.c ****             ptrFilterHistObj.ptrProx = &ptrFilterHistObj.ptrProx[sensorId];
 802:Generated_Source\PSoC6/CapSense_Filter.c ****         #endif /* (CapSense_PROXIMITY_SENSOR_EN) */
 803:Generated_Source\PSoC6/CapSense_Filter.c ****     }
 804:Generated_Source\PSoC6/CapSense_Filter.c **** 
 805:Generated_Source\PSoC6/CapSense_Filter.c ****     CapSense_RunIIRInternal(ptrFilterHistObj, ptrSensor, (uint32)ptrWidget->wdgtType);
 806:Generated_Source\PSoC6/CapSense_Filter.c **** }
 807:Generated_Source\PSoC6/CapSense_Filter.c **** 
 808:Generated_Source\PSoC6/CapSense_Filter.c **** /*******************************************************************************
 809:Generated_Source\PSoC6/CapSense_Filter.c **** * Function Name: CapSense_InitializeIIRInternal
 810:Generated_Source\PSoC6/CapSense_Filter.c **** ****************************************************************************//**
 811:Generated_Source\PSoC6/CapSense_Filter.c **** *
 812:Generated_Source\PSoC6/CapSense_Filter.c **** * \brief    Initializes the IIR filter history.
 813:Generated_Source\PSoC6/CapSense_Filter.c **** *
 814:Generated_Source\PSoC6/CapSense_Filter.c **** * \details  Initializes the IIR filter history.
 815:Generated_Source\PSoC6/CapSense_Filter.c **** *
 816:Generated_Source\PSoC6/CapSense_Filter.c **** * \param    ptrFilterHistObj The pointer to the filter RAM object of the sensor.
 817:Generated_Source\PSoC6/CapSense_Filter.c **** * \param    ptrSensorObj     The pointer to the sensor RAM object of the sensor.
 818:Generated_Source\PSoC6/CapSense_Filter.c **** * \param    wdType           Specifies the type of a widget.
 819:Generated_Source\PSoC6/CapSense_Filter.c **** *
 820:Generated_Source\PSoC6/CapSense_Filter.c **** *******************************************************************************/
 821:Generated_Source\PSoC6/CapSense_Filter.c **** void CapSense_InitializeIIRInternal(CapSense_PTR_FILTER_VARIANT ptrFilterHistObj,
 822:Generated_Source\PSoC6/CapSense_Filter.c ****                                             CapSense_RAM_SNS_STRUCT *ptrSensorObj, uint32 wdType)
 823:Generated_Source\PSoC6/CapSense_Filter.c **** {
 824:Generated_Source\PSoC6/CapSense_Filter.c ****     uint32 freqChannel;
 825:Generated_Source\PSoC6/CapSense_Filter.c **** 
 826:Generated_Source\PSoC6/CapSense_Filter.c ****     for(freqChannel = CapSense_NUM_SCAN_FREQS; freqChannel-- > 0u;)
 827:Generated_Source\PSoC6/CapSense_Filter.c ****     {
 828:Generated_Source\PSoC6/CapSense_Filter.c ****         if ((CapSense_WD_TYPE_ENUM)wdType != CapSense_WD_PROXIMITY_E)
 829:Generated_Source\PSoC6/CapSense_Filter.c ****         {
 830:Generated_Source\PSoC6/CapSense_Filter.c ****             #if (CapSense_REGULAR_SENSOR_EN && CapSense_REGULAR_RC_IIR_FILTER_EN)
 831:Generated_Source\PSoC6/CapSense_Filter.c ****                 #if (CapSense_REGULAR_IIR_RC_TYPE == CapSense_IIR_FILTER_PERFORMANCE)
 832:Generated_Source\PSoC6/CapSense_Filter.c ****                     ptrFilterHistObj.ptrRegular->regularChannel[freqChannel].iirHistory = ptrSensor
 833:Generated_Source\PSoC6/CapSense_Filter.c ****                     ptrFilterHistObj.ptrRegular->regularChannel[freqChannel].iirHistoryLow = 0u;
 834:Generated_Source\PSoC6/CapSense_Filter.c ****                 #else
 835:Generated_Source\PSoC6/CapSense_Filter.c ****                     ptrFilterHistObj.ptrRegular->regularChannel[freqChannel].iirHistory = ptrSensor
 836:Generated_Source\PSoC6/CapSense_Filter.c ****                 #endif /* (CapSense_REGULAR_IIR_RC_TYPE == CapSense_IIR_FILTER_PERFORMANCE) */
 837:Generated_Source\PSoC6/CapSense_Filter.c ****             #endif /* (CapSense_REGULAR_SENSOR_EN) */
 838:Generated_Source\PSoC6/CapSense_Filter.c ****         }
 839:Generated_Source\PSoC6/CapSense_Filter.c ****         else
 840:Generated_Source\PSoC6/CapSense_Filter.c ****         {
 841:Generated_Source\PSoC6/CapSense_Filter.c ****             #if (CapSense_PROXIMITY_SENSOR_EN && CapSense_PROX_RC_IIR_FILTER_EN)
 842:Generated_Source\PSoC6/CapSense_Filter.c ****                 #if (CapSense_PROX_IIR_RC_TYPE == CapSense_IIR_FILTER_PERFORMANCE)
 843:Generated_Source\PSoC6/CapSense_Filter.c ****                     ptrFilterHistObj.ptrProx->proxChannel[freqChannel].iirHistory = ptrSensorObj->r
 844:Generated_Source\PSoC6/CapSense_Filter.c ****                     ptrFilterHistObj.ptrProx->proxChannel[freqChannel].iirHistoryLow = 0u;
 845:Generated_Source\PSoC6/CapSense_Filter.c ****                 #else
 846:Generated_Source\PSoC6/CapSense_Filter.c ****                     ptrFilterHistObj.ptrProx->proxChannel[freqChannel].iirHistory = ptrSensorObj->r
 847:Generated_Source\PSoC6/CapSense_Filter.c ****                 #endif /* (CapSense_PROX_IIR_RC_TYPE == CapSense_IIR_FILTER_PERFORMANCE) */
 848:Generated_Source\PSoC6/CapSense_Filter.c ****             #endif /* (CapSense_PROX_SENSOR_EN) */
ARM GAS  C:\Users\PC\AppData\Local\Temp\ccyhv7od.s 			page 21


 849:Generated_Source\PSoC6/CapSense_Filter.c ****         }
 850:Generated_Source\PSoC6/CapSense_Filter.c ****     }
 851:Generated_Source\PSoC6/CapSense_Filter.c **** }
 852:Generated_Source\PSoC6/CapSense_Filter.c **** 
 853:Generated_Source\PSoC6/CapSense_Filter.c **** 
 854:Generated_Source\PSoC6/CapSense_Filter.c **** /*******************************************************************************
 855:Generated_Source\PSoC6/CapSense_Filter.c **** * Function Name: CapSense_RunIIRInternal
 856:Generated_Source\PSoC6/CapSense_Filter.c **** ****************************************************************************//**
 857:Generated_Source\PSoC6/CapSense_Filter.c **** *
 858:Generated_Source\PSoC6/CapSense_Filter.c **** * \brief    Run the IIR filter.
 859:Generated_Source\PSoC6/CapSense_Filter.c **** *
 860:Generated_Source\PSoC6/CapSense_Filter.c **** * \details  Run the IIR filter.
 861:Generated_Source\PSoC6/CapSense_Filter.c **** *
 862:Generated_Source\PSoC6/CapSense_Filter.c **** * \param    ptrFilterHistObj The pointer to the filter RAM object of the sensor.
 863:Generated_Source\PSoC6/CapSense_Filter.c **** * \param    ptrSensorObj     The pointer to the sensor RAM object of the sensor.
 864:Generated_Source\PSoC6/CapSense_Filter.c **** * \param    wdType           Specifies the type of a widget.
 865:Generated_Source\PSoC6/CapSense_Filter.c **** *
 866:Generated_Source\PSoC6/CapSense_Filter.c **** *******************************************************************************/
 867:Generated_Source\PSoC6/CapSense_Filter.c **** void CapSense_RunIIRInternal(CapSense_PTR_FILTER_VARIANT ptrFilterHistObj,
 868:Generated_Source\PSoC6/CapSense_Filter.c ****                                      CapSense_RAM_SNS_STRUCT *ptrSensorObj, uint32 wdType)
 869:Generated_Source\PSoC6/CapSense_Filter.c **** {
 870:Generated_Source\PSoC6/CapSense_Filter.c ****     uint32 freqChannel;
 871:Generated_Source\PSoC6/CapSense_Filter.c ****     uint32 temp;
 872:Generated_Source\PSoC6/CapSense_Filter.c **** 
 873:Generated_Source\PSoC6/CapSense_Filter.c ****     for(freqChannel = CapSense_NUM_SCAN_FREQS; freqChannel-- > 0u;)
 874:Generated_Source\PSoC6/CapSense_Filter.c ****     {
 875:Generated_Source\PSoC6/CapSense_Filter.c ****         if ((CapSense_WD_TYPE_ENUM)wdType != CapSense_WD_PROXIMITY_E)
 876:Generated_Source\PSoC6/CapSense_Filter.c ****         {
 877:Generated_Source\PSoC6/CapSense_Filter.c ****             #if (CapSense_REGULAR_SENSOR_EN && CapSense_REGULAR_RC_IIR_FILTER_EN)
 878:Generated_Source\PSoC6/CapSense_Filter.c ****                 #if (CapSense_REGULAR_IIR_RC_TYPE == CapSense_IIR_FILTER_PERFORMANCE)
 879:Generated_Source\PSoC6/CapSense_Filter.c ****                     temp = ((uint32)ptrFilterHistObj.ptrRegular->regularChannel[freqChannel].iirHis
 880:Generated_Source\PSoC6/CapSense_Filter.c ****                     temp |= ptrFilterHistObj.ptrRegular->regularChannel[freqChannel].iirHistoryLow;
 881:Generated_Source\PSoC6/CapSense_Filter.c ****                     temp = CapSense_FtIIR1stOrder((uint32)ptrSensorObj->raw[freqChannel],
 882:Generated_Source\PSoC6/CapSense_Filter.c ****                                                         temp,
 883:Generated_Source\PSoC6/CapSense_Filter.c ****                                                         CapSense_REGULAR_IIR_RC_N,
 884:Generated_Source\PSoC6/CapSense_Filter.c ****                                                         CapSense_REGULAR_IIR_RC_SHIFT);
 885:Generated_Source\PSoC6/CapSense_Filter.c ****                     ptrFilterHistObj.ptrRegular->regularChannel[freqChannel].iirHistory = CY_LO16(t
 886:Generated_Source\PSoC6/CapSense_Filter.c ****                     ptrFilterHistObj.ptrRegular->regularChannel[freqChannel].iirHistoryLow = CY_LO8
 887:Generated_Source\PSoC6/CapSense_Filter.c ****                     ptrSensorObj->raw[freqChannel] = CY_LO16(temp >>CapSense_REGULAR_IIR_RC_SHIFT);
 888:Generated_Source\PSoC6/CapSense_Filter.c ****                 #else
 889:Generated_Source\PSoC6/CapSense_Filter.c ****                     temp =CapSense_FtIIR1stOrder((uint32)ptrSensorObj->raw[freqChannel],
 890:Generated_Source\PSoC6/CapSense_Filter.c ****                                                         (uint32)ptrFilterHistObj.ptrRegular->regula
 891:Generated_Source\PSoC6/CapSense_Filter.c ****                                                         CapSense_REGULAR_IIR_RC_N,
 892:Generated_Source\PSoC6/CapSense_Filter.c ****                                                         CapSense_REGULAR_IIR_RC_SHIFT);
 893:Generated_Source\PSoC6/CapSense_Filter.c ****                     ptrFilterHistObj.ptrRegular->regularChannel[freqChannel].iirHistory = CY_LO16(t
 894:Generated_Source\PSoC6/CapSense_Filter.c ****                     ptrSensorObj->raw[freqChannel] = CY_LO16(temp >>CapSense_REGULAR_IIR_RC_SHIFT);
 895:Generated_Source\PSoC6/CapSense_Filter.c ****                 #endif /* (CapSense_REGULAR_IIR_RC_TYPE == CapSense_IIR_FILTER_PERFORMANCE) */
 896:Generated_Source\PSoC6/CapSense_Filter.c ****             #endif /* (CapSense_REGULAR_SENSOR_EN) */
 897:Generated_Source\PSoC6/CapSense_Filter.c ****         }
 898:Generated_Source\PSoC6/CapSense_Filter.c ****         else
 899:Generated_Source\PSoC6/CapSense_Filter.c ****         {
 900:Generated_Source\PSoC6/CapSense_Filter.c ****             #if (CapSense_PROXIMITY_SENSOR_EN && CapSense_PROX_RC_IIR_FILTER_EN)
 901:Generated_Source\PSoC6/CapSense_Filter.c ****                 #if (CapSense_PROX_IIR_RC_TYPE == CapSense_IIR_FILTER_PERFORMANCE)
 902:Generated_Source\PSoC6/CapSense_Filter.c ****                     temp =  ptrFilterHistObj.ptrProx->proxChannel[freqChannel].iirHistory << CapSen
 903:Generated_Source\PSoC6/CapSense_Filter.c ****                     temp |= ptrFilterHistObj.ptrProx->proxChannel[freqChannel].iirHistoryLow;
 904:Generated_Source\PSoC6/CapSense_Filter.c ****                     temp =CapSense_FtIIR1stOrder((uint32)ptrSensorObj->raw[freqChannel],
 905:Generated_Source\PSoC6/CapSense_Filter.c ****                                                         temp,
ARM GAS  C:\Users\PC\AppData\Local\Temp\ccyhv7od.s 			page 22


 906:Generated_Source\PSoC6/CapSense_Filter.c ****                                                         CapSense_PROX_IIR_RC_N,
 907:Generated_Source\PSoC6/CapSense_Filter.c ****                                                         CapSense_PROX_IIR_RC_SHIFT);
 908:Generated_Source\PSoC6/CapSense_Filter.c ****                     ptrFilterHistObj.ptrProx->proxChannel[freqChannel].iirHistory = CY_LO16(temp >>
 909:Generated_Source\PSoC6/CapSense_Filter.c ****                     ptrFilterHistObj.ptrProx->proxChannel[freqChannel].iirHistoryLow = CY_LO8(temp)
 910:Generated_Source\PSoC6/CapSense_Filter.c ****                     ptrSensorObj->raw[freqChannel] = CY_LO16(temp >>CapSense_PROX_IIR_RC_SHIFT);
 911:Generated_Source\PSoC6/CapSense_Filter.c ****                 #else
 912:Generated_Source\PSoC6/CapSense_Filter.c ****                     temp =CapSense_FtIIR1stOrder((uint32)ptrSensorObj->raw[freqChannel],
 913:Generated_Source\PSoC6/CapSense_Filter.c ****                                                         (uint32)ptrFilterHistObj.ptrProx->proxChann
 914:Generated_Source\PSoC6/CapSense_Filter.c ****                                                         CapSense_PROX_IIR_RC_N,
 915:Generated_Source\PSoC6/CapSense_Filter.c ****                                                         CapSense_PROX_IIR_RC_SHIFT);
 916:Generated_Source\PSoC6/CapSense_Filter.c ****                     ptrFilterHistObj.ptrProx->proxChannel[freqChannel].iirHistory = CY_LO16(temp);
 917:Generated_Source\PSoC6/CapSense_Filter.c ****                     ptrSensorObj->raw[freqChannel] = CY_LO16(temp >>CapSense_PROX_IIR_RC_SHIFT);
 918:Generated_Source\PSoC6/CapSense_Filter.c ****                 #endif /* (CapSense_PROX_IIR_RC_TYPE == CapSense_IIR_FILTER_PERFORMANCE) */
 919:Generated_Source\PSoC6/CapSense_Filter.c ****             #endif /* (CapSense_PROX_SENSOR_EN) */
 920:Generated_Source\PSoC6/CapSense_Filter.c ****         }
 921:Generated_Source\PSoC6/CapSense_Filter.c ****     }
 922:Generated_Source\PSoC6/CapSense_Filter.c **** }
 923:Generated_Source\PSoC6/CapSense_Filter.c **** #endif /* #if (CapSense_REGULAR_RC_IIR_FILTER_EN || CapSense_PROX_RC_IIR_FILTER_EN) */
 924:Generated_Source\PSoC6/CapSense_Filter.c **** 
 925:Generated_Source\PSoC6/CapSense_Filter.c **** 
 926:Generated_Source\PSoC6/CapSense_Filter.c **** #if (CapSense_REGULAR_RC_MEDIAN_FILTER_EN || CapSense_PROX_RC_MEDIAN_FILTER_EN)
 927:Generated_Source\PSoC6/CapSense_Filter.c **** 
 928:Generated_Source\PSoC6/CapSense_Filter.c **** /*******************************************************************************
 929:Generated_Source\PSoC6/CapSense_Filter.c **** * Function Name: CapSense_InitializeMedian
 930:Generated_Source\PSoC6/CapSense_Filter.c **** ****************************************************************************//**
 931:Generated_Source\PSoC6/CapSense_Filter.c **** *
 932:Generated_Source\PSoC6/CapSense_Filter.c **** * \brief    Initializes the Median filter history.
 933:Generated_Source\PSoC6/CapSense_Filter.c **** *
 934:Generated_Source\PSoC6/CapSense_Filter.c **** * \details  Initializes the Median filter history.
 935:Generated_Source\PSoC6/CapSense_Filter.c **** *
 936:Generated_Source\PSoC6/CapSense_Filter.c **** * \param    widgetId Specifies the ID number of the widget.
 937:Generated_Source\PSoC6/CapSense_Filter.c **** * \param    sensorId Specifies the ID number of the sensor in the widget.
 938:Generated_Source\PSoC6/CapSense_Filter.c **** *
 939:Generated_Source\PSoC6/CapSense_Filter.c **** *******************************************************************************/
 940:Generated_Source\PSoC6/CapSense_Filter.c **** void CapSense_InitializeMedian(uint32 widgetId, uint32 sensorId)
 941:Generated_Source\PSoC6/CapSense_Filter.c **** {
 942:Generated_Source\PSoC6/CapSense_Filter.c ****     CapSense_FLASH_WD_STRUCT const *ptrWidget = &CapSense_dsFlash.wdgtArray[widgetId];
 943:Generated_Source\PSoC6/CapSense_Filter.c ****     CapSense_RAM_SNS_STRUCT *ptrSensor = NULL;
 944:Generated_Source\PSoC6/CapSense_Filter.c ****     CapSense_PTR_FILTER_VARIANT ptrFilterHistObj;
 945:Generated_Source\PSoC6/CapSense_Filter.c **** 
 946:Generated_Source\PSoC6/CapSense_Filter.c ****     /* Find pointer to specified sensor object */
 947:Generated_Source\PSoC6/CapSense_Filter.c ****     ptrSensor = ptrWidget->ptr2SnsRam;
 948:Generated_Source\PSoC6/CapSense_Filter.c ****     ptrSensor = &ptrSensor[sensorId];
 949:Generated_Source\PSoC6/CapSense_Filter.c **** 
 950:Generated_Source\PSoC6/CapSense_Filter.c ****     /* Find pointer to specified filter sensor object */
 951:Generated_Source\PSoC6/CapSense_Filter.c ****     ptrFilterHistObj.ptr = ptrWidget->ptr2FltrHistory;
 952:Generated_Source\PSoC6/CapSense_Filter.c **** 
 953:Generated_Source\PSoC6/CapSense_Filter.c ****     if ((CapSense_WD_TYPE_ENUM)ptrWidget->wdgtType != CapSense_WD_PROXIMITY_E)
 954:Generated_Source\PSoC6/CapSense_Filter.c ****     {
 955:Generated_Source\PSoC6/CapSense_Filter.c ****         #if (CapSense_REGULAR_SENSOR_EN)
 956:Generated_Source\PSoC6/CapSense_Filter.c ****             ptrFilterHistObj.ptrRegular = &ptrFilterHistObj.ptrRegular[sensorId];
 957:Generated_Source\PSoC6/CapSense_Filter.c ****         #endif /* (CapSense_REGULAR_SENSOR_EN) */
 958:Generated_Source\PSoC6/CapSense_Filter.c ****     }
 959:Generated_Source\PSoC6/CapSense_Filter.c ****     else
 960:Generated_Source\PSoC6/CapSense_Filter.c ****     {
 961:Generated_Source\PSoC6/CapSense_Filter.c ****         #if (CapSense_PROXIMITY_SENSOR_EN)
 962:Generated_Source\PSoC6/CapSense_Filter.c ****             ptrFilterHistObj.ptrProx = &ptrFilterHistObj.ptrProx[sensorId];
ARM GAS  C:\Users\PC\AppData\Local\Temp\ccyhv7od.s 			page 23


 963:Generated_Source\PSoC6/CapSense_Filter.c ****         #endif /* (CapSense_PROXIMITY_SENSOR_EN) */
 964:Generated_Source\PSoC6/CapSense_Filter.c ****     }
 965:Generated_Source\PSoC6/CapSense_Filter.c **** 
 966:Generated_Source\PSoC6/CapSense_Filter.c ****     CapSense_InitializeMedianInternal(ptrFilterHistObj, ptrSensor, (uint32)ptrWidget->wdgtType);
 967:Generated_Source\PSoC6/CapSense_Filter.c **** }
 968:Generated_Source\PSoC6/CapSense_Filter.c **** 
 969:Generated_Source\PSoC6/CapSense_Filter.c **** 
 970:Generated_Source\PSoC6/CapSense_Filter.c **** /*******************************************************************************
 971:Generated_Source\PSoC6/CapSense_Filter.c **** * Function Name: CapSense_RunMedian
 972:Generated_Source\PSoC6/CapSense_Filter.c **** ****************************************************************************//**
 973:Generated_Source\PSoC6/CapSense_Filter.c **** *
 974:Generated_Source\PSoC6/CapSense_Filter.c **** * \brief    Executes the Median filter algorithm on a sensor indicated by an input
 975:Generated_Source\PSoC6/CapSense_Filter.c **** *           parameter.
 976:Generated_Source\PSoC6/CapSense_Filter.c **** *
 977:Generated_Source\PSoC6/CapSense_Filter.c **** * \details  Executes the Median filter algorithm on a sensor indicated by an input
 978:Generated_Source\PSoC6/CapSense_Filter.c **** *           parameter.
 979:Generated_Source\PSoC6/CapSense_Filter.c **** *
 980:Generated_Source\PSoC6/CapSense_Filter.c **** * \param    widgetId Specifies the ID number of the widget.
 981:Generated_Source\PSoC6/CapSense_Filter.c **** * \param    sensorId Specifies the ID number of the sensor in the widget.
 982:Generated_Source\PSoC6/CapSense_Filter.c **** *
 983:Generated_Source\PSoC6/CapSense_Filter.c **** *******************************************************************************/
 984:Generated_Source\PSoC6/CapSense_Filter.c **** void CapSense_RunMedian(uint32 widgetId, uint32 sensorId)
 985:Generated_Source\PSoC6/CapSense_Filter.c **** {
 986:Generated_Source\PSoC6/CapSense_Filter.c ****     CapSense_FLASH_WD_STRUCT const *ptrWidget = &CapSense_dsFlash.wdgtArray[widgetId];
 987:Generated_Source\PSoC6/CapSense_Filter.c ****     CapSense_RAM_SNS_STRUCT *ptrSensor = NULL;
 988:Generated_Source\PSoC6/CapSense_Filter.c ****     CapSense_PTR_FILTER_VARIANT ptrFilterHistObj;
 989:Generated_Source\PSoC6/CapSense_Filter.c **** 
 990:Generated_Source\PSoC6/CapSense_Filter.c ****     /* Find pointer to specified sensor object */
 991:Generated_Source\PSoC6/CapSense_Filter.c ****     ptrSensor = ptrWidget->ptr2SnsRam;
 992:Generated_Source\PSoC6/CapSense_Filter.c ****     ptrSensor = &ptrSensor[sensorId];
 993:Generated_Source\PSoC6/CapSense_Filter.c **** 
 994:Generated_Source\PSoC6/CapSense_Filter.c ****     /* Find pointer to specified filter sensor object */
 995:Generated_Source\PSoC6/CapSense_Filter.c ****     ptrFilterHistObj.ptr = ptrWidget->ptr2FltrHistory;
 996:Generated_Source\PSoC6/CapSense_Filter.c **** 
 997:Generated_Source\PSoC6/CapSense_Filter.c ****     if ((CapSense_WD_TYPE_ENUM)ptrWidget->wdgtType != CapSense_WD_PROXIMITY_E)
 998:Generated_Source\PSoC6/CapSense_Filter.c ****     {
 999:Generated_Source\PSoC6/CapSense_Filter.c ****         #if (CapSense_REGULAR_SENSOR_EN)
1000:Generated_Source\PSoC6/CapSense_Filter.c ****             ptrFilterHistObj.ptrRegular = &ptrFilterHistObj.ptrRegular[sensorId];
1001:Generated_Source\PSoC6/CapSense_Filter.c ****         #endif /* (CapSense_REGULAR_SENSOR_EN) */
1002:Generated_Source\PSoC6/CapSense_Filter.c ****     }
1003:Generated_Source\PSoC6/CapSense_Filter.c ****     else
1004:Generated_Source\PSoC6/CapSense_Filter.c ****     {
1005:Generated_Source\PSoC6/CapSense_Filter.c ****         #if (CapSense_PROXIMITY_SENSOR_EN)
1006:Generated_Source\PSoC6/CapSense_Filter.c ****             ptrFilterHistObj.ptrProx = &ptrFilterHistObj.ptrProx[sensorId];
1007:Generated_Source\PSoC6/CapSense_Filter.c ****         #endif /* (CapSense_PROXIMITY_SENSOR_EN) */
1008:Generated_Source\PSoC6/CapSense_Filter.c ****     }
1009:Generated_Source\PSoC6/CapSense_Filter.c **** 
1010:Generated_Source\PSoC6/CapSense_Filter.c ****     CapSense_RunMedianInternal(ptrFilterHistObj, ptrSensor, (uint32)ptrWidget->wdgtType);
1011:Generated_Source\PSoC6/CapSense_Filter.c **** }
1012:Generated_Source\PSoC6/CapSense_Filter.c **** 
1013:Generated_Source\PSoC6/CapSense_Filter.c **** 
1014:Generated_Source\PSoC6/CapSense_Filter.c **** /*******************************************************************************
1015:Generated_Source\PSoC6/CapSense_Filter.c **** * Function Name: CapSense_InitializeMedianInternal
1016:Generated_Source\PSoC6/CapSense_Filter.c **** ****************************************************************************//**
1017:Generated_Source\PSoC6/CapSense_Filter.c **** *
1018:Generated_Source\PSoC6/CapSense_Filter.c **** * \brief    Initializes the Median filter.
1019:Generated_Source\PSoC6/CapSense_Filter.c **** *
ARM GAS  C:\Users\PC\AppData\Local\Temp\ccyhv7od.s 			page 24


1020:Generated_Source\PSoC6/CapSense_Filter.c **** * \details  Initializes the Median filter.
1021:Generated_Source\PSoC6/CapSense_Filter.c **** *
1022:Generated_Source\PSoC6/CapSense_Filter.c **** * \param    ptrFilterHistObj The pointer to the filter RAM object of the sensor.
1023:Generated_Source\PSoC6/CapSense_Filter.c **** * \param    ptrSensorObj     The pointer to the sensor RAM object of the sensor.
1024:Generated_Source\PSoC6/CapSense_Filter.c **** * \param    wdType           Specifies the type of a widget.
1025:Generated_Source\PSoC6/CapSense_Filter.c **** *
1026:Generated_Source\PSoC6/CapSense_Filter.c **** *******************************************************************************/
1027:Generated_Source\PSoC6/CapSense_Filter.c **** void CapSense_InitializeMedianInternal(CapSense_PTR_FILTER_VARIANT ptrFilterHistObj,
1028:Generated_Source\PSoC6/CapSense_Filter.c ****                                                CapSense_RAM_SNS_STRUCT *ptrSensorObj, uint32 wdType
1029:Generated_Source\PSoC6/CapSense_Filter.c **** {
 269              		.loc 1 1029 0
 270              		.cfi_startproc
 271              		@ args = 0, pretend = 0, frame = 0
 272              		@ frame_needed = 0, uses_anonymous_args = 0
 273              	.LVL35:
 274 0000 F0B5     		push	{r4, r5, r6, r7, lr}
 275              		.cfi_def_cfa_offset 20
 276              		.cfi_offset 4, -20
 277              		.cfi_offset 5, -16
 278              		.cfi_offset 6, -12
 279              		.cfi_offset 7, -8
 280              		.cfi_offset 14, -4
 281              	.LVL36:
1030:Generated_Source\PSoC6/CapSense_Filter.c ****     uint32 freqChannel;
1031:Generated_Source\PSoC6/CapSense_Filter.c **** 
1032:Generated_Source\PSoC6/CapSense_Filter.c ****     for(freqChannel = CapSense_NUM_SCAN_FREQS; freqChannel-- > 0u;)
 282              		.loc 1 1032 0
 283 0002 0123     		movs	r3, #1
 284 0004 11E0     		b	.L18
 285              	.LVL37:
 286              	.L20:
1033:Generated_Source\PSoC6/CapSense_Filter.c ****     {
1034:Generated_Source\PSoC6/CapSense_Filter.c ****         if ((CapSense_WD_TYPE_ENUM)wdType != CapSense_WD_PROXIMITY_E)
 287              		.loc 1 1034 0
 288 0006 FF23     		movs	r3, #255
 289 0008 1340     		ands	r3, r2
 290 000a 062B     		cmp	r3, #6
 291 000c 0CD0     		beq	.L19
1035:Generated_Source\PSoC6/CapSense_Filter.c ****         {
1036:Generated_Source\PSoC6/CapSense_Filter.c ****             #if (CapSense_REGULAR_SENSOR_EN && CapSense_REGULAR_RC_MEDIAN_FILTER_EN)
1037:Generated_Source\PSoC6/CapSense_Filter.c ****                 ptrFilterHistObj.ptrRegular->regularChannel[freqChannel].medHistory[0u] = ptrSensor
 292              		.loc 1 1037 0
 293 000e 6500     		lsls	r5, r4, #1
 294 0010 6B5A     		ldrh	r3, [r5, r1]
 295 0012 9C46     		mov	ip, r3
 296 0014 A300     		lsls	r3, r4, #2
 297 0016 1F19     		adds	r7, r3, r4
 298 0018 7E00     		lsls	r6, r7, #1
 299 001a 6746     		mov	r7, ip
 300 001c 3752     		strh	r7, [r6, r0]
1038:Generated_Source\PSoC6/CapSense_Filter.c ****                 ptrFilterHistObj.ptrRegular->regularChannel[freqChannel].medHistory[1u] = ptrSensor
 301              		.loc 1 1038 0
 302 001e 6E5A     		ldrh	r6, [r5, r1]
 303 0020 1B19     		adds	r3, r3, r4
 304 0022 5D00     		lsls	r5, r3, #1
 305 0024 4519     		adds	r5, r0, r5
 306 0026 6E80     		strh	r6, [r5, #2]
ARM GAS  C:\Users\PC\AppData\Local\Temp\ccyhv7od.s 			page 25


 307              	.L19:
1029:Generated_Source\PSoC6/CapSense_Filter.c ****     uint32 freqChannel;
 308              		.loc 1 1029 0 discriminator 1
 309 0028 2300     		movs	r3, r4
 310              	.LVL38:
 311              	.L18:
1032:Generated_Source\PSoC6/CapSense_Filter.c ****     {
 312              		.loc 1 1032 0 discriminator 1
 313 002a 5C1E     		subs	r4, r3, #1
 314              	.LVL39:
 315 002c 002B     		cmp	r3, #0
 316 002e EAD1     		bne	.L20
1039:Generated_Source\PSoC6/CapSense_Filter.c ****             #endif /* (CapSense_REGULAR_SENSOR_EN) */
1040:Generated_Source\PSoC6/CapSense_Filter.c ****         }
1041:Generated_Source\PSoC6/CapSense_Filter.c ****         else
1042:Generated_Source\PSoC6/CapSense_Filter.c ****         {
1043:Generated_Source\PSoC6/CapSense_Filter.c ****             #if (CapSense_PROXIMITY_SENSOR_EN && CapSense_PROX_RC_MEDIAN_FILTER_EN)
1044:Generated_Source\PSoC6/CapSense_Filter.c ****                 ptrFilterHistObj.ptrProx->proxChannel[freqChannel].medHistory[0u] = ptrSensorObj->r
1045:Generated_Source\PSoC6/CapSense_Filter.c ****                 ptrFilterHistObj.ptrProx->proxChannel[freqChannel].medHistory[1u] = ptrSensorObj->r
1046:Generated_Source\PSoC6/CapSense_Filter.c ****             #endif /* (CapSense_PROXIMITY_SENSOR_EN) */
1047:Generated_Source\PSoC6/CapSense_Filter.c ****         }
1048:Generated_Source\PSoC6/CapSense_Filter.c ****     }
1049:Generated_Source\PSoC6/CapSense_Filter.c **** }
 317              		.loc 1 1049 0
 318              		@ sp needed
 319              	.LVL40:
 320 0030 F0BD     		pop	{r4, r5, r6, r7, pc}
 321              		.cfi_endproc
 322              	.LFE59:
 323              		.size	CapSense_InitializeMedianInternal, .-CapSense_InitializeMedianInternal
 324 0032 C046     		.section	.text.CapSense_InitializeMedian,"ax",%progbits
 325              		.align	2
 326              		.global	CapSense_InitializeMedian
 327              		.code	16
 328              		.thumb_func
 329              		.type	CapSense_InitializeMedian, %function
 330              	CapSense_InitializeMedian:
 331              	.LFB57:
 941:Generated_Source\PSoC6/CapSense_Filter.c ****     CapSense_FLASH_WD_STRUCT const *ptrWidget = &CapSense_dsFlash.wdgtArray[widgetId];
 332              		.loc 1 941 0
 333              		.cfi_startproc
 334              		@ args = 0, pretend = 0, frame = 0
 335              		@ frame_needed = 0, uses_anonymous_args = 0
 336              	.LVL41:
 337 0000 70B5     		push	{r4, r5, r6, lr}
 338              		.cfi_def_cfa_offset 16
 339              		.cfi_offset 4, -16
 340              		.cfi_offset 5, -12
 341              		.cfi_offset 6, -8
 342              		.cfi_offset 14, -4
 343              	.LVL42:
 947:Generated_Source\PSoC6/CapSense_Filter.c ****     ptrSensor = &ptrSensor[sensorId];
 344              		.loc 1 947 0
 345 0002 2C23     		movs	r3, #44
 346 0004 5843     		muls	r0, r3
 347              	.LVL43:
 348 0006 084B     		ldr	r3, .L23
ARM GAS  C:\Users\PC\AppData\Local\Temp\ccyhv7od.s 			page 26


 349 0008 1B18     		adds	r3, r3, r0
 350              	.LVL44:
 948:Generated_Source\PSoC6/CapSense_Filter.c **** 
 351              		.loc 1 948 0
 352 000a 8A00     		lsls	r2, r1, #2
 353 000c 5118     		adds	r1, r2, r1
 354              	.LVL45:
 355 000e 4C00     		lsls	r4, r1, #1
 356 0010 9A68     		ldr	r2, [r3, #8]
 357 0012 1119     		adds	r1, r2, r4
 358              	.LVL46:
 951:Generated_Source\PSoC6/CapSense_Filter.c **** 
 359              		.loc 1 951 0
 360 0014 DD68     		ldr	r5, [r3, #12]
 361 0016 2800     		movs	r0, r5
 362              	.LVL47:
 953:Generated_Source\PSoC6/CapSense_Filter.c ****     {
 363              		.loc 1 953 0
 364 0018 9A7E     		ldrb	r2, [r3, #26]
 365 001a 062A     		cmp	r2, #6
 366 001c 00D0     		beq	.L22
 956:Generated_Source\PSoC6/CapSense_Filter.c ****         #endif /* (CapSense_REGULAR_SENSOR_EN) */
 367              		.loc 1 956 0
 368 001e 2819     		adds	r0, r5, r4
 369              	.L22:
 966:Generated_Source\PSoC6/CapSense_Filter.c **** }
 370              		.loc 1 966 0
 371 0020 FFF7FEFF 		bl	CapSense_InitializeMedianInternal
 372              	.LVL48:
 967:Generated_Source\PSoC6/CapSense_Filter.c **** 
 373              		.loc 1 967 0
 374              		@ sp needed
 375              	.LVL49:
 376 0024 70BD     		pop	{r4, r5, r6, pc}
 377              	.L24:
 378 0026 C046     		.align	2
 379              	.L23:
 380 0028 00000000 		.word	CapSense_dsFlash
 381              		.cfi_endproc
 382              	.LFE57:
 383              		.size	CapSense_InitializeMedian, .-CapSense_InitializeMedian
 384              		.section	.text.CapSense_InitializeAverageInternal,"ax",%progbits
 385              		.align	2
 386              		.global	CapSense_InitializeAverageInternal
 387              		.code	16
 388              		.thumb_func
 389              		.type	CapSense_InitializeAverageInternal, %function
 390              	CapSense_InitializeAverageInternal:
 391              	.LFB63:
1050:Generated_Source\PSoC6/CapSense_Filter.c **** 
1051:Generated_Source\PSoC6/CapSense_Filter.c **** 
1052:Generated_Source\PSoC6/CapSense_Filter.c **** /*******************************************************************************
1053:Generated_Source\PSoC6/CapSense_Filter.c **** * Function Name: CapSense_RunMedianInternal
1054:Generated_Source\PSoC6/CapSense_Filter.c **** ****************************************************************************//**
1055:Generated_Source\PSoC6/CapSense_Filter.c **** *
1056:Generated_Source\PSoC6/CapSense_Filter.c **** * \brief    Runs the Median filter.
1057:Generated_Source\PSoC6/CapSense_Filter.c **** *
ARM GAS  C:\Users\PC\AppData\Local\Temp\ccyhv7od.s 			page 27


1058:Generated_Source\PSoC6/CapSense_Filter.c **** * \details  Runs the Median filter.
1059:Generated_Source\PSoC6/CapSense_Filter.c **** *
1060:Generated_Source\PSoC6/CapSense_Filter.c **** * \param    ptrFilterHistObj The pointer to the filter RAM object of the sensor.
1061:Generated_Source\PSoC6/CapSense_Filter.c **** * \param    ptrSensorObj     The pointer to the sensor RAM object of the sensor.
1062:Generated_Source\PSoC6/CapSense_Filter.c **** * \param    wdType           Specifies the type of a widget.
1063:Generated_Source\PSoC6/CapSense_Filter.c **** *
1064:Generated_Source\PSoC6/CapSense_Filter.c **** *******************************************************************************/
1065:Generated_Source\PSoC6/CapSense_Filter.c **** void CapSense_RunMedianInternal(CapSense_PTR_FILTER_VARIANT ptrFilterHistObj,
1066:Generated_Source\PSoC6/CapSense_Filter.c ****                                         CapSense_RAM_SNS_STRUCT *ptrSensorObj, uint32 wdType)
1067:Generated_Source\PSoC6/CapSense_Filter.c **** {
1068:Generated_Source\PSoC6/CapSense_Filter.c ****     uint32 freqChannel;
1069:Generated_Source\PSoC6/CapSense_Filter.c **** 
1070:Generated_Source\PSoC6/CapSense_Filter.c ****     #if ((CapSense_REGULAR_SENSOR_EN && CapSense_REGULAR_RC_MEDIAN_FILTER_EN) || \
1071:Generated_Source\PSoC6/CapSense_Filter.c ****          (CapSense_PROXIMITY_SENSOR_EN && CapSense_PROX_RC_MEDIAN_FILTER_EN))
1072:Generated_Source\PSoC6/CapSense_Filter.c ****         uint32 temp;
1073:Generated_Source\PSoC6/CapSense_Filter.c ****     #endif
1074:Generated_Source\PSoC6/CapSense_Filter.c **** 
1075:Generated_Source\PSoC6/CapSense_Filter.c ****     for(freqChannel = CapSense_NUM_SCAN_FREQS; freqChannel-- > 0u;)
1076:Generated_Source\PSoC6/CapSense_Filter.c ****     {
1077:Generated_Source\PSoC6/CapSense_Filter.c ****         if ((CapSense_WD_TYPE_ENUM)wdType != CapSense_WD_PROXIMITY_E)
1078:Generated_Source\PSoC6/CapSense_Filter.c ****         {
1079:Generated_Source\PSoC6/CapSense_Filter.c ****             #if (CapSense_REGULAR_SENSOR_EN && CapSense_REGULAR_RC_MEDIAN_FILTER_EN)
1080:Generated_Source\PSoC6/CapSense_Filter.c ****                 temp = CapSense_FtMedian((uint32)ptrSensorObj->raw[freqChannel],\
1081:Generated_Source\PSoC6/CapSense_Filter.c ****                                                  (uint32)ptrFilterHistObj.ptrRegular->regularChanne
1082:Generated_Source\PSoC6/CapSense_Filter.c ****                                                  (uint32)ptrFilterHistObj.ptrRegular->regularChanne
1083:Generated_Source\PSoC6/CapSense_Filter.c ****                 ptrFilterHistObj.ptrRegular->regularChannel[freqChannel].medHistory[1u] = \
1084:Generated_Source\PSoC6/CapSense_Filter.c ****                 ptrFilterHistObj.ptrRegular->regularChannel[freqChannel].medHistory[0u];
1085:Generated_Source\PSoC6/CapSense_Filter.c ****                 ptrFilterHistObj.ptrRegular->regularChannel[freqChannel].medHistory[0u] = ptrSensor
1086:Generated_Source\PSoC6/CapSense_Filter.c ****                 ptrSensorObj->raw[freqChannel] = CY_LO16(temp);
1087:Generated_Source\PSoC6/CapSense_Filter.c ****             #endif /* (CapSense_REGULAR_SENSOR_EN) */
1088:Generated_Source\PSoC6/CapSense_Filter.c ****         }
1089:Generated_Source\PSoC6/CapSense_Filter.c ****         else
1090:Generated_Source\PSoC6/CapSense_Filter.c ****         {
1091:Generated_Source\PSoC6/CapSense_Filter.c ****             #if (CapSense_PROXIMITY_SENSOR_EN && CapSense_PROX_RC_MEDIAN_FILTER_EN)
1092:Generated_Source\PSoC6/CapSense_Filter.c ****                 temp = CapSense_FtMedian((uint32)ptrSensorObj->raw[freqChannel],\
1093:Generated_Source\PSoC6/CapSense_Filter.c ****                                                  (uint32)ptrFilterHistObj.ptrProx->proxChannel[freq
1094:Generated_Source\PSoC6/CapSense_Filter.c ****                                                  (uint32)ptrFilterHistObj.ptrProx->proxChannel[freq
1095:Generated_Source\PSoC6/CapSense_Filter.c ****                 ptrFilterHistObj.ptrProx->proxChannel[freqChannel].medHistory[1u] = \
1096:Generated_Source\PSoC6/CapSense_Filter.c ****                 ptrFilterHistObj.ptrProx->proxChannel[freqChannel].medHistory[0u];
1097:Generated_Source\PSoC6/CapSense_Filter.c ****                 ptrFilterHistObj.ptrProx->proxChannel[freqChannel].medHistory[0u] = ptrSensorObj->r
1098:Generated_Source\PSoC6/CapSense_Filter.c ****                 ptrSensorObj->raw[freqChannel] = CY_LO16(temp);
1099:Generated_Source\PSoC6/CapSense_Filter.c ****             #endif /* (CapSense_PROXIMITY_SENSOR_EN) */
1100:Generated_Source\PSoC6/CapSense_Filter.c ****         }
1101:Generated_Source\PSoC6/CapSense_Filter.c ****     }
1102:Generated_Source\PSoC6/CapSense_Filter.c **** }
1103:Generated_Source\PSoC6/CapSense_Filter.c **** #endif /* (CapSense_REGULAR_RC_MEDIAN_FILTER_EN || CapSense_PROX_RC_MEDIAN_FILTER_EN) */
1104:Generated_Source\PSoC6/CapSense_Filter.c **** 
1105:Generated_Source\PSoC6/CapSense_Filter.c **** 
1106:Generated_Source\PSoC6/CapSense_Filter.c **** #if (CapSense_REGULAR_RC_AVERAGE_FILTER_EN || CapSense_PROX_RC_AVERAGE_FILTER_EN)
1107:Generated_Source\PSoC6/CapSense_Filter.c **** 
1108:Generated_Source\PSoC6/CapSense_Filter.c **** /*******************************************************************************
1109:Generated_Source\PSoC6/CapSense_Filter.c **** * Function Name: CapSense_InitializeAverage
1110:Generated_Source\PSoC6/CapSense_Filter.c **** ****************************************************************************//**
1111:Generated_Source\PSoC6/CapSense_Filter.c **** *
1112:Generated_Source\PSoC6/CapSense_Filter.c **** * \brief    Initializes the average filter history.
1113:Generated_Source\PSoC6/CapSense_Filter.c **** *
1114:Generated_Source\PSoC6/CapSense_Filter.c **** * \details  Initializes the average filter history.
ARM GAS  C:\Users\PC\AppData\Local\Temp\ccyhv7od.s 			page 28


1115:Generated_Source\PSoC6/CapSense_Filter.c **** *
1116:Generated_Source\PSoC6/CapSense_Filter.c **** * \param    widgetId Specifies the ID number of the widget.
1117:Generated_Source\PSoC6/CapSense_Filter.c **** * \param    sensorId Specifies the ID number of the sensor in the widget.
1118:Generated_Source\PSoC6/CapSense_Filter.c **** *
1119:Generated_Source\PSoC6/CapSense_Filter.c **** *******************************************************************************/
1120:Generated_Source\PSoC6/CapSense_Filter.c **** void CapSense_InitializeAverage(uint32 widgetId, uint32 sensorId)
1121:Generated_Source\PSoC6/CapSense_Filter.c **** {
1122:Generated_Source\PSoC6/CapSense_Filter.c ****     CapSense_FLASH_WD_STRUCT const *ptrWidget = &CapSense_dsFlash.wdgtArray[widgetId];
1123:Generated_Source\PSoC6/CapSense_Filter.c ****     CapSense_RAM_SNS_STRUCT *ptrSensor = NULL;
1124:Generated_Source\PSoC6/CapSense_Filter.c ****     CapSense_PTR_FILTER_VARIANT ptrFilterHistObj;
1125:Generated_Source\PSoC6/CapSense_Filter.c **** 
1126:Generated_Source\PSoC6/CapSense_Filter.c ****     /* Find pointer to specified sensor object */
1127:Generated_Source\PSoC6/CapSense_Filter.c ****     ptrSensor = ptrWidget->ptr2SnsRam;
1128:Generated_Source\PSoC6/CapSense_Filter.c ****     ptrSensor = &ptrSensor[sensorId];
1129:Generated_Source\PSoC6/CapSense_Filter.c **** 
1130:Generated_Source\PSoC6/CapSense_Filter.c ****     /* Find pointer to specified filter sensor object */
1131:Generated_Source\PSoC6/CapSense_Filter.c ****     ptrFilterHistObj.ptr = ptrWidget->ptr2FltrHistory;
1132:Generated_Source\PSoC6/CapSense_Filter.c **** 
1133:Generated_Source\PSoC6/CapSense_Filter.c ****     if ((CapSense_WD_TYPE_ENUM)ptrWidget->wdgtType != CapSense_WD_PROXIMITY_E)
1134:Generated_Source\PSoC6/CapSense_Filter.c ****     {
1135:Generated_Source\PSoC6/CapSense_Filter.c ****         #if (CapSense_REGULAR_SENSOR_EN)
1136:Generated_Source\PSoC6/CapSense_Filter.c ****             ptrFilterHistObj.ptrRegular = &ptrFilterHistObj.ptrRegular[sensorId];
1137:Generated_Source\PSoC6/CapSense_Filter.c ****         #endif /* (CapSense_REGULAR_SENSOR_EN) */
1138:Generated_Source\PSoC6/CapSense_Filter.c ****     }
1139:Generated_Source\PSoC6/CapSense_Filter.c ****     else
1140:Generated_Source\PSoC6/CapSense_Filter.c ****     {
1141:Generated_Source\PSoC6/CapSense_Filter.c ****         #if (CapSense_PROXIMITY_SENSOR_EN)
1142:Generated_Source\PSoC6/CapSense_Filter.c ****             ptrFilterHistObj.ptrProx = &ptrFilterHistObj.ptrProx[sensorId];
1143:Generated_Source\PSoC6/CapSense_Filter.c ****         #endif /* (CapSense_PROXIMITY_SENSOR_EN) */
1144:Generated_Source\PSoC6/CapSense_Filter.c ****     }
1145:Generated_Source\PSoC6/CapSense_Filter.c **** 
1146:Generated_Source\PSoC6/CapSense_Filter.c ****     CapSense_InitializeAverageInternal(ptrFilterHistObj, ptrSensor, (uint32)ptrWidget->wdgtType);
1147:Generated_Source\PSoC6/CapSense_Filter.c **** }
1148:Generated_Source\PSoC6/CapSense_Filter.c **** 
1149:Generated_Source\PSoC6/CapSense_Filter.c **** 
1150:Generated_Source\PSoC6/CapSense_Filter.c **** /*******************************************************************************
1151:Generated_Source\PSoC6/CapSense_Filter.c **** * Function Name: CapSense_RunAverage
1152:Generated_Source\PSoC6/CapSense_Filter.c **** ****************************************************************************//**
1153:Generated_Source\PSoC6/CapSense_Filter.c **** *
1154:Generated_Source\PSoC6/CapSense_Filter.c **** * \brief    Executes the average filter algorithm on a sensor indicated by an input
1155:Generated_Source\PSoC6/CapSense_Filter.c **** *           parameter.
1156:Generated_Source\PSoC6/CapSense_Filter.c **** *
1157:Generated_Source\PSoC6/CapSense_Filter.c **** * \details  Executes the average filter algorithm on a sensor indicated by an input
1158:Generated_Source\PSoC6/CapSense_Filter.c **** *           parameter.
1159:Generated_Source\PSoC6/CapSense_Filter.c **** *
1160:Generated_Source\PSoC6/CapSense_Filter.c **** * \param    widgetId Specifies the ID number of the widget.
1161:Generated_Source\PSoC6/CapSense_Filter.c **** * \param    sensorId Specifies the ID number of the sensor in the widget.
1162:Generated_Source\PSoC6/CapSense_Filter.c **** *
1163:Generated_Source\PSoC6/CapSense_Filter.c **** *******************************************************************************/
1164:Generated_Source\PSoC6/CapSense_Filter.c **** void CapSense_RunAverage(uint32 widgetId, uint32 sensorId)
1165:Generated_Source\PSoC6/CapSense_Filter.c **** {
1166:Generated_Source\PSoC6/CapSense_Filter.c ****     CapSense_FLASH_WD_STRUCT const *ptrWidget = &CapSense_dsFlash.wdgtArray[widgetId];
1167:Generated_Source\PSoC6/CapSense_Filter.c ****     CapSense_RAM_SNS_STRUCT *ptrSensor = NULL;
1168:Generated_Source\PSoC6/CapSense_Filter.c ****     CapSense_PTR_FILTER_VARIANT ptrFilterHistObj;
1169:Generated_Source\PSoC6/CapSense_Filter.c **** 
1170:Generated_Source\PSoC6/CapSense_Filter.c ****     /* Find pointer to specified sensor object */
1171:Generated_Source\PSoC6/CapSense_Filter.c ****     ptrSensor = ptrWidget->ptr2SnsRam;
ARM GAS  C:\Users\PC\AppData\Local\Temp\ccyhv7od.s 			page 29


1172:Generated_Source\PSoC6/CapSense_Filter.c ****     ptrSensor = &ptrSensor[sensorId];
1173:Generated_Source\PSoC6/CapSense_Filter.c **** 
1174:Generated_Source\PSoC6/CapSense_Filter.c ****     /* Find pointer to specified filter sensor object */
1175:Generated_Source\PSoC6/CapSense_Filter.c ****     ptrFilterHistObj.ptr = ptrWidget->ptr2FltrHistory;
1176:Generated_Source\PSoC6/CapSense_Filter.c **** 
1177:Generated_Source\PSoC6/CapSense_Filter.c ****     if ((CapSense_WD_TYPE_ENUM)ptrWidget->wdgtType != CapSense_WD_PROXIMITY_E)
1178:Generated_Source\PSoC6/CapSense_Filter.c ****     {
1179:Generated_Source\PSoC6/CapSense_Filter.c ****         #if (CapSense_REGULAR_SENSOR_EN)
1180:Generated_Source\PSoC6/CapSense_Filter.c ****             ptrFilterHistObj.ptrRegular = &ptrFilterHistObj.ptrRegular[sensorId];
1181:Generated_Source\PSoC6/CapSense_Filter.c ****         #endif /* (CapSense_REGULAR_SENSOR_EN) */
1182:Generated_Source\PSoC6/CapSense_Filter.c ****     }
1183:Generated_Source\PSoC6/CapSense_Filter.c ****     else
1184:Generated_Source\PSoC6/CapSense_Filter.c ****     {
1185:Generated_Source\PSoC6/CapSense_Filter.c ****         #if (CapSense_PROXIMITY_SENSOR_EN)
1186:Generated_Source\PSoC6/CapSense_Filter.c ****             ptrFilterHistObj.ptrProx = &ptrFilterHistObj.ptrProx[sensorId];
1187:Generated_Source\PSoC6/CapSense_Filter.c ****         #endif /* (CapSense_PROXIMITY_SENSOR_EN) */
1188:Generated_Source\PSoC6/CapSense_Filter.c ****     }
1189:Generated_Source\PSoC6/CapSense_Filter.c **** 
1190:Generated_Source\PSoC6/CapSense_Filter.c ****     CapSense_RunAverageInternal(ptrFilterHistObj, ptrSensor, (uint32)ptrWidget->wdgtType);
1191:Generated_Source\PSoC6/CapSense_Filter.c **** }
1192:Generated_Source\PSoC6/CapSense_Filter.c **** 
1193:Generated_Source\PSoC6/CapSense_Filter.c **** 
1194:Generated_Source\PSoC6/CapSense_Filter.c **** /*******************************************************************************
1195:Generated_Source\PSoC6/CapSense_Filter.c **** * Function Name: CapSense_InitializeAverageInternal
1196:Generated_Source\PSoC6/CapSense_Filter.c **** ****************************************************************************//**
1197:Generated_Source\PSoC6/CapSense_Filter.c **** *
1198:Generated_Source\PSoC6/CapSense_Filter.c **** * \brief    Initializes the average filter.
1199:Generated_Source\PSoC6/CapSense_Filter.c **** *
1200:Generated_Source\PSoC6/CapSense_Filter.c **** * \details  Initializes the average filter.
1201:Generated_Source\PSoC6/CapSense_Filter.c **** *
1202:Generated_Source\PSoC6/CapSense_Filter.c **** * \param    ptrFilterHistObj The pointer to the filter RAM object of the sensor.
1203:Generated_Source\PSoC6/CapSense_Filter.c **** * \param    ptrSensorObj     The pointer to the sensor RAM object of the sensor.
1204:Generated_Source\PSoC6/CapSense_Filter.c **** * \param    wdType           Specifies the type of a widget.
1205:Generated_Source\PSoC6/CapSense_Filter.c **** *
1206:Generated_Source\PSoC6/CapSense_Filter.c **** *******************************************************************************/
1207:Generated_Source\PSoC6/CapSense_Filter.c **** void CapSense_InitializeAverageInternal(CapSense_PTR_FILTER_VARIANT ptrFilterHistObj,\
1208:Generated_Source\PSoC6/CapSense_Filter.c ****                                                   CapSense_RAM_SNS_STRUCT *ptrSensorObj, uint32 wdT
1209:Generated_Source\PSoC6/CapSense_Filter.c **** {
 392              		.loc 1 1209 0
 393              		.cfi_startproc
 394              		@ args = 0, pretend = 0, frame = 0
 395              		@ frame_needed = 0, uses_anonymous_args = 0
 396              	.LVL50:
 397 0000 F0B5     		push	{r4, r5, r6, r7, lr}
 398              		.cfi_def_cfa_offset 20
 399              		.cfi_offset 4, -20
 400              		.cfi_offset 5, -16
 401              		.cfi_offset 6, -12
 402              		.cfi_offset 7, -8
 403              		.cfi_offset 14, -4
 404              	.LVL51:
1210:Generated_Source\PSoC6/CapSense_Filter.c ****     uint32 freqChannel;
1211:Generated_Source\PSoC6/CapSense_Filter.c **** 
1212:Generated_Source\PSoC6/CapSense_Filter.c ****     for(freqChannel = CapSense_NUM_SCAN_FREQS; freqChannel-- > 0u;)
 405              		.loc 1 1212 0
 406 0002 0123     		movs	r3, #1
 407 0004 0FE0     		b	.L26
ARM GAS  C:\Users\PC\AppData\Local\Temp\ccyhv7od.s 			page 30


 408              	.LVL52:
 409              	.L28:
1213:Generated_Source\PSoC6/CapSense_Filter.c ****     {
1214:Generated_Source\PSoC6/CapSense_Filter.c ****         if ((CapSense_WD_TYPE_ENUM)wdType != CapSense_WD_PROXIMITY_E)
 410              		.loc 1 1214 0
 411 0006 FF23     		movs	r3, #255
 412 0008 1340     		ands	r3, r2
 413 000a 062B     		cmp	r3, #6
 414 000c 0AD0     		beq	.L27
1215:Generated_Source\PSoC6/CapSense_Filter.c ****         {
1216:Generated_Source\PSoC6/CapSense_Filter.c ****             #if (CapSense_REGULAR_SENSOR_EN && CapSense_REGULAR_RC_AVERAGE_FILTER_EN)
1217:Generated_Source\PSoC6/CapSense_Filter.c ****                 ptrFilterHistObj.ptrRegular->regularChannel[freqChannel].avgHistory[0] = ptrSensorO
 415              		.loc 1 1217 0
 416 000e 6600     		lsls	r6, r4, #1
 417 0010 775A     		ldrh	r7, [r6, r1]
 418 0012 A500     		lsls	r5, r4, #2
 419 0014 2D19     		adds	r5, r5, r4
 420 0016 6B00     		lsls	r3, r5, #1
 421 0018 C318     		adds	r3, r0, r3
 422 001a 9F80     		strh	r7, [r3, #4]
1218:Generated_Source\PSoC6/CapSense_Filter.c ****                 #if (CapSense_REGULAR_AVERAGE_LEN == CapSense_AVERAGE_FILTER_LEN_4)
1219:Generated_Source\PSoC6/CapSense_Filter.c ****                     ptrFilterHistObj.ptrRegular->regularChannel[freqChannel].avgHistory[1u] = ptrSe
 423              		.loc 1 1219 0
 424 001c 755A     		ldrh	r5, [r6, r1]
 425 001e DD80     		strh	r5, [r3, #6]
1220:Generated_Source\PSoC6/CapSense_Filter.c ****                     ptrFilterHistObj.ptrRegular->regularChannel[freqChannel].avgHistory[2u] = ptrSe
 426              		.loc 1 1220 0
 427 0020 755A     		ldrh	r5, [r6, r1]
 428 0022 1D81     		strh	r5, [r3, #8]
 429              	.L27:
1209:Generated_Source\PSoC6/CapSense_Filter.c ****     uint32 freqChannel;
 430              		.loc 1 1209 0 discriminator 1
 431 0024 2300     		movs	r3, r4
 432              	.LVL53:
 433              	.L26:
1212:Generated_Source\PSoC6/CapSense_Filter.c ****     {
 434              		.loc 1 1212 0 discriminator 1
 435 0026 5C1E     		subs	r4, r3, #1
 436              	.LVL54:
 437 0028 002B     		cmp	r3, #0
 438 002a ECD1     		bne	.L28
1221:Generated_Source\PSoC6/CapSense_Filter.c ****                 #endif /* CapSense_REGULAR_AVERAGE_LEN == CapSense_AVERAGE_FILTER_LEN_4 */
1222:Generated_Source\PSoC6/CapSense_Filter.c ****             #endif /* (CapSense_REGULAR_SENSOR_EN) */
1223:Generated_Source\PSoC6/CapSense_Filter.c ****         }
1224:Generated_Source\PSoC6/CapSense_Filter.c ****         else
1225:Generated_Source\PSoC6/CapSense_Filter.c ****         {
1226:Generated_Source\PSoC6/CapSense_Filter.c ****             #if (CapSense_PROXIMITY_SENSOR_EN && CapSense_PROX_RC_AVERAGE_FILTER_EN)
1227:Generated_Source\PSoC6/CapSense_Filter.c ****                 ptrFilterHistObj.ptrProx->proxChannel[freqChannel].avgHistory[0] = ptrSensorObj->ra
1228:Generated_Source\PSoC6/CapSense_Filter.c ****                     #if (CapSense_PROX_AVERAGE_LEN == CapSense_AVERAGE_FILTER_LEN_4)
1229:Generated_Source\PSoC6/CapSense_Filter.c ****                         ptrFilterHistObj.ptrProx->proxChannel[freqChannel].avgHistory[1u] = ptrSens
1230:Generated_Source\PSoC6/CapSense_Filter.c ****                         ptrFilterHistObj.ptrProx->proxChannel[freqChannel].avgHistory[2u] = ptrSens
1231:Generated_Source\PSoC6/CapSense_Filter.c ****                     #endif /* CapSense_REGULAR_AVERAGE_LEN == CapSense_AVERAGE_FILTER_LEN_4 */
1232:Generated_Source\PSoC6/CapSense_Filter.c ****             #endif /* (CapSense_PROXIMITY_SENSOR_EN) */
1233:Generated_Source\PSoC6/CapSense_Filter.c ****         }
1234:Generated_Source\PSoC6/CapSense_Filter.c ****     }
1235:Generated_Source\PSoC6/CapSense_Filter.c **** }
 439              		.loc 1 1235 0
ARM GAS  C:\Users\PC\AppData\Local\Temp\ccyhv7od.s 			page 31


 440              		@ sp needed
 441              	.LVL55:
 442 002c F0BD     		pop	{r4, r5, r6, r7, pc}
 443              		.cfi_endproc
 444              	.LFE63:
 445              		.size	CapSense_InitializeAverageInternal, .-CapSense_InitializeAverageInternal
 446 002e C046     		.section	.text.CapSense_InitializeWidgetFilter,"ax",%progbits
 447              		.align	2
 448              		.global	CapSense_InitializeWidgetFilter
 449              		.code	16
 450              		.thumb_func
 451              		.type	CapSense_InitializeWidgetFilter, %function
 452              	CapSense_InitializeWidgetFilter:
 453              	.LFB56:
 636:Generated_Source\PSoC6/CapSense_Filter.c ****     uint32 sensorId;
 454              		.loc 1 636 0
 455              		.cfi_startproc
 456              		@ args = 0, pretend = 0, frame = 8
 457              		@ frame_needed = 0, uses_anonymous_args = 0
 458              	.LVL56:
 459 0000 F0B5     		push	{r4, r5, r6, r7, lr}
 460              		.cfi_def_cfa_offset 20
 461              		.cfi_offset 4, -20
 462              		.cfi_offset 5, -16
 463              		.cfi_offset 6, -12
 464              		.cfi_offset 7, -8
 465              		.cfi_offset 14, -4
 466 0002 4F46     		mov	r7, r9
 467 0004 4646     		mov	r6, r8
 468 0006 C0B4     		push	{r6, r7}
 469              		.cfi_def_cfa_offset 28
 470              		.cfi_offset 8, -28
 471              		.cfi_offset 9, -24
 472 0008 83B0     		sub	sp, sp, #12
 473              		.cfi_def_cfa_offset 40
 474 000a 0600     		movs	r6, r0
 475              	.LVL57:
 654:Generated_Source\PSoC6/CapSense_Filter.c ****     #endif /* (0u != (CapSense_CSD_AUTOTUNE & CapSense_CSD_SS_TH_EN)) */
 476              		.loc 1 654 0
 477 000c 2C23     		movs	r3, #44
 478 000e 4343     		muls	r3, r0
 479 0010 1D4A     		ldr	r2, .L34
 480 0012 D318     		adds	r3, r2, r3
 481              	.LVL58:
 482 0014 5A68     		ldr	r2, [r3, #4]
 483 0016 9146     		mov	r9, r2
 484              	.LVL59:
 658:Generated_Source\PSoC6/CapSense_Filter.c **** 
 485              		.loc 1 658 0
 486 0018 1B8B     		ldrh	r3, [r3, #24]
 487              	.LVL60:
 660:Generated_Source\PSoC6/CapSense_Filter.c ****     {
 488              		.loc 1 660 0
 489 001a 2DE0     		b	.L30
 490              	.LVL61:
 491              	.L33:
 663:Generated_Source\PSoC6/CapSense_Filter.c ****         ptrSensor = &ptrSensor[sensorId];
ARM GAS  C:\Users\PC\AppData\Local\Temp\ccyhv7od.s 			page 32


 492              		.loc 1 663 0
 493 001c 2C23     		movs	r3, #44
 494 001e 7343     		muls	r3, r6
 495 0020 194A     		ldr	r2, .L34
 496 0022 D318     		adds	r3, r2, r3
 497              	.LVL62:
 664:Generated_Source\PSoC6/CapSense_Filter.c **** 
 498              		.loc 1 664 0
 499 0024 A200     		lsls	r2, r4, #2
 500 0026 1219     		adds	r2, r2, r4
 501 0028 5100     		lsls	r1, r2, #1
 502 002a 9A68     		ldr	r2, [r3, #8]
 503 002c 5518     		adds	r5, r2, r1
 504              	.LVL63:
 668:Generated_Source\PSoC6/CapSense_Filter.c ****         #endif
 505              		.loc 1 668 0
 506 002e D868     		ldr	r0, [r3, #12]
 507 0030 0190     		str	r0, [sp, #4]
 508              	.LVL64:
 674:Generated_Source\PSoC6/CapSense_Filter.c ****         #endif /* (0u != (CapSense_CSD_AUTOTUNE & CapSense_CSD_SS_TH_EN)) */
 509              		.loc 1 674 0
 510 0032 6200     		lsls	r2, r4, #1
 511 0034 1219     		adds	r2, r2, r4
 512 0036 9700     		lsls	r7, r2, #2
 513 0038 5A6A     		ldr	r2, [r3, #36]
 514 003a 9046     		mov	r8, r2
 515 003c B844     		add	r8, r8, r7
 516              	.LVL65:
 677:Generated_Source\PSoC6/CapSense_Filter.c ****         {
 517              		.loc 1 677 0
 518 003e 9F7E     		ldrb	r7, [r3, #26]
 519 0040 062F     		cmp	r7, #6
 520 0042 01D0     		beq	.L31
 682:Generated_Source\PSoC6/CapSense_Filter.c ****             #endif
 521              		.loc 1 682 0
 522 0044 4318     		adds	r3, r0, r1
 523              	.LVL66:
 524 0046 0193     		str	r3, [sp, #4]
 525              	.L31:
 699:Generated_Source\PSoC6/CapSense_Filter.c ****         #endif /* (CapSense_REGULAR_RC_MEDIAN_FILTER_EN || CapSense_PROX_RC_MEDIAN_FILTER_EN) */
 526              		.loc 1 699 0
 527 0048 3A00     		movs	r2, r7
 528 004a 2900     		movs	r1, r5
 529 004c 0198     		ldr	r0, [sp, #4]
 530 004e FFF7FEFF 		bl	CapSense_InitializeMedianInternal
 531              	.LVL67:
 703:Generated_Source\PSoC6/CapSense_Filter.c ****         #endif /* (CapSense_REGULAR_RC_AVERAGE_FILTER_EN || CapSense_PROX_RC_AVERAGE_FILTER_EN) */
 532              		.loc 1 703 0
 533 0052 3A00     		movs	r2, r7
 534 0054 2900     		movs	r1, r5
 535 0056 0198     		ldr	r0, [sp, #4]
 536 0058 FFF7FEFF 		bl	CapSense_InitializeAverageInternal
 537              	.LVL68:
 712:Generated_Source\PSoC6/CapSense_Filter.c ****             {
 538              		.loc 1 712 0
 539 005c 2C23     		movs	r3, #44
 540 005e 7343     		muls	r3, r6
ARM GAS  C:\Users\PC\AppData\Local\Temp\ccyhv7od.s 			page 33


 541 0060 094A     		ldr	r2, .L34
 542 0062 D318     		adds	r3, r2, r3
 543 0064 DB7E     		ldrb	r3, [r3, #27]
 711:Generated_Source\PSoC6/CapSense_Filter.c ****                 CapSense_GET_SENSE_METHOD(&CapSense_dsFlash.wdgtArray[widgetId]))
 544              		.loc 1 711 0
 545 0066 012B     		cmp	r3, #1
 546 0068 05D1     		bne	.L32
 714:Generated_Source\PSoC6/CapSense_Filter.c ****             }
 547              		.loc 1 714 0
 548 006a 4B46     		mov	r3, r9
 549 006c 198A     		ldrh	r1, [r3, #16]
 550 006e 2888     		ldrh	r0, [r5]
 551 0070 4246     		mov	r2, r8
 552 0072 FFF7FEFF 		bl	SmartSense_InitializeNoiseEnvelope
 553              	.LVL69:
 554              	.L32:
 555 0076 2300     		movs	r3, r4
 556              	.LVL70:
 557              	.L30:
 660:Generated_Source\PSoC6/CapSense_Filter.c ****     {
 558              		.loc 1 660 0 discriminator 1
 559 0078 5C1E     		subs	r4, r3, #1
 560              	.LVL71:
 561 007a 002B     		cmp	r3, #0
 562 007c CED1     		bne	.L33
 718:Generated_Source\PSoC6/CapSense_Filter.c **** #endif /* ((CapSense_ENABLE == CapSense_RC_FILTER_EN) || \
 563              		.loc 1 718 0
 564 007e 03B0     		add	sp, sp, #12
 565              		@ sp needed
 566              	.LVL72:
 567              	.LVL73:
 568              	.LVL74:
 569 0080 0CBC     		pop	{r2, r3}
 570 0082 9046     		mov	r8, r2
 571 0084 9946     		mov	r9, r3
 572 0086 F0BD     		pop	{r4, r5, r6, r7, pc}
 573              	.L35:
 574              		.align	2
 575              	.L34:
 576 0088 00000000 		.word	CapSense_dsFlash
 577              		.cfi_endproc
 578              	.LFE56:
 579              		.size	CapSense_InitializeWidgetFilter, .-CapSense_InitializeWidgetFilter
 580              		.section	.text.CapSense_InitializeAllFilters,"ax",%progbits
 581              		.align	2
 582              		.global	CapSense_InitializeAllFilters
 583              		.code	16
 584              		.thumb_func
 585              		.type	CapSense_InitializeAllFilters, %function
 586              	CapSense_InitializeAllFilters:
 587              	.LFB55:
 606:Generated_Source\PSoC6/CapSense_Filter.c ****     uint32 widgetId;
 588              		.loc 1 606 0
 589              		.cfi_startproc
 590              		@ args = 0, pretend = 0, frame = 0
 591              		@ frame_needed = 0, uses_anonymous_args = 0
 592 0000 10B5     		push	{r4, lr}
ARM GAS  C:\Users\PC\AppData\Local\Temp\ccyhv7od.s 			page 34


 593              		.cfi_def_cfa_offset 8
 594              		.cfi_offset 4, -8
 595              		.cfi_offset 14, -4
 596              	.LVL75:
 609:Generated_Source\PSoC6/CapSense_Filter.c ****     {
 597              		.loc 1 609 0
 598 0002 0323     		movs	r3, #3
 599 0004 03E0     		b	.L37
 600              	.LVL76:
 601              	.L38:
 611:Generated_Source\PSoC6/CapSense_Filter.c ****     }
 602              		.loc 1 611 0
 603 0006 2000     		movs	r0, r4
 604 0008 FFF7FEFF 		bl	CapSense_InitializeWidgetFilter
 605              	.LVL77:
 609:Generated_Source\PSoC6/CapSense_Filter.c ****     {
 606              		.loc 1 609 0
 607 000c 2300     		movs	r3, r4
 608              	.LVL78:
 609              	.L37:
 609:Generated_Source\PSoC6/CapSense_Filter.c ****     {
 610              		.loc 1 609 0 is_stmt 0 discriminator 1
 611 000e 5C1E     		subs	r4, r3, #1
 612              	.LVL79:
 613 0010 002B     		cmp	r3, #0
 614 0012 F8D1     		bne	.L38
 613:Generated_Source\PSoC6/CapSense_Filter.c **** 
 615              		.loc 1 613 0 is_stmt 1
 616              		@ sp needed
 617              	.LVL80:
 618 0014 10BD     		pop	{r4, pc}
 619              		.cfi_endproc
 620              	.LFE55:
 621              		.size	CapSense_InitializeAllFilters, .-CapSense_InitializeAllFilters
 622 0016 C046     		.section	.text.CapSense_FtInitialize,"ax",%progbits
 623              		.align	2
 624              		.global	CapSense_FtInitialize
 625              		.code	16
 626              		.thumb_func
 627              		.type	CapSense_FtInitialize, %function
 628              	CapSense_FtInitialize:
 629              	.LFB45:
  64:Generated_Source\PSoC6/CapSense_Filter.c ****     #if ((CapSense_ENABLE == CapSense_RC_FILTER_EN) || \
 630              		.loc 1 64 0
 631              		.cfi_startproc
 632              		@ args = 0, pretend = 0, frame = 0
 633              		@ frame_needed = 0, uses_anonymous_args = 0
 634 0000 10B5     		push	{r4, lr}
 635              		.cfi_def_cfa_offset 8
 636              		.cfi_offset 4, -8
 637              		.cfi_offset 14, -4
  67:Generated_Source\PSoC6/CapSense_Filter.c ****     #endif /* ((CapSense_ENABLE == CapSense_RC_FILTER_EN) || \
 638              		.loc 1 67 0
 639 0002 FFF7FEFF 		bl	CapSense_InitializeAllFilters
 640              	.LVL81:
  70:Generated_Source\PSoC6/CapSense_Filter.c **** 
 641              		.loc 1 70 0
ARM GAS  C:\Users\PC\AppData\Local\Temp\ccyhv7od.s 			page 35


 642              		@ sp needed
 643 0006 10BD     		pop	{r4, pc}
 644              		.cfi_endproc
 645              	.LFE45:
 646              		.size	CapSense_FtInitialize, .-CapSense_FtInitialize
 647              		.section	.text.CapSense_InitializeAverage,"ax",%progbits
 648              		.align	2
 649              		.global	CapSense_InitializeAverage
 650              		.code	16
 651              		.thumb_func
 652              		.type	CapSense_InitializeAverage, %function
 653              	CapSense_InitializeAverage:
 654              	.LFB61:
1121:Generated_Source\PSoC6/CapSense_Filter.c ****     CapSense_FLASH_WD_STRUCT const *ptrWidget = &CapSense_dsFlash.wdgtArray[widgetId];
 655              		.loc 1 1121 0
 656              		.cfi_startproc
 657              		@ args = 0, pretend = 0, frame = 0
 658              		@ frame_needed = 0, uses_anonymous_args = 0
 659              	.LVL82:
 660 0000 70B5     		push	{r4, r5, r6, lr}
 661              		.cfi_def_cfa_offset 16
 662              		.cfi_offset 4, -16
 663              		.cfi_offset 5, -12
 664              		.cfi_offset 6, -8
 665              		.cfi_offset 14, -4
 666              	.LVL83:
1127:Generated_Source\PSoC6/CapSense_Filter.c ****     ptrSensor = &ptrSensor[sensorId];
 667              		.loc 1 1127 0
 668 0002 2C23     		movs	r3, #44
 669 0004 5843     		muls	r0, r3
 670              	.LVL84:
 671 0006 084B     		ldr	r3, .L42
 672 0008 1B18     		adds	r3, r3, r0
 673              	.LVL85:
1128:Generated_Source\PSoC6/CapSense_Filter.c **** 
 674              		.loc 1 1128 0
 675 000a 8A00     		lsls	r2, r1, #2
 676 000c 5118     		adds	r1, r2, r1
 677              	.LVL86:
 678 000e 4C00     		lsls	r4, r1, #1
 679 0010 9A68     		ldr	r2, [r3, #8]
 680 0012 1119     		adds	r1, r2, r4
 681              	.LVL87:
1131:Generated_Source\PSoC6/CapSense_Filter.c **** 
 682              		.loc 1 1131 0
 683 0014 DD68     		ldr	r5, [r3, #12]
 684 0016 2800     		movs	r0, r5
 685              	.LVL88:
1133:Generated_Source\PSoC6/CapSense_Filter.c ****     {
 686              		.loc 1 1133 0
 687 0018 9A7E     		ldrb	r2, [r3, #26]
 688 001a 062A     		cmp	r2, #6
 689 001c 00D0     		beq	.L41
1136:Generated_Source\PSoC6/CapSense_Filter.c ****         #endif /* (CapSense_REGULAR_SENSOR_EN) */
 690              		.loc 1 1136 0
 691 001e 2819     		adds	r0, r5, r4
 692              	.L41:
ARM GAS  C:\Users\PC\AppData\Local\Temp\ccyhv7od.s 			page 36


1146:Generated_Source\PSoC6/CapSense_Filter.c **** }
 693              		.loc 1 1146 0
 694 0020 FFF7FEFF 		bl	CapSense_InitializeAverageInternal
 695              	.LVL89:
1147:Generated_Source\PSoC6/CapSense_Filter.c **** 
 696              		.loc 1 1147 0
 697              		@ sp needed
 698              	.LVL90:
 699 0024 70BD     		pop	{r4, r5, r6, pc}
 700              	.L43:
 701 0026 C046     		.align	2
 702              	.L42:
 703 0028 00000000 		.word	CapSense_dsFlash
 704              		.cfi_endproc
 705              	.LFE61:
 706              		.size	CapSense_InitializeAverage, .-CapSense_InitializeAverage
 707              		.section	.text.CapSense_RunAverageInternal,"ax",%progbits
 708              		.align	2
 709              		.global	CapSense_RunAverageInternal
 710              		.code	16
 711              		.thumb_func
 712              		.type	CapSense_RunAverageInternal, %function
 713              	CapSense_RunAverageInternal:
 714              	.LFB64:
1236:Generated_Source\PSoC6/CapSense_Filter.c **** 
1237:Generated_Source\PSoC6/CapSense_Filter.c **** 
1238:Generated_Source\PSoC6/CapSense_Filter.c **** /*******************************************************************************
1239:Generated_Source\PSoC6/CapSense_Filter.c **** * Function Name: CapSense_RunAverageInternal
1240:Generated_Source\PSoC6/CapSense_Filter.c **** ****************************************************************************//**
1241:Generated_Source\PSoC6/CapSense_Filter.c **** *
1242:Generated_Source\PSoC6/CapSense_Filter.c **** * \brief    Runs the average filter.
1243:Generated_Source\PSoC6/CapSense_Filter.c **** *
1244:Generated_Source\PSoC6/CapSense_Filter.c **** * \details  Runs the average filter.
1245:Generated_Source\PSoC6/CapSense_Filter.c **** *
1246:Generated_Source\PSoC6/CapSense_Filter.c **** * \param    ptrFilterHistObj The pointer to the filter RAM object of the sensor.
1247:Generated_Source\PSoC6/CapSense_Filter.c **** * \param    ptrSensorObj     The pointer to the sensor RAM object of the sensor.
1248:Generated_Source\PSoC6/CapSense_Filter.c **** * \param    wdType           Specifies the type of a widget.
1249:Generated_Source\PSoC6/CapSense_Filter.c **** *
1250:Generated_Source\PSoC6/CapSense_Filter.c **** *******************************************************************************/
1251:Generated_Source\PSoC6/CapSense_Filter.c **** void CapSense_RunAverageInternal(CapSense_PTR_FILTER_VARIANT ptrFilterHistObj,\
1252:Generated_Source\PSoC6/CapSense_Filter.c ****                                            CapSense_RAM_SNS_STRUCT *ptrSensorObj, uint32 wdType)
1253:Generated_Source\PSoC6/CapSense_Filter.c **** {
 715              		.loc 1 1253 0
 716              		.cfi_startproc
 717              		@ args = 0, pretend = 0, frame = 0
 718              		@ frame_needed = 0, uses_anonymous_args = 0
 719              	.LVL91:
 720 0000 F0B5     		push	{r4, r5, r6, r7, lr}
 721              		.cfi_def_cfa_offset 20
 722              		.cfi_offset 4, -20
 723              		.cfi_offset 5, -16
 724              		.cfi_offset 6, -12
 725              		.cfi_offset 7, -8
 726              		.cfi_offset 14, -4
 727              	.LVL92:
1254:Generated_Source\PSoC6/CapSense_Filter.c ****     uint32 freqChannel;
1255:Generated_Source\PSoC6/CapSense_Filter.c ****     uint32 temp;
ARM GAS  C:\Users\PC\AppData\Local\Temp\ccyhv7od.s 			page 37


1256:Generated_Source\PSoC6/CapSense_Filter.c **** 
1257:Generated_Source\PSoC6/CapSense_Filter.c ****     for(freqChannel = CapSense_NUM_SCAN_FREQS; freqChannel-- > 0u;)
 728              		.loc 1 1257 0
 729 0002 0123     		movs	r3, #1
 730 0004 1AE0     		b	.L45
 731              	.LVL93:
 732              	.L47:
1258:Generated_Source\PSoC6/CapSense_Filter.c ****     {
1259:Generated_Source\PSoC6/CapSense_Filter.c ****         if ((CapSense_WD_TYPE_ENUM)wdType != CapSense_WD_PROXIMITY_E)
 733              		.loc 1 1259 0
 734 0006 FF23     		movs	r3, #255
 735 0008 1340     		ands	r3, r2
 736 000a 062B     		cmp	r3, #6
 737 000c 15D0     		beq	.L46
1260:Generated_Source\PSoC6/CapSense_Filter.c ****         {
1261:Generated_Source\PSoC6/CapSense_Filter.c ****             #if (CapSense_REGULAR_SENSOR_EN && CapSense_REGULAR_RC_AVERAGE_FILTER_EN)
1262:Generated_Source\PSoC6/CapSense_Filter.c ****                 #if (CapSense_REGULAR_AVERAGE_LEN == CapSense_AVERAGE_FILTER_LEN_2)
1263:Generated_Source\PSoC6/CapSense_Filter.c ****                     temp = ((uint32)ptrSensorObj->raw[freqChannel] +
1264:Generated_Source\PSoC6/CapSense_Filter.c ****                             (uint32)ptrFilterHistObj.ptrRegular->regularChannel[freqChannel].avgHis
1265:Generated_Source\PSoC6/CapSense_Filter.c ****                     ptrFilterHistObj.ptrRegular->regularChannel[freqChannel].avgHistory[0] = ptrSen
1266:Generated_Source\PSoC6/CapSense_Filter.c ****                     ptrSensorObj->raw[freqChannel] = CY_LO16(temp);
1267:Generated_Source\PSoC6/CapSense_Filter.c ****                 #else
1268:Generated_Source\PSoC6/CapSense_Filter.c ****                     temp = ((uint32)ptrSensorObj->raw[freqChannel] +
 738              		.loc 1 1268 0
 739 000e 6700     		lsls	r7, r4, #1
 740 0010 7B5A     		ldrh	r3, [r7, r1]
 741 0012 9C46     		mov	ip, r3
1269:Generated_Source\PSoC6/CapSense_Filter.c ****                             (uint32)ptrFilterHistObj.ptrRegular->regularChannel[freqChannel].avgHis
 742              		.loc 1 1269 0
 743 0014 A600     		lsls	r6, r4, #2
 744 0016 3619     		adds	r6, r6, r4
 745 0018 7300     		lsls	r3, r6, #1
 746 001a C318     		adds	r3, r0, r3
 747 001c 9D88     		ldrh	r5, [r3, #4]
1268:Generated_Source\PSoC6/CapSense_Filter.c ****                             (uint32)ptrFilterHistObj.ptrRegular->regularChannel[freqChannel].avgHis
 748              		.loc 1 1268 0
 749 001e 6544     		add	r5, r5, ip
1270:Generated_Source\PSoC6/CapSense_Filter.c ****                             (uint32)ptrFilterHistObj.ptrRegular->regularChannel[freqChannel].avgHis
 750              		.loc 1 1270 0
 751 0020 DE88     		ldrh	r6, [r3, #6]
 752 0022 B446     		mov	ip, r6
1269:Generated_Source\PSoC6/CapSense_Filter.c ****                             (uint32)ptrFilterHistObj.ptrRegular->regularChannel[freqChannel].avgHis
 753              		.loc 1 1269 0
 754 0024 6544     		add	r5, r5, ip
1271:Generated_Source\PSoC6/CapSense_Filter.c ****                             (uint32)ptrFilterHistObj.ptrRegular->regularChannel[freqChannel].avgHis
 755              		.loc 1 1271 0
 756 0026 1E89     		ldrh	r6, [r3, #8]
1270:Generated_Source\PSoC6/CapSense_Filter.c ****                             (uint32)ptrFilterHistObj.ptrRegular->regularChannel[freqChannel].avgHis
 757              		.loc 1 1270 0
 758 0028 AD19     		adds	r5, r5, r6
1268:Generated_Source\PSoC6/CapSense_Filter.c ****                             (uint32)ptrFilterHistObj.ptrRegular->regularChannel[freqChannel].avgHis
 759              		.loc 1 1268 0
 760 002a AD08     		lsrs	r5, r5, #2
 761              	.LVL94:
1272:Generated_Source\PSoC6/CapSense_Filter.c **** 
1273:Generated_Source\PSoC6/CapSense_Filter.c ****                     ptrFilterHistObj.ptrRegular->regularChannel[freqChannel].avgHistory[2u] =
 762              		.loc 1 1273 0
ARM GAS  C:\Users\PC\AppData\Local\Temp\ccyhv7od.s 			page 38


 763 002c 6646     		mov	r6, ip
 764 002e 1E81     		strh	r6, [r3, #8]
1274:Generated_Source\PSoC6/CapSense_Filter.c ****                     ptrFilterHistObj.ptrRegular->regularChannel[freqChannel].avgHistory[1u];
1275:Generated_Source\PSoC6/CapSense_Filter.c ****                     ptrFilterHistObj.ptrRegular->regularChannel[freqChannel].avgHistory[1u] =
1276:Generated_Source\PSoC6/CapSense_Filter.c ****                     ptrFilterHistObj.ptrRegular->regularChannel[freqChannel].avgHistory[0];
 765              		.loc 1 1276 0
 766 0030 9E88     		ldrh	r6, [r3, #4]
1275:Generated_Source\PSoC6/CapSense_Filter.c ****                     ptrFilterHistObj.ptrRegular->regularChannel[freqChannel].avgHistory[0];
 767              		.loc 1 1275 0
 768 0032 DE80     		strh	r6, [r3, #6]
1277:Generated_Source\PSoC6/CapSense_Filter.c ****                     ptrFilterHistObj.ptrRegular->regularChannel[freqChannel].avgHistory[0] = ptrSen
 769              		.loc 1 1277 0
 770 0034 7E5A     		ldrh	r6, [r7, r1]
 771 0036 9E80     		strh	r6, [r3, #4]
1278:Generated_Source\PSoC6/CapSense_Filter.c ****                     ptrSensorObj->raw[freqChannel] = CY_LO16(temp);
 772              		.loc 1 1278 0
 773 0038 CD53     		strh	r5, [r1, r7]
 774              	.LVL95:
 775              	.L46:
1253:Generated_Source\PSoC6/CapSense_Filter.c ****     uint32 freqChannel;
 776              		.loc 1 1253 0 discriminator 1
 777 003a 2300     		movs	r3, r4
 778              	.LVL96:
 779              	.L45:
1257:Generated_Source\PSoC6/CapSense_Filter.c ****     {
 780              		.loc 1 1257 0 discriminator 1
 781 003c 5C1E     		subs	r4, r3, #1
 782              	.LVL97:
 783 003e 002B     		cmp	r3, #0
 784 0040 E1D1     		bne	.L47
1279:Generated_Source\PSoC6/CapSense_Filter.c ****                 #endif /* CapSense_REGULAR_AVERAGE_LEN == CapSense_AVERAGE_FILTER_LEN_4 */
1280:Generated_Source\PSoC6/CapSense_Filter.c ****             #endif /* (CapSense_REGULAR_SENSOR_EN) */
1281:Generated_Source\PSoC6/CapSense_Filter.c ****         }
1282:Generated_Source\PSoC6/CapSense_Filter.c ****         else
1283:Generated_Source\PSoC6/CapSense_Filter.c ****         {
1284:Generated_Source\PSoC6/CapSense_Filter.c ****             #if (CapSense_PROXIMITY_SENSOR_EN && CapSense_PROX_RC_AVERAGE_FILTER_EN)
1285:Generated_Source\PSoC6/CapSense_Filter.c ****                 #if (CapSense_PROX_AVERAGE_LEN == CapSense_AVERAGE_FILTER_LEN_2)
1286:Generated_Source\PSoC6/CapSense_Filter.c ****                     temp = ((uint32)ptrSensorObj->raw[freqChannel] +
1287:Generated_Source\PSoC6/CapSense_Filter.c ****                             (uint32)ptrFilterHistObj.ptrProx->proxChannel[freqChannel].avgHistory[0
1288:Generated_Source\PSoC6/CapSense_Filter.c ****                     ptrFilterHistObj.ptrProx->proxChannel[freqChannel].avgHistory[0] = ptrSensorObj
1289:Generated_Source\PSoC6/CapSense_Filter.c ****                     ptrSensorObj->raw[freqChannel] = CY_LO16(temp);
1290:Generated_Source\PSoC6/CapSense_Filter.c ****                 #else
1291:Generated_Source\PSoC6/CapSense_Filter.c ****                     temp = ((uint32)ptrSensorObj->raw[freqChannel] +
1292:Generated_Source\PSoC6/CapSense_Filter.c ****                             (uint32)ptrFilterHistObj.ptrProx->proxChannel[freqChannel].avgHistory[0
1293:Generated_Source\PSoC6/CapSense_Filter.c ****                             (uint32)ptrFilterHistObj.ptrProx->proxChannel[freqChannel].avgHistory[1
1294:Generated_Source\PSoC6/CapSense_Filter.c ****                             (uint32)ptrFilterHistObj.ptrProx->proxChannel[freqChannel].avgHistory[2
1295:Generated_Source\PSoC6/CapSense_Filter.c **** 
1296:Generated_Source\PSoC6/CapSense_Filter.c ****                     ptrFilterHistObj.ptrProx->proxChannel[freqChannel].avgHistory[2u] =
1297:Generated_Source\PSoC6/CapSense_Filter.c ****                     ptrFilterHistObj.ptrProx->proxChannel[freqChannel].avgHistory[1u];
1298:Generated_Source\PSoC6/CapSense_Filter.c ****                     ptrFilterHistObj.ptrProx->proxChannel[freqChannel].avgHistory[1u] =
1299:Generated_Source\PSoC6/CapSense_Filter.c ****                     ptrFilterHistObj.ptrProx->proxChannel[freqChannel].avgHistory[0];
1300:Generated_Source\PSoC6/CapSense_Filter.c ****                     ptrFilterHistObj.ptrProx->proxChannel[freqChannel].avgHistory[0] = ptrSensorObj
1301:Generated_Source\PSoC6/CapSense_Filter.c ****                     ptrSensorObj->raw[freqChannel] = CY_LO16(temp);
1302:Generated_Source\PSoC6/CapSense_Filter.c ****                 #endif /* CapSense_PROX_AVERAGE_LEN == CapSense_AVERAGE_FILTER_LEN_4 */
1303:Generated_Source\PSoC6/CapSense_Filter.c ****             #endif /* (CapSense_PROXIMITY_SENSOR_EN) */
1304:Generated_Source\PSoC6/CapSense_Filter.c ****         }
1305:Generated_Source\PSoC6/CapSense_Filter.c ****     }
ARM GAS  C:\Users\PC\AppData\Local\Temp\ccyhv7od.s 			page 39


1306:Generated_Source\PSoC6/CapSense_Filter.c **** }
 785              		.loc 1 1306 0
 786              		@ sp needed
 787              	.LVL98:
 788 0042 F0BD     		pop	{r4, r5, r6, r7, pc}
 789              		.cfi_endproc
 790              	.LFE64:
 791              		.size	CapSense_RunAverageInternal, .-CapSense_RunAverageInternal
 792              		.section	.text.CapSense_RunAverage,"ax",%progbits
 793              		.align	2
 794              		.global	CapSense_RunAverage
 795              		.code	16
 796              		.thumb_func
 797              		.type	CapSense_RunAverage, %function
 798              	CapSense_RunAverage:
 799              	.LFB62:
1165:Generated_Source\PSoC6/CapSense_Filter.c ****     CapSense_FLASH_WD_STRUCT const *ptrWidget = &CapSense_dsFlash.wdgtArray[widgetId];
 800              		.loc 1 1165 0
 801              		.cfi_startproc
 802              		@ args = 0, pretend = 0, frame = 0
 803              		@ frame_needed = 0, uses_anonymous_args = 0
 804              	.LVL99:
 805 0000 70B5     		push	{r4, r5, r6, lr}
 806              		.cfi_def_cfa_offset 16
 807              		.cfi_offset 4, -16
 808              		.cfi_offset 5, -12
 809              		.cfi_offset 6, -8
 810              		.cfi_offset 14, -4
 811              	.LVL100:
1171:Generated_Source\PSoC6/CapSense_Filter.c ****     ptrSensor = &ptrSensor[sensorId];
 812              		.loc 1 1171 0
 813 0002 2C23     		movs	r3, #44
 814 0004 5843     		muls	r0, r3
 815              	.LVL101:
 816 0006 084B     		ldr	r3, .L50
 817 0008 1B18     		adds	r3, r3, r0
 818              	.LVL102:
1172:Generated_Source\PSoC6/CapSense_Filter.c **** 
 819              		.loc 1 1172 0
 820 000a 8A00     		lsls	r2, r1, #2
 821 000c 5118     		adds	r1, r2, r1
 822              	.LVL103:
 823 000e 4C00     		lsls	r4, r1, #1
 824 0010 9A68     		ldr	r2, [r3, #8]
 825 0012 1119     		adds	r1, r2, r4
 826              	.LVL104:
1175:Generated_Source\PSoC6/CapSense_Filter.c **** 
 827              		.loc 1 1175 0
 828 0014 DD68     		ldr	r5, [r3, #12]
 829 0016 2800     		movs	r0, r5
 830              	.LVL105:
1177:Generated_Source\PSoC6/CapSense_Filter.c ****     {
 831              		.loc 1 1177 0
 832 0018 9A7E     		ldrb	r2, [r3, #26]
 833 001a 062A     		cmp	r2, #6
 834 001c 00D0     		beq	.L49
1180:Generated_Source\PSoC6/CapSense_Filter.c ****         #endif /* (CapSense_REGULAR_SENSOR_EN) */
ARM GAS  C:\Users\PC\AppData\Local\Temp\ccyhv7od.s 			page 40


 835              		.loc 1 1180 0
 836 001e 2819     		adds	r0, r5, r4
 837              	.L49:
1190:Generated_Source\PSoC6/CapSense_Filter.c **** }
 838              		.loc 1 1190 0
 839 0020 FFF7FEFF 		bl	CapSense_RunAverageInternal
 840              	.LVL106:
1191:Generated_Source\PSoC6/CapSense_Filter.c **** 
 841              		.loc 1 1191 0
 842              		@ sp needed
 843              	.LVL107:
 844 0024 70BD     		pop	{r4, r5, r6, pc}
 845              	.L51:
 846 0026 C046     		.align	2
 847              	.L50:
 848 0028 00000000 		.word	CapSense_dsFlash
 849              		.cfi_endproc
 850              	.LFE62:
 851              		.size	CapSense_RunAverage, .-CapSense_RunAverage
 852              		.section	.text.CapSense_RunNoiseEnvelope,"ax",%progbits
 853              		.align	2
 854              		.global	CapSense_RunNoiseEnvelope
 855              		.code	16
 856              		.thumb_func
 857              		.type	CapSense_RunNoiseEnvelope, %function
 858              	CapSense_RunNoiseEnvelope:
 859              	.LFB67:
1307:Generated_Source\PSoC6/CapSense_Filter.c **** #endif /* (CapSense_REGULAR_RC_AVERAGE_FILTER_EN || CapSense_PROX_RC_AVERAGE_FILTER_EN) */
1308:Generated_Source\PSoC6/CapSense_Filter.c **** 
1309:Generated_Source\PSoC6/CapSense_Filter.c **** #if (CapSense_ENABLE == CapSense_ALP_FILTER_EN)
1310:Generated_Source\PSoC6/CapSense_Filter.c **** /*******************************************************************************
1311:Generated_Source\PSoC6/CapSense_Filter.c **** * Function Name: CapSense_InitializeALP
1312:Generated_Source\PSoC6/CapSense_Filter.c **** ****************************************************************************//**
1313:Generated_Source\PSoC6/CapSense_Filter.c **** *
1314:Generated_Source\PSoC6/CapSense_Filter.c **** * \brief    Initializes the ALP filter history.
1315:Generated_Source\PSoC6/CapSense_Filter.c **** *
1316:Generated_Source\PSoC6/CapSense_Filter.c **** * \details  Initializes the ALP filter history.
1317:Generated_Source\PSoC6/CapSense_Filter.c **** *
1318:Generated_Source\PSoC6/CapSense_Filter.c **** * \param    widgetId Specifies the ID number of the widget.
1319:Generated_Source\PSoC6/CapSense_Filter.c **** * \param    sensorId Specifies the ID number of the sensor in the widget.
1320:Generated_Source\PSoC6/CapSense_Filter.c **** *
1321:Generated_Source\PSoC6/CapSense_Filter.c **** *******************************************************************************/
1322:Generated_Source\PSoC6/CapSense_Filter.c **** void CapSense_InitializeALP(uint32 widgetId, uint32 sensorId)
1323:Generated_Source\PSoC6/CapSense_Filter.c **** {
1324:Generated_Source\PSoC6/CapSense_Filter.c ****     CapSense_FLASH_WD_STRUCT const *ptrWidget = &CapSense_dsFlash.wdgtArray[widgetId];
1325:Generated_Source\PSoC6/CapSense_Filter.c ****     CapSense_RAM_SNS_STRUCT *ptrSensor = NULL;
1326:Generated_Source\PSoC6/CapSense_Filter.c ****     CapSense_PTR_FILTER_VARIANT ptrFilterHistObj;
1327:Generated_Source\PSoC6/CapSense_Filter.c **** 
1328:Generated_Source\PSoC6/CapSense_Filter.c ****     /* Find pointer to specified sensor object */
1329:Generated_Source\PSoC6/CapSense_Filter.c ****     ptrSensor = ptrWidget->ptr2SnsRam;
1330:Generated_Source\PSoC6/CapSense_Filter.c ****     ptrSensor = &ptrSensor[sensorId];
1331:Generated_Source\PSoC6/CapSense_Filter.c **** 
1332:Generated_Source\PSoC6/CapSense_Filter.c ****     /* Find pointer to specified filter sensor object */
1333:Generated_Source\PSoC6/CapSense_Filter.c ****     ptrFilterHistObj.ptr = ptrWidget->ptr2FltrHistory;
1334:Generated_Source\PSoC6/CapSense_Filter.c ****     ptrFilterHistObj.ptrAlp = &ptrFilterHistObj.ptrAlp[sensorId];
1335:Generated_Source\PSoC6/CapSense_Filter.c ****     CapSense_InitializeALPInternal(ptrFilterHistObj, ptrSensor, (uint32)ptrWidget->wdgtType);
1336:Generated_Source\PSoC6/CapSense_Filter.c **** }
ARM GAS  C:\Users\PC\AppData\Local\Temp\ccyhv7od.s 			page 41


1337:Generated_Source\PSoC6/CapSense_Filter.c **** 
1338:Generated_Source\PSoC6/CapSense_Filter.c **** 
1339:Generated_Source\PSoC6/CapSense_Filter.c **** /*******************************************************************************
1340:Generated_Source\PSoC6/CapSense_Filter.c **** * Function Name: CapSense_RunALP
1341:Generated_Source\PSoC6/CapSense_Filter.c **** ****************************************************************************//**
1342:Generated_Source\PSoC6/CapSense_Filter.c **** *
1343:Generated_Source\PSoC6/CapSense_Filter.c **** * \brief    Executes the ALP filter algorithm on a sensor indicated by an input
1344:Generated_Source\PSoC6/CapSense_Filter.c **** *           parameter.
1345:Generated_Source\PSoC6/CapSense_Filter.c **** *
1346:Generated_Source\PSoC6/CapSense_Filter.c **** * \details  Executes the ALP filter algorithm on a sensor indicated by an input
1347:Generated_Source\PSoC6/CapSense_Filter.c **** *           parameter.
1348:Generated_Source\PSoC6/CapSense_Filter.c **** *
1349:Generated_Source\PSoC6/CapSense_Filter.c **** * \param    widgetId Specifies the ID number of the widget.
1350:Generated_Source\PSoC6/CapSense_Filter.c **** * \param    sensorId Specifies the ID number of the sensor in the widget.
1351:Generated_Source\PSoC6/CapSense_Filter.c **** *
1352:Generated_Source\PSoC6/CapSense_Filter.c **** *******************************************************************************/
1353:Generated_Source\PSoC6/CapSense_Filter.c **** void CapSense_RunALP(uint32 widgetId, uint32 sensorId)
1354:Generated_Source\PSoC6/CapSense_Filter.c **** {
1355:Generated_Source\PSoC6/CapSense_Filter.c ****     CapSense_FLASH_WD_STRUCT const *ptrWidget = &CapSense_dsFlash.wdgtArray[widgetId];
1356:Generated_Source\PSoC6/CapSense_Filter.c ****     CapSense_RAM_SNS_STRUCT *ptrSensor = NULL;
1357:Generated_Source\PSoC6/CapSense_Filter.c ****     CapSense_PTR_FILTER_VARIANT ptrFilterHistObj;
1358:Generated_Source\PSoC6/CapSense_Filter.c ****     ALP_FLTR_CONFIG_STRUCT alpFilterConfig;
1359:Generated_Source\PSoC6/CapSense_Filter.c ****     ALP_FLTR_CONFIG_STRUCT *ptrAlpFilterConfig = &alpFilterConfig;
1360:Generated_Source\PSoC6/CapSense_Filter.c ****     CapSense_RAM_WD_BASE_STRUCT *ptrRamWidget = ptrWidget->ptr2WdgtRam;
1361:Generated_Source\PSoC6/CapSense_Filter.c **** 
1362:Generated_Source\PSoC6/CapSense_Filter.c ****     /* Find pointer to specified sensor object */
1363:Generated_Source\PSoC6/CapSense_Filter.c ****     ptrSensor = ptrWidget->ptr2SnsRam;
1364:Generated_Source\PSoC6/CapSense_Filter.c ****     ptrSensor = &ptrSensor[sensorId];
1365:Generated_Source\PSoC6/CapSense_Filter.c **** 
1366:Generated_Source\PSoC6/CapSense_Filter.c ****     ptrAlpFilterConfig->configParam0 = ptrRamWidget->alpOnTh;
1367:Generated_Source\PSoC6/CapSense_Filter.c ****     ptrAlpFilterConfig->configParam1 = ptrRamWidget->alpOffTh;
1368:Generated_Source\PSoC6/CapSense_Filter.c ****     ptrAlpFilterConfig->configParam2 = ptrRamWidget->fingerTh;
1369:Generated_Source\PSoC6/CapSense_Filter.c ****     ptrAlpFilterConfig->configParam3 = ptrRamWidget->noiseTh;
1370:Generated_Source\PSoC6/CapSense_Filter.c ****     ptrAlpFilterConfig->configParam4 = ptrRamWidget->hysteresis;
1371:Generated_Source\PSoC6/CapSense_Filter.c **** 
1372:Generated_Source\PSoC6/CapSense_Filter.c ****     /* Find pointer to specified filter sensor object */
1373:Generated_Source\PSoC6/CapSense_Filter.c ****     ptrFilterHistObj.ptr = ptrWidget->ptr2FltrHistory;
1374:Generated_Source\PSoC6/CapSense_Filter.c ****     ptrFilterHistObj.ptrAlp = &ptrFilterHistObj.ptrAlp[sensorId];
1375:Generated_Source\PSoC6/CapSense_Filter.c **** 
1376:Generated_Source\PSoC6/CapSense_Filter.c ****     if ((CapSense_WD_TYPE_ENUM)ptrWidget->wdgtType != CapSense_WD_PROXIMITY_E)
1377:Generated_Source\PSoC6/CapSense_Filter.c ****     {
1378:Generated_Source\PSoC6/CapSense_Filter.c ****         #if (CapSense_REGULAR_SENSOR_EN)
1379:Generated_Source\PSoC6/CapSense_Filter.c ****             ptrAlpFilterConfig->configParam5 = CapSense_REGULAR_RC_ALP_FILTER_COEFF;
1380:Generated_Source\PSoC6/CapSense_Filter.c ****         #endif /* (CapSense_REGULAR_SENSOR_EN) */
1381:Generated_Source\PSoC6/CapSense_Filter.c ****     }
1382:Generated_Source\PSoC6/CapSense_Filter.c ****     else
1383:Generated_Source\PSoC6/CapSense_Filter.c ****     {
1384:Generated_Source\PSoC6/CapSense_Filter.c ****         #if (CapSense_PROXIMITY_SENSOR_EN)
1385:Generated_Source\PSoC6/CapSense_Filter.c ****             ptrAlpFilterConfig->configParam5 = CapSense_PROX_RC_ALP_FILTER_COEFF;
1386:Generated_Source\PSoC6/CapSense_Filter.c ****         #endif /* (CapSense_PROXIMITY_SENSOR_EN) */
1387:Generated_Source\PSoC6/CapSense_Filter.c ****     }
1388:Generated_Source\PSoC6/CapSense_Filter.c ****     CapSense_RunALPInternal(ptrFilterHistObj, ptrAlpFilterConfig, ptrSensor, (uint32)ptrWidget->wdg
1389:Generated_Source\PSoC6/CapSense_Filter.c **** }
1390:Generated_Source\PSoC6/CapSense_Filter.c **** 
1391:Generated_Source\PSoC6/CapSense_Filter.c **** 
1392:Generated_Source\PSoC6/CapSense_Filter.c **** /*******************************************************************************
1393:Generated_Source\PSoC6/CapSense_Filter.c **** * Function Name: CapSense_InitializeALPInternal
ARM GAS  C:\Users\PC\AppData\Local\Temp\ccyhv7od.s 			page 42


1394:Generated_Source\PSoC6/CapSense_Filter.c **** ****************************************************************************//**
1395:Generated_Source\PSoC6/CapSense_Filter.c **** *
1396:Generated_Source\PSoC6/CapSense_Filter.c **** * \brief    Initializes the ALP filter.
1397:Generated_Source\PSoC6/CapSense_Filter.c **** *
1398:Generated_Source\PSoC6/CapSense_Filter.c **** * \details  Initializes the ALP filter.
1399:Generated_Source\PSoC6/CapSense_Filter.c **** *
1400:Generated_Source\PSoC6/CapSense_Filter.c **** * \param    ptrFilterHistObj The pointer to the filter RAM object of the sensor.
1401:Generated_Source\PSoC6/CapSense_Filter.c **** * \param    ptrSensorObj     The pointer to the sensor RAM object of the sensor.
1402:Generated_Source\PSoC6/CapSense_Filter.c **** * \param    wdType           Specifies the type of a widget.
1403:Generated_Source\PSoC6/CapSense_Filter.c **** *
1404:Generated_Source\PSoC6/CapSense_Filter.c **** *******************************************************************************/
1405:Generated_Source\PSoC6/CapSense_Filter.c **** void CapSense_InitializeALPInternal(CapSense_PTR_FILTER_VARIANT ptrFilterHistObj,
1406:Generated_Source\PSoC6/CapSense_Filter.c ****                                             CapSense_RAM_SNS_STRUCT *ptrSensorObj,
1407:Generated_Source\PSoC6/CapSense_Filter.c ****                                             uint32 wdType)
1408:Generated_Source\PSoC6/CapSense_Filter.c **** {
1409:Generated_Source\PSoC6/CapSense_Filter.c ****     uint32 freqChannel;
1410:Generated_Source\PSoC6/CapSense_Filter.c **** 
1411:Generated_Source\PSoC6/CapSense_Filter.c ****     for(freqChannel = CapSense_NUM_SCAN_FREQS; freqChannel-- > 0u;)
1412:Generated_Source\PSoC6/CapSense_Filter.c ****     {
1413:Generated_Source\PSoC6/CapSense_Filter.c ****         if ((CapSense_WD_TYPE_ENUM)wdType != CapSense_WD_PROXIMITY_E)
1414:Generated_Source\PSoC6/CapSense_Filter.c ****         {
1415:Generated_Source\PSoC6/CapSense_Filter.c ****             #if (CapSense_REGULAR_SENSOR_EN && CapSense_REGULAR_RC_ALP_FILTER_EN)
1416:Generated_Source\PSoC6/CapSense_Filter.c ****                 ALP_Initialize(&ptrFilterHistObj.ptrAlp->channel[freqChannel], &ptrSensorObj->raw[f
1417:Generated_Source\PSoC6/CapSense_Filter.c ****             #endif
1418:Generated_Source\PSoC6/CapSense_Filter.c ****         }
1419:Generated_Source\PSoC6/CapSense_Filter.c ****         else
1420:Generated_Source\PSoC6/CapSense_Filter.c ****         {
1421:Generated_Source\PSoC6/CapSense_Filter.c ****             #if (CapSense_PROXIMITY_SENSOR_EN && CapSense_PROX_RC_ALP_FILTER_EN)
1422:Generated_Source\PSoC6/CapSense_Filter.c ****                 ALP_Initialize(&ptrFilterHistObj.ptrAlp->channel[freqChannel], &ptrSensorObj->raw[f
1423:Generated_Source\PSoC6/CapSense_Filter.c ****             #endif
1424:Generated_Source\PSoC6/CapSense_Filter.c ****         }
1425:Generated_Source\PSoC6/CapSense_Filter.c ****     }
1426:Generated_Source\PSoC6/CapSense_Filter.c **** }
1427:Generated_Source\PSoC6/CapSense_Filter.c **** 
1428:Generated_Source\PSoC6/CapSense_Filter.c **** /*******************************************************************************
1429:Generated_Source\PSoC6/CapSense_Filter.c **** * Function Name: CapSense_ConfigRunALPInternal
1430:Generated_Source\PSoC6/CapSense_Filter.c **** ****************************************************************************//**
1431:Generated_Source\PSoC6/CapSense_Filter.c **** *
1432:Generated_Source\PSoC6/CapSense_Filter.c **** * \brief    Prepares ALP configuration structure and runs the filter.
1433:Generated_Source\PSoC6/CapSense_Filter.c **** *
1434:Generated_Source\PSoC6/CapSense_Filter.c **** * \details  Prepares ALP configuration structure and runs the filter.
1435:Generated_Source\PSoC6/CapSense_Filter.c **** *
1436:Generated_Source\PSoC6/CapSense_Filter.c **** * \param    ptrFilterHistObj The pointer to the filter RAM object of the sensor.
1437:Generated_Source\PSoC6/CapSense_Filter.c **** * \param    ptrRamWdgt       The pointer to the RAM widget object.
1438:Generated_Source\PSoC6/CapSense_Filter.c **** * \param    ptrSensorObj     The pointer to the sensor RAM object of the sensor.
1439:Generated_Source\PSoC6/CapSense_Filter.c **** * \param    wdType           Specifies the type of a widget.
1440:Generated_Source\PSoC6/CapSense_Filter.c **** *
1441:Generated_Source\PSoC6/CapSense_Filter.c **** *******************************************************************************/
1442:Generated_Source\PSoC6/CapSense_Filter.c **** void CapSense_ConfigRunALPInternal(CapSense_PTR_FILTER_VARIANT ptrFilterHistObj,
1443:Generated_Source\PSoC6/CapSense_Filter.c ****                                     CapSense_RAM_WD_BASE_STRUCT *ptrRamWdgt,
1444:Generated_Source\PSoC6/CapSense_Filter.c ****                                     CapSense_RAM_SNS_STRUCT *ptrSensorObj,
1445:Generated_Source\PSoC6/CapSense_Filter.c ****                                     uint32 wdType)
1446:Generated_Source\PSoC6/CapSense_Filter.c **** {
1447:Generated_Source\PSoC6/CapSense_Filter.c ****     ALP_FLTR_CONFIG_STRUCT alpFilterConfig;
1448:Generated_Source\PSoC6/CapSense_Filter.c **** 
1449:Generated_Source\PSoC6/CapSense_Filter.c ****     alpFilterConfig.configParam0 = ptrRamWdgt->alpOnTh;
1450:Generated_Source\PSoC6/CapSense_Filter.c ****     alpFilterConfig.configParam1 = ptrRamWdgt->alpOffTh;
ARM GAS  C:\Users\PC\AppData\Local\Temp\ccyhv7od.s 			page 43


1451:Generated_Source\PSoC6/CapSense_Filter.c ****     alpFilterConfig.configParam2 = ptrRamWdgt->fingerTh;
1452:Generated_Source\PSoC6/CapSense_Filter.c ****     alpFilterConfig.configParam3 = ptrRamWdgt->noiseTh;
1453:Generated_Source\PSoC6/CapSense_Filter.c ****     alpFilterConfig.configParam4 = ptrRamWdgt->hysteresis;
1454:Generated_Source\PSoC6/CapSense_Filter.c **** 
1455:Generated_Source\PSoC6/CapSense_Filter.c ****     CapSense_RunALPInternal(ptrFilterHistObj, &alpFilterConfig, ptrSensorObj, wdType);
1456:Generated_Source\PSoC6/CapSense_Filter.c **** }
1457:Generated_Source\PSoC6/CapSense_Filter.c **** 
1458:Generated_Source\PSoC6/CapSense_Filter.c **** /*******************************************************************************
1459:Generated_Source\PSoC6/CapSense_Filter.c **** * Function Name: CapSense_RunALPInternal
1460:Generated_Source\PSoC6/CapSense_Filter.c **** ****************************************************************************//**
1461:Generated_Source\PSoC6/CapSense_Filter.c **** *
1462:Generated_Source\PSoC6/CapSense_Filter.c **** * \brief    Runs the ALP filter.
1463:Generated_Source\PSoC6/CapSense_Filter.c **** *
1464:Generated_Source\PSoC6/CapSense_Filter.c **** * \details  Runs the ALP filter.
1465:Generated_Source\PSoC6/CapSense_Filter.c **** *
1466:Generated_Source\PSoC6/CapSense_Filter.c **** * \param    ptrFilterHistObj The pointer to the filter RAM object of the sensor.
1467:Generated_Source\PSoC6/CapSense_Filter.c **** * \param    ptrAlpFilterConfig The pointer to the filter configuration object of the sensor.
1468:Generated_Source\PSoC6/CapSense_Filter.c **** * \param    ptrSensorObj     The pointer to the sensor RAM object of the sensor.
1469:Generated_Source\PSoC6/CapSense_Filter.c **** * \param    wdType           Specifies the type of a widget.
1470:Generated_Source\PSoC6/CapSense_Filter.c **** *
1471:Generated_Source\PSoC6/CapSense_Filter.c **** *******************************************************************************/
1472:Generated_Source\PSoC6/CapSense_Filter.c **** void CapSense_RunALPInternal(CapSense_PTR_FILTER_VARIANT ptrFilterHistObj,
1473:Generated_Source\PSoC6/CapSense_Filter.c ****                                     ALP_FLTR_CONFIG_STRUCT *ptrAlpFilterConfig,
1474:Generated_Source\PSoC6/CapSense_Filter.c ****                                     CapSense_RAM_SNS_STRUCT *ptrSensorObj,
1475:Generated_Source\PSoC6/CapSense_Filter.c ****                                     uint32 wdType)
1476:Generated_Source\PSoC6/CapSense_Filter.c **** {
1477:Generated_Source\PSoC6/CapSense_Filter.c ****     uint32 freqChannel;
1478:Generated_Source\PSoC6/CapSense_Filter.c **** 
1479:Generated_Source\PSoC6/CapSense_Filter.c ****     for(freqChannel = CapSense_NUM_SCAN_FREQS; freqChannel-- > 0u;)
1480:Generated_Source\PSoC6/CapSense_Filter.c ****     {
1481:Generated_Source\PSoC6/CapSense_Filter.c ****         if ((CapSense_WD_TYPE_ENUM)wdType != CapSense_WD_PROXIMITY_E)
1482:Generated_Source\PSoC6/CapSense_Filter.c ****         {
1483:Generated_Source\PSoC6/CapSense_Filter.c ****             #if (CapSense_REGULAR_SENSOR_EN && CapSense_REGULAR_RC_ALP_FILTER_EN)
1484:Generated_Source\PSoC6/CapSense_Filter.c ****                 ptrAlpFilterConfig->configParam5 = CapSense_REGULAR_RC_ALP_FILTER_COEFF;
1485:Generated_Source\PSoC6/CapSense_Filter.c ****                 ALP_Run(&ptrFilterHistObj.ptrAlp->channel[freqChannel], ptrAlpFilterConfig, &ptrSen
1486:Generated_Source\PSoC6/CapSense_Filter.c ****             #endif
1487:Generated_Source\PSoC6/CapSense_Filter.c ****         }
1488:Generated_Source\PSoC6/CapSense_Filter.c ****         else
1489:Generated_Source\PSoC6/CapSense_Filter.c ****         {
1490:Generated_Source\PSoC6/CapSense_Filter.c ****             #if (CapSense_PROXIMITY_SENSOR_EN && CapSense_PROX_RC_ALP_FILTER_EN)
1491:Generated_Source\PSoC6/CapSense_Filter.c ****                 ptrAlpFilterConfig->configParam5 = CapSense_PROX_RC_ALP_FILTER_COEFF;
1492:Generated_Source\PSoC6/CapSense_Filter.c ****                 ALP_Run(&ptrFilterHistObj.ptrAlp->channel[freqChannel], ptrAlpFilterConfig, &ptrSen
1493:Generated_Source\PSoC6/CapSense_Filter.c ****             #endif
1494:Generated_Source\PSoC6/CapSense_Filter.c ****         }
1495:Generated_Source\PSoC6/CapSense_Filter.c ****     }
1496:Generated_Source\PSoC6/CapSense_Filter.c **** }
1497:Generated_Source\PSoC6/CapSense_Filter.c **** #endif /* (CapSense_ENABLE == CapSense_ALP_FILTER_EN) */
1498:Generated_Source\PSoC6/CapSense_Filter.c **** 
1499:Generated_Source\PSoC6/CapSense_Filter.c **** #if (CapSense_ENABLE == CapSense_RC_FILTER_EN)
1500:Generated_Source\PSoC6/CapSense_Filter.c **** /*******************************************************************************
1501:Generated_Source\PSoC6/CapSense_Filter.c **** * Function Name: CapSense_FtRunEnabledFilters
1502:Generated_Source\PSoC6/CapSense_Filter.c **** ****************************************************************************//**
1503:Generated_Source\PSoC6/CapSense_Filter.c **** *
1504:Generated_Source\PSoC6/CapSense_Filter.c **** * \brief    Runs all enabled filters.
1505:Generated_Source\PSoC6/CapSense_Filter.c **** *
1506:Generated_Source\PSoC6/CapSense_Filter.c **** * \details  Runs all enabled filters.
1507:Generated_Source\PSoC6/CapSense_Filter.c **** *
ARM GAS  C:\Users\PC\AppData\Local\Temp\ccyhv7od.s 			page 44


1508:Generated_Source\PSoC6/CapSense_Filter.c **** * \param    widgetId Specifies the ID number of a widget to update the IIR filter history.*
1509:Generated_Source\PSoC6/CapSense_Filter.c **** * \param    sensorId Specifies the ID number of a sensor in the widget to update the IIR
1510:Generated_Source\PSoC6/CapSense_Filter.c **** *           filter history.
1511:Generated_Source\PSoC6/CapSense_Filter.c **** *
1512:Generated_Source\PSoC6/CapSense_Filter.c **** *******************************************************************************/
1513:Generated_Source\PSoC6/CapSense_Filter.c **** void CapSense_FtRunEnabledFilters(uint32 widgetId, uint32 sensorId)
1514:Generated_Source\PSoC6/CapSense_Filter.c **** {
1515:Generated_Source\PSoC6/CapSense_Filter.c ****     CapSense_FLASH_WD_STRUCT const *ptrWidget = &CapSense_dsFlash.wdgtArray[widgetId];
1516:Generated_Source\PSoC6/CapSense_Filter.c ****     CapSense_RAM_SNS_STRUCT *ptrSensor = NULL;
1517:Generated_Source\PSoC6/CapSense_Filter.c ****     CapSense_PTR_FILTER_VARIANT ptrFilterHistObj;
1518:Generated_Source\PSoC6/CapSense_Filter.c **** 
1519:Generated_Source\PSoC6/CapSense_Filter.c ****     /* Find pointer to specified sensor object */
1520:Generated_Source\PSoC6/CapSense_Filter.c ****     ptrSensor = ptrWidget->ptr2SnsRam;
1521:Generated_Source\PSoC6/CapSense_Filter.c ****     ptrSensor = &ptrSensor[sensorId];
1522:Generated_Source\PSoC6/CapSense_Filter.c **** 
1523:Generated_Source\PSoC6/CapSense_Filter.c ****     /* Find pointer to specified filter sensor object */
1524:Generated_Source\PSoC6/CapSense_Filter.c ****     ptrFilterHistObj.ptr = ptrWidget->ptr2FltrHistory;
1525:Generated_Source\PSoC6/CapSense_Filter.c **** 
1526:Generated_Source\PSoC6/CapSense_Filter.c ****     if ((CapSense_WD_TYPE_ENUM)ptrWidget->wdgtType != CapSense_WD_PROXIMITY_E)
1527:Generated_Source\PSoC6/CapSense_Filter.c ****     {
1528:Generated_Source\PSoC6/CapSense_Filter.c ****         #if (0u != CapSense_REGULAR_RC_ALP_FILTER_EN)
1529:Generated_Source\PSoC6/CapSense_Filter.c ****             ptrFilterHistObj.ptr = &ptrFilterHistObj.ptrAlp[sensorId];
1530:Generated_Source\PSoC6/CapSense_Filter.c ****         #elif (0u != CapSense_REGULAR_RC_FILTER_EN)
1531:Generated_Source\PSoC6/CapSense_Filter.c ****             ptrFilterHistObj.ptr = &ptrFilterHistObj.ptrRegular[sensorId];
1532:Generated_Source\PSoC6/CapSense_Filter.c ****         #endif
1533:Generated_Source\PSoC6/CapSense_Filter.c ****     }
1534:Generated_Source\PSoC6/CapSense_Filter.c ****     else
1535:Generated_Source\PSoC6/CapSense_Filter.c ****     {
1536:Generated_Source\PSoC6/CapSense_Filter.c ****         #if (0u != CapSense_PROX_RC_ALP_FILTER_EN)
1537:Generated_Source\PSoC6/CapSense_Filter.c ****             ptrFilterHistObj.ptr = &ptrFilterHistObj.ptrAlp[sensorId];
1538:Generated_Source\PSoC6/CapSense_Filter.c ****         #elif (0u != CapSense_PROX_RC_FILTER_EN)
1539:Generated_Source\PSoC6/CapSense_Filter.c ****             ptrFilterHistObj.ptr = &ptrFilterHistObj.ptrProx[sensorId];
1540:Generated_Source\PSoC6/CapSense_Filter.c ****         #endif
1541:Generated_Source\PSoC6/CapSense_Filter.c ****     }
1542:Generated_Source\PSoC6/CapSense_Filter.c **** 
1543:Generated_Source\PSoC6/CapSense_Filter.c ****     CapSense_FtRunEnabledFiltersInternal(ptrFilterHistObj, ptrSensor, (uint32)ptrWidget->wdgtType);
1544:Generated_Source\PSoC6/CapSense_Filter.c ****     #if (CapSense_ALP_FILTER_EN)
1545:Generated_Source\PSoC6/CapSense_Filter.c ****         CapSense_ConfigRunALPInternal(ptrFilterHistObj, ptrWidget->ptr2WdgtRam, ptrSensor, (uint32)
1546:Generated_Source\PSoC6/CapSense_Filter.c ****     #endif
1547:Generated_Source\PSoC6/CapSense_Filter.c **** }
1548:Generated_Source\PSoC6/CapSense_Filter.c **** 
1549:Generated_Source\PSoC6/CapSense_Filter.c **** 
1550:Generated_Source\PSoC6/CapSense_Filter.c **** /*******************************************************************************
1551:Generated_Source\PSoC6/CapSense_Filter.c **** * Function Name: CapSense_FtRunEnabledFiltersInternal
1552:Generated_Source\PSoC6/CapSense_Filter.c **** ****************************************************************************//**
1553:Generated_Source\PSoC6/CapSense_Filter.c **** *
1554:Generated_Source\PSoC6/CapSense_Filter.c **** * \brief    Runs all enabled filters.
1555:Generated_Source\PSoC6/CapSense_Filter.c **** *
1556:Generated_Source\PSoC6/CapSense_Filter.c **** * \details  Runs all enabled filters.
1557:Generated_Source\PSoC6/CapSense_Filter.c **** *
1558:Generated_Source\PSoC6/CapSense_Filter.c **** * \param    ptrFilterHistObj The pointer to the filter RAM object of the sensor.
1559:Generated_Source\PSoC6/CapSense_Filter.c **** * \param    ptrSensorObj     The pointer to the sensor RAM object of the sensor.
1560:Generated_Source\PSoC6/CapSense_Filter.c **** * \param    wdType           Specifies the type of a widget.
1561:Generated_Source\PSoC6/CapSense_Filter.c **** *
1562:Generated_Source\PSoC6/CapSense_Filter.c **** *******************************************************************************/
1563:Generated_Source\PSoC6/CapSense_Filter.c **** void CapSense_FtRunEnabledFiltersInternal(CapSense_PTR_FILTER_VARIANT ptrFilterHistObj,
1564:Generated_Source\PSoC6/CapSense_Filter.c ****                                                   CapSense_RAM_SNS_STRUCT *ptrSensorObj, uint32 wdT
ARM GAS  C:\Users\PC\AppData\Local\Temp\ccyhv7od.s 			page 45


1565:Generated_Source\PSoC6/CapSense_Filter.c **** {
1566:Generated_Source\PSoC6/CapSense_Filter.c ****     #if (CapSense_REGULAR_RC_MEDIAN_FILTER_EN || CapSense_PROX_RC_MEDIAN_FILTER_EN)
1567:Generated_Source\PSoC6/CapSense_Filter.c ****         CapSense_RunMedianInternal(ptrFilterHistObj, ptrSensorObj, wdType);
1568:Generated_Source\PSoC6/CapSense_Filter.c ****     #endif /* (CapSense_REGULAR_RC_MEDIAN_FILTER_EN || CapSense_PROX_RC_MEDIAN_FILTER_EN) */
1569:Generated_Source\PSoC6/CapSense_Filter.c **** 
1570:Generated_Source\PSoC6/CapSense_Filter.c ****     #if (CapSense_REGULAR_RC_IIR_FILTER_EN || CapSense_PROX_RC_IIR_FILTER_EN)
1571:Generated_Source\PSoC6/CapSense_Filter.c ****         CapSense_RunIIRInternal(ptrFilterHistObj, ptrSensorObj, wdType);
1572:Generated_Source\PSoC6/CapSense_Filter.c ****     #endif /* (CapSense_REGULAR_RC_IIR_FILTER_EN || CapSense_PROX_RC_IIR_FILTER_EN) */
1573:Generated_Source\PSoC6/CapSense_Filter.c **** 
1574:Generated_Source\PSoC6/CapSense_Filter.c ****     #if (CapSense_REGULAR_RC_AVERAGE_FILTER_EN || CapSense_PROX_RC_AVERAGE_FILTER_EN)
1575:Generated_Source\PSoC6/CapSense_Filter.c ****         CapSense_RunAverageInternal(ptrFilterHistObj, ptrSensorObj, wdType);
1576:Generated_Source\PSoC6/CapSense_Filter.c ****     #endif /* (CapSense_REGULAR_RC_AVERAGE_FILTER_EN || CapSense_PROX_RC_AVERAGE_FILTER_EN) */
1577:Generated_Source\PSoC6/CapSense_Filter.c **** }
1578:Generated_Source\PSoC6/CapSense_Filter.c **** #endif /* (CapSense_ENABLE == CapSense_RC_FILTER_EN) */
1579:Generated_Source\PSoC6/CapSense_Filter.c **** 
1580:Generated_Source\PSoC6/CapSense_Filter.c **** 
1581:Generated_Source\PSoC6/CapSense_Filter.c **** #if (0u != (CapSense_CSD_AUTOTUNE & CapSense_CSD_SS_TH_EN))
1582:Generated_Source\PSoC6/CapSense_Filter.c **** /*******************************************************************************
1583:Generated_Source\PSoC6/CapSense_Filter.c **** * Function Name: CapSense_RunNoiseEnvelope
1584:Generated_Source\PSoC6/CapSense_Filter.c **** ****************************************************************************//**
1585:Generated_Source\PSoC6/CapSense_Filter.c **** *
1586:Generated_Source\PSoC6/CapSense_Filter.c **** * \brief    Executes the noise envelope  filter algorithm on a sensor indicated by
1587:Generated_Source\PSoC6/CapSense_Filter.c **** *           an input parameter to measure the pk-to-pk noise in the sensor raw count.
1588:Generated_Source\PSoC6/CapSense_Filter.c **** *
1589:Generated_Source\PSoC6/CapSense_Filter.c **** * \details  Executes the noise envelope  filter algorithm on a sensor indicated by
1590:Generated_Source\PSoC6/CapSense_Filter.c **** *           an input parameter to measure the pk-to-pk noise in the sensor raw count.
1591:Generated_Source\PSoC6/CapSense_Filter.c **** *
1592:Generated_Source\PSoC6/CapSense_Filter.c **** * \param    widgetId Specifies the ID number of the widget.
1593:Generated_Source\PSoC6/CapSense_Filter.c **** * \param    sensorId Specifies the ID number of the sensor in the widget.
1594:Generated_Source\PSoC6/CapSense_Filter.c **** *
1595:Generated_Source\PSoC6/CapSense_Filter.c **** *******************************************************************************/
1596:Generated_Source\PSoC6/CapSense_Filter.c **** void CapSense_RunNoiseEnvelope(uint32 widgetId, uint32 sensorId)
1597:Generated_Source\PSoC6/CapSense_Filter.c **** {
 860              		.loc 1 1597 0
 861              		.cfi_startproc
 862              		@ args = 0, pretend = 0, frame = 0
 863              		@ frame_needed = 0, uses_anonymous_args = 0
 864              	.LVL108:
 865 0000 70B5     		push	{r4, r5, r6, lr}
 866              		.cfi_def_cfa_offset 16
 867              		.cfi_offset 4, -16
 868              		.cfi_offset 5, -12
 869              		.cfi_offset 6, -8
 870              		.cfi_offset 14, -4
 871              	.LVL109:
1598:Generated_Source\PSoC6/CapSense_Filter.c ****     CapSense_FLASH_WD_STRUCT const *ptrWidget = &CapSense_dsFlash.wdgtArray[widgetId];
1599:Generated_Source\PSoC6/CapSense_Filter.c ****     CapSense_RAM_WD_BASE_STRUCT *ptrWidgetRam = ptrWidget->ptr2WdgtRam;
 872              		.loc 1 1599 0
 873 0002 2C23     		movs	r3, #44
 874 0004 5843     		muls	r0, r3
 875              	.LVL110:
 876 0006 084B     		ldr	r3, .L53
 877 0008 1818     		adds	r0, r3, r0
 878              	.LVL111:
 879 000a 4668     		ldr	r6, [r0, #4]
 880              	.LVL112:
1600:Generated_Source\PSoC6/CapSense_Filter.c ****     CapSense_RAM_SNS_STRUCT *ptrSensor = NULL;
ARM GAS  C:\Users\PC\AppData\Local\Temp\ccyhv7od.s 			page 46


1601:Generated_Source\PSoC6/CapSense_Filter.c ****     SMARTSENSE_CSD_NOISE_ENVELOPE_STRUCT *ptrNoiseEnvelope = NULL;
1602:Generated_Source\PSoC6/CapSense_Filter.c **** 
1603:Generated_Source\PSoC6/CapSense_Filter.c ****     /* Find pointer to specified sensor object */
1604:Generated_Source\PSoC6/CapSense_Filter.c ****     ptrSensor = ptrWidget->ptr2SnsRam;
 881              		.loc 1 1604 0
 882 000c 8568     		ldr	r5, [r0, #8]
 883              	.LVL113:
1605:Generated_Source\PSoC6/CapSense_Filter.c ****     ptrSensor = &ptrSensor[sensorId];
 884              		.loc 1 1605 0
 885 000e 8B00     		lsls	r3, r1, #2
 886 0010 5B18     		adds	r3, r3, r1
 887 0012 5C00     		lsls	r4, r3, #1
 888              	.LVL114:
1606:Generated_Source\PSoC6/CapSense_Filter.c **** 
1607:Generated_Source\PSoC6/CapSense_Filter.c ****     /* Find pointer to specified filter sensor object */
1608:Generated_Source\PSoC6/CapSense_Filter.c ****     ptrNoiseEnvelope = ptrWidget->ptr2NoiseEnvlp;
 889              		.loc 1 1608 0
 890 0014 436A     		ldr	r3, [r0, #36]
 891              	.LVL115:
1609:Generated_Source\PSoC6/CapSense_Filter.c ****     ptrNoiseEnvelope = &ptrNoiseEnvelope[sensorId];
 892              		.loc 1 1609 0
 893 0016 4A00     		lsls	r2, r1, #1
 894 0018 5118     		adds	r1, r2, r1
 895              	.LVL116:
 896 001a 8A00     		lsls	r2, r1, #2
 897 001c 9A18     		adds	r2, r3, r2
 898              	.LVL117:
1610:Generated_Source\PSoC6/CapSense_Filter.c **** 
1611:Generated_Source\PSoC6/CapSense_Filter.c ****     SmartSense_RunNoiseEnvelope(ptrSensor->raw[0u], ptrWidgetRam->sigPFC, ptrNoiseEnvelope);
 899              		.loc 1 1611 0
 900 001e 318A     		ldrh	r1, [r6, #16]
 901 0020 285B     		ldrh	r0, [r5, r4]
 902              	.LVL118:
 903 0022 FFF7FEFF 		bl	SmartSense_RunNoiseEnvelope
 904              	.LVL119:
1612:Generated_Source\PSoC6/CapSense_Filter.c **** }
 905              		.loc 1 1612 0
 906              		@ sp needed
 907              	.LVL120:
 908              	.LVL121:
 909              	.LVL122:
 910 0026 70BD     		pop	{r4, r5, r6, pc}
 911              	.L54:
 912              		.align	2
 913              	.L53:
 914 0028 00000000 		.word	CapSense_dsFlash
 915              		.cfi_endproc
 916              	.LFE67:
 917              		.size	CapSense_RunNoiseEnvelope, .-CapSense_RunNoiseEnvelope
 918              		.section	.text.CapSense_InitializeNoiseEnvelope,"ax",%progbits
 919              		.align	2
 920              		.global	CapSense_InitializeNoiseEnvelope
 921              		.code	16
 922              		.thumb_func
 923              		.type	CapSense_InitializeNoiseEnvelope, %function
 924              	CapSense_InitializeNoiseEnvelope:
 925              	.LFB68:
ARM GAS  C:\Users\PC\AppData\Local\Temp\ccyhv7od.s 			page 47


1613:Generated_Source\PSoC6/CapSense_Filter.c **** 
1614:Generated_Source\PSoC6/CapSense_Filter.c **** 
1615:Generated_Source\PSoC6/CapSense_Filter.c **** /*******************************************************************************
1616:Generated_Source\PSoC6/CapSense_Filter.c **** * Function Name: CapSense_InitializeNoiseEnvelope
1617:Generated_Source\PSoC6/CapSense_Filter.c **** ****************************************************************************//**
1618:Generated_Source\PSoC6/CapSense_Filter.c **** *
1619:Generated_Source\PSoC6/CapSense_Filter.c **** * \brief    Initializes the noise-envelope filter
1620:Generated_Source\PSoC6/CapSense_Filter.c **** *
1621:Generated_Source\PSoC6/CapSense_Filter.c **** * \details  Initializes the noise-envelope filter
1622:Generated_Source\PSoC6/CapSense_Filter.c **** *
1623:Generated_Source\PSoC6/CapSense_Filter.c **** * \param    widgetId Specifies the ID number of the widget.
1624:Generated_Source\PSoC6/CapSense_Filter.c **** * \param    sensorId Specifies the ID number of the sensor in the widget.
1625:Generated_Source\PSoC6/CapSense_Filter.c **** *
1626:Generated_Source\PSoC6/CapSense_Filter.c **** *******************************************************************************/
1627:Generated_Source\PSoC6/CapSense_Filter.c **** void CapSense_InitializeNoiseEnvelope(uint32 widgetId, uint32 sensorId)
1628:Generated_Source\PSoC6/CapSense_Filter.c **** {
 926              		.loc 1 1628 0
 927              		.cfi_startproc
 928              		@ args = 0, pretend = 0, frame = 0
 929              		@ frame_needed = 0, uses_anonymous_args = 0
 930              	.LVL123:
 931 0000 70B5     		push	{r4, r5, r6, lr}
 932              		.cfi_def_cfa_offset 16
 933              		.cfi_offset 4, -16
 934              		.cfi_offset 5, -12
 935              		.cfi_offset 6, -8
 936              		.cfi_offset 14, -4
 937              	.LVL124:
1629:Generated_Source\PSoC6/CapSense_Filter.c ****     CapSense_FLASH_WD_STRUCT const *ptrWidget = &CapSense_dsFlash.wdgtArray[widgetId];
1630:Generated_Source\PSoC6/CapSense_Filter.c ****     CapSense_RAM_WD_BASE_STRUCT *ptrWidgetRam = ptrWidget->ptr2WdgtRam;
 938              		.loc 1 1630 0
 939 0002 2C23     		movs	r3, #44
 940 0004 5843     		muls	r0, r3
 941              	.LVL125:
 942 0006 084B     		ldr	r3, .L56
 943 0008 1818     		adds	r0, r3, r0
 944              	.LVL126:
 945 000a 4668     		ldr	r6, [r0, #4]
 946              	.LVL127:
1631:Generated_Source\PSoC6/CapSense_Filter.c ****     CapSense_RAM_SNS_STRUCT *ptrSensor = NULL;
1632:Generated_Source\PSoC6/CapSense_Filter.c ****     SMARTSENSE_CSD_NOISE_ENVELOPE_STRUCT *ptrNoiseEnvelope = NULL;
1633:Generated_Source\PSoC6/CapSense_Filter.c **** 
1634:Generated_Source\PSoC6/CapSense_Filter.c ****     /* Find pointer to specified sensor object */
1635:Generated_Source\PSoC6/CapSense_Filter.c ****     ptrSensor = ptrWidget->ptr2SnsRam;
 947              		.loc 1 1635 0
 948 000c 8568     		ldr	r5, [r0, #8]
 949              	.LVL128:
1636:Generated_Source\PSoC6/CapSense_Filter.c ****     ptrSensor = &ptrSensor[sensorId];
 950              		.loc 1 1636 0
 951 000e 8B00     		lsls	r3, r1, #2
 952 0010 5B18     		adds	r3, r3, r1
 953 0012 5C00     		lsls	r4, r3, #1
 954              	.LVL129:
1637:Generated_Source\PSoC6/CapSense_Filter.c **** 
1638:Generated_Source\PSoC6/CapSense_Filter.c ****     /* Find pointer to specified filter sensor object */
1639:Generated_Source\PSoC6/CapSense_Filter.c ****     ptrNoiseEnvelope = ptrWidget->ptr2NoiseEnvlp;
 955              		.loc 1 1639 0
ARM GAS  C:\Users\PC\AppData\Local\Temp\ccyhv7od.s 			page 48


 956 0014 436A     		ldr	r3, [r0, #36]
 957              	.LVL130:
1640:Generated_Source\PSoC6/CapSense_Filter.c ****     ptrNoiseEnvelope = &ptrNoiseEnvelope[sensorId];
 958              		.loc 1 1640 0
 959 0016 4A00     		lsls	r2, r1, #1
 960 0018 5118     		adds	r1, r2, r1
 961              	.LVL131:
 962 001a 8A00     		lsls	r2, r1, #2
 963 001c 9A18     		adds	r2, r3, r2
 964              	.LVL132:
1641:Generated_Source\PSoC6/CapSense_Filter.c **** 
1642:Generated_Source\PSoC6/CapSense_Filter.c ****     SmartSense_InitializeNoiseEnvelope(ptrSensor->raw[0u], ptrWidgetRam->sigPFC, ptrNoiseEnvelope);
 965              		.loc 1 1642 0
 966 001e 318A     		ldrh	r1, [r6, #16]
 967 0020 285B     		ldrh	r0, [r5, r4]
 968              	.LVL133:
 969 0022 FFF7FEFF 		bl	SmartSense_InitializeNoiseEnvelope
 970              	.LVL134:
1643:Generated_Source\PSoC6/CapSense_Filter.c **** }
 971              		.loc 1 1643 0
 972              		@ sp needed
 973              	.LVL135:
 974              	.LVL136:
 975              	.LVL137:
 976 0026 70BD     		pop	{r4, r5, r6, pc}
 977              	.L57:
 978              		.align	2
 979              	.L56:
 980 0028 00000000 		.word	CapSense_dsFlash
 981              		.cfi_endproc
 982              	.LFE68:
 983              		.size	CapSense_InitializeNoiseEnvelope, .-CapSense_InitializeNoiseEnvelope
 984              		.section	.text.CapSense_FtMedian,"ax",%progbits
 985              		.align	2
 986              		.global	CapSense_FtMedian
 987              		.code	16
 988              		.thumb_func
 989              		.type	CapSense_FtMedian, %function
 990              	CapSense_FtMedian:
 991              	.LFB69:
1644:Generated_Source\PSoC6/CapSense_Filter.c **** #endif /* (0u != (CapSense_CSD_AUTOTUNE & CapSense_CSD_SS_TH_EN)) */
1645:Generated_Source\PSoC6/CapSense_Filter.c **** 
1646:Generated_Source\PSoC6/CapSense_Filter.c **** 
1647:Generated_Source\PSoC6/CapSense_Filter.c **** #if (CapSense_POS_MEDIAN_FILTER_EN || CapSense_REGULAR_RC_MEDIAN_FILTER_EN || CapSense_PROX_RC_MEDI
1648:Generated_Source\PSoC6/CapSense_Filter.c **** /*******************************************************************************
1649:Generated_Source\PSoC6/CapSense_Filter.c **** * Function Name: CapSense_FtMedian
1650:Generated_Source\PSoC6/CapSense_Filter.c **** ****************************************************************************//**
1651:Generated_Source\PSoC6/CapSense_Filter.c **** *
1652:Generated_Source\PSoC6/CapSense_Filter.c **** * \brief    Return the median value from the three passed arguments.
1653:Generated_Source\PSoC6/CapSense_Filter.c **** *
1654:Generated_Source\PSoC6/CapSense_Filter.c **** * \details  Return the median value from the three passed arguments.
1655:Generated_Source\PSoC6/CapSense_Filter.c **** *
1656:Generated_Source\PSoC6/CapSense_Filter.c **** * \param    x1 The first value to be compared.
1657:Generated_Source\PSoC6/CapSense_Filter.c **** * \param    x2 The second value to be compared.
1658:Generated_Source\PSoC6/CapSense_Filter.c **** * \param    x3 The third value to be compared.
1659:Generated_Source\PSoC6/CapSense_Filter.c **** *
1660:Generated_Source\PSoC6/CapSense_Filter.c **** * \return   Returns the median value of input arguments.
ARM GAS  C:\Users\PC\AppData\Local\Temp\ccyhv7od.s 			page 49


1661:Generated_Source\PSoC6/CapSense_Filter.c **** *
1662:Generated_Source\PSoC6/CapSense_Filter.c **** *******************************************************************************/
1663:Generated_Source\PSoC6/CapSense_Filter.c **** uint32 CapSense_FtMedian(uint32 x1, uint32 x2, uint32 x3)
1664:Generated_Source\PSoC6/CapSense_Filter.c **** {
 992              		.loc 1 1664 0
 993              		.cfi_startproc
 994              		@ args = 0, pretend = 0, frame = 0
 995              		@ frame_needed = 0, uses_anonymous_args = 0
 996              		@ link register save eliminated.
 997              	.LVL138:
1665:Generated_Source\PSoC6/CapSense_Filter.c ****     uint32 tmp;
1666:Generated_Source\PSoC6/CapSense_Filter.c **** 
1667:Generated_Source\PSoC6/CapSense_Filter.c ****     if (x1 > x2)
 998              		.loc 1 1667 0
 999 0000 8842     		cmp	r0, r1
 1000 0002 02D9     		bls	.L59
 1001 0004 0300     		movs	r3, r0
1668:Generated_Source\PSoC6/CapSense_Filter.c ****     {
1669:Generated_Source\PSoC6/CapSense_Filter.c ****         tmp = x2;
1670:Generated_Source\PSoC6/CapSense_Filter.c ****         x2 = x1;
1671:Generated_Source\PSoC6/CapSense_Filter.c ****         x1 = tmp;
 1002              		.loc 1 1671 0
 1003 0006 0800     		movs	r0, r1
 1004              	.LVL139:
1670:Generated_Source\PSoC6/CapSense_Filter.c ****         x1 = tmp;
 1005              		.loc 1 1670 0
 1006 0008 1900     		movs	r1, r3
 1007              	.LVL140:
 1008              	.L59:
1672:Generated_Source\PSoC6/CapSense_Filter.c ****     }
1673:Generated_Source\PSoC6/CapSense_Filter.c **** 
1674:Generated_Source\PSoC6/CapSense_Filter.c ****     if (x2 > x3)
 1009              		.loc 1 1674 0
 1010 000a 9142     		cmp	r1, r2
 1011 000c 00D9     		bls	.L60
1675:Generated_Source\PSoC6/CapSense_Filter.c ****     {
1676:Generated_Source\PSoC6/CapSense_Filter.c ****         x2 = x3;
 1012              		.loc 1 1676 0
 1013 000e 1100     		movs	r1, r2
 1014              	.LVL141:
 1015              	.L60:
1677:Generated_Source\PSoC6/CapSense_Filter.c ****     }
1678:Generated_Source\PSoC6/CapSense_Filter.c **** 
1679:Generated_Source\PSoC6/CapSense_Filter.c ****     return ((x1 > x2) ? x1 : x2);
 1016              		.loc 1 1679 0
 1017 0010 8842     		cmp	r0, r1
 1018 0012 00D2     		bcs	.L61
 1019 0014 0800     		movs	r0, r1
 1020              	.LVL142:
 1021              	.L61:
1680:Generated_Source\PSoC6/CapSense_Filter.c **** }
 1022              		.loc 1 1680 0
 1023              		@ sp needed
 1024 0016 7047     		bx	lr
 1025              		.cfi_endproc
 1026              	.LFE69:
 1027              		.size	CapSense_FtMedian, .-CapSense_FtMedian
ARM GAS  C:\Users\PC\AppData\Local\Temp\ccyhv7od.s 			page 50


 1028              		.section	.text.CapSense_RunMedianInternal,"ax",%progbits
 1029              		.align	2
 1030              		.global	CapSense_RunMedianInternal
 1031              		.code	16
 1032              		.thumb_func
 1033              		.type	CapSense_RunMedianInternal, %function
 1034              	CapSense_RunMedianInternal:
 1035              	.LFB60:
1067:Generated_Source\PSoC6/CapSense_Filter.c ****     uint32 freqChannel;
 1036              		.loc 1 1067 0
 1037              		.cfi_startproc
 1038              		@ args = 0, pretend = 0, frame = 0
 1039              		@ frame_needed = 0, uses_anonymous_args = 0
 1040              	.LVL143:
 1041 0000 F8B5     		push	{r3, r4, r5, r6, r7, lr}
 1042              		.cfi_def_cfa_offset 24
 1043              		.cfi_offset 3, -24
 1044              		.cfi_offset 4, -20
 1045              		.cfi_offset 5, -16
 1046              		.cfi_offset 6, -12
 1047              		.cfi_offset 7, -8
 1048              		.cfi_offset 14, -4
 1049 0002 5F46     		mov	r7, fp
 1050 0004 5646     		mov	r6, r10
 1051 0006 4D46     		mov	r5, r9
 1052 0008 4446     		mov	r4, r8
 1053 000a F0B4     		push	{r4, r5, r6, r7}
 1054              		.cfi_def_cfa_offset 40
 1055              		.cfi_offset 8, -40
 1056              		.cfi_offset 9, -36
 1057              		.cfi_offset 10, -32
 1058              		.cfi_offset 11, -28
 1059 000c 8046     		mov	r8, r0
 1060 000e 0F00     		movs	r7, r1
 1061 0010 9146     		mov	r9, r2
 1062              	.LVL144:
1075:Generated_Source\PSoC6/CapSense_Filter.c ****     {
 1063              		.loc 1 1075 0
 1064 0012 0123     		movs	r3, #1
 1065 0014 1FE0     		b	.L65
 1066              	.LVL145:
 1067              	.L67:
1077:Generated_Source\PSoC6/CapSense_Filter.c ****         {
 1068              		.loc 1 1077 0
 1069 0016 FF23     		movs	r3, #255
 1070 0018 4A46     		mov	r2, r9
 1071 001a 1340     		ands	r3, r2
 1072 001c 062B     		cmp	r3, #6
 1073 001e 19D0     		beq	.L66
 1074              	.LVL146:
1080:Generated_Source\PSoC6/CapSense_Filter.c ****                                                  (uint32)ptrFilterHistObj.ptrRegular->regularChanne
 1075              		.loc 1 1080 0
 1076 0020 6300     		lsls	r3, r4, #1
 1077 0022 9A46     		mov	r10, r3
 1078 0024 D85B     		ldrh	r0, [r3, r7]
 1079              	.LVL147:
1081:Generated_Source\PSoC6/CapSense_Filter.c ****                                                  (uint32)ptrFilterHistObj.ptrRegular->regularChanne
ARM GAS  C:\Users\PC\AppData\Local\Temp\ccyhv7od.s 			page 51


 1080              		.loc 1 1081 0
 1081 0026 A500     		lsls	r5, r4, #2
 1082 0028 2A19     		adds	r2, r5, r4
 1083              	.LVL148:
 1084 002a 5300     		lsls	r3, r2, #1
 1085 002c 4246     		mov	r2, r8
 1086 002e 9B5A     		ldrh	r3, [r3, r2]
 1087 0030 9B46     		mov	fp, r3
1082:Generated_Source\PSoC6/CapSense_Filter.c ****                 ptrFilterHistObj.ptrRegular->regularChannel[freqChannel].medHistory[1u] = \
 1088              		.loc 1 1082 0
 1089 0032 2B19     		adds	r3, r5, r4
 1090 0034 5E00     		lsls	r6, r3, #1
 1091 0036 4644     		add	r6, r6, r8
 1092 0038 7288     		ldrh	r2, [r6, #2]
1080:Generated_Source\PSoC6/CapSense_Filter.c ****                                                  (uint32)ptrFilterHistObj.ptrRegular->regularChanne
 1093              		.loc 1 1080 0
 1094 003a 5946     		mov	r1, fp
 1095              	.LVL149:
 1096 003c FFF7FEFF 		bl	CapSense_FtMedian
 1097              	.LVL150:
1083:Generated_Source\PSoC6/CapSense_Filter.c ****                 ptrFilterHistObj.ptrRegular->regularChannel[freqChannel].medHistory[0u];
 1098              		.loc 1 1083 0
 1099 0040 5B46     		mov	r3, fp
 1100 0042 7380     		strh	r3, [r6, #2]
1085:Generated_Source\PSoC6/CapSense_Filter.c ****                 ptrSensorObj->raw[freqChannel] = CY_LO16(temp);
 1101              		.loc 1 1085 0
 1102 0044 5346     		mov	r3, r10
 1103 0046 DA5B     		ldrh	r2, [r3, r7]
 1104 0048 2D19     		adds	r5, r5, r4
 1105 004a 6B00     		lsls	r3, r5, #1
 1106 004c 4146     		mov	r1, r8
 1107 004e 5A52     		strh	r2, [r3, r1]
1086:Generated_Source\PSoC6/CapSense_Filter.c ****             #endif /* (CapSense_REGULAR_SENSOR_EN) */
 1108              		.loc 1 1086 0
 1109 0050 5346     		mov	r3, r10
 1110 0052 F852     		strh	r0, [r7, r3]
 1111              	.LVL151:
 1112              	.L66:
1067:Generated_Source\PSoC6/CapSense_Filter.c ****     uint32 freqChannel;
 1113              		.loc 1 1067 0 discriminator 1
 1114 0054 2300     		movs	r3, r4
 1115              	.LVL152:
 1116              	.L65:
1075:Generated_Source\PSoC6/CapSense_Filter.c ****     {
 1117              		.loc 1 1075 0 discriminator 1
 1118 0056 5C1E     		subs	r4, r3, #1
 1119              	.LVL153:
 1120 0058 002B     		cmp	r3, #0
 1121 005a DCD1     		bne	.L67
1102:Generated_Source\PSoC6/CapSense_Filter.c **** #endif /* (CapSense_REGULAR_RC_MEDIAN_FILTER_EN || CapSense_PROX_RC_MEDIAN_FILTER_EN) */
 1122              		.loc 1 1102 0
 1123              		@ sp needed
 1124              	.LVL154:
 1125              	.LVL155:
 1126              	.LVL156:
 1127 005c 3CBC     		pop	{r2, r3, r4, r5}
 1128 005e 9046     		mov	r8, r2
ARM GAS  C:\Users\PC\AppData\Local\Temp\ccyhv7od.s 			page 52


 1129 0060 9946     		mov	r9, r3
 1130 0062 A246     		mov	r10, r4
 1131 0064 AB46     		mov	fp, r5
 1132 0066 F8BD     		pop	{r3, r4, r5, r6, r7, pc}
 1133              		.cfi_endproc
 1134              	.LFE60:
 1135              		.size	CapSense_RunMedianInternal, .-CapSense_RunMedianInternal
 1136              		.section	.text.CapSense_RunMedian,"ax",%progbits
 1137              		.align	2
 1138              		.global	CapSense_RunMedian
 1139              		.code	16
 1140              		.thumb_func
 1141              		.type	CapSense_RunMedian, %function
 1142              	CapSense_RunMedian:
 1143              	.LFB58:
 985:Generated_Source\PSoC6/CapSense_Filter.c ****     CapSense_FLASH_WD_STRUCT const *ptrWidget = &CapSense_dsFlash.wdgtArray[widgetId];
 1144              		.loc 1 985 0
 1145              		.cfi_startproc
 1146              		@ args = 0, pretend = 0, frame = 0
 1147              		@ frame_needed = 0, uses_anonymous_args = 0
 1148              	.LVL157:
 1149 0000 70B5     		push	{r4, r5, r6, lr}
 1150              		.cfi_def_cfa_offset 16
 1151              		.cfi_offset 4, -16
 1152              		.cfi_offset 5, -12
 1153              		.cfi_offset 6, -8
 1154              		.cfi_offset 14, -4
 1155              	.LVL158:
 991:Generated_Source\PSoC6/CapSense_Filter.c ****     ptrSensor = &ptrSensor[sensorId];
 1156              		.loc 1 991 0
 1157 0002 2C23     		movs	r3, #44
 1158 0004 5843     		muls	r0, r3
 1159              	.LVL159:
 1160 0006 084B     		ldr	r3, .L70
 1161 0008 1B18     		adds	r3, r3, r0
 1162              	.LVL160:
 992:Generated_Source\PSoC6/CapSense_Filter.c **** 
 1163              		.loc 1 992 0
 1164 000a 8A00     		lsls	r2, r1, #2
 1165 000c 5118     		adds	r1, r2, r1
 1166              	.LVL161:
 1167 000e 4C00     		lsls	r4, r1, #1
 1168 0010 9A68     		ldr	r2, [r3, #8]
 1169 0012 1119     		adds	r1, r2, r4
 1170              	.LVL162:
 995:Generated_Source\PSoC6/CapSense_Filter.c **** 
 1171              		.loc 1 995 0
 1172 0014 DD68     		ldr	r5, [r3, #12]
 1173 0016 2800     		movs	r0, r5
 1174              	.LVL163:
 997:Generated_Source\PSoC6/CapSense_Filter.c ****     {
 1175              		.loc 1 997 0
 1176 0018 9A7E     		ldrb	r2, [r3, #26]
 1177 001a 062A     		cmp	r2, #6
 1178 001c 00D0     		beq	.L69
1000:Generated_Source\PSoC6/CapSense_Filter.c ****         #endif /* (CapSense_REGULAR_SENSOR_EN) */
 1179              		.loc 1 1000 0
ARM GAS  C:\Users\PC\AppData\Local\Temp\ccyhv7od.s 			page 53


 1180 001e 2819     		adds	r0, r5, r4
 1181              	.L69:
1010:Generated_Source\PSoC6/CapSense_Filter.c **** }
 1182              		.loc 1 1010 0
 1183 0020 FFF7FEFF 		bl	CapSense_RunMedianInternal
 1184              	.LVL164:
1011:Generated_Source\PSoC6/CapSense_Filter.c **** 
 1185              		.loc 1 1011 0
 1186              		@ sp needed
 1187              	.LVL165:
 1188 0024 70BD     		pop	{r4, r5, r6, pc}
 1189              	.L71:
 1190 0026 C046     		.align	2
 1191              	.L70:
 1192 0028 00000000 		.word	CapSense_dsFlash
 1193              		.cfi_endproc
 1194              	.LFE58:
 1195              		.size	CapSense_RunMedian, .-CapSense_RunMedian
 1196              		.section	.text.CapSense_FtRunEnabledFiltersInternal,"ax",%progbits
 1197              		.align	2
 1198              		.global	CapSense_FtRunEnabledFiltersInternal
 1199              		.code	16
 1200              		.thumb_func
 1201              		.type	CapSense_FtRunEnabledFiltersInternal, %function
 1202              	CapSense_FtRunEnabledFiltersInternal:
 1203              	.LFB66:
1565:Generated_Source\PSoC6/CapSense_Filter.c ****     #if (CapSense_REGULAR_RC_MEDIAN_FILTER_EN || CapSense_PROX_RC_MEDIAN_FILTER_EN)
 1204              		.loc 1 1565 0
 1205              		.cfi_startproc
 1206              		@ args = 0, pretend = 0, frame = 0
 1207              		@ frame_needed = 0, uses_anonymous_args = 0
 1208              	.LVL166:
 1209 0000 70B5     		push	{r4, r5, r6, lr}
 1210              		.cfi_def_cfa_offset 16
 1211              		.cfi_offset 4, -16
 1212              		.cfi_offset 5, -12
 1213              		.cfi_offset 6, -8
 1214              		.cfi_offset 14, -4
 1215 0002 0400     		movs	r4, r0
 1216 0004 0D00     		movs	r5, r1
 1217 0006 1600     		movs	r6, r2
1567:Generated_Source\PSoC6/CapSense_Filter.c ****     #endif /* (CapSense_REGULAR_RC_MEDIAN_FILTER_EN || CapSense_PROX_RC_MEDIAN_FILTER_EN) */
 1218              		.loc 1 1567 0
 1219 0008 FFF7FEFF 		bl	CapSense_RunMedianInternal
 1220              	.LVL167:
1575:Generated_Source\PSoC6/CapSense_Filter.c ****     #endif /* (CapSense_REGULAR_RC_AVERAGE_FILTER_EN || CapSense_PROX_RC_AVERAGE_FILTER_EN) */
 1221              		.loc 1 1575 0
 1222 000c 3200     		movs	r2, r6
 1223 000e 2900     		movs	r1, r5
 1224              	.LVL168:
 1225 0010 2000     		movs	r0, r4
 1226 0012 FFF7FEFF 		bl	CapSense_RunAverageInternal
 1227              	.LVL169:
1577:Generated_Source\PSoC6/CapSense_Filter.c **** #endif /* (CapSense_ENABLE == CapSense_RC_FILTER_EN) */
 1228              		.loc 1 1577 0
 1229              		@ sp needed
 1230              	.LVL170:
ARM GAS  C:\Users\PC\AppData\Local\Temp\ccyhv7od.s 			page 54


 1231              	.LVL171:
 1232              	.LVL172:
 1233 0016 70BD     		pop	{r4, r5, r6, pc}
 1234              		.cfi_endproc
 1235              	.LFE66:
 1236              		.size	CapSense_FtRunEnabledFiltersInternal, .-CapSense_FtRunEnabledFiltersInternal
 1237              		.section	.text.CapSense_FtRunEnabledFilters,"ax",%progbits
 1238              		.align	2
 1239              		.global	CapSense_FtRunEnabledFilters
 1240              		.code	16
 1241              		.thumb_func
 1242              		.type	CapSense_FtRunEnabledFilters, %function
 1243              	CapSense_FtRunEnabledFilters:
 1244              	.LFB65:
1514:Generated_Source\PSoC6/CapSense_Filter.c ****     CapSense_FLASH_WD_STRUCT const *ptrWidget = &CapSense_dsFlash.wdgtArray[widgetId];
 1245              		.loc 1 1514 0
 1246              		.cfi_startproc
 1247              		@ args = 0, pretend = 0, frame = 0
 1248              		@ frame_needed = 0, uses_anonymous_args = 0
 1249              	.LVL173:
 1250 0000 70B5     		push	{r4, r5, r6, lr}
 1251              		.cfi_def_cfa_offset 16
 1252              		.cfi_offset 4, -16
 1253              		.cfi_offset 5, -12
 1254              		.cfi_offset 6, -8
 1255              		.cfi_offset 14, -4
 1256              	.LVL174:
1520:Generated_Source\PSoC6/CapSense_Filter.c ****     ptrSensor = &ptrSensor[sensorId];
 1257              		.loc 1 1520 0
 1258 0002 2C23     		movs	r3, #44
 1259 0004 5843     		muls	r0, r3
 1260              	.LVL175:
 1261 0006 084B     		ldr	r3, .L75
 1262 0008 1B18     		adds	r3, r3, r0
 1263              	.LVL176:
1521:Generated_Source\PSoC6/CapSense_Filter.c **** 
 1264              		.loc 1 1521 0
 1265 000a 8A00     		lsls	r2, r1, #2
 1266 000c 5118     		adds	r1, r2, r1
 1267              	.LVL177:
 1268 000e 4C00     		lsls	r4, r1, #1
 1269 0010 9A68     		ldr	r2, [r3, #8]
 1270 0012 1119     		adds	r1, r2, r4
 1271              	.LVL178:
1524:Generated_Source\PSoC6/CapSense_Filter.c **** 
 1272              		.loc 1 1524 0
 1273 0014 DD68     		ldr	r5, [r3, #12]
 1274 0016 2800     		movs	r0, r5
 1275              	.LVL179:
1526:Generated_Source\PSoC6/CapSense_Filter.c ****     {
 1276              		.loc 1 1526 0
 1277 0018 9A7E     		ldrb	r2, [r3, #26]
 1278 001a 062A     		cmp	r2, #6
 1279 001c 00D0     		beq	.L74
1531:Generated_Source\PSoC6/CapSense_Filter.c ****         #endif
 1280              		.loc 1 1531 0
 1281 001e 2819     		adds	r0, r5, r4
ARM GAS  C:\Users\PC\AppData\Local\Temp\ccyhv7od.s 			page 55


 1282              	.L74:
1543:Generated_Source\PSoC6/CapSense_Filter.c ****     #if (CapSense_ALP_FILTER_EN)
 1283              		.loc 1 1543 0
 1284 0020 FFF7FEFF 		bl	CapSense_FtRunEnabledFiltersInternal
 1285              	.LVL180:
1547:Generated_Source\PSoC6/CapSense_Filter.c **** 
 1286              		.loc 1 1547 0
 1287              		@ sp needed
 1288              	.LVL181:
 1289 0024 70BD     		pop	{r4, r5, r6, pc}
 1290              	.L76:
 1291 0026 C046     		.align	2
 1292              	.L75:
 1293 0028 00000000 		.word	CapSense_dsFlash
 1294              		.cfi_endproc
 1295              	.LFE65:
 1296              		.size	CapSense_FtRunEnabledFilters, .-CapSense_FtRunEnabledFilters
 1297              		.section	.text.CapSense_FtIIR1stOrder,"ax",%progbits
 1298              		.align	2
 1299              		.global	CapSense_FtIIR1stOrder
 1300              		.code	16
 1301              		.thumb_func
 1302              		.type	CapSense_FtIIR1stOrder, %function
 1303              	CapSense_FtIIR1stOrder:
 1304              	.LFB70:
1681:Generated_Source\PSoC6/CapSense_Filter.c **** #endif /*CapSense_POS_MEDIAN_FILTER_EN || CapSense_REGULAR_RC_MEDIAN_FILTER_EN || CapSense_PROX_RC_
1682:Generated_Source\PSoC6/CapSense_Filter.c **** 
1683:Generated_Source\PSoC6/CapSense_Filter.c **** 
1684:Generated_Source\PSoC6/CapSense_Filter.c **** /*******************************************************************************
1685:Generated_Source\PSoC6/CapSense_Filter.c **** * Function Name: CapSense_FtIIR1stOrder
1686:Generated_Source\PSoC6/CapSense_Filter.c **** ****************************************************************************//**
1687:Generated_Source\PSoC6/CapSense_Filter.c **** *
1688:Generated_Source\PSoC6/CapSense_Filter.c **** * \brief    Return the filtered data by the IIR 1-st order algorithm
1689:Generated_Source\PSoC6/CapSense_Filter.c **** *
1690:Generated_Source\PSoC6/CapSense_Filter.c **** * \details  Return the filtered data by the IIR 1-st order algorithm
1691:Generated_Source\PSoC6/CapSense_Filter.c **** *
1692:Generated_Source\PSoC6/CapSense_Filter.c **** * \param    input      The data to be filtered.
1693:Generated_Source\PSoC6/CapSense_Filter.c **** * \param    prevOutput The previous filtered data.
1694:Generated_Source\PSoC6/CapSense_Filter.c **** * \param    n          The IIR filter coefficient (n/256).
1695:Generated_Source\PSoC6/CapSense_Filter.c **** * \param    shift      The parameter is used to shift input data to have free LSB
1696:Generated_Source\PSoC6/CapSense_Filter.c **** *                       bits for a fraction storage of the filter output calculation.
1697:Generated_Source\PSoC6/CapSense_Filter.c **** *
1698:Generated_Source\PSoC6/CapSense_Filter.c **** * \return   Returns the filtered data.
1699:Generated_Source\PSoC6/CapSense_Filter.c **** *
1700:Generated_Source\PSoC6/CapSense_Filter.c **** *******************************************************************************/
1701:Generated_Source\PSoC6/CapSense_Filter.c **** uint32 CapSense_FtIIR1stOrder(uint32 input, uint32 prevOutput, uint32 n, uint32 shift)
1702:Generated_Source\PSoC6/CapSense_Filter.c **** {
 1305              		.loc 1 1702 0
 1306              		.cfi_startproc
 1307              		@ args = 0, pretend = 0, frame = 0
 1308              		@ frame_needed = 0, uses_anonymous_args = 0
 1309              		@ link register save eliminated.
 1310              	.LVL182:
1703:Generated_Source\PSoC6/CapSense_Filter.c ****     uint32 filteredOutput;
1704:Generated_Source\PSoC6/CapSense_Filter.c **** 
1705:Generated_Source\PSoC6/CapSense_Filter.c ****     /*
1706:Generated_Source\PSoC6/CapSense_Filter.c ****     * n - IIR filter coefficient (n/256)
ARM GAS  C:\Users\PC\AppData\Local\Temp\ccyhv7od.s 			page 56


1707:Generated_Source\PSoC6/CapSense_Filter.c ****     * shift - Used to shift input data to have free LSB bits
1708:Generated_Source\PSoC6/CapSense_Filter.c ****     * for fraction storage of filter output calculation
1709:Generated_Source\PSoC6/CapSense_Filter.c ****     */
1710:Generated_Source\PSoC6/CapSense_Filter.c ****     filteredOutput = ((n * (input << shift)) + ((CapSense_IIR_COEFFICIENT_K - n) * prevOutput)) >> 
 1311              		.loc 1 1710 0
 1312 0000 9840     		lsls	r0, r0, r3
 1313              	.LVL183:
 1314 0002 5043     		muls	r0, r2
 1315 0004 8023     		movs	r3, #128
 1316              	.LVL184:
 1317 0006 5B00     		lsls	r3, r3, #1
 1318 0008 9A1A     		subs	r2, r3, r2
 1319              	.LVL185:
 1320 000a 5143     		muls	r1, r2
 1321              	.LVL186:
 1322 000c 4018     		adds	r0, r0, r1
 1323 000e 000A     		lsrs	r0, r0, #8
 1324              	.LVL187:
1711:Generated_Source\PSoC6/CapSense_Filter.c **** 
1712:Generated_Source\PSoC6/CapSense_Filter.c ****     /* Shift operation of output will be done in upper level API if needed */
1713:Generated_Source\PSoC6/CapSense_Filter.c ****     return filteredOutput;
1714:Generated_Source\PSoC6/CapSense_Filter.c **** }
 1325              		.loc 1 1714 0
 1326              		@ sp needed
 1327 0010 7047     		bx	lr
 1328              		.cfi_endproc
 1329              	.LFE70:
 1330              		.size	CapSense_FtIIR1stOrder, .-CapSense_FtIIR1stOrder
 1331 0012 C046     		.section	.text.CapSense_FtUpdateBaseline,"ax",%progbits
 1332              		.align	2
 1333              		.global	CapSense_FtUpdateBaseline
 1334              		.code	16
 1335              		.thumb_func
 1336              		.type	CapSense_FtUpdateBaseline, %function
 1337              	CapSense_FtUpdateBaseline:
 1338              	.LFB49:
 259:Generated_Source\PSoC6/CapSense_Filter.c ****     uint32 sign;
 1339              		.loc 1 259 0
 1340              		.cfi_startproc
 1341              		@ args = 0, pretend = 0, frame = 0
 1342              		@ frame_needed = 0, uses_anonymous_args = 0
 1343              	.LVL188:
 1344 0000 F0B5     		push	{r4, r5, r6, r7, lr}
 1345              		.cfi_def_cfa_offset 20
 1346              		.cfi_offset 4, -20
 1347              		.cfi_offset 5, -16
 1348              		.cfi_offset 6, -12
 1349              		.cfi_offset 7, -8
 1350              		.cfi_offset 14, -4
 1351 0002 4746     		mov	r7, r8
 1352 0004 80B4     		push	{r7}
 1353              		.cfi_def_cfa_offset 24
 1354              		.cfi_offset 8, -24
 1355 0006 0700     		movs	r7, r0
 1356 0008 0E00     		movs	r6, r1
 1357 000a 1500     		movs	r5, r2
 1358              	.LVL189:
ARM GAS  C:\Users\PC\AppData\Local\Temp\ccyhv7od.s 			page 57


 271:Generated_Source\PSoC6/CapSense_Filter.c ****     {
 1359              		.loc 1 271 0
 1360 000c 0123     		movs	r3, #1
 1361 000e 37E0     		b	.L79
 1362              	.LVL190:
 1363              	.L85:
 283:Generated_Source\PSoC6/CapSense_Filter.c ****         {
 1364              		.loc 1 283 0
 1365 0010 6300     		lsls	r3, r4, #1
 1366 0012 985B     		ldrh	r0, [r3, r6]
 1367 0014 F318     		adds	r3, r6, r3
 1368 0016 5988     		ldrh	r1, [r3, #2]
 1369 0018 8842     		cmp	r0, r1
 1370 001a 06D3     		bcc	.L80
 285:Generated_Source\PSoC6/CapSense_Filter.c ****             sign = 1u;
 1371              		.loc 1 285 0
 1372 001c 431A     		subs	r3, r0, r1
 1373 001e 9846     		mov	r8, r3
 1374              	.LVL191:
 287:Generated_Source\PSoC6/CapSense_Filter.c ****         }
 1375              		.loc 1 287 0
 1376 0020 3319     		adds	r3, r6, r4
 1377              	.LVL192:
 1378 0022 0022     		movs	r2, #0
 1379 0024 1A72     		strb	r2, [r3, #8]
 286:Generated_Source\PSoC6/CapSense_Filter.c ****             ptrSensor->negBslnRstCnt[freqChannel] = 0u;
 1380              		.loc 1 286 0
 1381 0026 0123     		movs	r3, #1
 1382 0028 02E0     		b	.L81
 1383              	.LVL193:
 1384              	.L80:
 291:Generated_Source\PSoC6/CapSense_Filter.c ****             sign = 0u;
 1385              		.loc 1 291 0
 1386 002a 0B1A     		subs	r3, r1, r0
 1387 002c 9846     		mov	r8, r3
 1388              	.LVL194:
 292:Generated_Source\PSoC6/CapSense_Filter.c ****         }
 1389              		.loc 1 292 0
 1390 002e 0023     		movs	r3, #0
 1391              	.LVL195:
 1392              	.L81:
 296:Generated_Source\PSoC6/CapSense_Filter.c ****         {
 1393              		.loc 1 296 0
 1394 0030 002B     		cmp	r3, #0
 1395 0032 11D1     		bne	.L82
 296:Generated_Source\PSoC6/CapSense_Filter.c ****         {
 1396              		.loc 1 296 0 is_stmt 0 discriminator 1
 1397 0034 7B79     		ldrb	r3, [r7, #5]
 1398              	.LVL196:
 1399 0036 9845     		cmp	r8, r3
 1400 0038 0ED9     		bls	.L82
 298:Generated_Source\PSoC6/CapSense_Filter.c ****             {
 1401              		.loc 1 298 0 is_stmt 1
 1402 003a 3319     		adds	r3, r6, r4
 1403 003c 1B7A     		ldrb	r3, [r3, #8]
 1404 003e 3A7A     		ldrb	r2, [r7, #8]
 1405 0040 9342     		cmp	r3, r2
ARM GAS  C:\Users\PC\AppData\Local\Temp\ccyhv7od.s 			page 58


 1406 0042 05D3     		bcc	.L83
 300:Generated_Source\PSoC6/CapSense_Filter.c ****             }
 1407              		.loc 1 300 0
 1408 0044 2200     		movs	r2, r4
 1409 0046 2900     		movs	r1, r5
 1410 0048 3000     		movs	r0, r6
 1411 004a FFF7FEFF 		bl	CapSense_FtInitializeBaselineChannel
 1412              	.LVL197:
 1413 004e 16E0     		b	.L84
 1414              	.L83:
 304:Generated_Source\PSoC6/CapSense_Filter.c ****             }
 1415              		.loc 1 304 0
 1416 0050 3219     		adds	r2, r6, r4
 1417 0052 0133     		adds	r3, r3, #1
 1418 0054 1372     		strb	r3, [r2, #8]
 1419 0056 12E0     		b	.L84
 1420              	.L82:
 318:Generated_Source\PSoC6/CapSense_Filter.c ****                 {
 1421              		.loc 1 318 0
 1422 0058 FF23     		movs	r3, #255
 1423 005a 2B40     		ands	r3, r5
 1424 005c 062B     		cmp	r3, #6
 1425 005e 0ED0     		beq	.L84
 322:Generated_Source\PSoC6/CapSense_Filter.c ****                             history |= ptrSensor->bslnExt[freqChannel];
 1426              		.loc 1 322 0
 1427 0060 0902     		lsls	r1, r1, #8
 1428              	.LVL198:
 323:Generated_Source\PSoC6/CapSense_Filter.c ****                         #else
 1429              		.loc 1 323 0
 1430 0062 3319     		adds	r3, r6, r4
 1431 0064 9846     		mov	r8, r3
 1432              	.LVL199:
 1433 0066 1B79     		ldrb	r3, [r3, #4]
 1434 0068 1943     		orrs	r1, r3
 1435              	.LVL200:
 334:Generated_Source\PSoC6/CapSense_Filter.c ****                                         (uint32)ptrSensor->raw[freqChannel],
 1436              		.loc 1 334 0
 1437 006a 0823     		movs	r3, #8
 1438 006c 0122     		movs	r2, #1
 1439 006e FFF7FEFF 		bl	CapSense_FtIIR1stOrder
 1440              	.LVL201:
 340:Generated_Source\PSoC6/CapSense_Filter.c ****                                     ptrSensor->bslnExt[freqChannel] = CY_LO8(history);
 1441              		.loc 1 340 0
 1442 0072 020A     		lsrs	r2, r0, #8
 1443 0074 6300     		lsls	r3, r4, #1
 1444 0076 F318     		adds	r3, r6, r3
 1445 0078 5A80     		strh	r2, [r3, #2]
 341:Generated_Source\PSoC6/CapSense_Filter.c ****                         #else
 1446              		.loc 1 341 0
 1447 007a 4346     		mov	r3, r8
 1448 007c 1871     		strb	r0, [r3, #4]
 1449              	.LVL202:
 1450              	.L84:
 1451 007e 2300     		movs	r3, r4
 1452              	.LVL203:
 1453              	.L79:
 271:Generated_Source\PSoC6/CapSense_Filter.c ****     {
ARM GAS  C:\Users\PC\AppData\Local\Temp\ccyhv7od.s 			page 59


 1454              		.loc 1 271 0 discriminator 1
 1455 0080 5C1E     		subs	r4, r3, #1
 1456              	.LVL204:
 1457 0082 002B     		cmp	r3, #0
 1458 0084 C4D1     		bne	.L85
 398:Generated_Source\PSoC6/CapSense_Filter.c **** 
 1459              		.loc 1 398 0
 1460 0086 0020     		movs	r0, #0
 1461              		@ sp needed
 1462              	.LVL205:
 1463              	.LVL206:
 1464              	.LVL207:
 1465              	.LVL208:
 1466 0088 04BC     		pop	{r2}
 1467 008a 9046     		mov	r8, r2
 1468 008c F0BD     		pop	{r4, r5, r6, r7, pc}
 1469              		.cfi_endproc
 1470              	.LFE49:
 1471              		.size	CapSense_FtUpdateBaseline, .-CapSense_FtUpdateBaseline
 1472 008e C046     		.section	.text.CapSense_UpdateSensorBaseline,"ax",%progbits
 1473              		.align	2
 1474              		.global	CapSense_UpdateSensorBaseline
 1475              		.code	16
 1476              		.thumb_func
 1477              		.type	CapSense_UpdateSensorBaseline, %function
 1478              	CapSense_UpdateSensorBaseline:
 1479              	.LFB48:
 201:Generated_Source\PSoC6/CapSense_Filter.c ****     uint32 result = CY_RET_SUCCESS;
 1480              		.loc 1 201 0
 1481              		.cfi_startproc
 1482              		@ args = 0, pretend = 0, frame = 0
 1483              		@ frame_needed = 0, uses_anonymous_args = 0
 1484              	.LVL209:
 1485 0000 10B5     		push	{r4, lr}
 1486              		.cfi_def_cfa_offset 8
 1487              		.cfi_offset 4, -8
 1488              		.cfi_offset 14, -4
 1489              	.LVL210:
 206:Generated_Source\PSoC6/CapSense_Filter.c **** 
 1490              		.loc 1 206 0
 1491 0002 2C23     		movs	r3, #44
 1492 0004 5843     		muls	r0, r3
 1493              	.LVL211:
 1494 0006 064B     		ldr	r3, .L87
 1495 0008 1B18     		adds	r3, r3, r0
 1496              	.LVL212:
 1497 000a 5868     		ldr	r0, [r3, #4]
 1498              	.LVL213:
 210:Generated_Source\PSoC6/CapSense_Filter.c ****     result = CapSense_FtUpdateBaseline(ptrWidgetRam, ptrSensor, (uint32)ptrWidget->wdgtType);
 1499              		.loc 1 210 0
 1500 000c 8A00     		lsls	r2, r1, #2
 1501 000e 5218     		adds	r2, r2, r1
 1502 0010 5100     		lsls	r1, r2, #1
 1503              	.LVL214:
 1504 0012 9A68     		ldr	r2, [r3, #8]
 1505 0014 9446     		mov	ip, r2
 1506 0016 6144     		add	r1, r1, ip
ARM GAS  C:\Users\PC\AppData\Local\Temp\ccyhv7od.s 			page 60


 1507              	.LVL215:
 211:Generated_Source\PSoC6/CapSense_Filter.c **** 
 1508              		.loc 1 211 0
 1509 0018 9A7E     		ldrb	r2, [r3, #26]
 1510 001a FFF7FEFF 		bl	CapSense_FtUpdateBaseline
 1511              	.LVL216:
 222:Generated_Source\PSoC6/CapSense_Filter.c **** 
 1512              		.loc 1 222 0
 1513              		@ sp needed
 1514 001e 10BD     		pop	{r4, pc}
 1515              	.L88:
 1516              		.align	2
 1517              	.L87:
 1518 0020 00000000 		.word	CapSense_dsFlash
 1519              		.cfi_endproc
 1520              	.LFE48:
 1521              		.size	CapSense_UpdateSensorBaseline, .-CapSense_UpdateSensorBaseline
 1522              		.section	.text.CapSense_UpdateWidgetBaseline,"ax",%progbits
 1523              		.align	2
 1524              		.global	CapSense_UpdateWidgetBaseline
 1525              		.code	16
 1526              		.thumb_func
 1527              		.type	CapSense_UpdateWidgetBaseline, %function
 1528              	CapSense_UpdateWidgetBaseline:
 1529              	.LFB47:
 144:Generated_Source\PSoC6/CapSense_Filter.c ****     uint32 sensorId;
 1530              		.loc 1 144 0
 1531              		.cfi_startproc
 1532              		@ args = 0, pretend = 0, frame = 0
 1533              		@ frame_needed = 0, uses_anonymous_args = 0
 1534              	.LVL217:
 1535 0000 70B5     		push	{r4, r5, r6, lr}
 1536              		.cfi_def_cfa_offset 16
 1537              		.cfi_offset 4, -16
 1538              		.cfi_offset 5, -12
 1539              		.cfi_offset 6, -8
 1540              		.cfi_offset 14, -4
 1541 0002 0600     		movs	r6, r0
 1542              	.LVL218:
 152:Generated_Source\PSoC6/CapSense_Filter.c **** 
 1543              		.loc 1 152 0
 1544 0004 2C23     		movs	r3, #44
 1545 0006 4343     		muls	r3, r0
 1546 0008 074A     		ldr	r2, .L92
 1547 000a D318     		adds	r3, r2, r3
 1548              	.LVL219:
 1549 000c 1B8B     		ldrh	r3, [r3, #24]
 1550              	.LVL220:
 149:Generated_Source\PSoC6/CapSense_Filter.c **** 
 1551              		.loc 1 149 0
 1552 000e 0025     		movs	r5, #0
 154:Generated_Source\PSoC6/CapSense_Filter.c ****     {
 1553              		.loc 1 154 0
 1554 0010 05E0     		b	.L90
 1555              	.LVL221:
 1556              	.L91:
 156:Generated_Source\PSoC6/CapSense_Filter.c ****     }
ARM GAS  C:\Users\PC\AppData\Local\Temp\ccyhv7od.s 			page 61


 1557              		.loc 1 156 0
 1558 0012 2100     		movs	r1, r4
 1559 0014 3000     		movs	r0, r6
 1560 0016 FFF7FEFF 		bl	CapSense_UpdateSensorBaseline
 1561              	.LVL222:
 1562 001a 0543     		orrs	r5, r0
 1563              	.LVL223:
 154:Generated_Source\PSoC6/CapSense_Filter.c ****     {
 1564              		.loc 1 154 0
 1565 001c 2300     		movs	r3, r4
 1566              	.LVL224:
 1567              	.L90:
 154:Generated_Source\PSoC6/CapSense_Filter.c ****     {
 1568              		.loc 1 154 0 is_stmt 0 discriminator 1
 1569 001e 5C1E     		subs	r4, r3, #1
 1570              	.LVL225:
 1571 0020 002B     		cmp	r3, #0
 1572 0022 F6D1     		bne	.L91
 160:Generated_Source\PSoC6/CapSense_Filter.c **** 
 1573              		.loc 1 160 0 is_stmt 1
 1574 0024 2800     		movs	r0, r5
 1575              		@ sp needed
 1576              	.LVL226:
 1577              	.LVL227:
 1578              	.LVL228:
 1579 0026 70BD     		pop	{r4, r5, r6, pc}
 1580              	.L93:
 1581              		.align	2
 1582              	.L92:
 1583 0028 00000000 		.word	CapSense_dsFlash
 1584              		.cfi_endproc
 1585              	.LFE47:
 1586              		.size	CapSense_UpdateWidgetBaseline, .-CapSense_UpdateWidgetBaseline
 1587              		.section	.text.CapSense_UpdateAllBaselines,"ax",%progbits
 1588              		.align	2
 1589              		.global	CapSense_UpdateAllBaselines
 1590              		.code	16
 1591              		.thumb_func
 1592              		.type	CapSense_UpdateAllBaselines, %function
 1593              	CapSense_UpdateAllBaselines:
 1594              	.LFB46:
  99:Generated_Source\PSoC6/CapSense_Filter.c ****     uint32 widgetId;
 1595              		.loc 1 99 0
 1596              		.cfi_startproc
 1597              		@ args = 0, pretend = 0, frame = 0
 1598              		@ frame_needed = 0, uses_anonymous_args = 0
 1599 0000 70B5     		push	{r4, r5, r6, lr}
 1600              		.cfi_def_cfa_offset 16
 1601              		.cfi_offset 4, -16
 1602              		.cfi_offset 5, -12
 1603              		.cfi_offset 6, -8
 1604              		.cfi_offset 14, -4
 1605              	.LVL229:
 101:Generated_Source\PSoC6/CapSense_Filter.c **** 
 1606              		.loc 1 101 0
 1607 0002 0025     		movs	r5, #0
 103:Generated_Source\PSoC6/CapSense_Filter.c ****     {
ARM GAS  C:\Users\PC\AppData\Local\Temp\ccyhv7od.s 			page 62


 1608              		.loc 1 103 0
 1609 0004 0323     		movs	r3, #3
 1610 0006 04E0     		b	.L95
 1611              	.LVL230:
 1612              	.L96:
 105:Generated_Source\PSoC6/CapSense_Filter.c ****     }
 1613              		.loc 1 105 0
 1614 0008 2000     		movs	r0, r4
 1615 000a FFF7FEFF 		bl	CapSense_UpdateWidgetBaseline
 1616              	.LVL231:
 1617 000e 0543     		orrs	r5, r0
 1618              	.LVL232:
 103:Generated_Source\PSoC6/CapSense_Filter.c ****     {
 1619              		.loc 1 103 0
 1620 0010 2300     		movs	r3, r4
 1621              	.LVL233:
 1622              	.L95:
 103:Generated_Source\PSoC6/CapSense_Filter.c ****     {
 1623              		.loc 1 103 0 is_stmt 0 discriminator 1
 1624 0012 5C1E     		subs	r4, r3, #1
 1625              	.LVL234:
 1626 0014 002B     		cmp	r3, #0
 1627 0016 F7D1     		bne	.L96
 109:Generated_Source\PSoC6/CapSense_Filter.c **** 
 1628              		.loc 1 109 0 is_stmt 1
 1629 0018 2800     		movs	r0, r5
 1630              		@ sp needed
 1631              	.LVL235:
 1632              	.LVL236:
 1633 001a 70BD     		pop	{r4, r5, r6, pc}
 1634              		.cfi_endproc
 1635              	.LFE46:
 1636              		.size	CapSense_UpdateAllBaselines, .-CapSense_UpdateAllBaselines
 1637              		.text
 1638              	.Letext0:
 1639              		.file 2 "c:\\program files (x86)\\cypress\\psoc creator\\4.4\\psoc creator\\import\\gnu\\arm\\5.4.
 1640              		.file 3 "c:\\program files (x86)\\cypress\\psoc creator\\4.4\\psoc creator\\import\\gnu\\arm\\5.4.
 1641              		.file 4 "Generated_Source\\PSoC6\\pdl\\drivers/peripheral/syslib/cy_syslib.h"
 1642              		.file 5 "Generated_Source\\PSoC6\\CapSense_Configuration.h"
 1643              		.file 6 "Generated_Source\\PSoC6\\CapSense_SmartSense_LL.h"
 1644              		.file 7 "Generated_Source\\PSoC6\\CapSense_Structure.h"
 1645              		.section	.debug_info,"",%progbits
 1646              	.Ldebug_info0:
 1647 0000 19100000 		.4byte	0x1019
 1648 0004 0400     		.2byte	0x4
 1649 0006 00000000 		.4byte	.Ldebug_abbrev0
 1650 000a 04       		.byte	0x4
 1651 000b 01       		.uleb128 0x1
 1652 000c 65070000 		.4byte	.LASF142
 1653 0010 0C       		.byte	0xc
 1654 0011 03070000 		.4byte	.LASF143
 1655 0015 26040000 		.4byte	.LASF144
 1656 0019 00000000 		.4byte	.Ldebug_ranges0+0
 1657 001d 00000000 		.4byte	0
 1658 0021 00000000 		.4byte	.Ldebug_line0
 1659 0025 02       		.uleb128 0x2
 1660 0026 04       		.byte	0x4
ARM GAS  C:\Users\PC\AppData\Local\Temp\ccyhv7od.s 			page 63


 1661 0027 05       		.byte	0x5
 1662 0028 696E7400 		.ascii	"int\000"
 1663 002c 03       		.uleb128 0x3
 1664 002d 04       		.byte	0x4
 1665 002e 07       		.byte	0x7
 1666 002f 05030000 		.4byte	.LASF0
 1667 0033 03       		.uleb128 0x3
 1668 0034 08       		.byte	0x8
 1669 0035 05       		.byte	0x5
 1670 0036 EA010000 		.4byte	.LASF1
 1671 003a 03       		.uleb128 0x3
 1672 003b 08       		.byte	0x8
 1673 003c 04       		.byte	0x4
 1674 003d F7070000 		.4byte	.LASF2
 1675 0041 03       		.uleb128 0x3
 1676 0042 01       		.byte	0x1
 1677 0043 06       		.byte	0x6
 1678 0044 F8010000 		.4byte	.LASF3
 1679 0048 04       		.uleb128 0x4
 1680 0049 8C000000 		.4byte	.LASF6
 1681 004d 02       		.byte	0x2
 1682 004e 1D       		.byte	0x1d
 1683 004f 53000000 		.4byte	0x53
 1684 0053 03       		.uleb128 0x3
 1685 0054 01       		.byte	0x1
 1686 0055 08       		.byte	0x8
 1687 0056 C5080000 		.4byte	.LASF4
 1688 005a 03       		.uleb128 0x3
 1689 005b 02       		.byte	0x2
 1690 005c 05       		.byte	0x5
 1691 005d 61040000 		.4byte	.LASF5
 1692 0061 04       		.uleb128 0x4
 1693 0062 08080000 		.4byte	.LASF7
 1694 0066 02       		.byte	0x2
 1695 0067 2B       		.byte	0x2b
 1696 0068 6C000000 		.4byte	0x6c
 1697 006c 03       		.uleb128 0x3
 1698 006d 02       		.byte	0x2
 1699 006e 07       		.byte	0x7
 1700 006f 8D030000 		.4byte	.LASF8
 1701 0073 03       		.uleb128 0x3
 1702 0074 04       		.byte	0x4
 1703 0075 05       		.byte	0x5
 1704 0076 21020000 		.4byte	.LASF9
 1705 007a 04       		.uleb128 0x4
 1706 007b 99020000 		.4byte	.LASF10
 1707 007f 02       		.byte	0x2
 1708 0080 41       		.byte	0x41
 1709 0081 85000000 		.4byte	0x85
 1710 0085 03       		.uleb128 0x3
 1711 0086 04       		.byte	0x4
 1712 0087 07       		.byte	0x7
 1713 0088 21030000 		.4byte	.LASF11
 1714 008c 03       		.uleb128 0x3
 1715 008d 08       		.byte	0x8
 1716 008e 07       		.byte	0x7
 1717 008f FF000000 		.4byte	.LASF12
ARM GAS  C:\Users\PC\AppData\Local\Temp\ccyhv7od.s 			page 64


 1718 0093 04       		.uleb128 0x4
 1719 0094 64090000 		.4byte	.LASF13
 1720 0098 03       		.byte	0x3
 1721 0099 18       		.byte	0x18
 1722 009a 48000000 		.4byte	0x48
 1723 009e 04       		.uleb128 0x4
 1724 009f 41020000 		.4byte	.LASF14
 1725 00a3 03       		.byte	0x3
 1726 00a4 24       		.byte	0x24
 1727 00a5 61000000 		.4byte	0x61
 1728 00a9 04       		.uleb128 0x4
 1729 00aa 5C070000 		.4byte	.LASF15
 1730 00ae 03       		.byte	0x3
 1731 00af 30       		.byte	0x30
 1732 00b0 7A000000 		.4byte	0x7a
 1733 00b4 03       		.uleb128 0x3
 1734 00b5 04       		.byte	0x4
 1735 00b6 07       		.byte	0x7
 1736 00b7 71090000 		.4byte	.LASF16
 1737 00bb 03       		.uleb128 0x3
 1738 00bc 01       		.byte	0x1
 1739 00bd 08       		.byte	0x8
 1740 00be 03080000 		.4byte	.LASF17
 1741 00c2 03       		.uleb128 0x3
 1742 00c3 04       		.byte	0x4
 1743 00c4 04       		.byte	0x4
 1744 00c5 B3050000 		.4byte	.LASF18
 1745 00c9 03       		.uleb128 0x3
 1746 00ca 08       		.byte	0x8
 1747 00cb 04       		.byte	0x4
 1748 00cc 4A020000 		.4byte	.LASF19
 1749 00d0 05       		.uleb128 0x5
 1750 00d1 3D010000 		.4byte	.LASF20
 1751 00d5 04       		.byte	0x4
 1752 00d6 E703     		.2byte	0x3e7
 1753 00d8 A9000000 		.4byte	0xa9
 1754 00dc 05       		.uleb128 0x5
 1755 00dd 3B020000 		.4byte	.LASF21
 1756 00e1 04       		.byte	0x4
 1757 00e2 EA03     		.2byte	0x3ea
 1758 00e4 93000000 		.4byte	0x93
 1759 00e8 05       		.uleb128 0x5
 1760 00e9 00000000 		.4byte	.LASF22
 1761 00ed 04       		.byte	0x4
 1762 00ee EB03     		.2byte	0x3eb
 1763 00f0 9E000000 		.4byte	0x9e
 1764 00f4 05       		.uleb128 0x5
 1765 00f5 87020000 		.4byte	.LASF23
 1766 00f9 04       		.byte	0x4
 1767 00fa EC03     		.2byte	0x3ec
 1768 00fc A9000000 		.4byte	0xa9
 1769 0100 04       		.uleb128 0x4
 1770 0101 87010000 		.4byte	.LASF24
 1771 0105 05       		.byte	0x5
 1772 0106 F2       		.byte	0xf2
 1773 0107 E8000000 		.4byte	0xe8
 1774 010b 04       		.uleb128 0x4
ARM GAS  C:\Users\PC\AppData\Local\Temp\ccyhv7od.s 			page 65


 1775 010c 4C010000 		.4byte	.LASF25
 1776 0110 05       		.byte	0x5
 1777 0111 F6       		.byte	0xf6
 1778 0112 DC000000 		.4byte	0xdc
 1779 0116 06       		.uleb128 0x6
 1780 0117 0C       		.byte	0xc
 1781 0118 06       		.byte	0x6
 1782 0119 6E       		.byte	0x6e
 1783 011a 73010000 		.4byte	0x173
 1784 011e 07       		.uleb128 0x7
 1785 011f 33060000 		.4byte	.LASF26
 1786 0123 06       		.byte	0x6
 1787 0124 73       		.byte	0x73
 1788 0125 E8000000 		.4byte	0xe8
 1789 0129 00       		.byte	0
 1790 012a 07       		.uleb128 0x7
 1791 012b 3A060000 		.4byte	.LASF27
 1792 012f 06       		.byte	0x6
 1793 0130 77       		.byte	0x77
 1794 0131 E8000000 		.4byte	0xe8
 1795 0135 02       		.byte	0x2
 1796 0136 07       		.uleb128 0x7
 1797 0137 41060000 		.4byte	.LASF28
 1798 013b 06       		.byte	0x6
 1799 013c 7B       		.byte	0x7b
 1800 013d E8000000 		.4byte	0xe8
 1801 0141 04       		.byte	0x4
 1802 0142 07       		.uleb128 0x7
 1803 0143 48060000 		.4byte	.LASF29
 1804 0147 06       		.byte	0x6
 1805 0148 7F       		.byte	0x7f
 1806 0149 E8000000 		.4byte	0xe8
 1807 014d 06       		.byte	0x6
 1808 014e 07       		.uleb128 0x7
 1809 014f 4F060000 		.4byte	.LASF30
 1810 0153 06       		.byte	0x6
 1811 0154 83       		.byte	0x83
 1812 0155 E8000000 		.4byte	0xe8
 1813 0159 08       		.byte	0x8
 1814 015a 07       		.uleb128 0x7
 1815 015b 56060000 		.4byte	.LASF31
 1816 015f 06       		.byte	0x6
 1817 0160 87       		.byte	0x87
 1818 0161 DC000000 		.4byte	0xdc
 1819 0165 0A       		.byte	0xa
 1820 0166 07       		.uleb128 0x7
 1821 0167 5D060000 		.4byte	.LASF32
 1822 016b 06       		.byte	0x6
 1823 016c 8B       		.byte	0x8b
 1824 016d DC000000 		.4byte	0xdc
 1825 0171 0B       		.byte	0xb
 1826 0172 00       		.byte	0
 1827 0173 04       		.uleb128 0x4
 1828 0174 D5050000 		.4byte	.LASF33
 1829 0178 06       		.byte	0x6
 1830 0179 8C       		.byte	0x8c
 1831 017a 16010000 		.4byte	0x116
ARM GAS  C:\Users\PC\AppData\Local\Temp\ccyhv7od.s 			page 66


 1832 017e 08       		.uleb128 0x8
 1833 017f 01       		.byte	0x1
 1834 0180 53000000 		.4byte	0x53
 1835 0184 07       		.byte	0x7
 1836 0185 61       		.byte	0x61
 1837 0186 AF010000 		.4byte	0x1af
 1838 018a 09       		.uleb128 0x9
 1839 018b 1E060000 		.4byte	.LASF34
 1840 018f 01       		.byte	0x1
 1841 0190 09       		.uleb128 0x9
 1842 0191 9F010000 		.4byte	.LASF35
 1843 0195 02       		.byte	0x2
 1844 0196 09       		.uleb128 0x9
 1845 0197 B9050000 		.4byte	.LASF36
 1846 019b 03       		.byte	0x3
 1847 019c 09       		.uleb128 0x9
 1848 019d DF020000 		.4byte	.LASF37
 1849 01a1 04       		.byte	0x4
 1850 01a2 09       		.uleb128 0x9
 1851 01a3 EC060000 		.4byte	.LASF38
 1852 01a7 05       		.byte	0x5
 1853 01a8 09       		.uleb128 0x9
 1854 01a9 DF090000 		.4byte	.LASF39
 1855 01ad 06       		.byte	0x6
 1856 01ae 00       		.byte	0
 1857 01af 04       		.uleb128 0x4
 1858 01b0 64080000 		.4byte	.LASF40
 1859 01b4 07       		.byte	0x7
 1860 01b5 68       		.byte	0x68
 1861 01b6 7E010000 		.4byte	0x17e
 1862 01ba 08       		.uleb128 0x8
 1863 01bb 01       		.byte	0x1
 1864 01bc 53000000 		.4byte	0x53
 1865 01c0 07       		.byte	0x7
 1866 01c1 6F       		.byte	0x6f
 1867 01c2 DF010000 		.4byte	0x1df
 1868 01c6 09       		.uleb128 0x9
 1869 01c7 F3030000 		.4byte	.LASF41
 1870 01cb 00       		.byte	0
 1871 01cc 09       		.uleb128 0x9
 1872 01cd 63050000 		.4byte	.LASF42
 1873 01d1 01       		.byte	0x1
 1874 01d2 09       		.uleb128 0x9
 1875 01d3 A0000000 		.4byte	.LASF43
 1876 01d7 02       		.byte	0x2
 1877 01d8 09       		.uleb128 0x9
 1878 01d9 AC020000 		.4byte	.LASF44
 1879 01dd 03       		.byte	0x3
 1880 01de 00       		.byte	0
 1881 01df 04       		.uleb128 0x4
 1882 01e0 51020000 		.4byte	.LASF45
 1883 01e4 07       		.byte	0x7
 1884 01e5 74       		.byte	0x74
 1885 01e6 BA010000 		.4byte	0x1ba
 1886 01ea 06       		.uleb128 0x6
 1887 01eb 14       		.byte	0x14
 1888 01ec 07       		.byte	0x7
ARM GAS  C:\Users\PC\AppData\Local\Temp\ccyhv7od.s 			page 67


 1889 01ed 8C       		.byte	0x8c
 1890 01ee 8F020000 		.4byte	0x28f
 1891 01f2 07       		.uleb128 0x7
 1892 01f3 2C090000 		.4byte	.LASF46
 1893 01f7 07       		.byte	0x7
 1894 01f8 92       		.byte	0x92
 1895 01f9 E8000000 		.4byte	0xe8
 1896 01fd 00       		.byte	0
 1897 01fe 07       		.uleb128 0x7
 1898 01ff D6090000 		.4byte	.LASF47
 1899 0203 07       		.byte	0x7
 1900 0204 97       		.byte	0x97
 1901 0205 00010000 		.4byte	0x100
 1902 0209 02       		.byte	0x2
 1903 020a 07       		.uleb128 0x7
 1904 020b 2B0A0000 		.4byte	.LASF48
 1905 020f 07       		.byte	0x7
 1906 0210 9C       		.byte	0x9c
 1907 0211 DC000000 		.4byte	0xdc
 1908 0215 04       		.byte	0x4
 1909 0216 07       		.uleb128 0x7
 1910 0217 36050000 		.4byte	.LASF49
 1911 021b 07       		.byte	0x7
 1912 021c A1       		.byte	0xa1
 1913 021d DC000000 		.4byte	0xdc
 1914 0221 05       		.byte	0x5
 1915 0222 07       		.uleb128 0x7
 1916 0223 8E020000 		.4byte	.LASF50
 1917 0227 07       		.byte	0x7
 1918 0228 A6       		.byte	0xa6
 1919 0229 DC000000 		.4byte	0xdc
 1920 022d 06       		.byte	0x6
 1921 022e 07       		.uleb128 0x7
 1922 022f 59080000 		.4byte	.LASF51
 1923 0233 07       		.byte	0x7
 1924 0234 AB       		.byte	0xab
 1925 0235 DC000000 		.4byte	0xdc
 1926 0239 07       		.byte	0x7
 1927 023a 07       		.uleb128 0x7
 1928 023b 65030000 		.4byte	.LASF52
 1929 023f 07       		.byte	0x7
 1930 0240 B2       		.byte	0xb2
 1931 0241 0B010000 		.4byte	0x10b
 1932 0245 08       		.byte	0x8
 1933 0246 07       		.uleb128 0x7
 1934 0247 9C040000 		.4byte	.LASF53
 1935 024b 07       		.byte	0x7
 1936 024c BA       		.byte	0xba
 1937 024d 8F020000 		.4byte	0x28f
 1938 0251 09       		.byte	0x9
 1939 0252 07       		.uleb128 0x7
 1940 0253 13080000 		.4byte	.LASF54
 1941 0257 07       		.byte	0x7
 1942 0258 C3       		.byte	0xc3
 1943 0259 E8000000 		.4byte	0xe8
 1944 025d 0A       		.byte	0xa
 1945 025e 07       		.uleb128 0x7
ARM GAS  C:\Users\PC\AppData\Local\Temp\ccyhv7od.s 			page 68


 1946 025f 7A090000 		.4byte	.LASF55
 1947 0263 07       		.byte	0x7
 1948 0264 C8       		.byte	0xc8
 1949 0265 DC000000 		.4byte	0xdc
 1950 0269 0C       		.byte	0xc
 1951 026a 07       		.uleb128 0x7
 1952 026b 96000000 		.4byte	.LASF56
 1953 026f 07       		.byte	0x7
 1954 0270 CF       		.byte	0xcf
 1955 0271 E8000000 		.4byte	0xe8
 1956 0275 0E       		.byte	0xe
 1957 0276 07       		.uleb128 0x7
 1958 0277 3F050000 		.4byte	.LASF57
 1959 027b 07       		.byte	0x7
 1960 027c D4       		.byte	0xd4
 1961 027d E8000000 		.4byte	0xe8
 1962 0281 10       		.byte	0x10
 1963 0282 07       		.uleb128 0x7
 1964 0283 64000000 		.4byte	.LASF58
 1965 0287 07       		.byte	0x7
 1966 0288 D9       		.byte	0xd9
 1967 0289 DC000000 		.4byte	0xdc
 1968 028d 12       		.byte	0x12
 1969 028e 00       		.byte	0
 1970 028f 0A       		.uleb128 0xa
 1971 0290 DC000000 		.4byte	0xdc
 1972 0294 9F020000 		.4byte	0x29f
 1973 0298 0B       		.uleb128 0xb
 1974 0299 B4000000 		.4byte	0xb4
 1975 029d 00       		.byte	0
 1976 029e 00       		.byte	0
 1977 029f 04       		.uleb128 0x4
 1978 02a0 1A080000 		.4byte	.LASF59
 1979 02a4 07       		.byte	0x7
 1980 02a5 DA       		.byte	0xda
 1981 02a6 EA010000 		.4byte	0x1ea
 1982 02aa 0A       		.uleb128 0xa
 1983 02ab E8000000 		.4byte	0xe8
 1984 02af BA020000 		.4byte	0x2ba
 1985 02b3 0B       		.uleb128 0xb
 1986 02b4 B4000000 		.4byte	0xb4
 1987 02b8 00       		.byte	0
 1988 02b9 00       		.byte	0
 1989 02ba 0C       		.uleb128 0xc
 1990 02bb 0A       		.byte	0xa
 1991 02bc 07       		.byte	0x7
 1992 02bd A101     		.2byte	0x1a1
 1993 02bf 12030000 		.4byte	0x312
 1994 02c3 0D       		.uleb128 0xd
 1995 02c4 72617700 		.ascii	"raw\000"
 1996 02c8 07       		.byte	0x7
 1997 02c9 A601     		.2byte	0x1a6
 1998 02cb AA020000 		.4byte	0x2aa
 1999 02cf 00       		.byte	0
 2000 02d0 0E       		.uleb128 0xe
 2001 02d1 00030000 		.4byte	.LASF60
 2002 02d5 07       		.byte	0x7
ARM GAS  C:\Users\PC\AppData\Local\Temp\ccyhv7od.s 			page 69


 2003 02d6 AB01     		.2byte	0x1ab
 2004 02d8 AA020000 		.4byte	0x2aa
 2005 02dc 02       		.byte	0x2
 2006 02dd 0E       		.uleb128 0xe
 2007 02de A4020000 		.4byte	.LASF61
 2008 02e2 07       		.byte	0x7
 2009 02e3 B101     		.2byte	0x1b1
 2010 02e5 8F020000 		.4byte	0x28f
 2011 02e9 04       		.byte	0x4
 2012 02ea 0E       		.uleb128 0xe
 2013 02eb 47010000 		.4byte	.LASF62
 2014 02ef 07       		.byte	0x7
 2015 02f0 B601     		.2byte	0x1b6
 2016 02f2 00010000 		.4byte	0x100
 2017 02f6 06       		.byte	0x6
 2018 02f7 0E       		.uleb128 0xe
 2019 02f8 D3080000 		.4byte	.LASF63
 2020 02fc 07       		.byte	0x7
 2021 02fd BB01     		.2byte	0x1bb
 2022 02ff 12030000 		.4byte	0x312
 2023 0303 08       		.byte	0x8
 2024 0304 0E       		.uleb128 0xe
 2025 0305 9C080000 		.4byte	.LASF64
 2026 0309 07       		.byte	0x7
 2027 030a C101     		.2byte	0x1c1
 2028 030c 8F020000 		.4byte	0x28f
 2029 0310 09       		.byte	0x9
 2030 0311 00       		.byte	0
 2031 0312 0A       		.uleb128 0xa
 2032 0313 0B010000 		.4byte	0x10b
 2033 0317 22030000 		.4byte	0x322
 2034 031b 0B       		.uleb128 0xb
 2035 031c B4000000 		.4byte	0xb4
 2036 0320 00       		.byte	0
 2037 0321 00       		.byte	0
 2038 0322 05       		.uleb128 0x5
 2039 0323 E7000000 		.4byte	.LASF65
 2040 0327 07       		.byte	0x7
 2041 0328 C201     		.2byte	0x1c2
 2042 032a BA020000 		.4byte	0x2ba
 2043 032e 0C       		.uleb128 0xc
 2044 032f 2C       		.byte	0x2c
 2045 0330 07       		.byte	0x7
 2046 0331 9902     		.2byte	0x299
 2047 0333 FB030000 		.4byte	0x3fb
 2048 0337 0E       		.uleb128 0xe
 2049 0338 30010000 		.4byte	.LASF66
 2050 033c 07       		.byte	0x7
 2051 033d A202     		.2byte	0x2a2
 2052 033f FB030000 		.4byte	0x3fb
 2053 0343 00       		.byte	0
 2054 0344 0E       		.uleb128 0xe
 2055 0345 55040000 		.4byte	.LASF67
 2056 0349 07       		.byte	0x7
 2057 034a A902     		.2byte	0x2a9
 2058 034c 02040000 		.4byte	0x402
 2059 0350 04       		.byte	0x4
ARM GAS  C:\Users\PC\AppData\Local\Temp\ccyhv7od.s 			page 70


 2060 0351 0E       		.uleb128 0xe
 2061 0352 2A020000 		.4byte	.LASF68
 2062 0356 07       		.byte	0x7
 2063 0357 AF02     		.2byte	0x2af
 2064 0359 04040000 		.4byte	0x404
 2065 035d 08       		.byte	0x8
 2066 035e 0E       		.uleb128 0xe
 2067 035f 7D060000 		.4byte	.LASF69
 2068 0363 07       		.byte	0x7
 2069 0364 B402     		.2byte	0x2b4
 2070 0366 02040000 		.4byte	0x402
 2071 036a 0C       		.byte	0xc
 2072 036b 0E       		.uleb128 0xe
 2073 036c 01090000 		.4byte	.LASF70
 2074 0370 07       		.byte	0x7
 2075 0371 BB02     		.2byte	0x2bb
 2076 0373 0A040000 		.4byte	0x40a
 2077 0377 10       		.byte	0x10
 2078 0378 0E       		.uleb128 0xe
 2079 0379 29050000 		.4byte	.LASF71
 2080 037d 07       		.byte	0x7
 2081 037e C002     		.2byte	0x2c0
 2082 0380 F4000000 		.4byte	0xf4
 2083 0384 14       		.byte	0x14
 2084 0385 0E       		.uleb128 0xe
 2085 0386 37090000 		.4byte	.LASF72
 2086 038a 07       		.byte	0x7
 2087 038b C702     		.2byte	0x2c7
 2088 038d E8000000 		.4byte	0xe8
 2089 0391 18       		.byte	0x18
 2090 0392 0E       		.uleb128 0xe
 2091 0393 46050000 		.4byte	.LASF73
 2092 0397 07       		.byte	0x7
 2093 0398 D202     		.2byte	0x2d2
 2094 039a DC000000 		.4byte	0xdc
 2095 039e 1A       		.byte	0x1a
 2096 039f 0E       		.uleb128 0xe
 2097 03a0 59030000 		.4byte	.LASF74
 2098 03a4 07       		.byte	0x7
 2099 03a5 D702     		.2byte	0x2d7
 2100 03a7 DC000000 		.4byte	0xdc
 2101 03ab 1B       		.byte	0x1b
 2102 03ac 0E       		.uleb128 0xe
 2103 03ad B6040000 		.4byte	.LASF75
 2104 03b1 07       		.byte	0x7
 2105 03b2 DF02     		.2byte	0x2df
 2106 03b4 DC000000 		.4byte	0xdc
 2107 03b8 1C       		.byte	0x1c
 2108 03b9 0E       		.uleb128 0xe
 2109 03ba C9020000 		.4byte	.LASF76
 2110 03be 07       		.byte	0x7
 2111 03bf E602     		.2byte	0x2e6
 2112 03c1 DC000000 		.4byte	0xdc
 2113 03c5 1D       		.byte	0x1d
 2114 03c6 0E       		.uleb128 0xe
 2115 03c7 6C020000 		.4byte	.LASF77
 2116 03cb 07       		.byte	0x7
ARM GAS  C:\Users\PC\AppData\Local\Temp\ccyhv7od.s 			page 71


 2117 03cc EC02     		.2byte	0x2ec
 2118 03ce E8000000 		.4byte	0xe8
 2119 03d2 1E       		.byte	0x1e
 2120 03d3 0E       		.uleb128 0xe
 2121 03d4 4F050000 		.4byte	.LASF78
 2122 03d8 07       		.byte	0x7
 2123 03d9 F602     		.2byte	0x2f6
 2124 03db F4000000 		.4byte	0xf4
 2125 03df 20       		.byte	0x20
 2126 03e0 0E       		.uleb128 0xe
 2127 03e1 12030000 		.4byte	.LASF79
 2128 03e5 07       		.byte	0x7
 2129 03e6 FE02     		.2byte	0x2fe
 2130 03e8 10040000 		.4byte	0x410
 2131 03ec 24       		.byte	0x24
 2132 03ed 0E       		.uleb128 0xe
 2133 03ee BC000000 		.4byte	.LASF80
 2134 03f2 07       		.byte	0x7
 2135 03f3 0303     		.2byte	0x303
 2136 03f5 DC000000 		.4byte	0xdc
 2137 03f9 28       		.byte	0x28
 2138 03fa 00       		.byte	0
 2139 03fb 0F       		.uleb128 0xf
 2140 03fc 04       		.byte	0x4
 2141 03fd 01040000 		.4byte	0x401
 2142 0401 10       		.uleb128 0x10
 2143 0402 11       		.uleb128 0x11
 2144 0403 04       		.byte	0x4
 2145 0404 0F       		.uleb128 0xf
 2146 0405 04       		.byte	0x4
 2147 0406 22030000 		.4byte	0x322
 2148 040a 0F       		.uleb128 0xf
 2149 040b 04       		.byte	0x4
 2150 040c DC000000 		.4byte	0xdc
 2151 0410 0F       		.uleb128 0xf
 2152 0411 04       		.byte	0x4
 2153 0412 73010000 		.4byte	0x173
 2154 0416 05       		.uleb128 0x5
 2155 0417 64060000 		.4byte	.LASF81
 2156 041b 07       		.byte	0x7
 2157 041c 0403     		.2byte	0x304
 2158 041e 2E030000 		.4byte	0x32e
 2159 0422 0C       		.uleb128 0xc
 2160 0423 84       		.byte	0x84
 2161 0424 07       		.byte	0x7
 2162 0425 0A03     		.2byte	0x30a
 2163 0427 39040000 		.4byte	0x439
 2164 042b 0E       		.uleb128 0xe
 2165 042c 43090000 		.4byte	.LASF82
 2166 0430 07       		.byte	0x7
 2167 0431 0F03     		.2byte	0x30f
 2168 0433 39040000 		.4byte	0x439
 2169 0437 00       		.byte	0
 2170 0438 00       		.byte	0
 2171 0439 0A       		.uleb128 0xa
 2172 043a 16040000 		.4byte	0x416
 2173 043e 49040000 		.4byte	0x449
ARM GAS  C:\Users\PC\AppData\Local\Temp\ccyhv7od.s 			page 72


 2174 0442 0B       		.uleb128 0xb
 2175 0443 B4000000 		.4byte	0xb4
 2176 0447 02       		.byte	0x2
 2177 0448 00       		.byte	0
 2178 0449 05       		.uleb128 0x5
 2179 044a 30000000 		.4byte	.LASF83
 2180 044e 07       		.byte	0x7
 2181 044f 1003     		.2byte	0x310
 2182 0451 22040000 		.4byte	0x422
 2183 0455 0C       		.uleb128 0xc
 2184 0456 0A       		.byte	0xa
 2185 0457 07       		.byte	0x7
 2186 0458 4503     		.2byte	0x345
 2187 045a 79040000 		.4byte	0x479
 2188 045e 0E       		.uleb128 0xe
 2189 045f 33030000 		.4byte	.LASF84
 2190 0463 07       		.byte	0x7
 2191 0464 4B03     		.2byte	0x34b
 2192 0466 79040000 		.4byte	0x479
 2193 046a 00       		.byte	0
 2194 046b 0E       		.uleb128 0xe
 2195 046c 7F050000 		.4byte	.LASF85
 2196 0470 07       		.byte	0x7
 2197 0471 5003     		.2byte	0x350
 2198 0473 89040000 		.4byte	0x489
 2199 0477 04       		.byte	0x4
 2200 0478 00       		.byte	0
 2201 0479 0A       		.uleb128 0xa
 2202 047a E8000000 		.4byte	0xe8
 2203 047e 89040000 		.4byte	0x489
 2204 0482 0B       		.uleb128 0xb
 2205 0483 B4000000 		.4byte	0xb4
 2206 0487 01       		.byte	0x1
 2207 0488 00       		.byte	0
 2208 0489 0A       		.uleb128 0xa
 2209 048a E8000000 		.4byte	0xe8
 2210 048e 99040000 		.4byte	0x499
 2211 0492 0B       		.uleb128 0xb
 2212 0493 B4000000 		.4byte	0xb4
 2213 0497 02       		.byte	0x2
 2214 0498 00       		.byte	0
 2215 0499 05       		.uleb128 0x5
 2216 049a E2040000 		.4byte	.LASF86
 2217 049e 07       		.byte	0x7
 2218 049f 5103     		.2byte	0x351
 2219 04a1 55040000 		.4byte	0x455
 2220 04a5 0C       		.uleb128 0xc
 2221 04a6 0A       		.byte	0xa
 2222 04a7 07       		.byte	0x7
 2223 04a8 5603     		.2byte	0x356
 2224 04aa BC040000 		.4byte	0x4bc
 2225 04ae 0E       		.uleb128 0xe
 2226 04af 0F060000 		.4byte	.LASF87
 2227 04b3 07       		.byte	0x7
 2228 04b4 5B03     		.2byte	0x35b
 2229 04b6 BC040000 		.4byte	0x4bc
 2230 04ba 00       		.byte	0
ARM GAS  C:\Users\PC\AppData\Local\Temp\ccyhv7od.s 			page 73


 2231 04bb 00       		.byte	0
 2232 04bc 0A       		.uleb128 0xa
 2233 04bd 99040000 		.4byte	0x499
 2234 04c1 CC040000 		.4byte	0x4cc
 2235 04c5 0B       		.uleb128 0xb
 2236 04c6 B4000000 		.4byte	0xb4
 2237 04ca 00       		.byte	0
 2238 04cb 00       		.byte	0
 2239 04cc 05       		.uleb128 0x5
 2240 04cd 04020000 		.4byte	.LASF88
 2241 04d1 07       		.byte	0x7
 2242 04d2 5C03     		.2byte	0x35c
 2243 04d4 A5040000 		.4byte	0x4a5
 2244 04d8 12       		.uleb128 0x12
 2245 04d9 04       		.byte	0x4
 2246 04da 07       		.byte	0x7
 2247 04db 6103     		.2byte	0x361
 2248 04dd FA040000 		.4byte	0x4fa
 2249 04e1 13       		.uleb128 0x13
 2250 04e2 70747200 		.ascii	"ptr\000"
 2251 04e6 07       		.byte	0x7
 2252 04e7 6603     		.2byte	0x366
 2253 04e9 02040000 		.4byte	0x402
 2254 04ed 14       		.uleb128 0x14
 2255 04ee F7090000 		.4byte	.LASF89
 2256 04f2 07       		.byte	0x7
 2257 04f3 6B03     		.2byte	0x36b
 2258 04f5 FA040000 		.4byte	0x4fa
 2259 04f9 00       		.byte	0
 2260 04fa 0F       		.uleb128 0xf
 2261 04fb 04       		.byte	0x4
 2262 04fc CC040000 		.4byte	0x4cc
 2263 0500 05       		.uleb128 0x5
 2264 0501 40070000 		.4byte	.LASF90
 2265 0505 07       		.byte	0x7
 2266 0506 6C03     		.2byte	0x36c
 2267 0508 D8040000 		.4byte	0x4d8
 2268 050c 15       		.uleb128 0x15
 2269 050d CE030000 		.4byte	.LASF94
 2270 0511 01       		.byte	0x1
 2271 0512 2A02     		.2byte	0x22a
 2272 0514 00000000 		.4byte	.LFB54
 2273 0518 1E000000 		.4byte	.LFE54-.LFB54
 2274 051c 01       		.uleb128 0x1
 2275 051d 9C       		.byte	0x9c
 2276 051e 51050000 		.4byte	0x551
 2277 0522 16       		.uleb128 0x16
 2278 0523 BB090000 		.4byte	.LASF91
 2279 0527 01       		.byte	0x1
 2280 0528 2A02     		.2byte	0x22a
 2281 052a 04040000 		.4byte	0x404
 2282 052e 01       		.uleb128 0x1
 2283 052f 50       		.byte	0x50
 2284 0530 17       		.uleb128 0x17
 2285 0531 6B040000 		.4byte	.LASF92
 2286 0535 01       		.byte	0x1
 2287 0536 2A02     		.2byte	0x22a
ARM GAS  C:\Users\PC\AppData\Local\Temp\ccyhv7od.s 			page 74


 2288 0538 F4000000 		.4byte	0xf4
 2289 053c 00000000 		.4byte	.LLST0
 2290 0540 17       		.uleb128 0x17
 2291 0541 38070000 		.4byte	.LASF93
 2292 0545 01       		.byte	0x1
 2293 0546 2A02     		.2byte	0x22a
 2294 0548 F4000000 		.4byte	0xf4
 2295 054c 21000000 		.4byte	.LLST1
 2296 0550 00       		.byte	0
 2297 0551 15       		.uleb128 0x15
 2298 0552 6E000000 		.4byte	.LASF95
 2299 0556 01       		.byte	0x1
 2300 0557 0F02     		.2byte	0x20f
 2301 0559 00000000 		.4byte	.LFB53
 2302 055d 1E000000 		.4byte	.LFE53-.LFB53
 2303 0561 01       		.uleb128 0x1
 2304 0562 9C       		.byte	0x9c
 2305 0563 B4050000 		.4byte	0x5b4
 2306 0567 17       		.uleb128 0x17
 2307 0568 BB090000 		.4byte	.LASF91
 2308 056c 01       		.byte	0x1
 2309 056d 0F02     		.2byte	0x20f
 2310 056f 04040000 		.4byte	0x404
 2311 0573 42000000 		.4byte	.LLST2
 2312 0577 17       		.uleb128 0x17
 2313 0578 6B040000 		.4byte	.LASF92
 2314 057c 01       		.byte	0x1
 2315 057d 0F02     		.2byte	0x20f
 2316 057f F4000000 		.4byte	0xf4
 2317 0583 6E000000 		.4byte	.LLST3
 2318 0587 18       		.uleb128 0x18
 2319 0588 2C070000 		.4byte	.LASF99
 2320 058c 01       		.byte	0x1
 2321 058d 1102     		.2byte	0x211
 2322 058f F4000000 		.4byte	0xf4
 2323 0593 9A000000 		.4byte	.LLST4
 2324 0597 19       		.uleb128 0x19
 2325 0598 14000000 		.4byte	.LVL6
 2326 059c 0C050000 		.4byte	0x50c
 2327 05a0 1A       		.uleb128 0x1a
 2328 05a1 01       		.uleb128 0x1
 2329 05a2 50       		.byte	0x50
 2330 05a3 02       		.uleb128 0x2
 2331 05a4 76       		.byte	0x76
 2332 05a5 00       		.sleb128 0
 2333 05a6 1A       		.uleb128 0x1a
 2334 05a7 01       		.uleb128 0x1
 2335 05a8 51       		.byte	0x51
 2336 05a9 02       		.uleb128 0x2
 2337 05aa 75       		.byte	0x75
 2338 05ab 00       		.sleb128 0
 2339 05ac 1A       		.uleb128 0x1a
 2340 05ad 01       		.uleb128 0x1
 2341 05ae 52       		.byte	0x52
 2342 05af 02       		.uleb128 0x2
 2343 05b0 74       		.byte	0x74
 2344 05b1 00       		.sleb128 0
ARM GAS  C:\Users\PC\AppData\Local\Temp\ccyhv7od.s 			page 75


 2345 05b2 00       		.byte	0
 2346 05b3 00       		.byte	0
 2347 05b4 15       		.uleb128 0x15
 2348 05b5 07050000 		.4byte	.LASF96
 2349 05b9 01       		.byte	0x1
 2350 05ba F301     		.2byte	0x1f3
 2351 05bc 00000000 		.4byte	.LFB52
 2352 05c0 24000000 		.4byte	.LFE52-.LFB52
 2353 05c4 01       		.uleb128 0x1
 2354 05c5 9C       		.byte	0x9c
 2355 05c6 14060000 		.4byte	0x614
 2356 05ca 17       		.uleb128 0x17
 2357 05cb 7D040000 		.4byte	.LASF97
 2358 05cf 01       		.byte	0x1
 2359 05d0 F301     		.2byte	0x1f3
 2360 05d2 F4000000 		.4byte	0xf4
 2361 05d6 DC000000 		.4byte	.LLST5
 2362 05da 17       		.uleb128 0x17
 2363 05db 7E020000 		.4byte	.LASF98
 2364 05df 01       		.byte	0x1
 2365 05e0 F301     		.2byte	0x1f3
 2366 05e2 F4000000 		.4byte	0xf4
 2367 05e6 FD000000 		.4byte	.LLST6
 2368 05ea 18       		.uleb128 0x18
 2369 05eb BB090000 		.4byte	.LASF91
 2370 05ef 01       		.byte	0x1
 2371 05f0 F501     		.2byte	0x1f5
 2372 05f2 04040000 		.4byte	0x404
 2373 05f6 1E010000 		.4byte	.LLST7
 2374 05fa 18       		.uleb128 0x18
 2375 05fb D8040000 		.4byte	.LASF100
 2376 05ff 01       		.byte	0x1
 2377 0600 F601     		.2byte	0x1f6
 2378 0602 14060000 		.4byte	0x614
 2379 0606 49010000 		.4byte	.LLST8
 2380 060a 1B       		.uleb128 0x1b
 2381 060b 1C000000 		.4byte	.LVL18
 2382 060f 51050000 		.4byte	0x551
 2383 0613 00       		.byte	0
 2384 0614 0F       		.uleb128 0xf
 2385 0615 04       		.byte	0x4
 2386 0616 1A060000 		.4byte	0x61a
 2387 061a 1C       		.uleb128 0x1c
 2388 061b 16040000 		.4byte	0x416
 2389 061f 15       		.uleb128 0x15
 2390 0620 7A080000 		.4byte	.LASF101
 2391 0624 01       		.byte	0x1
 2392 0625 C701     		.2byte	0x1c7
 2393 0627 00000000 		.4byte	.LFB51
 2394 062b 28000000 		.4byte	.LFE51-.LFB51
 2395 062f 01       		.uleb128 0x1
 2396 0630 9C       		.byte	0x9c
 2397 0631 8C060000 		.4byte	0x68c
 2398 0635 17       		.uleb128 0x17
 2399 0636 7D040000 		.4byte	.LASF97
 2400 063a 01       		.byte	0x1
 2401 063b C701     		.2byte	0x1c7
ARM GAS  C:\Users\PC\AppData\Local\Temp\ccyhv7od.s 			page 76


 2402 063d F4000000 		.4byte	0xf4
 2403 0641 5C010000 		.4byte	.LLST9
 2404 0645 18       		.uleb128 0x18
 2405 0646 7E020000 		.4byte	.LASF98
 2406 064a 01       		.byte	0x1
 2407 064b C901     		.2byte	0x1c9
 2408 064d F4000000 		.4byte	0xf4
 2409 0651 88010000 		.4byte	.LLST10
 2410 0655 18       		.uleb128 0x18
 2411 0656 D1020000 		.4byte	.LASF102
 2412 065a 01       		.byte	0x1
 2413 065b CA01     		.2byte	0x1ca
 2414 065d F4000000 		.4byte	0xf4
 2415 0661 C9010000 		.4byte	.LLST11
 2416 0665 18       		.uleb128 0x18
 2417 0666 D8040000 		.4byte	.LASF100
 2418 066a 01       		.byte	0x1
 2419 066b CC01     		.2byte	0x1cc
 2420 066d 14060000 		.4byte	0x614
 2421 0671 DC010000 		.4byte	.LLST12
 2422 0675 19       		.uleb128 0x19
 2423 0676 18000000 		.4byte	.LVL24
 2424 067a B4050000 		.4byte	0x5b4
 2425 067e 1A       		.uleb128 0x1a
 2426 067f 01       		.uleb128 0x1
 2427 0680 50       		.byte	0x50
 2428 0681 02       		.uleb128 0x2
 2429 0682 75       		.byte	0x75
 2430 0683 00       		.sleb128 0
 2431 0684 1A       		.uleb128 0x1a
 2432 0685 01       		.uleb128 0x1
 2433 0686 51       		.byte	0x51
 2434 0687 02       		.uleb128 0x2
 2435 0688 74       		.byte	0x74
 2436 0689 00       		.sleb128 0
 2437 068a 00       		.byte	0
 2438 068b 00       		.byte	0
 2439 068c 15       		.uleb128 0x15
 2440 068d E1080000 		.4byte	.LASF103
 2441 0691 01       		.byte	0x1
 2442 0692 A301     		.2byte	0x1a3
 2443 0694 00000000 		.4byte	.LFB50
 2444 0698 16000000 		.4byte	.LFE50-.LFB50
 2445 069c 01       		.uleb128 0x1
 2446 069d 9C       		.byte	0x9c
 2447 069e C3060000 		.4byte	0x6c3
 2448 06a2 18       		.uleb128 0x18
 2449 06a3 7D040000 		.4byte	.LASF97
 2450 06a7 01       		.byte	0x1
 2451 06a8 A501     		.2byte	0x1a5
 2452 06aa F4000000 		.4byte	0xf4
 2453 06ae EF010000 		.4byte	.LLST13
 2454 06b2 19       		.uleb128 0x19
 2455 06b3 0C000000 		.4byte	.LVL31
 2456 06b7 1F060000 		.4byte	0x61f
 2457 06bb 1A       		.uleb128 0x1a
 2458 06bc 01       		.uleb128 0x1
ARM GAS  C:\Users\PC\AppData\Local\Temp\ccyhv7od.s 			page 77


 2459 06bd 50       		.byte	0x50
 2460 06be 02       		.uleb128 0x2
 2461 06bf 74       		.byte	0x74
 2462 06c0 00       		.sleb128 0
 2463 06c1 00       		.byte	0
 2464 06c2 00       		.byte	0
 2465 06c3 15       		.uleb128 0x15
 2466 06c4 090A0000 		.4byte	.LASF104
 2467 06c8 01       		.byte	0x1
 2468 06c9 0304     		.2byte	0x403
 2469 06cb 00000000 		.4byte	.LFB59
 2470 06cf 32000000 		.4byte	.LFE59-.LFB59
 2471 06d3 01       		.uleb128 0x1
 2472 06d4 9C       		.byte	0x9c
 2473 06d5 14070000 		.4byte	0x714
 2474 06d9 16       		.uleb128 0x16
 2475 06da 87090000 		.4byte	.LASF105
 2476 06de 01       		.byte	0x1
 2477 06df 0304     		.2byte	0x403
 2478 06e1 00050000 		.4byte	0x500
 2479 06e5 01       		.uleb128 0x1
 2480 06e6 50       		.byte	0x50
 2481 06e7 16       		.uleb128 0x16
 2482 06e8 02060000 		.4byte	.LASF106
 2483 06ec 01       		.byte	0x1
 2484 06ed 0404     		.2byte	0x404
 2485 06ef 04040000 		.4byte	0x404
 2486 06f3 01       		.uleb128 0x1
 2487 06f4 51       		.byte	0x51
 2488 06f5 16       		.uleb128 0x16
 2489 06f6 6B040000 		.4byte	.LASF92
 2490 06fa 01       		.byte	0x1
 2491 06fb 0404     		.2byte	0x404
 2492 06fd F4000000 		.4byte	0xf4
 2493 0701 01       		.uleb128 0x1
 2494 0702 52       		.byte	0x52
 2495 0703 18       		.uleb128 0x18
 2496 0704 2C070000 		.4byte	.LASF99
 2497 0708 01       		.byte	0x1
 2498 0709 0604     		.2byte	0x406
 2499 070b F4000000 		.4byte	0xf4
 2500 070f 31020000 		.4byte	.LLST14
 2501 0713 00       		.byte	0
 2502 0714 15       		.uleb128 0x15
 2503 0715 16010000 		.4byte	.LASF107
 2504 0719 01       		.byte	0x1
 2505 071a AC03     		.2byte	0x3ac
 2506 071c 00000000 		.4byte	.LFB57
 2507 0720 2C000000 		.4byte	.LFE57-.LFB57
 2508 0724 01       		.uleb128 0x1
 2509 0725 9C       		.byte	0x9c
 2510 0726 80070000 		.4byte	0x780
 2511 072a 17       		.uleb128 0x17
 2512 072b 7D040000 		.4byte	.LASF97
 2513 072f 01       		.byte	0x1
 2514 0730 AC03     		.2byte	0x3ac
 2515 0732 F4000000 		.4byte	0xf4
ARM GAS  C:\Users\PC\AppData\Local\Temp\ccyhv7od.s 			page 78


 2516 0736 73020000 		.4byte	.LLST15
 2517 073a 17       		.uleb128 0x17
 2518 073b 7E020000 		.4byte	.LASF98
 2519 073f 01       		.byte	0x1
 2520 0740 AC03     		.2byte	0x3ac
 2521 0742 F4000000 		.4byte	0xf4
 2522 0746 94020000 		.4byte	.LLST16
 2523 074a 18       		.uleb128 0x18
 2524 074b D8040000 		.4byte	.LASF100
 2525 074f 01       		.byte	0x1
 2526 0750 AE03     		.2byte	0x3ae
 2527 0752 14060000 		.4byte	0x614
 2528 0756 B5020000 		.4byte	.LLST17
 2529 075a 18       		.uleb128 0x18
 2530 075b BB090000 		.4byte	.LASF91
 2531 075f 01       		.byte	0x1
 2532 0760 AF03     		.2byte	0x3af
 2533 0762 04040000 		.4byte	0x404
 2534 0766 C8020000 		.4byte	.LLST18
 2535 076a 1D       		.uleb128 0x1d
 2536 076b 87090000 		.4byte	.LASF105
 2537 076f 01       		.byte	0x1
 2538 0770 B003     		.2byte	0x3b0
 2539 0772 00050000 		.4byte	0x500
 2540 0776 1B       		.uleb128 0x1b
 2541 0777 24000000 		.4byte	.LVL48
 2542 077b C3060000 		.4byte	0x6c3
 2543 077f 00       		.byte	0
 2544 0780 15       		.uleb128 0x15
 2545 0781 98090000 		.4byte	.LASF108
 2546 0785 01       		.byte	0x1
 2547 0786 B704     		.2byte	0x4b7
 2548 0788 00000000 		.4byte	.LFB63
 2549 078c 2E000000 		.4byte	.LFE63-.LFB63
 2550 0790 01       		.uleb128 0x1
 2551 0791 9C       		.byte	0x9c
 2552 0792 D1070000 		.4byte	0x7d1
 2553 0796 16       		.uleb128 0x16
 2554 0797 87090000 		.4byte	.LASF105
 2555 079b 01       		.byte	0x1
 2556 079c B704     		.2byte	0x4b7
 2557 079e 00050000 		.4byte	0x500
 2558 07a2 01       		.uleb128 0x1
 2559 07a3 50       		.byte	0x50
 2560 07a4 16       		.uleb128 0x16
 2561 07a5 02060000 		.4byte	.LASF106
 2562 07a9 01       		.byte	0x1
 2563 07aa B804     		.2byte	0x4b8
 2564 07ac 04040000 		.4byte	0x404
 2565 07b0 01       		.uleb128 0x1
 2566 07b1 51       		.byte	0x51
 2567 07b2 16       		.uleb128 0x16
 2568 07b3 6B040000 		.4byte	.LASF92
 2569 07b7 01       		.byte	0x1
 2570 07b8 B804     		.2byte	0x4b8
 2571 07ba F4000000 		.4byte	0xf4
 2572 07be 01       		.uleb128 0x1
ARM GAS  C:\Users\PC\AppData\Local\Temp\ccyhv7od.s 			page 79


 2573 07bf 52       		.byte	0x52
 2574 07c0 18       		.uleb128 0x18
 2575 07c1 2C070000 		.4byte	.LASF99
 2576 07c5 01       		.byte	0x1
 2577 07c6 BA04     		.2byte	0x4ba
 2578 07c8 F4000000 		.4byte	0xf4
 2579 07cc F3020000 		.4byte	.LLST19
 2580 07d0 00       		.byte	0
 2581 07d1 15       		.uleb128 0x15
 2582 07d2 A5080000 		.4byte	.LASF109
 2583 07d6 01       		.byte	0x1
 2584 07d7 7B02     		.2byte	0x27b
 2585 07d9 00000000 		.4byte	.LFB56
 2586 07dd 8C000000 		.4byte	.LFE56-.LFB56
 2587 07e1 01       		.uleb128 0x1
 2588 07e2 9C       		.byte	0x9c
 2589 07e3 BA080000 		.4byte	0x8ba
 2590 07e7 17       		.uleb128 0x17
 2591 07e8 7D040000 		.4byte	.LASF97
 2592 07ec 01       		.byte	0x1
 2593 07ed 7B02     		.2byte	0x27b
 2594 07ef F4000000 		.4byte	0xf4
 2595 07f3 35030000 		.4byte	.LLST20
 2596 07f7 18       		.uleb128 0x18
 2597 07f8 7E020000 		.4byte	.LASF98
 2598 07fc 01       		.byte	0x1
 2599 07fd 7D02     		.2byte	0x27d
 2600 07ff F4000000 		.4byte	0xf4
 2601 0803 61030000 		.4byte	.LLST21
 2602 0807 18       		.uleb128 0x18
 2603 0808 D1020000 		.4byte	.LASF102
 2604 080c 01       		.byte	0x1
 2605 080d 7E02     		.2byte	0x27e
 2606 080f F4000000 		.4byte	0xf4
 2607 0813 A2030000 		.4byte	.LLST22
 2608 0817 18       		.uleb128 0x18
 2609 0818 D8040000 		.4byte	.LASF100
 2610 081c 01       		.byte	0x1
 2611 081d 8002     		.2byte	0x280
 2612 081f 14060000 		.4byte	0x614
 2613 0823 B5030000 		.4byte	.LLST23
 2614 0827 18       		.uleb128 0x18
 2615 0828 BB090000 		.4byte	.LASF91
 2616 082c 01       		.byte	0x1
 2617 082d 8102     		.2byte	0x281
 2618 082f 04040000 		.4byte	0x404
 2619 0833 C8030000 		.4byte	.LLST24
 2620 0837 18       		.uleb128 0x18
 2621 0838 87090000 		.4byte	.LASF105
 2622 083c 01       		.byte	0x1
 2623 083d 8302     		.2byte	0x283
 2624 083f 00050000 		.4byte	0x500
 2625 0843 F3030000 		.4byte	.LLST25
 2626 0847 18       		.uleb128 0x18
 2627 0848 07000000 		.4byte	.LASF110
 2628 084c 01       		.byte	0x1
 2629 084d 8702     		.2byte	0x287
ARM GAS  C:\Users\PC\AppData\Local\Temp\ccyhv7od.s 			page 80


 2630 084f BA080000 		.4byte	0x8ba
 2631 0853 06040000 		.4byte	.LLST26
 2632 0857 18       		.uleb128 0x18
 2633 0858 C5090000 		.4byte	.LASF111
 2634 085c 01       		.byte	0x1
 2635 085d 8802     		.2byte	0x288
 2636 085f 10040000 		.4byte	0x410
 2637 0863 24040000 		.4byte	.LLST27
 2638 0867 1E       		.uleb128 0x1e
 2639 0868 52000000 		.4byte	.LVL67
 2640 086c C3060000 		.4byte	0x6c3
 2641 0870 88080000 		.4byte	0x888
 2642 0874 1A       		.uleb128 0x1a
 2643 0875 01       		.uleb128 0x1
 2644 0876 50       		.byte	0x50
 2645 0877 03       		.uleb128 0x3
 2646 0878 91       		.byte	0x91
 2647 0879 5C       		.sleb128 -36
 2648 087a 06       		.byte	0x6
 2649 087b 1A       		.uleb128 0x1a
 2650 087c 01       		.uleb128 0x1
 2651 087d 51       		.byte	0x51
 2652 087e 02       		.uleb128 0x2
 2653 087f 75       		.byte	0x75
 2654 0880 00       		.sleb128 0
 2655 0881 1A       		.uleb128 0x1a
 2656 0882 01       		.uleb128 0x1
 2657 0883 52       		.byte	0x52
 2658 0884 02       		.uleb128 0x2
 2659 0885 77       		.byte	0x77
 2660 0886 00       		.sleb128 0
 2661 0887 00       		.byte	0
 2662 0888 1E       		.uleb128 0x1e
 2663 0889 5C000000 		.4byte	.LVL68
 2664 088d 80070000 		.4byte	0x780
 2665 0891 A9080000 		.4byte	0x8a9
 2666 0895 1A       		.uleb128 0x1a
 2667 0896 01       		.uleb128 0x1
 2668 0897 50       		.byte	0x50
 2669 0898 03       		.uleb128 0x3
 2670 0899 91       		.byte	0x91
 2671 089a 5C       		.sleb128 -36
 2672 089b 06       		.byte	0x6
 2673 089c 1A       		.uleb128 0x1a
 2674 089d 01       		.uleb128 0x1
 2675 089e 51       		.byte	0x51
 2676 089f 02       		.uleb128 0x2
 2677 08a0 75       		.byte	0x75
 2678 08a1 00       		.sleb128 0
 2679 08a2 1A       		.uleb128 0x1a
 2680 08a3 01       		.uleb128 0x1
 2681 08a4 52       		.byte	0x52
 2682 08a5 02       		.uleb128 0x2
 2683 08a6 77       		.byte	0x77
 2684 08a7 00       		.sleb128 0
 2685 08a8 00       		.byte	0
 2686 08a9 19       		.uleb128 0x19
ARM GAS  C:\Users\PC\AppData\Local\Temp\ccyhv7od.s 			page 81


 2687 08aa 76000000 		.4byte	.LVL69
 2688 08ae 06100000 		.4byte	0x1006
 2689 08b2 1A       		.uleb128 0x1a
 2690 08b3 01       		.uleb128 0x1
 2691 08b4 52       		.byte	0x52
 2692 08b5 02       		.uleb128 0x2
 2693 08b6 78       		.byte	0x78
 2694 08b7 00       		.sleb128 0
 2695 08b8 00       		.byte	0
 2696 08b9 00       		.byte	0
 2697 08ba 0F       		.uleb128 0xf
 2698 08bb 04       		.byte	0x4
 2699 08bc 9F020000 		.4byte	0x29f
 2700 08c0 15       		.uleb128 0x15
 2701 08c1 8D060000 		.4byte	.LASF112
 2702 08c5 01       		.byte	0x1
 2703 08c6 5D02     		.2byte	0x25d
 2704 08c8 00000000 		.4byte	.LFB55
 2705 08cc 16000000 		.4byte	.LFE55-.LFB55
 2706 08d0 01       		.uleb128 0x1
 2707 08d1 9C       		.byte	0x9c
 2708 08d2 F7080000 		.4byte	0x8f7
 2709 08d6 18       		.uleb128 0x18
 2710 08d7 7D040000 		.4byte	.LASF97
 2711 08db 01       		.byte	0x1
 2712 08dc 5F02     		.2byte	0x25f
 2713 08de F4000000 		.4byte	0xf4
 2714 08e2 4F040000 		.4byte	.LLST28
 2715 08e6 19       		.uleb128 0x19
 2716 08e7 0C000000 		.4byte	.LVL77
 2717 08eb D1070000 		.4byte	0x7d1
 2718 08ef 1A       		.uleb128 0x1a
 2719 08f0 01       		.uleb128 0x1
 2720 08f1 50       		.byte	0x50
 2721 08f2 02       		.uleb128 0x2
 2722 08f3 74       		.byte	0x74
 2723 08f4 00       		.sleb128 0
 2724 08f5 00       		.byte	0
 2725 08f6 00       		.byte	0
 2726 08f7 1F       		.uleb128 0x1f
 2727 08f8 8A050000 		.4byte	.LASF113
 2728 08fc 01       		.byte	0x1
 2729 08fd 3F       		.byte	0x3f
 2730 08fe 00000000 		.4byte	.LFB45
 2731 0902 08000000 		.4byte	.LFE45-.LFB45
 2732 0906 01       		.uleb128 0x1
 2733 0907 9C       		.byte	0x9c
 2734 0908 16090000 		.4byte	0x916
 2735 090c 1B       		.uleb128 0x1b
 2736 090d 06000000 		.4byte	.LVL81
 2737 0911 C0080000 		.4byte	0x8c0
 2738 0915 00       		.byte	0
 2739 0916 15       		.uleb128 0x15
 2740 0917 11090000 		.4byte	.LASF114
 2741 091b 01       		.byte	0x1
 2742 091c 6004     		.2byte	0x460
 2743 091e 00000000 		.4byte	.LFB61
ARM GAS  C:\Users\PC\AppData\Local\Temp\ccyhv7od.s 			page 82


 2744 0922 2C000000 		.4byte	.LFE61-.LFB61
 2745 0926 01       		.uleb128 0x1
 2746 0927 9C       		.byte	0x9c
 2747 0928 82090000 		.4byte	0x982
 2748 092c 17       		.uleb128 0x17
 2749 092d 7D040000 		.4byte	.LASF97
 2750 0931 01       		.byte	0x1
 2751 0932 6004     		.2byte	0x460
 2752 0934 F4000000 		.4byte	0xf4
 2753 0938 91040000 		.4byte	.LLST29
 2754 093c 17       		.uleb128 0x17
 2755 093d 7E020000 		.4byte	.LASF98
 2756 0941 01       		.byte	0x1
 2757 0942 6004     		.2byte	0x460
 2758 0944 F4000000 		.4byte	0xf4
 2759 0948 B2040000 		.4byte	.LLST30
 2760 094c 18       		.uleb128 0x18
 2761 094d D8040000 		.4byte	.LASF100
 2762 0951 01       		.byte	0x1
 2763 0952 6204     		.2byte	0x462
 2764 0954 14060000 		.4byte	0x614
 2765 0958 D3040000 		.4byte	.LLST31
 2766 095c 18       		.uleb128 0x18
 2767 095d BB090000 		.4byte	.LASF91
 2768 0961 01       		.byte	0x1
 2769 0962 6304     		.2byte	0x463
 2770 0964 04040000 		.4byte	0x404
 2771 0968 E6040000 		.4byte	.LLST32
 2772 096c 1D       		.uleb128 0x1d
 2773 096d 87090000 		.4byte	.LASF105
 2774 0971 01       		.byte	0x1
 2775 0972 6404     		.2byte	0x464
 2776 0974 00050000 		.4byte	0x500
 2777 0978 1B       		.uleb128 0x1b
 2778 0979 24000000 		.4byte	.LVL89
 2779 097d 80070000 		.4byte	0x780
 2780 0981 00       		.byte	0
 2781 0982 15       		.uleb128 0x15
 2782 0983 CB000000 		.4byte	.LASF115
 2783 0987 01       		.byte	0x1
 2784 0988 E304     		.2byte	0x4e3
 2785 098a 00000000 		.4byte	.LFB64
 2786 098e 44000000 		.4byte	.LFE64-.LFB64
 2787 0992 01       		.uleb128 0x1
 2788 0993 9C       		.byte	0x9c
 2789 0994 E3090000 		.4byte	0x9e3
 2790 0998 16       		.uleb128 0x16
 2791 0999 87090000 		.4byte	.LASF105
 2792 099d 01       		.byte	0x1
 2793 099e E304     		.2byte	0x4e3
 2794 09a0 00050000 		.4byte	0x500
 2795 09a4 01       		.uleb128 0x1
 2796 09a5 50       		.byte	0x50
 2797 09a6 16       		.uleb128 0x16
 2798 09a7 02060000 		.4byte	.LASF106
 2799 09ab 01       		.byte	0x1
 2800 09ac E404     		.2byte	0x4e4
ARM GAS  C:\Users\PC\AppData\Local\Temp\ccyhv7od.s 			page 83


 2801 09ae 04040000 		.4byte	0x404
 2802 09b2 01       		.uleb128 0x1
 2803 09b3 51       		.byte	0x51
 2804 09b4 16       		.uleb128 0x16
 2805 09b5 6B040000 		.4byte	.LASF92
 2806 09b9 01       		.byte	0x1
 2807 09ba E404     		.2byte	0x4e4
 2808 09bc F4000000 		.4byte	0xf4
 2809 09c0 01       		.uleb128 0x1
 2810 09c1 52       		.byte	0x52
 2811 09c2 18       		.uleb128 0x18
 2812 09c3 2C070000 		.4byte	.LASF99
 2813 09c7 01       		.byte	0x1
 2814 09c8 E604     		.2byte	0x4e6
 2815 09ca F4000000 		.4byte	0xf4
 2816 09ce 11050000 		.4byte	.LLST33
 2817 09d2 18       		.uleb128 0x18
 2818 09d3 FB020000 		.4byte	.LASF116
 2819 09d7 01       		.byte	0x1
 2820 09d8 E704     		.2byte	0x4e7
 2821 09da F4000000 		.4byte	0xf4
 2822 09de 53050000 		.4byte	.LLST34
 2823 09e2 00       		.byte	0
 2824 09e3 15       		.uleb128 0x15
 2825 09e4 BA030000 		.4byte	.LASF117
 2826 09e8 01       		.byte	0x1
 2827 09e9 8C04     		.2byte	0x48c
 2828 09eb 00000000 		.4byte	.LFB62
 2829 09ef 2C000000 		.4byte	.LFE62-.LFB62
 2830 09f3 01       		.uleb128 0x1
 2831 09f4 9C       		.byte	0x9c
 2832 09f5 4F0A0000 		.4byte	0xa4f
 2833 09f9 17       		.uleb128 0x17
 2834 09fa 7D040000 		.4byte	.LASF97
 2835 09fe 01       		.byte	0x1
 2836 09ff 8C04     		.2byte	0x48c
 2837 0a01 F4000000 		.4byte	0xf4
 2838 0a05 66050000 		.4byte	.LLST35
 2839 0a09 17       		.uleb128 0x17
 2840 0a0a 7E020000 		.4byte	.LASF98
 2841 0a0e 01       		.byte	0x1
 2842 0a0f 8C04     		.2byte	0x48c
 2843 0a11 F4000000 		.4byte	0xf4
 2844 0a15 87050000 		.4byte	.LLST36
 2845 0a19 18       		.uleb128 0x18
 2846 0a1a D8040000 		.4byte	.LASF100
 2847 0a1e 01       		.byte	0x1
 2848 0a1f 8E04     		.2byte	0x48e
 2849 0a21 14060000 		.4byte	0x614
 2850 0a25 A8050000 		.4byte	.LLST37
 2851 0a29 18       		.uleb128 0x18
 2852 0a2a BB090000 		.4byte	.LASF91
 2853 0a2e 01       		.byte	0x1
 2854 0a2f 8F04     		.2byte	0x48f
 2855 0a31 04040000 		.4byte	0x404
 2856 0a35 BB050000 		.4byte	.LLST38
 2857 0a39 1D       		.uleb128 0x1d
ARM GAS  C:\Users\PC\AppData\Local\Temp\ccyhv7od.s 			page 84


 2858 0a3a 87090000 		.4byte	.LASF105
 2859 0a3e 01       		.byte	0x1
 2860 0a3f 9004     		.2byte	0x490
 2861 0a41 00050000 		.4byte	0x500
 2862 0a45 1B       		.uleb128 0x1b
 2863 0a46 24000000 		.4byte	.LVL106
 2864 0a4a 82090000 		.4byte	0x982
 2865 0a4e 00       		.byte	0
 2866 0a4f 15       		.uleb128 0x15
 2867 0a50 BE040000 		.4byte	.LASF118
 2868 0a54 01       		.byte	0x1
 2869 0a55 3C06     		.2byte	0x63c
 2870 0a57 00000000 		.4byte	.LFB67
 2871 0a5b 2C000000 		.4byte	.LFE67-.LFB67
 2872 0a5f 01       		.uleb128 0x1
 2873 0a60 9C       		.byte	0x9c
 2874 0a61 CF0A0000 		.4byte	0xacf
 2875 0a65 17       		.uleb128 0x17
 2876 0a66 7D040000 		.4byte	.LASF97
 2877 0a6a 01       		.byte	0x1
 2878 0a6b 3C06     		.2byte	0x63c
 2879 0a6d F4000000 		.4byte	0xf4
 2880 0a71 E6050000 		.4byte	.LLST39
 2881 0a75 17       		.uleb128 0x17
 2882 0a76 7E020000 		.4byte	.LASF98
 2883 0a7a 01       		.byte	0x1
 2884 0a7b 3C06     		.2byte	0x63c
 2885 0a7d F4000000 		.4byte	0xf4
 2886 0a81 07060000 		.4byte	.LLST40
 2887 0a85 18       		.uleb128 0x18
 2888 0a86 D8040000 		.4byte	.LASF100
 2889 0a8a 01       		.byte	0x1
 2890 0a8b 3E06     		.2byte	0x63e
 2891 0a8d 14060000 		.4byte	0x614
 2892 0a91 28060000 		.4byte	.LLST41
 2893 0a95 18       		.uleb128 0x18
 2894 0a96 07000000 		.4byte	.LASF110
 2895 0a9a 01       		.byte	0x1
 2896 0a9b 3F06     		.2byte	0x63f
 2897 0a9d BA080000 		.4byte	0x8ba
 2898 0aa1 3B060000 		.4byte	.LLST42
 2899 0aa5 18       		.uleb128 0x18
 2900 0aa6 BB090000 		.4byte	.LASF91
 2901 0aaa 01       		.byte	0x1
 2902 0aab 4006     		.2byte	0x640
 2903 0aad 04040000 		.4byte	0x404
 2904 0ab1 4E060000 		.4byte	.LLST43
 2905 0ab5 18       		.uleb128 0x18
 2906 0ab6 C5090000 		.4byte	.LASF111
 2907 0aba 01       		.byte	0x1
 2908 0abb 4106     		.2byte	0x641
 2909 0abd 10040000 		.4byte	0x410
 2910 0ac1 96060000 		.4byte	.LLST44
 2911 0ac5 1B       		.uleb128 0x1b
 2912 0ac6 26000000 		.4byte	.LVL119
 2913 0aca 11100000 		.4byte	0x1011
 2914 0ace 00       		.byte	0
ARM GAS  C:\Users\PC\AppData\Local\Temp\ccyhv7od.s 			page 85


 2915 0acf 15       		.uleb128 0x15
 2916 0ad0 BB010000 		.4byte	.LASF119
 2917 0ad4 01       		.byte	0x1
 2918 0ad5 5B06     		.2byte	0x65b
 2919 0ad7 00000000 		.4byte	.LFB68
 2920 0adb 2C000000 		.4byte	.LFE68-.LFB68
 2921 0adf 01       		.uleb128 0x1
 2922 0ae0 9C       		.byte	0x9c
 2923 0ae1 4F0B0000 		.4byte	0xb4f
 2924 0ae5 17       		.uleb128 0x17
 2925 0ae6 7D040000 		.4byte	.LASF97
 2926 0aea 01       		.byte	0x1
 2927 0aeb 5B06     		.2byte	0x65b
 2928 0aed F4000000 		.4byte	0xf4
 2929 0af1 C0060000 		.4byte	.LLST45
 2930 0af5 17       		.uleb128 0x17
 2931 0af6 7E020000 		.4byte	.LASF98
 2932 0afa 01       		.byte	0x1
 2933 0afb 5B06     		.2byte	0x65b
 2934 0afd F4000000 		.4byte	0xf4
 2935 0b01 E1060000 		.4byte	.LLST46
 2936 0b05 18       		.uleb128 0x18
 2937 0b06 D8040000 		.4byte	.LASF100
 2938 0b0a 01       		.byte	0x1
 2939 0b0b 5D06     		.2byte	0x65d
 2940 0b0d 14060000 		.4byte	0x614
 2941 0b11 02070000 		.4byte	.LLST47
 2942 0b15 18       		.uleb128 0x18
 2943 0b16 07000000 		.4byte	.LASF110
 2944 0b1a 01       		.byte	0x1
 2945 0b1b 5E06     		.2byte	0x65e
 2946 0b1d BA080000 		.4byte	0x8ba
 2947 0b21 15070000 		.4byte	.LLST48
 2948 0b25 18       		.uleb128 0x18
 2949 0b26 BB090000 		.4byte	.LASF91
 2950 0b2a 01       		.byte	0x1
 2951 0b2b 5F06     		.2byte	0x65f
 2952 0b2d 04040000 		.4byte	0x404
 2953 0b31 28070000 		.4byte	.LLST49
 2954 0b35 18       		.uleb128 0x18
 2955 0b36 C5090000 		.4byte	.LASF111
 2956 0b3a 01       		.byte	0x1
 2957 0b3b 6006     		.2byte	0x660
 2958 0b3d 10040000 		.4byte	0x410
 2959 0b41 70070000 		.4byte	.LLST50
 2960 0b45 1B       		.uleb128 0x1b
 2961 0b46 26000000 		.4byte	.LVL134
 2962 0b4a 06100000 		.4byte	0x1006
 2963 0b4e 00       		.byte	0
 2964 0b4f 20       		.uleb128 0x20
 2965 0b50 A4040000 		.4byte	.LASF124
 2966 0b54 01       		.byte	0x1
 2967 0b55 7F06     		.2byte	0x67f
 2968 0b57 F4000000 		.4byte	0xf4
 2969 0b5b 00000000 		.4byte	.LFB69
 2970 0b5f 18000000 		.4byte	.LFE69-.LFB69
 2971 0b63 01       		.uleb128 0x1
ARM GAS  C:\Users\PC\AppData\Local\Temp\ccyhv7od.s 			page 86


 2972 0b64 9C       		.byte	0x9c
 2973 0b65 A10B0000 		.4byte	0xba1
 2974 0b69 21       		.uleb128 0x21
 2975 0b6a 783100   		.ascii	"x1\000"
 2976 0b6d 01       		.byte	0x1
 2977 0b6e 7F06     		.2byte	0x67f
 2978 0b70 F4000000 		.4byte	0xf4
 2979 0b74 9A070000 		.4byte	.LLST51
 2980 0b78 21       		.uleb128 0x21
 2981 0b79 783200   		.ascii	"x2\000"
 2982 0b7c 01       		.byte	0x1
 2983 0b7d 7F06     		.2byte	0x67f
 2984 0b7f F4000000 		.4byte	0xf4
 2985 0b83 C3070000 		.4byte	.LLST52
 2986 0b87 22       		.uleb128 0x22
 2987 0b88 783300   		.ascii	"x3\000"
 2988 0b8b 01       		.byte	0x1
 2989 0b8c 7F06     		.2byte	0x67f
 2990 0b8e F4000000 		.4byte	0xf4
 2991 0b92 01       		.uleb128 0x1
 2992 0b93 52       		.byte	0x52
 2993 0b94 23       		.uleb128 0x23
 2994 0b95 746D7000 		.ascii	"tmp\000"
 2995 0b99 01       		.byte	0x1
 2996 0b9a 8106     		.2byte	0x681
 2997 0b9c F4000000 		.4byte	0xf4
 2998 0ba0 00       		.byte	0
 2999 0ba1 15       		.uleb128 0x15
 3000 0ba2 3E030000 		.4byte	.LASF120
 3001 0ba6 01       		.byte	0x1
 3002 0ba7 2904     		.2byte	0x429
 3003 0ba9 00000000 		.4byte	.LFB60
 3004 0bad 68000000 		.4byte	.LFE60-.LFB60
 3005 0bb1 01       		.uleb128 0x1
 3006 0bb2 9C       		.byte	0x9c
 3007 0bb3 180C0000 		.4byte	0xc18
 3008 0bb7 17       		.uleb128 0x17
 3009 0bb8 87090000 		.4byte	.LASF105
 3010 0bbc 01       		.byte	0x1
 3011 0bbd 2904     		.2byte	0x429
 3012 0bbf 00050000 		.4byte	0x500
 3013 0bc3 E1070000 		.4byte	.LLST53
 3014 0bc7 17       		.uleb128 0x17
 3015 0bc8 02060000 		.4byte	.LASF106
 3016 0bcc 01       		.byte	0x1
 3017 0bcd 2A04     		.2byte	0x42a
 3018 0bcf 04040000 		.4byte	0x404
 3019 0bd3 15080000 		.4byte	.LLST54
 3020 0bd7 17       		.uleb128 0x17
 3021 0bd8 6B040000 		.4byte	.LASF92
 3022 0bdc 01       		.byte	0x1
 3023 0bdd 2A04     		.2byte	0x42a
 3024 0bdf F4000000 		.4byte	0xf4
 3025 0be3 41080000 		.4byte	.LLST55
 3026 0be7 18       		.uleb128 0x18
 3027 0be8 2C070000 		.4byte	.LASF99
 3028 0bec 01       		.byte	0x1
ARM GAS  C:\Users\PC\AppData\Local\Temp\ccyhv7od.s 			page 87


 3029 0bed 2C04     		.2byte	0x42c
 3030 0bef F4000000 		.4byte	0xf4
 3031 0bf3 83080000 		.4byte	.LLST56
 3032 0bf7 18       		.uleb128 0x18
 3033 0bf8 FB020000 		.4byte	.LASF116
 3034 0bfc 01       		.byte	0x1
 3035 0bfd 3004     		.2byte	0x430
 3036 0bff F4000000 		.4byte	0xf4
 3037 0c03 C5080000 		.4byte	.LLST57
 3038 0c07 19       		.uleb128 0x19
 3039 0c08 40000000 		.4byte	.LVL150
 3040 0c0c 4F0B0000 		.4byte	0xb4f
 3041 0c10 1A       		.uleb128 0x1a
 3042 0c11 01       		.uleb128 0x1
 3043 0c12 51       		.byte	0x51
 3044 0c13 02       		.uleb128 0x2
 3045 0c14 7B       		.byte	0x7b
 3046 0c15 00       		.sleb128 0
 3047 0c16 00       		.byte	0
 3048 0c17 00       		.byte	0
 3049 0c18 15       		.uleb128 0x15
 3050 0c19 A0050000 		.4byte	.LASF121
 3051 0c1d 01       		.byte	0x1
 3052 0c1e D803     		.2byte	0x3d8
 3053 0c20 00000000 		.4byte	.LFB58
 3054 0c24 2C000000 		.4byte	.LFE58-.LFB58
 3055 0c28 01       		.uleb128 0x1
 3056 0c29 9C       		.byte	0x9c
 3057 0c2a 840C0000 		.4byte	0xc84
 3058 0c2e 17       		.uleb128 0x17
 3059 0c2f 7D040000 		.4byte	.LASF97
 3060 0c33 01       		.byte	0x1
 3061 0c34 D803     		.2byte	0x3d8
 3062 0c36 F4000000 		.4byte	0xf4
 3063 0c3a D8080000 		.4byte	.LLST58
 3064 0c3e 17       		.uleb128 0x17
 3065 0c3f 7E020000 		.4byte	.LASF98
 3066 0c43 01       		.byte	0x1
 3067 0c44 D803     		.2byte	0x3d8
 3068 0c46 F4000000 		.4byte	0xf4
 3069 0c4a F9080000 		.4byte	.LLST59
 3070 0c4e 18       		.uleb128 0x18
 3071 0c4f D8040000 		.4byte	.LASF100
 3072 0c53 01       		.byte	0x1
 3073 0c54 DA03     		.2byte	0x3da
 3074 0c56 14060000 		.4byte	0x614
 3075 0c5a 1A090000 		.4byte	.LLST60
 3076 0c5e 18       		.uleb128 0x18
 3077 0c5f BB090000 		.4byte	.LASF91
 3078 0c63 01       		.byte	0x1
 3079 0c64 DB03     		.2byte	0x3db
 3080 0c66 04040000 		.4byte	0x404
 3081 0c6a 2D090000 		.4byte	.LLST61
 3082 0c6e 1D       		.uleb128 0x1d
 3083 0c6f 87090000 		.4byte	.LASF105
 3084 0c73 01       		.byte	0x1
 3085 0c74 DC03     		.2byte	0x3dc
ARM GAS  C:\Users\PC\AppData\Local\Temp\ccyhv7od.s 			page 88


 3086 0c76 00050000 		.4byte	0x500
 3087 0c7a 1B       		.uleb128 0x1b
 3088 0c7b 24000000 		.4byte	.LVL164
 3089 0c7f A10B0000 		.4byte	0xba1
 3090 0c83 00       		.byte	0
 3091 0c84 15       		.uleb128 0x15
 3092 0c85 C7060000 		.4byte	.LASF122
 3093 0c89 01       		.byte	0x1
 3094 0c8a 1B06     		.2byte	0x61b
 3095 0c8c 00000000 		.4byte	.LFB66
 3096 0c90 18000000 		.4byte	.LFE66-.LFB66
 3097 0c94 01       		.uleb128 0x1
 3098 0c95 9C       		.byte	0x9c
 3099 0c96 070D0000 		.4byte	0xd07
 3100 0c9a 17       		.uleb128 0x17
 3101 0c9b 87090000 		.4byte	.LASF105
 3102 0c9f 01       		.byte	0x1
 3103 0ca0 1B06     		.2byte	0x61b
 3104 0ca2 00050000 		.4byte	0x500
 3105 0ca6 58090000 		.4byte	.LLST62
 3106 0caa 17       		.uleb128 0x17
 3107 0cab 02060000 		.4byte	.LASF106
 3108 0caf 01       		.byte	0x1
 3109 0cb0 1C06     		.2byte	0x61c
 3110 0cb2 04040000 		.4byte	0x404
 3111 0cb6 76090000 		.4byte	.LLST63
 3112 0cba 17       		.uleb128 0x17
 3113 0cbb 6B040000 		.4byte	.LASF92
 3114 0cbf 01       		.byte	0x1
 3115 0cc0 1C06     		.2byte	0x61c
 3116 0cc2 F4000000 		.4byte	0xf4
 3117 0cc6 A2090000 		.4byte	.LLST64
 3118 0cca 1E       		.uleb128 0x1e
 3119 0ccb 0C000000 		.4byte	.LVL167
 3120 0ccf A10B0000 		.4byte	0xba1
 3121 0cd3 EA0C0000 		.4byte	0xcea
 3122 0cd7 1A       		.uleb128 0x1a
 3123 0cd8 01       		.uleb128 0x1
 3124 0cd9 50       		.byte	0x50
 3125 0cda 02       		.uleb128 0x2
 3126 0cdb 74       		.byte	0x74
 3127 0cdc 00       		.sleb128 0
 3128 0cdd 1A       		.uleb128 0x1a
 3129 0cde 01       		.uleb128 0x1
 3130 0cdf 51       		.byte	0x51
 3131 0ce0 02       		.uleb128 0x2
 3132 0ce1 75       		.byte	0x75
 3133 0ce2 00       		.sleb128 0
 3134 0ce3 1A       		.uleb128 0x1a
 3135 0ce4 01       		.uleb128 0x1
 3136 0ce5 52       		.byte	0x52
 3137 0ce6 02       		.uleb128 0x2
 3138 0ce7 76       		.byte	0x76
 3139 0ce8 00       		.sleb128 0
 3140 0ce9 00       		.byte	0
 3141 0cea 19       		.uleb128 0x19
 3142 0ceb 16000000 		.4byte	.LVL169
ARM GAS  C:\Users\PC\AppData\Local\Temp\ccyhv7od.s 			page 89


 3143 0cef 82090000 		.4byte	0x982
 3144 0cf3 1A       		.uleb128 0x1a
 3145 0cf4 01       		.uleb128 0x1
 3146 0cf5 50       		.byte	0x50
 3147 0cf6 02       		.uleb128 0x2
 3148 0cf7 74       		.byte	0x74
 3149 0cf8 00       		.sleb128 0
 3150 0cf9 1A       		.uleb128 0x1a
 3151 0cfa 01       		.uleb128 0x1
 3152 0cfb 51       		.byte	0x51
 3153 0cfc 02       		.uleb128 0x2
 3154 0cfd 75       		.byte	0x75
 3155 0cfe 00       		.sleb128 0
 3156 0cff 1A       		.uleb128 0x1a
 3157 0d00 01       		.uleb128 0x1
 3158 0d01 52       		.byte	0x52
 3159 0d02 02       		.uleb128 0x2
 3160 0d03 76       		.byte	0x76
 3161 0d04 00       		.sleb128 0
 3162 0d05 00       		.byte	0
 3163 0d06 00       		.byte	0
 3164 0d07 15       		.uleb128 0x15
 3165 0d08 70030000 		.4byte	.LASF123
 3166 0d0c 01       		.byte	0x1
 3167 0d0d E905     		.2byte	0x5e9
 3168 0d0f 00000000 		.4byte	.LFB65
 3169 0d13 2C000000 		.4byte	.LFE65-.LFB65
 3170 0d17 01       		.uleb128 0x1
 3171 0d18 9C       		.byte	0x9c
 3172 0d19 730D0000 		.4byte	0xd73
 3173 0d1d 17       		.uleb128 0x17
 3174 0d1e 7D040000 		.4byte	.LASF97
 3175 0d22 01       		.byte	0x1
 3176 0d23 E905     		.2byte	0x5e9
 3177 0d25 F4000000 		.4byte	0xf4
 3178 0d29 CE090000 		.4byte	.LLST65
 3179 0d2d 17       		.uleb128 0x17
 3180 0d2e 7E020000 		.4byte	.LASF98
 3181 0d32 01       		.byte	0x1
 3182 0d33 E905     		.2byte	0x5e9
 3183 0d35 F4000000 		.4byte	0xf4
 3184 0d39 EF090000 		.4byte	.LLST66
 3185 0d3d 18       		.uleb128 0x18
 3186 0d3e D8040000 		.4byte	.LASF100
 3187 0d42 01       		.byte	0x1
 3188 0d43 EB05     		.2byte	0x5eb
 3189 0d45 14060000 		.4byte	0x614
 3190 0d49 100A0000 		.4byte	.LLST67
 3191 0d4d 18       		.uleb128 0x18
 3192 0d4e BB090000 		.4byte	.LASF91
 3193 0d52 01       		.byte	0x1
 3194 0d53 EC05     		.2byte	0x5ec
 3195 0d55 04040000 		.4byte	0x404
 3196 0d59 230A0000 		.4byte	.LLST68
 3197 0d5d 1D       		.uleb128 0x1d
 3198 0d5e 87090000 		.4byte	.LASF105
 3199 0d62 01       		.byte	0x1
ARM GAS  C:\Users\PC\AppData\Local\Temp\ccyhv7od.s 			page 90


 3200 0d63 ED05     		.2byte	0x5ed
 3201 0d65 00050000 		.4byte	0x500
 3202 0d69 1B       		.uleb128 0x1b
 3203 0d6a 24000000 		.4byte	.LVL180
 3204 0d6e 840C0000 		.4byte	0xc84
 3205 0d72 00       		.byte	0
 3206 0d73 20       		.uleb128 0x20
 3207 0d74 4D090000 		.4byte	.LASF125
 3208 0d78 01       		.byte	0x1
 3209 0d79 A506     		.2byte	0x6a5
 3210 0d7b F4000000 		.4byte	0xf4
 3211 0d7f 00000000 		.4byte	.LFB70
 3212 0d83 12000000 		.4byte	.LFE70-.LFB70
 3213 0d87 01       		.uleb128 0x1
 3214 0d88 9C       		.byte	0x9c
 3215 0d89 DA0D0000 		.4byte	0xdda
 3216 0d8d 17       		.uleb128 0x17
 3217 0d8e 35020000 		.4byte	.LASF126
 3218 0d92 01       		.byte	0x1
 3219 0d93 A506     		.2byte	0x6a5
 3220 0d95 F4000000 		.4byte	0xf4
 3221 0d99 4E0A0000 		.4byte	.LLST69
 3222 0d9d 17       		.uleb128 0x17
 3223 0d9e 86040000 		.4byte	.LASF127
 3224 0da2 01       		.byte	0x1
 3225 0da3 A506     		.2byte	0x6a5
 3226 0da5 F4000000 		.4byte	0xf4
 3227 0da9 6F0A0000 		.4byte	.LLST70
 3228 0dad 21       		.uleb128 0x21
 3229 0dae 6E00     		.ascii	"n\000"
 3230 0db0 01       		.byte	0x1
 3231 0db1 A506     		.2byte	0x6a5
 3232 0db3 F4000000 		.4byte	0xf4
 3233 0db7 900A0000 		.4byte	.LLST71
 3234 0dbb 17       		.uleb128 0x17
 3235 0dbc 78020000 		.4byte	.LASF128
 3236 0dc0 01       		.byte	0x1
 3237 0dc1 A506     		.2byte	0x6a5
 3238 0dc3 F4000000 		.4byte	0xf4
 3239 0dc7 B10A0000 		.4byte	.LLST72
 3240 0dcb 24       		.uleb128 0x24
 3241 0dcc 67010000 		.4byte	.LASF129
 3242 0dd0 01       		.byte	0x1
 3243 0dd1 A706     		.2byte	0x6a7
 3244 0dd3 F4000000 		.4byte	0xf4
 3245 0dd7 01       		.uleb128 0x1
 3246 0dd8 50       		.byte	0x50
 3247 0dd9 00       		.byte	0
 3248 0dda 25       		.uleb128 0x25
 3249 0ddb A0030000 		.4byte	.LASF130
 3250 0ddf 01       		.byte	0x1
 3251 0de0 FF       		.byte	0xff
 3252 0de1 F4000000 		.4byte	0xf4
 3253 0de5 00000000 		.4byte	.LFB49
 3254 0de9 8E000000 		.4byte	.LFE49-.LFB49
 3255 0ded 01       		.uleb128 0x1
 3256 0dee 9C       		.byte	0x9c
ARM GAS  C:\Users\PC\AppData\Local\Temp\ccyhv7od.s 			page 91


 3257 0def B50E0000 		.4byte	0xeb5
 3258 0df3 17       		.uleb128 0x17
 3259 0df4 07000000 		.4byte	.LASF110
 3260 0df8 01       		.byte	0x1
 3261 0df9 0001     		.2byte	0x100
 3262 0dfb BA080000 		.4byte	0x8ba
 3263 0dff D20A0000 		.4byte	.LLST73
 3264 0e03 17       		.uleb128 0x17
 3265 0e04 BB090000 		.4byte	.LASF91
 3266 0e08 01       		.byte	0x1
 3267 0e09 0101     		.2byte	0x101
 3268 0e0b 04040000 		.4byte	0x404
 3269 0e0f FE0A0000 		.4byte	.LLST74
 3270 0e13 17       		.uleb128 0x17
 3271 0e14 6B040000 		.4byte	.LASF92
 3272 0e18 01       		.byte	0x1
 3273 0e19 0201     		.2byte	0x102
 3274 0e1b F4000000 		.4byte	0xf4
 3275 0e1f 2A0B0000 		.4byte	.LLST75
 3276 0e23 18       		.uleb128 0x18
 3277 0e24 6C090000 		.4byte	.LASF131
 3278 0e28 01       		.byte	0x1
 3279 0e29 0401     		.2byte	0x104
 3280 0e2b F4000000 		.4byte	0xf4
 3281 0e2f 560B0000 		.4byte	.LLST76
 3282 0e33 18       		.uleb128 0x18
 3283 0e34 91040000 		.4byte	.LASF132
 3284 0e38 01       		.byte	0x1
 3285 0e39 0501     		.2byte	0x105
 3286 0e3b F4000000 		.4byte	0xf4
 3287 0e3f 810B0000 		.4byte	.LLST77
 3288 0e43 18       		.uleb128 0x18
 3289 0e44 2C070000 		.4byte	.LASF99
 3290 0e48 01       		.byte	0x1
 3291 0e49 0601     		.2byte	0x106
 3292 0e4b F4000000 		.4byte	0xf4
 3293 0e4f B50B0000 		.4byte	.LLST78
 3294 0e53 18       		.uleb128 0x18
 3295 0e54 DC010000 		.4byte	.LASF133
 3296 0e58 01       		.byte	0x1
 3297 0e59 0701     		.2byte	0x107
 3298 0e5b F4000000 		.4byte	0xf4
 3299 0e5f F70B0000 		.4byte	.LLST79
 3300 0e63 26       		.uleb128 0x26
 3301 0e64 020A0000 		.4byte	.LASF134
 3302 0e68 01       		.byte	0x1
 3303 0e69 0801     		.2byte	0x108
 3304 0e6b F4000000 		.4byte	0xf4
 3305 0e6f 00       		.byte	0
 3306 0e70 18       		.uleb128 0x18
 3307 0e71 FA050000 		.4byte	.LASF135
 3308 0e75 01       		.byte	0x1
 3309 0e76 0B01     		.2byte	0x10b
 3310 0e78 F4000000 		.4byte	0xf4
 3311 0e7c 0B0C0000 		.4byte	.LLST80
 3312 0e80 1E       		.uleb128 0x1e
 3313 0e81 4E000000 		.4byte	.LVL197
ARM GAS  C:\Users\PC\AppData\Local\Temp\ccyhv7od.s 			page 92


 3314 0e85 0C050000 		.4byte	0x50c
 3315 0e89 A00E0000 		.4byte	0xea0
 3316 0e8d 1A       		.uleb128 0x1a
 3317 0e8e 01       		.uleb128 0x1
 3318 0e8f 50       		.byte	0x50
 3319 0e90 02       		.uleb128 0x2
 3320 0e91 76       		.byte	0x76
 3321 0e92 00       		.sleb128 0
 3322 0e93 1A       		.uleb128 0x1a
 3323 0e94 01       		.uleb128 0x1
 3324 0e95 51       		.byte	0x51
 3325 0e96 02       		.uleb128 0x2
 3326 0e97 75       		.byte	0x75
 3327 0e98 00       		.sleb128 0
 3328 0e99 1A       		.uleb128 0x1a
 3329 0e9a 01       		.uleb128 0x1
 3330 0e9b 52       		.byte	0x52
 3331 0e9c 02       		.uleb128 0x2
 3332 0e9d 74       		.byte	0x74
 3333 0e9e 00       		.sleb128 0
 3334 0e9f 00       		.byte	0
 3335 0ea0 19       		.uleb128 0x19
 3336 0ea1 72000000 		.4byte	.LVL201
 3337 0ea5 730D0000 		.4byte	0xd73
 3338 0ea9 1A       		.uleb128 0x1a
 3339 0eaa 01       		.uleb128 0x1
 3340 0eab 52       		.byte	0x52
 3341 0eac 01       		.uleb128 0x1
 3342 0ead 31       		.byte	0x31
 3343 0eae 1A       		.uleb128 0x1a
 3344 0eaf 01       		.uleb128 0x1
 3345 0eb0 53       		.byte	0x53
 3346 0eb1 01       		.uleb128 0x1
 3347 0eb2 38       		.byte	0x38
 3348 0eb3 00       		.byte	0
 3349 0eb4 00       		.byte	0
 3350 0eb5 25       		.uleb128 0x25
 3351 0eb6 08040000 		.4byte	.LASF136
 3352 0eba 01       		.byte	0x1
 3353 0ebb C8       		.byte	0xc8
 3354 0ebc D0000000 		.4byte	0xd0
 3355 0ec0 00000000 		.4byte	.LFB48
 3356 0ec4 24000000 		.4byte	.LFE48-.LFB48
 3357 0ec8 01       		.uleb128 0x1
 3358 0ec9 9C       		.byte	0x9c
 3359 0eca 320F0000 		.4byte	0xf32
 3360 0ece 27       		.uleb128 0x27
 3361 0ecf 7D040000 		.4byte	.LASF97
 3362 0ed3 01       		.byte	0x1
 3363 0ed4 C8       		.byte	0xc8
 3364 0ed5 F4000000 		.4byte	0xf4
 3365 0ed9 290C0000 		.4byte	.LLST81
 3366 0edd 27       		.uleb128 0x27
 3367 0ede 7E020000 		.4byte	.LASF98
 3368 0ee2 01       		.byte	0x1
 3369 0ee3 C8       		.byte	0xc8
 3370 0ee4 F4000000 		.4byte	0xf4
ARM GAS  C:\Users\PC\AppData\Local\Temp\ccyhv7od.s 			page 93


 3371 0ee8 4A0C0000 		.4byte	.LLST82
 3372 0eec 28       		.uleb128 0x28
 3373 0eed 020A0000 		.4byte	.LASF134
 3374 0ef1 01       		.byte	0x1
 3375 0ef2 CA       		.byte	0xca
 3376 0ef3 F4000000 		.4byte	0xf4
 3377 0ef7 6B0C0000 		.4byte	.LLST83
 3378 0efb 28       		.uleb128 0x28
 3379 0efc BB090000 		.4byte	.LASF91
 3380 0f00 01       		.byte	0x1
 3381 0f01 CC       		.byte	0xcc
 3382 0f02 04040000 		.4byte	0x404
 3383 0f06 8A0C0000 		.4byte	.LLST84
 3384 0f0a 28       		.uleb128 0x28
 3385 0f0b D8040000 		.4byte	.LASF100
 3386 0f0f 01       		.byte	0x1
 3387 0f10 CD       		.byte	0xcd
 3388 0f11 14060000 		.4byte	0x614
 3389 0f15 B50C0000 		.4byte	.LLST85
 3390 0f19 28       		.uleb128 0x28
 3391 0f1a 07000000 		.4byte	.LASF110
 3392 0f1e 01       		.byte	0x1
 3393 0f1f CE       		.byte	0xce
 3394 0f20 BA080000 		.4byte	0x8ba
 3395 0f24 C80C0000 		.4byte	.LLST86
 3396 0f28 1B       		.uleb128 0x1b
 3397 0f29 1E000000 		.4byte	.LVL216
 3398 0f2d DA0D0000 		.4byte	0xdda
 3399 0f31 00       		.byte	0
 3400 0f32 25       		.uleb128 0x25
 3401 0f33 46000000 		.4byte	.LASF137
 3402 0f37 01       		.byte	0x1
 3403 0f38 8F       		.byte	0x8f
 3404 0f39 D0000000 		.4byte	0xd0
 3405 0f3d 00000000 		.4byte	.LFB47
 3406 0f41 2C000000 		.4byte	.LFE47-.LFB47
 3407 0f45 01       		.uleb128 0x1
 3408 0f46 9C       		.byte	0x9c
 3409 0f47 AD0F0000 		.4byte	0xfad
 3410 0f4b 27       		.uleb128 0x27
 3411 0f4c 7D040000 		.4byte	.LASF97
 3412 0f50 01       		.byte	0x1
 3413 0f51 8F       		.byte	0x8f
 3414 0f52 F4000000 		.4byte	0xf4
 3415 0f56 DB0C0000 		.4byte	.LLST87
 3416 0f5a 28       		.uleb128 0x28
 3417 0f5b 7E020000 		.4byte	.LASF98
 3418 0f5f 01       		.byte	0x1
 3419 0f60 91       		.byte	0x91
 3420 0f61 F4000000 		.4byte	0xf4
 3421 0f65 070D0000 		.4byte	.LLST88
 3422 0f69 28       		.uleb128 0x28
 3423 0f6a D1020000 		.4byte	.LASF102
 3424 0f6e 01       		.byte	0x1
 3425 0f6f 92       		.byte	0x92
 3426 0f70 F4000000 		.4byte	0xf4
 3427 0f74 480D0000 		.4byte	.LLST89
ARM GAS  C:\Users\PC\AppData\Local\Temp\ccyhv7od.s 			page 94


 3428 0f78 28       		.uleb128 0x28
 3429 0f79 D8040000 		.4byte	.LASF100
 3430 0f7d 01       		.byte	0x1
 3431 0f7e 94       		.byte	0x94
 3432 0f7f 14060000 		.4byte	0x614
 3433 0f83 5B0D0000 		.4byte	.LLST90
 3434 0f87 28       		.uleb128 0x28
 3435 0f88 72040000 		.4byte	.LASF138
 3436 0f8c 01       		.byte	0x1
 3437 0f8d 95       		.byte	0x95
 3438 0f8e D0000000 		.4byte	0xd0
 3439 0f92 6E0D0000 		.4byte	.LLST91
 3440 0f96 19       		.uleb128 0x19
 3441 0f97 1A000000 		.4byte	.LVL222
 3442 0f9b B50E0000 		.4byte	0xeb5
 3443 0f9f 1A       		.uleb128 0x1a
 3444 0fa0 01       		.uleb128 0x1
 3445 0fa1 50       		.byte	0x50
 3446 0fa2 02       		.uleb128 0x2
 3447 0fa3 76       		.byte	0x76
 3448 0fa4 00       		.sleb128 0
 3449 0fa5 1A       		.uleb128 0x1a
 3450 0fa6 01       		.uleb128 0x1
 3451 0fa7 51       		.byte	0x51
 3452 0fa8 02       		.uleb128 0x2
 3453 0fa9 74       		.byte	0x74
 3454 0faa 00       		.sleb128 0
 3455 0fab 00       		.byte	0
 3456 0fac 00       		.byte	0
 3457 0fad 25       		.uleb128 0x25
 3458 0fae AB060000 		.4byte	.LASF139
 3459 0fb2 01       		.byte	0x1
 3460 0fb3 62       		.byte	0x62
 3461 0fb4 D0000000 		.4byte	0xd0
 3462 0fb8 00000000 		.4byte	.LFB46
 3463 0fbc 1C000000 		.4byte	.LFE46-.LFB46
 3464 0fc0 01       		.uleb128 0x1
 3465 0fc1 9C       		.byte	0x9c
 3466 0fc2 F50F0000 		.4byte	0xff5
 3467 0fc6 28       		.uleb128 0x28
 3468 0fc7 7D040000 		.4byte	.LASF97
 3469 0fcb 01       		.byte	0x1
 3470 0fcc 64       		.byte	0x64
 3471 0fcd F4000000 		.4byte	0xf4
 3472 0fd1 980D0000 		.4byte	.LLST92
 3473 0fd5 28       		.uleb128 0x28
 3474 0fd6 72040000 		.4byte	.LASF138
 3475 0fda 01       		.byte	0x1
 3476 0fdb 65       		.byte	0x65
 3477 0fdc D0000000 		.4byte	0xd0
 3478 0fe0 DA0D0000 		.4byte	.LLST93
 3479 0fe4 19       		.uleb128 0x19
 3480 0fe5 0E000000 		.4byte	.LVL231
 3481 0fe9 320F0000 		.4byte	0xf32
 3482 0fed 1A       		.uleb128 0x1a
 3483 0fee 01       		.uleb128 0x1
 3484 0fef 50       		.byte	0x50
ARM GAS  C:\Users\PC\AppData\Local\Temp\ccyhv7od.s 			page 95


 3485 0ff0 02       		.uleb128 0x2
 3486 0ff1 74       		.byte	0x74
 3487 0ff2 00       		.sleb128 0
 3488 0ff3 00       		.byte	0
 3489 0ff4 00       		.byte	0
 3490 0ff5 29       		.uleb128 0x29
 3491 0ff6 76010000 		.4byte	.LASF145
 3492 0ffa 07       		.byte	0x7
 3493 0ffb A704     		.2byte	0x4a7
 3494 0ffd 01100000 		.4byte	0x1001
 3495 1001 1C       		.uleb128 0x1c
 3496 1002 49040000 		.4byte	0x449
 3497 1006 2A       		.uleb128 0x2a
 3498 1007 36080000 		.4byte	.LASF140
 3499 100b 36080000 		.4byte	.LASF140
 3500 100f 06       		.byte	0x6
 3501 1010 B8       		.byte	0xb8
 3502 1011 2A       		.uleb128 0x2a
 3503 1012 14000000 		.4byte	.LASF141
 3504 1016 14000000 		.4byte	.LASF141
 3505 101a 06       		.byte	0x6
 3506 101b BC       		.byte	0xbc
 3507 101c 00       		.byte	0
 3508              		.section	.debug_abbrev,"",%progbits
 3509              	.Ldebug_abbrev0:
 3510 0000 01       		.uleb128 0x1
 3511 0001 11       		.uleb128 0x11
 3512 0002 01       		.byte	0x1
 3513 0003 25       		.uleb128 0x25
 3514 0004 0E       		.uleb128 0xe
 3515 0005 13       		.uleb128 0x13
 3516 0006 0B       		.uleb128 0xb
 3517 0007 03       		.uleb128 0x3
 3518 0008 0E       		.uleb128 0xe
 3519 0009 1B       		.uleb128 0x1b
 3520 000a 0E       		.uleb128 0xe
 3521 000b 55       		.uleb128 0x55
 3522 000c 17       		.uleb128 0x17
 3523 000d 11       		.uleb128 0x11
 3524 000e 01       		.uleb128 0x1
 3525 000f 10       		.uleb128 0x10
 3526 0010 17       		.uleb128 0x17
 3527 0011 00       		.byte	0
 3528 0012 00       		.byte	0
 3529 0013 02       		.uleb128 0x2
 3530 0014 24       		.uleb128 0x24
 3531 0015 00       		.byte	0
 3532 0016 0B       		.uleb128 0xb
 3533 0017 0B       		.uleb128 0xb
 3534 0018 3E       		.uleb128 0x3e
 3535 0019 0B       		.uleb128 0xb
 3536 001a 03       		.uleb128 0x3
 3537 001b 08       		.uleb128 0x8
 3538 001c 00       		.byte	0
 3539 001d 00       		.byte	0
 3540 001e 03       		.uleb128 0x3
 3541 001f 24       		.uleb128 0x24
ARM GAS  C:\Users\PC\AppData\Local\Temp\ccyhv7od.s 			page 96


 3542 0020 00       		.byte	0
 3543 0021 0B       		.uleb128 0xb
 3544 0022 0B       		.uleb128 0xb
 3545 0023 3E       		.uleb128 0x3e
 3546 0024 0B       		.uleb128 0xb
 3547 0025 03       		.uleb128 0x3
 3548 0026 0E       		.uleb128 0xe
 3549 0027 00       		.byte	0
 3550 0028 00       		.byte	0
 3551 0029 04       		.uleb128 0x4
 3552 002a 16       		.uleb128 0x16
 3553 002b 00       		.byte	0
 3554 002c 03       		.uleb128 0x3
 3555 002d 0E       		.uleb128 0xe
 3556 002e 3A       		.uleb128 0x3a
 3557 002f 0B       		.uleb128 0xb
 3558 0030 3B       		.uleb128 0x3b
 3559 0031 0B       		.uleb128 0xb
 3560 0032 49       		.uleb128 0x49
 3561 0033 13       		.uleb128 0x13
 3562 0034 00       		.byte	0
 3563 0035 00       		.byte	0
 3564 0036 05       		.uleb128 0x5
 3565 0037 16       		.uleb128 0x16
 3566 0038 00       		.byte	0
 3567 0039 03       		.uleb128 0x3
 3568 003a 0E       		.uleb128 0xe
 3569 003b 3A       		.uleb128 0x3a
 3570 003c 0B       		.uleb128 0xb
 3571 003d 3B       		.uleb128 0x3b
 3572 003e 05       		.uleb128 0x5
 3573 003f 49       		.uleb128 0x49
 3574 0040 13       		.uleb128 0x13
 3575 0041 00       		.byte	0
 3576 0042 00       		.byte	0
 3577 0043 06       		.uleb128 0x6
 3578 0044 13       		.uleb128 0x13
 3579 0045 01       		.byte	0x1
 3580 0046 0B       		.uleb128 0xb
 3581 0047 0B       		.uleb128 0xb
 3582 0048 3A       		.uleb128 0x3a
 3583 0049 0B       		.uleb128 0xb
 3584 004a 3B       		.uleb128 0x3b
 3585 004b 0B       		.uleb128 0xb
 3586 004c 01       		.uleb128 0x1
 3587 004d 13       		.uleb128 0x13
 3588 004e 00       		.byte	0
 3589 004f 00       		.byte	0
 3590 0050 07       		.uleb128 0x7
 3591 0051 0D       		.uleb128 0xd
 3592 0052 00       		.byte	0
 3593 0053 03       		.uleb128 0x3
 3594 0054 0E       		.uleb128 0xe
 3595 0055 3A       		.uleb128 0x3a
 3596 0056 0B       		.uleb128 0xb
 3597 0057 3B       		.uleb128 0x3b
 3598 0058 0B       		.uleb128 0xb
ARM GAS  C:\Users\PC\AppData\Local\Temp\ccyhv7od.s 			page 97


 3599 0059 49       		.uleb128 0x49
 3600 005a 13       		.uleb128 0x13
 3601 005b 38       		.uleb128 0x38
 3602 005c 0B       		.uleb128 0xb
 3603 005d 00       		.byte	0
 3604 005e 00       		.byte	0
 3605 005f 08       		.uleb128 0x8
 3606 0060 04       		.uleb128 0x4
 3607 0061 01       		.byte	0x1
 3608 0062 0B       		.uleb128 0xb
 3609 0063 0B       		.uleb128 0xb
 3610 0064 49       		.uleb128 0x49
 3611 0065 13       		.uleb128 0x13
 3612 0066 3A       		.uleb128 0x3a
 3613 0067 0B       		.uleb128 0xb
 3614 0068 3B       		.uleb128 0x3b
 3615 0069 0B       		.uleb128 0xb
 3616 006a 01       		.uleb128 0x1
 3617 006b 13       		.uleb128 0x13
 3618 006c 00       		.byte	0
 3619 006d 00       		.byte	0
 3620 006e 09       		.uleb128 0x9
 3621 006f 28       		.uleb128 0x28
 3622 0070 00       		.byte	0
 3623 0071 03       		.uleb128 0x3
 3624 0072 0E       		.uleb128 0xe
 3625 0073 1C       		.uleb128 0x1c
 3626 0074 0B       		.uleb128 0xb
 3627 0075 00       		.byte	0
 3628 0076 00       		.byte	0
 3629 0077 0A       		.uleb128 0xa
 3630 0078 01       		.uleb128 0x1
 3631 0079 01       		.byte	0x1
 3632 007a 49       		.uleb128 0x49
 3633 007b 13       		.uleb128 0x13
 3634 007c 01       		.uleb128 0x1
 3635 007d 13       		.uleb128 0x13
 3636 007e 00       		.byte	0
 3637 007f 00       		.byte	0
 3638 0080 0B       		.uleb128 0xb
 3639 0081 21       		.uleb128 0x21
 3640 0082 00       		.byte	0
 3641 0083 49       		.uleb128 0x49
 3642 0084 13       		.uleb128 0x13
 3643 0085 2F       		.uleb128 0x2f
 3644 0086 0B       		.uleb128 0xb
 3645 0087 00       		.byte	0
 3646 0088 00       		.byte	0
 3647 0089 0C       		.uleb128 0xc
 3648 008a 13       		.uleb128 0x13
 3649 008b 01       		.byte	0x1
 3650 008c 0B       		.uleb128 0xb
 3651 008d 0B       		.uleb128 0xb
 3652 008e 3A       		.uleb128 0x3a
 3653 008f 0B       		.uleb128 0xb
 3654 0090 3B       		.uleb128 0x3b
 3655 0091 05       		.uleb128 0x5
ARM GAS  C:\Users\PC\AppData\Local\Temp\ccyhv7od.s 			page 98


 3656 0092 01       		.uleb128 0x1
 3657 0093 13       		.uleb128 0x13
 3658 0094 00       		.byte	0
 3659 0095 00       		.byte	0
 3660 0096 0D       		.uleb128 0xd
 3661 0097 0D       		.uleb128 0xd
 3662 0098 00       		.byte	0
 3663 0099 03       		.uleb128 0x3
 3664 009a 08       		.uleb128 0x8
 3665 009b 3A       		.uleb128 0x3a
 3666 009c 0B       		.uleb128 0xb
 3667 009d 3B       		.uleb128 0x3b
 3668 009e 05       		.uleb128 0x5
 3669 009f 49       		.uleb128 0x49
 3670 00a0 13       		.uleb128 0x13
 3671 00a1 38       		.uleb128 0x38
 3672 00a2 0B       		.uleb128 0xb
 3673 00a3 00       		.byte	0
 3674 00a4 00       		.byte	0
 3675 00a5 0E       		.uleb128 0xe
 3676 00a6 0D       		.uleb128 0xd
 3677 00a7 00       		.byte	0
 3678 00a8 03       		.uleb128 0x3
 3679 00a9 0E       		.uleb128 0xe
 3680 00aa 3A       		.uleb128 0x3a
 3681 00ab 0B       		.uleb128 0xb
 3682 00ac 3B       		.uleb128 0x3b
 3683 00ad 05       		.uleb128 0x5
 3684 00ae 49       		.uleb128 0x49
 3685 00af 13       		.uleb128 0x13
 3686 00b0 38       		.uleb128 0x38
 3687 00b1 0B       		.uleb128 0xb
 3688 00b2 00       		.byte	0
 3689 00b3 00       		.byte	0
 3690 00b4 0F       		.uleb128 0xf
 3691 00b5 0F       		.uleb128 0xf
 3692 00b6 00       		.byte	0
 3693 00b7 0B       		.uleb128 0xb
 3694 00b8 0B       		.uleb128 0xb
 3695 00b9 49       		.uleb128 0x49
 3696 00ba 13       		.uleb128 0x13
 3697 00bb 00       		.byte	0
 3698 00bc 00       		.byte	0
 3699 00bd 10       		.uleb128 0x10
 3700 00be 26       		.uleb128 0x26
 3701 00bf 00       		.byte	0
 3702 00c0 00       		.byte	0
 3703 00c1 00       		.byte	0
 3704 00c2 11       		.uleb128 0x11
 3705 00c3 0F       		.uleb128 0xf
 3706 00c4 00       		.byte	0
 3707 00c5 0B       		.uleb128 0xb
 3708 00c6 0B       		.uleb128 0xb
 3709 00c7 00       		.byte	0
 3710 00c8 00       		.byte	0
 3711 00c9 12       		.uleb128 0x12
 3712 00ca 17       		.uleb128 0x17
ARM GAS  C:\Users\PC\AppData\Local\Temp\ccyhv7od.s 			page 99


 3713 00cb 01       		.byte	0x1
 3714 00cc 0B       		.uleb128 0xb
 3715 00cd 0B       		.uleb128 0xb
 3716 00ce 3A       		.uleb128 0x3a
 3717 00cf 0B       		.uleb128 0xb
 3718 00d0 3B       		.uleb128 0x3b
 3719 00d1 05       		.uleb128 0x5
 3720 00d2 01       		.uleb128 0x1
 3721 00d3 13       		.uleb128 0x13
 3722 00d4 00       		.byte	0
 3723 00d5 00       		.byte	0
 3724 00d6 13       		.uleb128 0x13
 3725 00d7 0D       		.uleb128 0xd
 3726 00d8 00       		.byte	0
 3727 00d9 03       		.uleb128 0x3
 3728 00da 08       		.uleb128 0x8
 3729 00db 3A       		.uleb128 0x3a
 3730 00dc 0B       		.uleb128 0xb
 3731 00dd 3B       		.uleb128 0x3b
 3732 00de 05       		.uleb128 0x5
 3733 00df 49       		.uleb128 0x49
 3734 00e0 13       		.uleb128 0x13
 3735 00e1 00       		.byte	0
 3736 00e2 00       		.byte	0
 3737 00e3 14       		.uleb128 0x14
 3738 00e4 0D       		.uleb128 0xd
 3739 00e5 00       		.byte	0
 3740 00e6 03       		.uleb128 0x3
 3741 00e7 0E       		.uleb128 0xe
 3742 00e8 3A       		.uleb128 0x3a
 3743 00e9 0B       		.uleb128 0xb
 3744 00ea 3B       		.uleb128 0x3b
 3745 00eb 05       		.uleb128 0x5
 3746 00ec 49       		.uleb128 0x49
 3747 00ed 13       		.uleb128 0x13
 3748 00ee 00       		.byte	0
 3749 00ef 00       		.byte	0
 3750 00f0 15       		.uleb128 0x15
 3751 00f1 2E       		.uleb128 0x2e
 3752 00f2 01       		.byte	0x1
 3753 00f3 3F       		.uleb128 0x3f
 3754 00f4 19       		.uleb128 0x19
 3755 00f5 03       		.uleb128 0x3
 3756 00f6 0E       		.uleb128 0xe
 3757 00f7 3A       		.uleb128 0x3a
 3758 00f8 0B       		.uleb128 0xb
 3759 00f9 3B       		.uleb128 0x3b
 3760 00fa 05       		.uleb128 0x5
 3761 00fb 27       		.uleb128 0x27
 3762 00fc 19       		.uleb128 0x19
 3763 00fd 11       		.uleb128 0x11
 3764 00fe 01       		.uleb128 0x1
 3765 00ff 12       		.uleb128 0x12
 3766 0100 06       		.uleb128 0x6
 3767 0101 40       		.uleb128 0x40
 3768 0102 18       		.uleb128 0x18
 3769 0103 9742     		.uleb128 0x2117
ARM GAS  C:\Users\PC\AppData\Local\Temp\ccyhv7od.s 			page 100


 3770 0105 19       		.uleb128 0x19
 3771 0106 01       		.uleb128 0x1
 3772 0107 13       		.uleb128 0x13
 3773 0108 00       		.byte	0
 3774 0109 00       		.byte	0
 3775 010a 16       		.uleb128 0x16
 3776 010b 05       		.uleb128 0x5
 3777 010c 00       		.byte	0
 3778 010d 03       		.uleb128 0x3
 3779 010e 0E       		.uleb128 0xe
 3780 010f 3A       		.uleb128 0x3a
 3781 0110 0B       		.uleb128 0xb
 3782 0111 3B       		.uleb128 0x3b
 3783 0112 05       		.uleb128 0x5
 3784 0113 49       		.uleb128 0x49
 3785 0114 13       		.uleb128 0x13
 3786 0115 02       		.uleb128 0x2
 3787 0116 18       		.uleb128 0x18
 3788 0117 00       		.byte	0
 3789 0118 00       		.byte	0
 3790 0119 17       		.uleb128 0x17
 3791 011a 05       		.uleb128 0x5
 3792 011b 00       		.byte	0
 3793 011c 03       		.uleb128 0x3
 3794 011d 0E       		.uleb128 0xe
 3795 011e 3A       		.uleb128 0x3a
 3796 011f 0B       		.uleb128 0xb
 3797 0120 3B       		.uleb128 0x3b
 3798 0121 05       		.uleb128 0x5
 3799 0122 49       		.uleb128 0x49
 3800 0123 13       		.uleb128 0x13
 3801 0124 02       		.uleb128 0x2
 3802 0125 17       		.uleb128 0x17
 3803 0126 00       		.byte	0
 3804 0127 00       		.byte	0
 3805 0128 18       		.uleb128 0x18
 3806 0129 34       		.uleb128 0x34
 3807 012a 00       		.byte	0
 3808 012b 03       		.uleb128 0x3
 3809 012c 0E       		.uleb128 0xe
 3810 012d 3A       		.uleb128 0x3a
 3811 012e 0B       		.uleb128 0xb
 3812 012f 3B       		.uleb128 0x3b
 3813 0130 05       		.uleb128 0x5
 3814 0131 49       		.uleb128 0x49
 3815 0132 13       		.uleb128 0x13
 3816 0133 02       		.uleb128 0x2
 3817 0134 17       		.uleb128 0x17
 3818 0135 00       		.byte	0
 3819 0136 00       		.byte	0
 3820 0137 19       		.uleb128 0x19
 3821 0138 898201   		.uleb128 0x4109
 3822 013b 01       		.byte	0x1
 3823 013c 11       		.uleb128 0x11
 3824 013d 01       		.uleb128 0x1
 3825 013e 31       		.uleb128 0x31
 3826 013f 13       		.uleb128 0x13
ARM GAS  C:\Users\PC\AppData\Local\Temp\ccyhv7od.s 			page 101


 3827 0140 00       		.byte	0
 3828 0141 00       		.byte	0
 3829 0142 1A       		.uleb128 0x1a
 3830 0143 8A8201   		.uleb128 0x410a
 3831 0146 00       		.byte	0
 3832 0147 02       		.uleb128 0x2
 3833 0148 18       		.uleb128 0x18
 3834 0149 9142     		.uleb128 0x2111
 3835 014b 18       		.uleb128 0x18
 3836 014c 00       		.byte	0
 3837 014d 00       		.byte	0
 3838 014e 1B       		.uleb128 0x1b
 3839 014f 898201   		.uleb128 0x4109
 3840 0152 00       		.byte	0
 3841 0153 11       		.uleb128 0x11
 3842 0154 01       		.uleb128 0x1
 3843 0155 31       		.uleb128 0x31
 3844 0156 13       		.uleb128 0x13
 3845 0157 00       		.byte	0
 3846 0158 00       		.byte	0
 3847 0159 1C       		.uleb128 0x1c
 3848 015a 26       		.uleb128 0x26
 3849 015b 00       		.byte	0
 3850 015c 49       		.uleb128 0x49
 3851 015d 13       		.uleb128 0x13
 3852 015e 00       		.byte	0
 3853 015f 00       		.byte	0
 3854 0160 1D       		.uleb128 0x1d
 3855 0161 34       		.uleb128 0x34
 3856 0162 00       		.byte	0
 3857 0163 03       		.uleb128 0x3
 3858 0164 0E       		.uleb128 0xe
 3859 0165 3A       		.uleb128 0x3a
 3860 0166 0B       		.uleb128 0xb
 3861 0167 3B       		.uleb128 0x3b
 3862 0168 05       		.uleb128 0x5
 3863 0169 49       		.uleb128 0x49
 3864 016a 13       		.uleb128 0x13
 3865 016b 00       		.byte	0
 3866 016c 00       		.byte	0
 3867 016d 1E       		.uleb128 0x1e
 3868 016e 898201   		.uleb128 0x4109
 3869 0171 01       		.byte	0x1
 3870 0172 11       		.uleb128 0x11
 3871 0173 01       		.uleb128 0x1
 3872 0174 31       		.uleb128 0x31
 3873 0175 13       		.uleb128 0x13
 3874 0176 01       		.uleb128 0x1
 3875 0177 13       		.uleb128 0x13
 3876 0178 00       		.byte	0
 3877 0179 00       		.byte	0
 3878 017a 1F       		.uleb128 0x1f
 3879 017b 2E       		.uleb128 0x2e
 3880 017c 01       		.byte	0x1
 3881 017d 3F       		.uleb128 0x3f
 3882 017e 19       		.uleb128 0x19
 3883 017f 03       		.uleb128 0x3
ARM GAS  C:\Users\PC\AppData\Local\Temp\ccyhv7od.s 			page 102


 3884 0180 0E       		.uleb128 0xe
 3885 0181 3A       		.uleb128 0x3a
 3886 0182 0B       		.uleb128 0xb
 3887 0183 3B       		.uleb128 0x3b
 3888 0184 0B       		.uleb128 0xb
 3889 0185 27       		.uleb128 0x27
 3890 0186 19       		.uleb128 0x19
 3891 0187 11       		.uleb128 0x11
 3892 0188 01       		.uleb128 0x1
 3893 0189 12       		.uleb128 0x12
 3894 018a 06       		.uleb128 0x6
 3895 018b 40       		.uleb128 0x40
 3896 018c 18       		.uleb128 0x18
 3897 018d 9742     		.uleb128 0x2117
 3898 018f 19       		.uleb128 0x19
 3899 0190 01       		.uleb128 0x1
 3900 0191 13       		.uleb128 0x13
 3901 0192 00       		.byte	0
 3902 0193 00       		.byte	0
 3903 0194 20       		.uleb128 0x20
 3904 0195 2E       		.uleb128 0x2e
 3905 0196 01       		.byte	0x1
 3906 0197 3F       		.uleb128 0x3f
 3907 0198 19       		.uleb128 0x19
 3908 0199 03       		.uleb128 0x3
 3909 019a 0E       		.uleb128 0xe
 3910 019b 3A       		.uleb128 0x3a
 3911 019c 0B       		.uleb128 0xb
 3912 019d 3B       		.uleb128 0x3b
 3913 019e 05       		.uleb128 0x5
 3914 019f 27       		.uleb128 0x27
 3915 01a0 19       		.uleb128 0x19
 3916 01a1 49       		.uleb128 0x49
 3917 01a2 13       		.uleb128 0x13
 3918 01a3 11       		.uleb128 0x11
 3919 01a4 01       		.uleb128 0x1
 3920 01a5 12       		.uleb128 0x12
 3921 01a6 06       		.uleb128 0x6
 3922 01a7 40       		.uleb128 0x40
 3923 01a8 18       		.uleb128 0x18
 3924 01a9 9742     		.uleb128 0x2117
 3925 01ab 19       		.uleb128 0x19
 3926 01ac 01       		.uleb128 0x1
 3927 01ad 13       		.uleb128 0x13
 3928 01ae 00       		.byte	0
 3929 01af 00       		.byte	0
 3930 01b0 21       		.uleb128 0x21
 3931 01b1 05       		.uleb128 0x5
 3932 01b2 00       		.byte	0
 3933 01b3 03       		.uleb128 0x3
 3934 01b4 08       		.uleb128 0x8
 3935 01b5 3A       		.uleb128 0x3a
 3936 01b6 0B       		.uleb128 0xb
 3937 01b7 3B       		.uleb128 0x3b
 3938 01b8 05       		.uleb128 0x5
 3939 01b9 49       		.uleb128 0x49
 3940 01ba 13       		.uleb128 0x13
ARM GAS  C:\Users\PC\AppData\Local\Temp\ccyhv7od.s 			page 103


 3941 01bb 02       		.uleb128 0x2
 3942 01bc 17       		.uleb128 0x17
 3943 01bd 00       		.byte	0
 3944 01be 00       		.byte	0
 3945 01bf 22       		.uleb128 0x22
 3946 01c0 05       		.uleb128 0x5
 3947 01c1 00       		.byte	0
 3948 01c2 03       		.uleb128 0x3
 3949 01c3 08       		.uleb128 0x8
 3950 01c4 3A       		.uleb128 0x3a
 3951 01c5 0B       		.uleb128 0xb
 3952 01c6 3B       		.uleb128 0x3b
 3953 01c7 05       		.uleb128 0x5
 3954 01c8 49       		.uleb128 0x49
 3955 01c9 13       		.uleb128 0x13
 3956 01ca 02       		.uleb128 0x2
 3957 01cb 18       		.uleb128 0x18
 3958 01cc 00       		.byte	0
 3959 01cd 00       		.byte	0
 3960 01ce 23       		.uleb128 0x23
 3961 01cf 34       		.uleb128 0x34
 3962 01d0 00       		.byte	0
 3963 01d1 03       		.uleb128 0x3
 3964 01d2 08       		.uleb128 0x8
 3965 01d3 3A       		.uleb128 0x3a
 3966 01d4 0B       		.uleb128 0xb
 3967 01d5 3B       		.uleb128 0x3b
 3968 01d6 05       		.uleb128 0x5
 3969 01d7 49       		.uleb128 0x49
 3970 01d8 13       		.uleb128 0x13
 3971 01d9 00       		.byte	0
 3972 01da 00       		.byte	0
 3973 01db 24       		.uleb128 0x24
 3974 01dc 34       		.uleb128 0x34
 3975 01dd 00       		.byte	0
 3976 01de 03       		.uleb128 0x3
 3977 01df 0E       		.uleb128 0xe
 3978 01e0 3A       		.uleb128 0x3a
 3979 01e1 0B       		.uleb128 0xb
 3980 01e2 3B       		.uleb128 0x3b
 3981 01e3 05       		.uleb128 0x5
 3982 01e4 49       		.uleb128 0x49
 3983 01e5 13       		.uleb128 0x13
 3984 01e6 02       		.uleb128 0x2
 3985 01e7 18       		.uleb128 0x18
 3986 01e8 00       		.byte	0
 3987 01e9 00       		.byte	0
 3988 01ea 25       		.uleb128 0x25
 3989 01eb 2E       		.uleb128 0x2e
 3990 01ec 01       		.byte	0x1
 3991 01ed 3F       		.uleb128 0x3f
 3992 01ee 19       		.uleb128 0x19
 3993 01ef 03       		.uleb128 0x3
 3994 01f0 0E       		.uleb128 0xe
 3995 01f1 3A       		.uleb128 0x3a
 3996 01f2 0B       		.uleb128 0xb
 3997 01f3 3B       		.uleb128 0x3b
ARM GAS  C:\Users\PC\AppData\Local\Temp\ccyhv7od.s 			page 104


 3998 01f4 0B       		.uleb128 0xb
 3999 01f5 27       		.uleb128 0x27
 4000 01f6 19       		.uleb128 0x19
 4001 01f7 49       		.uleb128 0x49
 4002 01f8 13       		.uleb128 0x13
 4003 01f9 11       		.uleb128 0x11
 4004 01fa 01       		.uleb128 0x1
 4005 01fb 12       		.uleb128 0x12
 4006 01fc 06       		.uleb128 0x6
 4007 01fd 40       		.uleb128 0x40
 4008 01fe 18       		.uleb128 0x18
 4009 01ff 9742     		.uleb128 0x2117
 4010 0201 19       		.uleb128 0x19
 4011 0202 01       		.uleb128 0x1
 4012 0203 13       		.uleb128 0x13
 4013 0204 00       		.byte	0
 4014 0205 00       		.byte	0
 4015 0206 26       		.uleb128 0x26
 4016 0207 34       		.uleb128 0x34
 4017 0208 00       		.byte	0
 4018 0209 03       		.uleb128 0x3
 4019 020a 0E       		.uleb128 0xe
 4020 020b 3A       		.uleb128 0x3a
 4021 020c 0B       		.uleb128 0xb
 4022 020d 3B       		.uleb128 0x3b
 4023 020e 05       		.uleb128 0x5
 4024 020f 49       		.uleb128 0x49
 4025 0210 13       		.uleb128 0x13
 4026 0211 1C       		.uleb128 0x1c
 4027 0212 0B       		.uleb128 0xb
 4028 0213 00       		.byte	0
 4029 0214 00       		.byte	0
 4030 0215 27       		.uleb128 0x27
 4031 0216 05       		.uleb128 0x5
 4032 0217 00       		.byte	0
 4033 0218 03       		.uleb128 0x3
 4034 0219 0E       		.uleb128 0xe
 4035 021a 3A       		.uleb128 0x3a
 4036 021b 0B       		.uleb128 0xb
 4037 021c 3B       		.uleb128 0x3b
 4038 021d 0B       		.uleb128 0xb
 4039 021e 49       		.uleb128 0x49
 4040 021f 13       		.uleb128 0x13
 4041 0220 02       		.uleb128 0x2
 4042 0221 17       		.uleb128 0x17
 4043 0222 00       		.byte	0
 4044 0223 00       		.byte	0
 4045 0224 28       		.uleb128 0x28
 4046 0225 34       		.uleb128 0x34
 4047 0226 00       		.byte	0
 4048 0227 03       		.uleb128 0x3
 4049 0228 0E       		.uleb128 0xe
 4050 0229 3A       		.uleb128 0x3a
 4051 022a 0B       		.uleb128 0xb
 4052 022b 3B       		.uleb128 0x3b
 4053 022c 0B       		.uleb128 0xb
 4054 022d 49       		.uleb128 0x49
ARM GAS  C:\Users\PC\AppData\Local\Temp\ccyhv7od.s 			page 105


 4055 022e 13       		.uleb128 0x13
 4056 022f 02       		.uleb128 0x2
 4057 0230 17       		.uleb128 0x17
 4058 0231 00       		.byte	0
 4059 0232 00       		.byte	0
 4060 0233 29       		.uleb128 0x29
 4061 0234 34       		.uleb128 0x34
 4062 0235 00       		.byte	0
 4063 0236 03       		.uleb128 0x3
 4064 0237 0E       		.uleb128 0xe
 4065 0238 3A       		.uleb128 0x3a
 4066 0239 0B       		.uleb128 0xb
 4067 023a 3B       		.uleb128 0x3b
 4068 023b 05       		.uleb128 0x5
 4069 023c 49       		.uleb128 0x49
 4070 023d 13       		.uleb128 0x13
 4071 023e 3F       		.uleb128 0x3f
 4072 023f 19       		.uleb128 0x19
 4073 0240 3C       		.uleb128 0x3c
 4074 0241 19       		.uleb128 0x19
 4075 0242 00       		.byte	0
 4076 0243 00       		.byte	0
 4077 0244 2A       		.uleb128 0x2a
 4078 0245 2E       		.uleb128 0x2e
 4079 0246 00       		.byte	0
 4080 0247 3F       		.uleb128 0x3f
 4081 0248 19       		.uleb128 0x19
 4082 0249 3C       		.uleb128 0x3c
 4083 024a 19       		.uleb128 0x19
 4084 024b 6E       		.uleb128 0x6e
 4085 024c 0E       		.uleb128 0xe
 4086 024d 03       		.uleb128 0x3
 4087 024e 0E       		.uleb128 0xe
 4088 024f 3A       		.uleb128 0x3a
 4089 0250 0B       		.uleb128 0xb
 4090 0251 3B       		.uleb128 0x3b
 4091 0252 0B       		.uleb128 0xb
 4092 0253 00       		.byte	0
 4093 0254 00       		.byte	0
 4094 0255 00       		.byte	0
 4095              		.section	.debug_loc,"",%progbits
 4096              	.Ldebug_loc0:
 4097              	.LLST0:
 4098 0000 00000000 		.4byte	.LVL0
 4099 0004 04000000 		.4byte	.LVL1
 4100 0008 0100     		.2byte	0x1
 4101 000a 51       		.byte	0x51
 4102 000b 04000000 		.4byte	.LVL1
 4103 000f 1E000000 		.4byte	.LFE54
 4104 0013 0400     		.2byte	0x4
 4105 0015 F3       		.byte	0xf3
 4106 0016 01       		.uleb128 0x1
 4107 0017 51       		.byte	0x51
 4108 0018 9F       		.byte	0x9f
 4109 0019 00000000 		.4byte	0
 4110 001d 00000000 		.4byte	0
 4111              	.LLST1:
ARM GAS  C:\Users\PC\AppData\Local\Temp\ccyhv7od.s 			page 106


 4112 0021 00000000 		.4byte	.LVL0
 4113 0025 18000000 		.4byte	.LVL2
 4114 0029 0100     		.2byte	0x1
 4115 002b 52       		.byte	0x52
 4116 002c 18000000 		.4byte	.LVL2
 4117 0030 1E000000 		.4byte	.LFE54
 4118 0034 0400     		.2byte	0x4
 4119 0036 F3       		.byte	0xf3
 4120 0037 01       		.uleb128 0x1
 4121 0038 52       		.byte	0x52
 4122 0039 9F       		.byte	0x9f
 4123 003a 00000000 		.4byte	0
 4124 003e 00000000 		.4byte	0
 4125              	.LLST2:
 4126 0042 00000000 		.4byte	.LVL3
 4127 0046 0A000000 		.4byte	.LVL5
 4128 004a 0100     		.2byte	0x1
 4129 004c 50       		.byte	0x50
 4130 004d 0A000000 		.4byte	.LVL5
 4131 0051 1C000000 		.4byte	.LVL11
 4132 0055 0100     		.2byte	0x1
 4133 0057 56       		.byte	0x56
 4134 0058 1C000000 		.4byte	.LVL11
 4135 005c 1E000000 		.4byte	.LFE53
 4136 0060 0400     		.2byte	0x4
 4137 0062 F3       		.byte	0xf3
 4138 0063 01       		.uleb128 0x1
 4139 0064 50       		.byte	0x50
 4140 0065 9F       		.byte	0x9f
 4141 0066 00000000 		.4byte	0
 4142 006a 00000000 		.4byte	0
 4143              	.LLST3:
 4144 006e 00000000 		.4byte	.LVL3
 4145 0072 0A000000 		.4byte	.LVL5
 4146 0076 0100     		.2byte	0x1
 4147 0078 51       		.byte	0x51
 4148 0079 0A000000 		.4byte	.LVL5
 4149 007d 1C000000 		.4byte	.LVL10
 4150 0081 0100     		.2byte	0x1
 4151 0083 55       		.byte	0x55
 4152 0084 1C000000 		.4byte	.LVL10
 4153 0088 1E000000 		.4byte	.LFE53
 4154 008c 0400     		.2byte	0x4
 4155 008e F3       		.byte	0xf3
 4156 008f 01       		.uleb128 0x1
 4157 0090 51       		.byte	0x51
 4158 0091 9F       		.byte	0x9f
 4159 0092 00000000 		.4byte	0
 4160 0096 00000000 		.4byte	0
 4161              	.LLST4:
 4162 009a 06000000 		.4byte	.LVL4
 4163 009e 0A000000 		.4byte	.LVL5
 4164 00a2 0200     		.2byte	0x2
 4165 00a4 31       		.byte	0x31
 4166 00a5 9F       		.byte	0x9f
 4167 00a6 0A000000 		.4byte	.LVL5
 4168 00aa 16000000 		.4byte	.LVL7
ARM GAS  C:\Users\PC\AppData\Local\Temp\ccyhv7od.s 			page 107


 4169 00ae 0100     		.2byte	0x1
 4170 00b0 54       		.byte	0x54
 4171 00b1 16000000 		.4byte	.LVL7
 4172 00b5 18000000 		.4byte	.LVL8
 4173 00b9 0100     		.2byte	0x1
 4174 00bb 53       		.byte	0x53
 4175 00bc 18000000 		.4byte	.LVL8
 4176 00c0 1C000000 		.4byte	.LVL9
 4177 00c4 0100     		.2byte	0x1
 4178 00c6 54       		.byte	0x54
 4179 00c7 1C000000 		.4byte	.LVL9
 4180 00cb 1E000000 		.4byte	.LFE53
 4181 00cf 0300     		.2byte	0x3
 4182 00d1 73       		.byte	0x73
 4183 00d2 7F       		.sleb128 -1
 4184 00d3 9F       		.byte	0x9f
 4185 00d4 00000000 		.4byte	0
 4186 00d8 00000000 		.4byte	0
 4187              	.LLST5:
 4188 00dc 00000000 		.4byte	.LVL12
 4189 00e0 06000000 		.4byte	.LVL14
 4190 00e4 0100     		.2byte	0x1
 4191 00e6 50       		.byte	0x50
 4192 00e7 06000000 		.4byte	.LVL14
 4193 00eb 24000000 		.4byte	.LFE52
 4194 00ef 0400     		.2byte	0x4
 4195 00f1 F3       		.byte	0xf3
 4196 00f2 01       		.uleb128 0x1
 4197 00f3 50       		.byte	0x50
 4198 00f4 9F       		.byte	0x9f
 4199 00f5 00000000 		.4byte	0
 4200 00f9 00000000 		.4byte	0
 4201              	.LLST6:
 4202 00fd 00000000 		.4byte	.LVL12
 4203 0101 0E000000 		.4byte	.LVL16
 4204 0105 0100     		.2byte	0x1
 4205 0107 51       		.byte	0x51
 4206 0108 0E000000 		.4byte	.LVL16
 4207 010c 24000000 		.4byte	.LFE52
 4208 0110 0400     		.2byte	0x4
 4209 0112 F3       		.byte	0xf3
 4210 0113 01       		.uleb128 0x1
 4211 0114 51       		.byte	0x51
 4212 0115 9F       		.byte	0x9f
 4213 0116 00000000 		.4byte	0
 4214 011a 00000000 		.4byte	0
 4215              	.LLST7:
 4216 011e 02000000 		.4byte	.LVL13
 4217 0122 0A000000 		.4byte	.LVL15
 4218 0126 0200     		.2byte	0x2
 4219 0128 30       		.byte	0x30
 4220 0129 9F       		.byte	0x9f
 4221 012a 0A000000 		.4byte	.LVL15
 4222 012e 16000000 		.4byte	.LVL17
 4223 0132 0200     		.2byte	0x2
 4224 0134 73       		.byte	0x73
 4225 0135 08       		.sleb128 8
ARM GAS  C:\Users\PC\AppData\Local\Temp\ccyhv7od.s 			page 108


 4226 0136 16000000 		.4byte	.LVL17
 4227 013a 1B000000 		.4byte	.LVL18-1
 4228 013e 0100     		.2byte	0x1
 4229 0140 50       		.byte	0x50
 4230 0141 00000000 		.4byte	0
 4231 0145 00000000 		.4byte	0
 4232              	.LLST8:
 4233 0149 0A000000 		.4byte	.LVL15
 4234 014d 1B000000 		.4byte	.LVL18-1
 4235 0151 0100     		.2byte	0x1
 4236 0153 53       		.byte	0x53
 4237 0154 00000000 		.4byte	0
 4238 0158 00000000 		.4byte	0
 4239              	.LLST9:
 4240 015c 00000000 		.4byte	.LVL19
 4241 0160 10000000 		.4byte	.LVL23
 4242 0164 0100     		.2byte	0x1
 4243 0166 50       		.byte	0x50
 4244 0167 10000000 		.4byte	.LVL23
 4245 016b 20000000 		.4byte	.LVL28
 4246 016f 0100     		.2byte	0x1
 4247 0171 55       		.byte	0x55
 4248 0172 20000000 		.4byte	.LVL28
 4249 0176 28000000 		.4byte	.LFE51
 4250 017a 0400     		.2byte	0x4
 4251 017c F3       		.byte	0xf3
 4252 017d 01       		.uleb128 0x1
 4253 017e 50       		.byte	0x50
 4254 017f 9F       		.byte	0x9f
 4255 0180 00000000 		.4byte	0
 4256 0184 00000000 		.4byte	0
 4257              	.LLST10:
 4258 0188 0E000000 		.4byte	.LVL22
 4259 018c 10000000 		.4byte	.LVL23
 4260 0190 0100     		.2byte	0x1
 4261 0192 53       		.byte	0x53
 4262 0193 10000000 		.4byte	.LVL23
 4263 0197 1A000000 		.4byte	.LVL25
 4264 019b 0100     		.2byte	0x1
 4265 019d 54       		.byte	0x54
 4266 019e 1A000000 		.4byte	.LVL25
 4267 01a2 1C000000 		.4byte	.LVL26
 4268 01a6 0100     		.2byte	0x1
 4269 01a8 53       		.byte	0x53
 4270 01a9 1C000000 		.4byte	.LVL26
 4271 01ad 20000000 		.4byte	.LVL27
 4272 01b1 0100     		.2byte	0x1
 4273 01b3 54       		.byte	0x54
 4274 01b4 20000000 		.4byte	.LVL27
 4275 01b8 28000000 		.4byte	.LFE51
 4276 01bc 0300     		.2byte	0x3
 4277 01be 73       		.byte	0x73
 4278 01bf 7F       		.sleb128 -1
 4279 01c0 9F       		.byte	0x9f
 4280 01c1 00000000 		.4byte	0
 4281 01c5 00000000 		.4byte	0
 4282              	.LLST11:
ARM GAS  C:\Users\PC\AppData\Local\Temp\ccyhv7od.s 			page 109


 4283 01c9 0E000000 		.4byte	.LVL22
 4284 01cd 10000000 		.4byte	.LVL23
 4285 01d1 0100     		.2byte	0x1
 4286 01d3 53       		.byte	0x53
 4287 01d4 00000000 		.4byte	0
 4288 01d8 00000000 		.4byte	0
 4289              	.LLST12:
 4290 01dc 0C000000 		.4byte	.LVL21
 4291 01e0 0E000000 		.4byte	.LVL22
 4292 01e4 0100     		.2byte	0x1
 4293 01e6 53       		.byte	0x53
 4294 01e7 00000000 		.4byte	0
 4295 01eb 00000000 		.4byte	0
 4296              	.LLST13:
 4297 01ef 02000000 		.4byte	.LVL29
 4298 01f3 06000000 		.4byte	.LVL30
 4299 01f7 0200     		.2byte	0x2
 4300 01f9 33       		.byte	0x33
 4301 01fa 9F       		.byte	0x9f
 4302 01fb 06000000 		.4byte	.LVL30
 4303 01ff 0E000000 		.4byte	.LVL32
 4304 0203 0100     		.2byte	0x1
 4305 0205 54       		.byte	0x54
 4306 0206 0E000000 		.4byte	.LVL32
 4307 020a 10000000 		.4byte	.LVL33
 4308 020e 0100     		.2byte	0x1
 4309 0210 53       		.byte	0x53
 4310 0211 10000000 		.4byte	.LVL33
 4311 0215 14000000 		.4byte	.LVL34
 4312 0219 0100     		.2byte	0x1
 4313 021b 54       		.byte	0x54
 4314 021c 14000000 		.4byte	.LVL34
 4315 0220 16000000 		.4byte	.LFE50
 4316 0224 0300     		.2byte	0x3
 4317 0226 73       		.byte	0x73
 4318 0227 7F       		.sleb128 -1
 4319 0228 9F       		.byte	0x9f
 4320 0229 00000000 		.4byte	0
 4321 022d 00000000 		.4byte	0
 4322              	.LLST14:
 4323 0231 02000000 		.4byte	.LVL36
 4324 0235 06000000 		.4byte	.LVL37
 4325 0239 0200     		.2byte	0x2
 4326 023b 31       		.byte	0x31
 4327 023c 9F       		.byte	0x9f
 4328 023d 06000000 		.4byte	.LVL37
 4329 0241 2A000000 		.4byte	.LVL38
 4330 0245 0100     		.2byte	0x1
 4331 0247 54       		.byte	0x54
 4332 0248 2A000000 		.4byte	.LVL38
 4333 024c 2C000000 		.4byte	.LVL39
 4334 0250 0100     		.2byte	0x1
 4335 0252 53       		.byte	0x53
 4336 0253 2C000000 		.4byte	.LVL39
 4337 0257 30000000 		.4byte	.LVL40
 4338 025b 0100     		.2byte	0x1
 4339 025d 54       		.byte	0x54
ARM GAS  C:\Users\PC\AppData\Local\Temp\ccyhv7od.s 			page 110


 4340 025e 30000000 		.4byte	.LVL40
 4341 0262 32000000 		.4byte	.LFE59
 4342 0266 0300     		.2byte	0x3
 4343 0268 73       		.byte	0x73
 4344 0269 7F       		.sleb128 -1
 4345 026a 9F       		.byte	0x9f
 4346 026b 00000000 		.4byte	0
 4347 026f 00000000 		.4byte	0
 4348              	.LLST15:
 4349 0273 00000000 		.4byte	.LVL41
 4350 0277 06000000 		.4byte	.LVL43
 4351 027b 0100     		.2byte	0x1
 4352 027d 50       		.byte	0x50
 4353 027e 06000000 		.4byte	.LVL43
 4354 0282 2C000000 		.4byte	.LFE57
 4355 0286 0400     		.2byte	0x4
 4356 0288 F3       		.byte	0xf3
 4357 0289 01       		.uleb128 0x1
 4358 028a 50       		.byte	0x50
 4359 028b 9F       		.byte	0x9f
 4360 028c 00000000 		.4byte	0
 4361 0290 00000000 		.4byte	0
 4362              	.LLST16:
 4363 0294 00000000 		.4byte	.LVL41
 4364 0298 0E000000 		.4byte	.LVL45
 4365 029c 0100     		.2byte	0x1
 4366 029e 51       		.byte	0x51
 4367 029f 0E000000 		.4byte	.LVL45
 4368 02a3 2C000000 		.4byte	.LFE57
 4369 02a7 0400     		.2byte	0x4
 4370 02a9 F3       		.byte	0xf3
 4371 02aa 01       		.uleb128 0x1
 4372 02ab 51       		.byte	0x51
 4373 02ac 9F       		.byte	0x9f
 4374 02ad 00000000 		.4byte	0
 4375 02b1 00000000 		.4byte	0
 4376              	.LLST17:
 4377 02b5 0A000000 		.4byte	.LVL44
 4378 02b9 23000000 		.4byte	.LVL48-1
 4379 02bd 0100     		.2byte	0x1
 4380 02bf 53       		.byte	0x53
 4381 02c0 00000000 		.4byte	0
 4382 02c4 00000000 		.4byte	0
 4383              	.LLST18:
 4384 02c8 02000000 		.4byte	.LVL42
 4385 02cc 0A000000 		.4byte	.LVL44
 4386 02d0 0200     		.2byte	0x2
 4387 02d2 30       		.byte	0x30
 4388 02d3 9F       		.byte	0x9f
 4389 02d4 0A000000 		.4byte	.LVL44
 4390 02d8 14000000 		.4byte	.LVL46
 4391 02dc 0200     		.2byte	0x2
 4392 02de 73       		.byte	0x73
 4393 02df 08       		.sleb128 8
 4394 02e0 14000000 		.4byte	.LVL46
 4395 02e4 23000000 		.4byte	.LVL48-1
 4396 02e8 0100     		.2byte	0x1
ARM GAS  C:\Users\PC\AppData\Local\Temp\ccyhv7od.s 			page 111


 4397 02ea 51       		.byte	0x51
 4398 02eb 00000000 		.4byte	0
 4399 02ef 00000000 		.4byte	0
 4400              	.LLST19:
 4401 02f3 02000000 		.4byte	.LVL51
 4402 02f7 06000000 		.4byte	.LVL52
 4403 02fb 0200     		.2byte	0x2
 4404 02fd 31       		.byte	0x31
 4405 02fe 9F       		.byte	0x9f
 4406 02ff 06000000 		.4byte	.LVL52
 4407 0303 26000000 		.4byte	.LVL53
 4408 0307 0100     		.2byte	0x1
 4409 0309 54       		.byte	0x54
 4410 030a 26000000 		.4byte	.LVL53
 4411 030e 28000000 		.4byte	.LVL54
 4412 0312 0100     		.2byte	0x1
 4413 0314 53       		.byte	0x53
 4414 0315 28000000 		.4byte	.LVL54
 4415 0319 2C000000 		.4byte	.LVL55
 4416 031d 0100     		.2byte	0x1
 4417 031f 54       		.byte	0x54
 4418 0320 2C000000 		.4byte	.LVL55
 4419 0324 2E000000 		.4byte	.LFE63
 4420 0328 0300     		.2byte	0x3
 4421 032a 73       		.byte	0x73
 4422 032b 7F       		.sleb128 -1
 4423 032c 9F       		.byte	0x9f
 4424 032d 00000000 		.4byte	0
 4425 0331 00000000 		.4byte	0
 4426              	.LLST20:
 4427 0335 00000000 		.4byte	.LVL56
 4428 0339 1C000000 		.4byte	.LVL61
 4429 033d 0100     		.2byte	0x1
 4430 033f 50       		.byte	0x50
 4431 0340 1C000000 		.4byte	.LVL61
 4432 0344 80000000 		.4byte	.LVL73
 4433 0348 0100     		.2byte	0x1
 4434 034a 56       		.byte	0x56
 4435 034b 80000000 		.4byte	.LVL73
 4436 034f 8C000000 		.4byte	.LFE56
 4437 0353 0400     		.2byte	0x4
 4438 0355 F3       		.byte	0xf3
 4439 0356 01       		.uleb128 0x1
 4440 0357 50       		.byte	0x50
 4441 0358 9F       		.byte	0x9f
 4442 0359 00000000 		.4byte	0
 4443 035d 00000000 		.4byte	0
 4444              	.LLST21:
 4445 0361 1A000000 		.4byte	.LVL60
 4446 0365 1C000000 		.4byte	.LVL61
 4447 0369 0100     		.2byte	0x1
 4448 036b 53       		.byte	0x53
 4449 036c 1C000000 		.4byte	.LVL61
 4450 0370 78000000 		.4byte	.LVL70
 4451 0374 0100     		.2byte	0x1
 4452 0376 54       		.byte	0x54
 4453 0377 78000000 		.4byte	.LVL70
ARM GAS  C:\Users\PC\AppData\Local\Temp\ccyhv7od.s 			page 112


 4454 037b 7A000000 		.4byte	.LVL71
 4455 037f 0100     		.2byte	0x1
 4456 0381 53       		.byte	0x53
 4457 0382 7A000000 		.4byte	.LVL71
 4458 0386 80000000 		.4byte	.LVL72
 4459 038a 0100     		.2byte	0x1
 4460 038c 54       		.byte	0x54
 4461 038d 80000000 		.4byte	.LVL72
 4462 0391 8C000000 		.4byte	.LFE56
 4463 0395 0300     		.2byte	0x3
 4464 0397 73       		.byte	0x73
 4465 0398 7F       		.sleb128 -1
 4466 0399 9F       		.byte	0x9f
 4467 039a 00000000 		.4byte	0
 4468 039e 00000000 		.4byte	0
 4469              	.LLST22:
 4470 03a2 1A000000 		.4byte	.LVL60
 4471 03a6 1C000000 		.4byte	.LVL61
 4472 03aa 0100     		.2byte	0x1
 4473 03ac 53       		.byte	0x53
 4474 03ad 00000000 		.4byte	0
 4475 03b1 00000000 		.4byte	0
 4476              	.LLST23:
 4477 03b5 14000000 		.4byte	.LVL58
 4478 03b9 1A000000 		.4byte	.LVL60
 4479 03bd 0100     		.2byte	0x1
 4480 03bf 53       		.byte	0x53
 4481 03c0 00000000 		.4byte	0
 4482 03c4 00000000 		.4byte	0
 4483              	.LLST24:
 4484 03c8 0C000000 		.4byte	.LVL57
 4485 03cc 1C000000 		.4byte	.LVL61
 4486 03d0 0200     		.2byte	0x2
 4487 03d2 30       		.byte	0x30
 4488 03d3 9F       		.byte	0x9f
 4489 03d4 24000000 		.4byte	.LVL62
 4490 03d8 2E000000 		.4byte	.LVL63
 4491 03dc 0200     		.2byte	0x2
 4492 03de 73       		.byte	0x73
 4493 03df 08       		.sleb128 8
 4494 03e0 2E000000 		.4byte	.LVL63
 4495 03e4 78000000 		.4byte	.LVL70
 4496 03e8 0100     		.2byte	0x1
 4497 03ea 55       		.byte	0x55
 4498 03eb 00000000 		.4byte	0
 4499 03ef 00000000 		.4byte	0
 4500              	.LLST25:
 4501 03f3 46000000 		.4byte	.LVL66
 4502 03f7 51000000 		.4byte	.LVL67-1
 4503 03fb 0100     		.2byte	0x1
 4504 03fd 53       		.byte	0x53
 4505 03fe 00000000 		.4byte	0
 4506 0402 00000000 		.4byte	0
 4507              	.LLST26:
 4508 0406 18000000 		.4byte	.LVL59
 4509 040a 1C000000 		.4byte	.LVL61
 4510 040e 0100     		.2byte	0x1
ARM GAS  C:\Users\PC\AppData\Local\Temp\ccyhv7od.s 			page 113


 4511 0410 52       		.byte	0x52
 4512 0411 1C000000 		.4byte	.LVL61
 4513 0415 80000000 		.4byte	.LVL74
 4514 0419 0100     		.2byte	0x1
 4515 041b 59       		.byte	0x59
 4516 041c 00000000 		.4byte	0
 4517 0420 00000000 		.4byte	0
 4518              	.LLST27:
 4519 0424 0C000000 		.4byte	.LVL57
 4520 0428 1C000000 		.4byte	.LVL61
 4521 042c 0200     		.2byte	0x2
 4522 042e 30       		.byte	0x30
 4523 042f 9F       		.byte	0x9f
 4524 0430 32000000 		.4byte	.LVL64
 4525 0434 3E000000 		.4byte	.LVL65
 4526 0438 0200     		.2byte	0x2
 4527 043a 73       		.byte	0x73
 4528 043b 24       		.sleb128 36
 4529 043c 3E000000 		.4byte	.LVL65
 4530 0440 78000000 		.4byte	.LVL70
 4531 0444 0100     		.2byte	0x1
 4532 0446 58       		.byte	0x58
 4533 0447 00000000 		.4byte	0
 4534 044b 00000000 		.4byte	0
 4535              	.LLST28:
 4536 044f 02000000 		.4byte	.LVL75
 4537 0453 06000000 		.4byte	.LVL76
 4538 0457 0200     		.2byte	0x2
 4539 0459 33       		.byte	0x33
 4540 045a 9F       		.byte	0x9f
 4541 045b 06000000 		.4byte	.LVL76
 4542 045f 0E000000 		.4byte	.LVL78
 4543 0463 0100     		.2byte	0x1
 4544 0465 54       		.byte	0x54
 4545 0466 0E000000 		.4byte	.LVL78
 4546 046a 10000000 		.4byte	.LVL79
 4547 046e 0100     		.2byte	0x1
 4548 0470 53       		.byte	0x53
 4549 0471 10000000 		.4byte	.LVL79
 4550 0475 14000000 		.4byte	.LVL80
 4551 0479 0100     		.2byte	0x1
 4552 047b 54       		.byte	0x54
 4553 047c 14000000 		.4byte	.LVL80
 4554 0480 16000000 		.4byte	.LFE55
 4555 0484 0300     		.2byte	0x3
 4556 0486 73       		.byte	0x73
 4557 0487 7F       		.sleb128 -1
 4558 0488 9F       		.byte	0x9f
 4559 0489 00000000 		.4byte	0
 4560 048d 00000000 		.4byte	0
 4561              	.LLST29:
 4562 0491 00000000 		.4byte	.LVL82
 4563 0495 06000000 		.4byte	.LVL84
 4564 0499 0100     		.2byte	0x1
 4565 049b 50       		.byte	0x50
 4566 049c 06000000 		.4byte	.LVL84
 4567 04a0 2C000000 		.4byte	.LFE61
ARM GAS  C:\Users\PC\AppData\Local\Temp\ccyhv7od.s 			page 114


 4568 04a4 0400     		.2byte	0x4
 4569 04a6 F3       		.byte	0xf3
 4570 04a7 01       		.uleb128 0x1
 4571 04a8 50       		.byte	0x50
 4572 04a9 9F       		.byte	0x9f
 4573 04aa 00000000 		.4byte	0
 4574 04ae 00000000 		.4byte	0
 4575              	.LLST30:
 4576 04b2 00000000 		.4byte	.LVL82
 4577 04b6 0E000000 		.4byte	.LVL86
 4578 04ba 0100     		.2byte	0x1
 4579 04bc 51       		.byte	0x51
 4580 04bd 0E000000 		.4byte	.LVL86
 4581 04c1 2C000000 		.4byte	.LFE61
 4582 04c5 0400     		.2byte	0x4
 4583 04c7 F3       		.byte	0xf3
 4584 04c8 01       		.uleb128 0x1
 4585 04c9 51       		.byte	0x51
 4586 04ca 9F       		.byte	0x9f
 4587 04cb 00000000 		.4byte	0
 4588 04cf 00000000 		.4byte	0
 4589              	.LLST31:
 4590 04d3 0A000000 		.4byte	.LVL85
 4591 04d7 23000000 		.4byte	.LVL89-1
 4592 04db 0100     		.2byte	0x1
 4593 04dd 53       		.byte	0x53
 4594 04de 00000000 		.4byte	0
 4595 04e2 00000000 		.4byte	0
 4596              	.LLST32:
 4597 04e6 02000000 		.4byte	.LVL83
 4598 04ea 0A000000 		.4byte	.LVL85
 4599 04ee 0200     		.2byte	0x2
 4600 04f0 30       		.byte	0x30
 4601 04f1 9F       		.byte	0x9f
 4602 04f2 0A000000 		.4byte	.LVL85
 4603 04f6 14000000 		.4byte	.LVL87
 4604 04fa 0200     		.2byte	0x2
 4605 04fc 73       		.byte	0x73
 4606 04fd 08       		.sleb128 8
 4607 04fe 14000000 		.4byte	.LVL87
 4608 0502 23000000 		.4byte	.LVL89-1
 4609 0506 0100     		.2byte	0x1
 4610 0508 51       		.byte	0x51
 4611 0509 00000000 		.4byte	0
 4612 050d 00000000 		.4byte	0
 4613              	.LLST33:
 4614 0511 02000000 		.4byte	.LVL92
 4615 0515 06000000 		.4byte	.LVL93
 4616 0519 0200     		.2byte	0x2
 4617 051b 31       		.byte	0x31
 4618 051c 9F       		.byte	0x9f
 4619 051d 06000000 		.4byte	.LVL93
 4620 0521 3C000000 		.4byte	.LVL96
 4621 0525 0100     		.2byte	0x1
 4622 0527 54       		.byte	0x54
 4623 0528 3C000000 		.4byte	.LVL96
 4624 052c 3E000000 		.4byte	.LVL97
ARM GAS  C:\Users\PC\AppData\Local\Temp\ccyhv7od.s 			page 115


 4625 0530 0100     		.2byte	0x1
 4626 0532 53       		.byte	0x53
 4627 0533 3E000000 		.4byte	.LVL97
 4628 0537 42000000 		.4byte	.LVL98
 4629 053b 0100     		.2byte	0x1
 4630 053d 54       		.byte	0x54
 4631 053e 42000000 		.4byte	.LVL98
 4632 0542 44000000 		.4byte	.LFE64
 4633 0546 0300     		.2byte	0x3
 4634 0548 73       		.byte	0x73
 4635 0549 7F       		.sleb128 -1
 4636 054a 9F       		.byte	0x9f
 4637 054b 00000000 		.4byte	0
 4638 054f 00000000 		.4byte	0
 4639              	.LLST34:
 4640 0553 2C000000 		.4byte	.LVL94
 4641 0557 3A000000 		.4byte	.LVL95
 4642 055b 0100     		.2byte	0x1
 4643 055d 55       		.byte	0x55
 4644 055e 00000000 		.4byte	0
 4645 0562 00000000 		.4byte	0
 4646              	.LLST35:
 4647 0566 00000000 		.4byte	.LVL99
 4648 056a 06000000 		.4byte	.LVL101
 4649 056e 0100     		.2byte	0x1
 4650 0570 50       		.byte	0x50
 4651 0571 06000000 		.4byte	.LVL101
 4652 0575 2C000000 		.4byte	.LFE62
 4653 0579 0400     		.2byte	0x4
 4654 057b F3       		.byte	0xf3
 4655 057c 01       		.uleb128 0x1
 4656 057d 50       		.byte	0x50
 4657 057e 9F       		.byte	0x9f
 4658 057f 00000000 		.4byte	0
 4659 0583 00000000 		.4byte	0
 4660              	.LLST36:
 4661 0587 00000000 		.4byte	.LVL99
 4662 058b 0E000000 		.4byte	.LVL103
 4663 058f 0100     		.2byte	0x1
 4664 0591 51       		.byte	0x51
 4665 0592 0E000000 		.4byte	.LVL103
 4666 0596 2C000000 		.4byte	.LFE62
 4667 059a 0400     		.2byte	0x4
 4668 059c F3       		.byte	0xf3
 4669 059d 01       		.uleb128 0x1
 4670 059e 51       		.byte	0x51
 4671 059f 9F       		.byte	0x9f
 4672 05a0 00000000 		.4byte	0
 4673 05a4 00000000 		.4byte	0
 4674              	.LLST37:
 4675 05a8 0A000000 		.4byte	.LVL102
 4676 05ac 23000000 		.4byte	.LVL106-1
 4677 05b0 0100     		.2byte	0x1
 4678 05b2 53       		.byte	0x53
 4679 05b3 00000000 		.4byte	0
 4680 05b7 00000000 		.4byte	0
 4681              	.LLST38:
ARM GAS  C:\Users\PC\AppData\Local\Temp\ccyhv7od.s 			page 116


 4682 05bb 02000000 		.4byte	.LVL100
 4683 05bf 0A000000 		.4byte	.LVL102
 4684 05c3 0200     		.2byte	0x2
 4685 05c5 30       		.byte	0x30
 4686 05c6 9F       		.byte	0x9f
 4687 05c7 0A000000 		.4byte	.LVL102
 4688 05cb 14000000 		.4byte	.LVL104
 4689 05cf 0200     		.2byte	0x2
 4690 05d1 73       		.byte	0x73
 4691 05d2 08       		.sleb128 8
 4692 05d3 14000000 		.4byte	.LVL104
 4693 05d7 23000000 		.4byte	.LVL106-1
 4694 05db 0100     		.2byte	0x1
 4695 05dd 51       		.byte	0x51
 4696 05de 00000000 		.4byte	0
 4697 05e2 00000000 		.4byte	0
 4698              	.LLST39:
 4699 05e6 00000000 		.4byte	.LVL108
 4700 05ea 06000000 		.4byte	.LVL110
 4701 05ee 0100     		.2byte	0x1
 4702 05f0 50       		.byte	0x50
 4703 05f1 06000000 		.4byte	.LVL110
 4704 05f5 2C000000 		.4byte	.LFE67
 4705 05f9 0400     		.2byte	0x4
 4706 05fb F3       		.byte	0xf3
 4707 05fc 01       		.uleb128 0x1
 4708 05fd 50       		.byte	0x50
 4709 05fe 9F       		.byte	0x9f
 4710 05ff 00000000 		.4byte	0
 4711 0603 00000000 		.4byte	0
 4712              	.LLST40:
 4713 0607 00000000 		.4byte	.LVL108
 4714 060b 1A000000 		.4byte	.LVL116
 4715 060f 0100     		.2byte	0x1
 4716 0611 51       		.byte	0x51
 4717 0612 1A000000 		.4byte	.LVL116
 4718 0616 2C000000 		.4byte	.LFE67
 4719 061a 0400     		.2byte	0x4
 4720 061c F3       		.byte	0xf3
 4721 061d 01       		.uleb128 0x1
 4722 061e 51       		.byte	0x51
 4723 061f 9F       		.byte	0x9f
 4724 0620 00000000 		.4byte	0
 4725 0624 00000000 		.4byte	0
 4726              	.LLST41:
 4727 0628 0A000000 		.4byte	.LVL111
 4728 062c 22000000 		.4byte	.LVL118
 4729 0630 0100     		.2byte	0x1
 4730 0632 50       		.byte	0x50
 4731 0633 00000000 		.4byte	0
 4732 0637 00000000 		.4byte	0
 4733              	.LLST42:
 4734 063b 0C000000 		.4byte	.LVL112
 4735 063f 26000000 		.4byte	.LVL122
 4736 0643 0100     		.2byte	0x1
 4737 0645 56       		.byte	0x56
 4738 0646 00000000 		.4byte	0
ARM GAS  C:\Users\PC\AppData\Local\Temp\ccyhv7od.s 			page 117


 4739 064a 00000000 		.4byte	0
 4740              	.LLST43:
 4741 064e 0C000000 		.4byte	.LVL112
 4742 0652 0E000000 		.4byte	.LVL113
 4743 0656 0200     		.2byte	0x2
 4744 0658 30       		.byte	0x30
 4745 0659 9F       		.byte	0x9f
 4746 065a 0E000000 		.4byte	.LVL113
 4747 065e 14000000 		.4byte	.LVL114
 4748 0662 0100     		.2byte	0x1
 4749 0664 55       		.byte	0x55
 4750 0665 14000000 		.4byte	.LVL114
 4751 0669 26000000 		.4byte	.LVL120
 4752 066d 0600     		.2byte	0x6
 4753 066f 75       		.byte	0x75
 4754 0670 00       		.sleb128 0
 4755 0671 74       		.byte	0x74
 4756 0672 00       		.sleb128 0
 4757 0673 22       		.byte	0x22
 4758 0674 9F       		.byte	0x9f
 4759 0675 26000000 		.4byte	.LVL120
 4760 0679 26000000 		.4byte	.LVL121
 4761 067d 0F00     		.2byte	0xf
 4762 067f F3       		.byte	0xf3
 4763 0680 01       		.uleb128 0x1
 4764 0681 51       		.byte	0x51
 4765 0682 32       		.byte	0x32
 4766 0683 24       		.byte	0x24
 4767 0684 F3       		.byte	0xf3
 4768 0685 01       		.uleb128 0x1
 4769 0686 51       		.byte	0x51
 4770 0687 22       		.byte	0x22
 4771 0688 31       		.byte	0x31
 4772 0689 24       		.byte	0x24
 4773 068a 75       		.byte	0x75
 4774 068b 00       		.sleb128 0
 4775 068c 22       		.byte	0x22
 4776 068d 9F       		.byte	0x9f
 4777 068e 00000000 		.4byte	0
 4778 0692 00000000 		.4byte	0
 4779              	.LLST44:
 4780 0696 0C000000 		.4byte	.LVL112
 4781 069a 16000000 		.4byte	.LVL115
 4782 069e 0200     		.2byte	0x2
 4783 06a0 30       		.byte	0x30
 4784 06a1 9F       		.byte	0x9f
 4785 06a2 16000000 		.4byte	.LVL115
 4786 06a6 1E000000 		.4byte	.LVL117
 4787 06aa 0100     		.2byte	0x1
 4788 06ac 53       		.byte	0x53
 4789 06ad 1E000000 		.4byte	.LVL117
 4790 06b1 25000000 		.4byte	.LVL119-1
 4791 06b5 0100     		.2byte	0x1
 4792 06b7 52       		.byte	0x52
 4793 06b8 00000000 		.4byte	0
 4794 06bc 00000000 		.4byte	0
 4795              	.LLST45:
ARM GAS  C:\Users\PC\AppData\Local\Temp\ccyhv7od.s 			page 118


 4796 06c0 00000000 		.4byte	.LVL123
 4797 06c4 06000000 		.4byte	.LVL125
 4798 06c8 0100     		.2byte	0x1
 4799 06ca 50       		.byte	0x50
 4800 06cb 06000000 		.4byte	.LVL125
 4801 06cf 2C000000 		.4byte	.LFE68
 4802 06d3 0400     		.2byte	0x4
 4803 06d5 F3       		.byte	0xf3
 4804 06d6 01       		.uleb128 0x1
 4805 06d7 50       		.byte	0x50
 4806 06d8 9F       		.byte	0x9f
 4807 06d9 00000000 		.4byte	0
 4808 06dd 00000000 		.4byte	0
 4809              	.LLST46:
 4810 06e1 00000000 		.4byte	.LVL123
 4811 06e5 1A000000 		.4byte	.LVL131
 4812 06e9 0100     		.2byte	0x1
 4813 06eb 51       		.byte	0x51
 4814 06ec 1A000000 		.4byte	.LVL131
 4815 06f0 2C000000 		.4byte	.LFE68
 4816 06f4 0400     		.2byte	0x4
 4817 06f6 F3       		.byte	0xf3
 4818 06f7 01       		.uleb128 0x1
 4819 06f8 51       		.byte	0x51
 4820 06f9 9F       		.byte	0x9f
 4821 06fa 00000000 		.4byte	0
 4822 06fe 00000000 		.4byte	0
 4823              	.LLST47:
 4824 0702 0A000000 		.4byte	.LVL126
 4825 0706 22000000 		.4byte	.LVL133
 4826 070a 0100     		.2byte	0x1
 4827 070c 50       		.byte	0x50
 4828 070d 00000000 		.4byte	0
 4829 0711 00000000 		.4byte	0
 4830              	.LLST48:
 4831 0715 0C000000 		.4byte	.LVL127
 4832 0719 26000000 		.4byte	.LVL137
 4833 071d 0100     		.2byte	0x1
 4834 071f 56       		.byte	0x56
 4835 0720 00000000 		.4byte	0
 4836 0724 00000000 		.4byte	0
 4837              	.LLST49:
 4838 0728 0C000000 		.4byte	.LVL127
 4839 072c 0E000000 		.4byte	.LVL128
 4840 0730 0200     		.2byte	0x2
 4841 0732 30       		.byte	0x30
 4842 0733 9F       		.byte	0x9f
 4843 0734 0E000000 		.4byte	.LVL128
 4844 0738 14000000 		.4byte	.LVL129
 4845 073c 0100     		.2byte	0x1
 4846 073e 55       		.byte	0x55
 4847 073f 14000000 		.4byte	.LVL129
 4848 0743 26000000 		.4byte	.LVL135
 4849 0747 0600     		.2byte	0x6
 4850 0749 75       		.byte	0x75
 4851 074a 00       		.sleb128 0
 4852 074b 74       		.byte	0x74
ARM GAS  C:\Users\PC\AppData\Local\Temp\ccyhv7od.s 			page 119


 4853 074c 00       		.sleb128 0
 4854 074d 22       		.byte	0x22
 4855 074e 9F       		.byte	0x9f
 4856 074f 26000000 		.4byte	.LVL135
 4857 0753 26000000 		.4byte	.LVL136
 4858 0757 0F00     		.2byte	0xf
 4859 0759 F3       		.byte	0xf3
 4860 075a 01       		.uleb128 0x1
 4861 075b 51       		.byte	0x51
 4862 075c 32       		.byte	0x32
 4863 075d 24       		.byte	0x24
 4864 075e F3       		.byte	0xf3
 4865 075f 01       		.uleb128 0x1
 4866 0760 51       		.byte	0x51
 4867 0761 22       		.byte	0x22
 4868 0762 31       		.byte	0x31
 4869 0763 24       		.byte	0x24
 4870 0764 75       		.byte	0x75
 4871 0765 00       		.sleb128 0
 4872 0766 22       		.byte	0x22
 4873 0767 9F       		.byte	0x9f
 4874 0768 00000000 		.4byte	0
 4875 076c 00000000 		.4byte	0
 4876              	.LLST50:
 4877 0770 0C000000 		.4byte	.LVL127
 4878 0774 16000000 		.4byte	.LVL130
 4879 0778 0200     		.2byte	0x2
 4880 077a 30       		.byte	0x30
 4881 077b 9F       		.byte	0x9f
 4882 077c 16000000 		.4byte	.LVL130
 4883 0780 1E000000 		.4byte	.LVL132
 4884 0784 0100     		.2byte	0x1
 4885 0786 53       		.byte	0x53
 4886 0787 1E000000 		.4byte	.LVL132
 4887 078b 25000000 		.4byte	.LVL134-1
 4888 078f 0100     		.2byte	0x1
 4889 0791 52       		.byte	0x52
 4890 0792 00000000 		.4byte	0
 4891 0796 00000000 		.4byte	0
 4892              	.LLST51:
 4893 079a 00000000 		.4byte	.LVL138
 4894 079e 08000000 		.4byte	.LVL139
 4895 07a2 0100     		.2byte	0x1
 4896 07a4 50       		.byte	0x50
 4897 07a5 08000000 		.4byte	.LVL139
 4898 07a9 0A000000 		.4byte	.LVL140
 4899 07ad 0100     		.2byte	0x1
 4900 07af 53       		.byte	0x53
 4901 07b0 0A000000 		.4byte	.LVL140
 4902 07b4 16000000 		.4byte	.LVL142
 4903 07b8 0100     		.2byte	0x1
 4904 07ba 50       		.byte	0x50
 4905 07bb 00000000 		.4byte	0
 4906 07bf 00000000 		.4byte	0
 4907              	.LLST52:
 4908 07c3 00000000 		.4byte	.LVL138
 4909 07c7 0A000000 		.4byte	.LVL140
ARM GAS  C:\Users\PC\AppData\Local\Temp\ccyhv7od.s 			page 120


 4910 07cb 0100     		.2byte	0x1
 4911 07cd 51       		.byte	0x51
 4912 07ce 0A000000 		.4byte	.LVL140
 4913 07d2 18000000 		.4byte	.LFE69
 4914 07d6 0100     		.2byte	0x1
 4915 07d8 51       		.byte	0x51
 4916 07d9 00000000 		.4byte	0
 4917 07dd 00000000 		.4byte	0
 4918              	.LLST53:
 4919 07e1 00000000 		.4byte	.LVL143
 4920 07e5 26000000 		.4byte	.LVL147
 4921 07e9 0100     		.2byte	0x1
 4922 07eb 50       		.byte	0x50
 4923 07ec 26000000 		.4byte	.LVL147
 4924 07f0 3C000000 		.4byte	.LVL149
 4925 07f4 0100     		.2byte	0x1
 4926 07f6 51       		.byte	0x51
 4927 07f7 3C000000 		.4byte	.LVL149
 4928 07fb 54000000 		.4byte	.LVL151
 4929 07ff 0100     		.2byte	0x1
 4930 0801 58       		.byte	0x58
 4931 0802 54000000 		.4byte	.LVL151
 4932 0806 68000000 		.4byte	.LFE60
 4933 080a 0100     		.2byte	0x1
 4934 080c 51       		.byte	0x51
 4935 080d 00000000 		.4byte	0
 4936 0811 00000000 		.4byte	0
 4937              	.LLST54:
 4938 0815 00000000 		.4byte	.LVL143
 4939 0819 16000000 		.4byte	.LVL145
 4940 081d 0100     		.2byte	0x1
 4941 081f 51       		.byte	0x51
 4942 0820 16000000 		.4byte	.LVL145
 4943 0824 5C000000 		.4byte	.LVL155
 4944 0828 0100     		.2byte	0x1
 4945 082a 57       		.byte	0x57
 4946 082b 5C000000 		.4byte	.LVL155
 4947 082f 68000000 		.4byte	.LFE60
 4948 0833 0400     		.2byte	0x4
 4949 0835 F3       		.byte	0xf3
 4950 0836 01       		.uleb128 0x1
 4951 0837 51       		.byte	0x51
 4952 0838 9F       		.byte	0x9f
 4953 0839 00000000 		.4byte	0
 4954 083d 00000000 		.4byte	0
 4955              	.LLST55:
 4956 0841 00000000 		.4byte	.LVL143
 4957 0845 16000000 		.4byte	.LVL145
 4958 0849 0100     		.2byte	0x1
 4959 084b 52       		.byte	0x52
 4960 084c 16000000 		.4byte	.LVL145
 4961 0850 20000000 		.4byte	.LVL146
 4962 0854 0100     		.2byte	0x1
 4963 0856 59       		.byte	0x59
 4964 0857 20000000 		.4byte	.LVL146
 4965 085b 2A000000 		.4byte	.LVL148
 4966 085f 0100     		.2byte	0x1
ARM GAS  C:\Users\PC\AppData\Local\Temp\ccyhv7od.s 			page 121


 4967 0861 52       		.byte	0x52
 4968 0862 2A000000 		.4byte	.LVL148
 4969 0866 5C000000 		.4byte	.LVL156
 4970 086a 0100     		.2byte	0x1
 4971 086c 59       		.byte	0x59
 4972 086d 5C000000 		.4byte	.LVL156
 4973 0871 68000000 		.4byte	.LFE60
 4974 0875 0400     		.2byte	0x4
 4975 0877 F3       		.byte	0xf3
 4976 0878 01       		.uleb128 0x1
 4977 0879 52       		.byte	0x52
 4978 087a 9F       		.byte	0x9f
 4979 087b 00000000 		.4byte	0
 4980 087f 00000000 		.4byte	0
 4981              	.LLST56:
 4982 0883 12000000 		.4byte	.LVL144
 4983 0887 16000000 		.4byte	.LVL145
 4984 088b 0200     		.2byte	0x2
 4985 088d 31       		.byte	0x31
 4986 088e 9F       		.byte	0x9f
 4987 088f 16000000 		.4byte	.LVL145
 4988 0893 56000000 		.4byte	.LVL152
 4989 0897 0100     		.2byte	0x1
 4990 0899 54       		.byte	0x54
 4991 089a 56000000 		.4byte	.LVL152
 4992 089e 58000000 		.4byte	.LVL153
 4993 08a2 0100     		.2byte	0x1
 4994 08a4 53       		.byte	0x53
 4995 08a5 58000000 		.4byte	.LVL153
 4996 08a9 5C000000 		.4byte	.LVL154
 4997 08ad 0100     		.2byte	0x1
 4998 08af 54       		.byte	0x54
 4999 08b0 5C000000 		.4byte	.LVL154
 5000 08b4 68000000 		.4byte	.LFE60
 5001 08b8 0300     		.2byte	0x3
 5002 08ba 73       		.byte	0x73
 5003 08bb 7F       		.sleb128 -1
 5004 08bc 9F       		.byte	0x9f
 5005 08bd 00000000 		.4byte	0
 5006 08c1 00000000 		.4byte	0
 5007              	.LLST57:
 5008 08c5 40000000 		.4byte	.LVL150
 5009 08c9 54000000 		.4byte	.LVL151
 5010 08cd 0100     		.2byte	0x1
 5011 08cf 50       		.byte	0x50
 5012 08d0 00000000 		.4byte	0
 5013 08d4 00000000 		.4byte	0
 5014              	.LLST58:
 5015 08d8 00000000 		.4byte	.LVL157
 5016 08dc 06000000 		.4byte	.LVL159
 5017 08e0 0100     		.2byte	0x1
 5018 08e2 50       		.byte	0x50
 5019 08e3 06000000 		.4byte	.LVL159
 5020 08e7 2C000000 		.4byte	.LFE58
 5021 08eb 0400     		.2byte	0x4
 5022 08ed F3       		.byte	0xf3
 5023 08ee 01       		.uleb128 0x1
ARM GAS  C:\Users\PC\AppData\Local\Temp\ccyhv7od.s 			page 122


 5024 08ef 50       		.byte	0x50
 5025 08f0 9F       		.byte	0x9f
 5026 08f1 00000000 		.4byte	0
 5027 08f5 00000000 		.4byte	0
 5028              	.LLST59:
 5029 08f9 00000000 		.4byte	.LVL157
 5030 08fd 0E000000 		.4byte	.LVL161
 5031 0901 0100     		.2byte	0x1
 5032 0903 51       		.byte	0x51
 5033 0904 0E000000 		.4byte	.LVL161
 5034 0908 2C000000 		.4byte	.LFE58
 5035 090c 0400     		.2byte	0x4
 5036 090e F3       		.byte	0xf3
 5037 090f 01       		.uleb128 0x1
 5038 0910 51       		.byte	0x51
 5039 0911 9F       		.byte	0x9f
 5040 0912 00000000 		.4byte	0
 5041 0916 00000000 		.4byte	0
 5042              	.LLST60:
 5043 091a 0A000000 		.4byte	.LVL160
 5044 091e 23000000 		.4byte	.LVL164-1
 5045 0922 0100     		.2byte	0x1
 5046 0924 53       		.byte	0x53
 5047 0925 00000000 		.4byte	0
 5048 0929 00000000 		.4byte	0
 5049              	.LLST61:
 5050 092d 02000000 		.4byte	.LVL158
 5051 0931 0A000000 		.4byte	.LVL160
 5052 0935 0200     		.2byte	0x2
 5053 0937 30       		.byte	0x30
 5054 0938 9F       		.byte	0x9f
 5055 0939 0A000000 		.4byte	.LVL160
 5056 093d 14000000 		.4byte	.LVL162
 5057 0941 0200     		.2byte	0x2
 5058 0943 73       		.byte	0x73
 5059 0944 08       		.sleb128 8
 5060 0945 14000000 		.4byte	.LVL162
 5061 0949 23000000 		.4byte	.LVL164-1
 5062 094d 0100     		.2byte	0x1
 5063 094f 51       		.byte	0x51
 5064 0950 00000000 		.4byte	0
 5065 0954 00000000 		.4byte	0
 5066              	.LLST62:
 5067 0958 00000000 		.4byte	.LVL166
 5068 095c 0B000000 		.4byte	.LVL167-1
 5069 0960 0100     		.2byte	0x1
 5070 0962 50       		.byte	0x50
 5071 0963 10000000 		.4byte	.LVL168
 5072 0967 16000000 		.4byte	.LVL170
 5073 096b 0100     		.2byte	0x1
 5074 096d 54       		.byte	0x54
 5075 096e 00000000 		.4byte	0
 5076 0972 00000000 		.4byte	0
 5077              	.LLST63:
 5078 0976 00000000 		.4byte	.LVL166
 5079 097a 0B000000 		.4byte	.LVL167-1
 5080 097e 0100     		.2byte	0x1
ARM GAS  C:\Users\PC\AppData\Local\Temp\ccyhv7od.s 			page 123


 5081 0980 51       		.byte	0x51
 5082 0981 0B000000 		.4byte	.LVL167-1
 5083 0985 16000000 		.4byte	.LVL171
 5084 0989 0100     		.2byte	0x1
 5085 098b 55       		.byte	0x55
 5086 098c 16000000 		.4byte	.LVL171
 5087 0990 18000000 		.4byte	.LFE66
 5088 0994 0400     		.2byte	0x4
 5089 0996 F3       		.byte	0xf3
 5090 0997 01       		.uleb128 0x1
 5091 0998 51       		.byte	0x51
 5092 0999 9F       		.byte	0x9f
 5093 099a 00000000 		.4byte	0
 5094 099e 00000000 		.4byte	0
 5095              	.LLST64:
 5096 09a2 00000000 		.4byte	.LVL166
 5097 09a6 0B000000 		.4byte	.LVL167-1
 5098 09aa 0100     		.2byte	0x1
 5099 09ac 52       		.byte	0x52
 5100 09ad 0B000000 		.4byte	.LVL167-1
 5101 09b1 16000000 		.4byte	.LVL172
 5102 09b5 0100     		.2byte	0x1
 5103 09b7 56       		.byte	0x56
 5104 09b8 16000000 		.4byte	.LVL172
 5105 09bc 18000000 		.4byte	.LFE66
 5106 09c0 0400     		.2byte	0x4
 5107 09c2 F3       		.byte	0xf3
 5108 09c3 01       		.uleb128 0x1
 5109 09c4 52       		.byte	0x52
 5110 09c5 9F       		.byte	0x9f
 5111 09c6 00000000 		.4byte	0
 5112 09ca 00000000 		.4byte	0
 5113              	.LLST65:
 5114 09ce 00000000 		.4byte	.LVL173
 5115 09d2 06000000 		.4byte	.LVL175
 5116 09d6 0100     		.2byte	0x1
 5117 09d8 50       		.byte	0x50
 5118 09d9 06000000 		.4byte	.LVL175
 5119 09dd 2C000000 		.4byte	.LFE65
 5120 09e1 0400     		.2byte	0x4
 5121 09e3 F3       		.byte	0xf3
 5122 09e4 01       		.uleb128 0x1
 5123 09e5 50       		.byte	0x50
 5124 09e6 9F       		.byte	0x9f
 5125 09e7 00000000 		.4byte	0
 5126 09eb 00000000 		.4byte	0
 5127              	.LLST66:
 5128 09ef 00000000 		.4byte	.LVL173
 5129 09f3 0E000000 		.4byte	.LVL177
 5130 09f7 0100     		.2byte	0x1
 5131 09f9 51       		.byte	0x51
 5132 09fa 0E000000 		.4byte	.LVL177
 5133 09fe 2C000000 		.4byte	.LFE65
 5134 0a02 0400     		.2byte	0x4
 5135 0a04 F3       		.byte	0xf3
 5136 0a05 01       		.uleb128 0x1
 5137 0a06 51       		.byte	0x51
ARM GAS  C:\Users\PC\AppData\Local\Temp\ccyhv7od.s 			page 124


 5138 0a07 9F       		.byte	0x9f
 5139 0a08 00000000 		.4byte	0
 5140 0a0c 00000000 		.4byte	0
 5141              	.LLST67:
 5142 0a10 0A000000 		.4byte	.LVL176
 5143 0a14 23000000 		.4byte	.LVL180-1
 5144 0a18 0100     		.2byte	0x1
 5145 0a1a 53       		.byte	0x53
 5146 0a1b 00000000 		.4byte	0
 5147 0a1f 00000000 		.4byte	0
 5148              	.LLST68:
 5149 0a23 02000000 		.4byte	.LVL174
 5150 0a27 0A000000 		.4byte	.LVL176
 5151 0a2b 0200     		.2byte	0x2
 5152 0a2d 30       		.byte	0x30
 5153 0a2e 9F       		.byte	0x9f
 5154 0a2f 0A000000 		.4byte	.LVL176
 5155 0a33 14000000 		.4byte	.LVL178
 5156 0a37 0200     		.2byte	0x2
 5157 0a39 73       		.byte	0x73
 5158 0a3a 08       		.sleb128 8
 5159 0a3b 14000000 		.4byte	.LVL178
 5160 0a3f 23000000 		.4byte	.LVL180-1
 5161 0a43 0100     		.2byte	0x1
 5162 0a45 51       		.byte	0x51
 5163 0a46 00000000 		.4byte	0
 5164 0a4a 00000000 		.4byte	0
 5165              	.LLST69:
 5166 0a4e 00000000 		.4byte	.LVL182
 5167 0a52 02000000 		.4byte	.LVL183
 5168 0a56 0100     		.2byte	0x1
 5169 0a58 50       		.byte	0x50
 5170 0a59 02000000 		.4byte	.LVL183
 5171 0a5d 12000000 		.4byte	.LFE70
 5172 0a61 0400     		.2byte	0x4
 5173 0a63 F3       		.byte	0xf3
 5174 0a64 01       		.uleb128 0x1
 5175 0a65 50       		.byte	0x50
 5176 0a66 9F       		.byte	0x9f
 5177 0a67 00000000 		.4byte	0
 5178 0a6b 00000000 		.4byte	0
 5179              	.LLST70:
 5180 0a6f 00000000 		.4byte	.LVL182
 5181 0a73 0C000000 		.4byte	.LVL186
 5182 0a77 0100     		.2byte	0x1
 5183 0a79 51       		.byte	0x51
 5184 0a7a 0C000000 		.4byte	.LVL186
 5185 0a7e 12000000 		.4byte	.LFE70
 5186 0a82 0400     		.2byte	0x4
 5187 0a84 F3       		.byte	0xf3
 5188 0a85 01       		.uleb128 0x1
 5189 0a86 51       		.byte	0x51
 5190 0a87 9F       		.byte	0x9f
 5191 0a88 00000000 		.4byte	0
 5192 0a8c 00000000 		.4byte	0
 5193              	.LLST71:
 5194 0a90 00000000 		.4byte	.LVL182
ARM GAS  C:\Users\PC\AppData\Local\Temp\ccyhv7od.s 			page 125


 5195 0a94 0A000000 		.4byte	.LVL185
 5196 0a98 0100     		.2byte	0x1
 5197 0a9a 52       		.byte	0x52
 5198 0a9b 0A000000 		.4byte	.LVL185
 5199 0a9f 12000000 		.4byte	.LFE70
 5200 0aa3 0400     		.2byte	0x4
 5201 0aa5 F3       		.byte	0xf3
 5202 0aa6 01       		.uleb128 0x1
 5203 0aa7 52       		.byte	0x52
 5204 0aa8 9F       		.byte	0x9f
 5205 0aa9 00000000 		.4byte	0
 5206 0aad 00000000 		.4byte	0
 5207              	.LLST72:
 5208 0ab1 00000000 		.4byte	.LVL182
 5209 0ab5 06000000 		.4byte	.LVL184
 5210 0ab9 0100     		.2byte	0x1
 5211 0abb 53       		.byte	0x53
 5212 0abc 06000000 		.4byte	.LVL184
 5213 0ac0 12000000 		.4byte	.LFE70
 5214 0ac4 0400     		.2byte	0x4
 5215 0ac6 F3       		.byte	0xf3
 5216 0ac7 01       		.uleb128 0x1
 5217 0ac8 53       		.byte	0x53
 5218 0ac9 9F       		.byte	0x9f
 5219 0aca 00000000 		.4byte	0
 5220 0ace 00000000 		.4byte	0
 5221              	.LLST73:
 5222 0ad2 00000000 		.4byte	.LVL188
 5223 0ad6 10000000 		.4byte	.LVL190
 5224 0ada 0100     		.2byte	0x1
 5225 0adc 50       		.byte	0x50
 5226 0add 10000000 		.4byte	.LVL190
 5227 0ae1 88000000 		.4byte	.LVL208
 5228 0ae5 0100     		.2byte	0x1
 5229 0ae7 57       		.byte	0x57
 5230 0ae8 88000000 		.4byte	.LVL208
 5231 0aec 8E000000 		.4byte	.LFE49
 5232 0af0 0400     		.2byte	0x4
 5233 0af2 F3       		.byte	0xf3
 5234 0af3 01       		.uleb128 0x1
 5235 0af4 50       		.byte	0x50
 5236 0af5 9F       		.byte	0x9f
 5237 0af6 00000000 		.4byte	0
 5238 0afa 00000000 		.4byte	0
 5239              	.LLST74:
 5240 0afe 00000000 		.4byte	.LVL188
 5241 0b02 10000000 		.4byte	.LVL190
 5242 0b06 0100     		.2byte	0x1
 5243 0b08 51       		.byte	0x51
 5244 0b09 10000000 		.4byte	.LVL190
 5245 0b0d 88000000 		.4byte	.LVL207
 5246 0b11 0100     		.2byte	0x1
 5247 0b13 56       		.byte	0x56
 5248 0b14 88000000 		.4byte	.LVL207
 5249 0b18 8E000000 		.4byte	.LFE49
 5250 0b1c 0400     		.2byte	0x4
 5251 0b1e F3       		.byte	0xf3
ARM GAS  C:\Users\PC\AppData\Local\Temp\ccyhv7od.s 			page 126


 5252 0b1f 01       		.uleb128 0x1
 5253 0b20 51       		.byte	0x51
 5254 0b21 9F       		.byte	0x9f
 5255 0b22 00000000 		.4byte	0
 5256 0b26 00000000 		.4byte	0
 5257              	.LLST75:
 5258 0b2a 00000000 		.4byte	.LVL188
 5259 0b2e 10000000 		.4byte	.LVL190
 5260 0b32 0100     		.2byte	0x1
 5261 0b34 52       		.byte	0x52
 5262 0b35 10000000 		.4byte	.LVL190
 5263 0b39 88000000 		.4byte	.LVL206
 5264 0b3d 0100     		.2byte	0x1
 5265 0b3f 55       		.byte	0x55
 5266 0b40 88000000 		.4byte	.LVL206
 5267 0b44 8E000000 		.4byte	.LFE49
 5268 0b48 0400     		.2byte	0x4
 5269 0b4a F3       		.byte	0xf3
 5270 0b4b 01       		.uleb128 0x1
 5271 0b4c 52       		.byte	0x52
 5272 0b4d 9F       		.byte	0x9f
 5273 0b4e 00000000 		.4byte	0
 5274 0b52 00000000 		.4byte	0
 5275              	.LLST76:
 5276 0b56 20000000 		.4byte	.LVL191
 5277 0b5a 2A000000 		.4byte	.LVL193
 5278 0b5e 0200     		.2byte	0x2
 5279 0b60 31       		.byte	0x31
 5280 0b61 9F       		.byte	0x9f
 5281 0b62 2E000000 		.4byte	.LVL194
 5282 0b66 30000000 		.4byte	.LVL195
 5283 0b6a 0200     		.2byte	0x2
 5284 0b6c 30       		.byte	0x30
 5285 0b6d 9F       		.byte	0x9f
 5286 0b6e 30000000 		.4byte	.LVL195
 5287 0b72 36000000 		.4byte	.LVL196
 5288 0b76 0100     		.2byte	0x1
 5289 0b78 53       		.byte	0x53
 5290 0b79 00000000 		.4byte	0
 5291 0b7d 00000000 		.4byte	0
 5292              	.LLST77:
 5293 0b81 20000000 		.4byte	.LVL191
 5294 0b85 22000000 		.4byte	.LVL192
 5295 0b89 0100     		.2byte	0x1
 5296 0b8b 53       		.byte	0x53
 5297 0b8c 22000000 		.4byte	.LVL192
 5298 0b90 2A000000 		.4byte	.LVL193
 5299 0b94 0100     		.2byte	0x1
 5300 0b96 58       		.byte	0x58
 5301 0b97 2E000000 		.4byte	.LVL194
 5302 0b9b 30000000 		.4byte	.LVL195
 5303 0b9f 0100     		.2byte	0x1
 5304 0ba1 53       		.byte	0x53
 5305 0ba2 30000000 		.4byte	.LVL195
 5306 0ba6 66000000 		.4byte	.LVL199
 5307 0baa 0100     		.2byte	0x1
 5308 0bac 58       		.byte	0x58
ARM GAS  C:\Users\PC\AppData\Local\Temp\ccyhv7od.s 			page 127


 5309 0bad 00000000 		.4byte	0
 5310 0bb1 00000000 		.4byte	0
 5311              	.LLST78:
 5312 0bb5 0C000000 		.4byte	.LVL189
 5313 0bb9 10000000 		.4byte	.LVL190
 5314 0bbd 0200     		.2byte	0x2
 5315 0bbf 31       		.byte	0x31
 5316 0bc0 9F       		.byte	0x9f
 5317 0bc1 10000000 		.4byte	.LVL190
 5318 0bc5 80000000 		.4byte	.LVL203
 5319 0bc9 0100     		.2byte	0x1
 5320 0bcb 54       		.byte	0x54
 5321 0bcc 80000000 		.4byte	.LVL203
 5322 0bd0 82000000 		.4byte	.LVL204
 5323 0bd4 0100     		.2byte	0x1
 5324 0bd6 53       		.byte	0x53
 5325 0bd7 82000000 		.4byte	.LVL204
 5326 0bdb 88000000 		.4byte	.LVL205
 5327 0bdf 0100     		.2byte	0x1
 5328 0be1 54       		.byte	0x54
 5329 0be2 88000000 		.4byte	.LVL205
 5330 0be6 8E000000 		.4byte	.LFE49
 5331 0bea 0300     		.2byte	0x3
 5332 0bec 73       		.byte	0x73
 5333 0bed 7F       		.sleb128 -1
 5334 0bee 9F       		.byte	0x9f
 5335 0bef 00000000 		.4byte	0
 5336 0bf3 00000000 		.4byte	0
 5337              	.LLST79:
 5338 0bf7 6A000000 		.4byte	.LVL200
 5339 0bfb 7E000000 		.4byte	.LVL202
 5340 0bff 0200     		.2byte	0x2
 5341 0c01 31       		.byte	0x31
 5342 0c02 9F       		.byte	0x9f
 5343 0c03 00000000 		.4byte	0
 5344 0c07 00000000 		.4byte	0
 5345              	.LLST80:
 5346 0c0b 62000000 		.4byte	.LVL198
 5347 0c0f 71000000 		.4byte	.LVL201-1
 5348 0c13 0100     		.2byte	0x1
 5349 0c15 51       		.byte	0x51
 5350 0c16 72000000 		.4byte	.LVL201
 5351 0c1a 7E000000 		.4byte	.LVL202
 5352 0c1e 0100     		.2byte	0x1
 5353 0c20 50       		.byte	0x50
 5354 0c21 00000000 		.4byte	0
 5355 0c25 00000000 		.4byte	0
 5356              	.LLST81:
 5357 0c29 00000000 		.4byte	.LVL209
 5358 0c2d 06000000 		.4byte	.LVL211
 5359 0c31 0100     		.2byte	0x1
 5360 0c33 50       		.byte	0x50
 5361 0c34 06000000 		.4byte	.LVL211
 5362 0c38 24000000 		.4byte	.LFE48
 5363 0c3c 0400     		.2byte	0x4
 5364 0c3e F3       		.byte	0xf3
 5365 0c3f 01       		.uleb128 0x1
ARM GAS  C:\Users\PC\AppData\Local\Temp\ccyhv7od.s 			page 128


 5366 0c40 50       		.byte	0x50
 5367 0c41 9F       		.byte	0x9f
 5368 0c42 00000000 		.4byte	0
 5369 0c46 00000000 		.4byte	0
 5370              	.LLST82:
 5371 0c4a 00000000 		.4byte	.LVL209
 5372 0c4e 12000000 		.4byte	.LVL214
 5373 0c52 0100     		.2byte	0x1
 5374 0c54 51       		.byte	0x51
 5375 0c55 12000000 		.4byte	.LVL214
 5376 0c59 24000000 		.4byte	.LFE48
 5377 0c5d 0400     		.2byte	0x4
 5378 0c5f F3       		.byte	0xf3
 5379 0c60 01       		.uleb128 0x1
 5380 0c61 51       		.byte	0x51
 5381 0c62 9F       		.byte	0x9f
 5382 0c63 00000000 		.4byte	0
 5383 0c67 00000000 		.4byte	0
 5384              	.LLST83:
 5385 0c6b 02000000 		.4byte	.LVL210
 5386 0c6f 1E000000 		.4byte	.LVL216
 5387 0c73 0200     		.2byte	0x2
 5388 0c75 30       		.byte	0x30
 5389 0c76 9F       		.byte	0x9f
 5390 0c77 1E000000 		.4byte	.LVL216
 5391 0c7b 24000000 		.4byte	.LFE48
 5392 0c7f 0100     		.2byte	0x1
 5393 0c81 50       		.byte	0x50
 5394 0c82 00000000 		.4byte	0
 5395 0c86 00000000 		.4byte	0
 5396              	.LLST84:
 5397 0c8a 02000000 		.4byte	.LVL210
 5398 0c8e 0C000000 		.4byte	.LVL213
 5399 0c92 0200     		.2byte	0x2
 5400 0c94 30       		.byte	0x30
 5401 0c95 9F       		.byte	0x9f
 5402 0c96 0C000000 		.4byte	.LVL213
 5403 0c9a 18000000 		.4byte	.LVL215
 5404 0c9e 0200     		.2byte	0x2
 5405 0ca0 73       		.byte	0x73
 5406 0ca1 08       		.sleb128 8
 5407 0ca2 18000000 		.4byte	.LVL215
 5408 0ca6 1D000000 		.4byte	.LVL216-1
 5409 0caa 0100     		.2byte	0x1
 5410 0cac 51       		.byte	0x51
 5411 0cad 00000000 		.4byte	0
 5412 0cb1 00000000 		.4byte	0
 5413              	.LLST85:
 5414 0cb5 0A000000 		.4byte	.LVL212
 5415 0cb9 1D000000 		.4byte	.LVL216-1
 5416 0cbd 0100     		.2byte	0x1
 5417 0cbf 53       		.byte	0x53
 5418 0cc0 00000000 		.4byte	0
 5419 0cc4 00000000 		.4byte	0
 5420              	.LLST86:
 5421 0cc8 0C000000 		.4byte	.LVL213
 5422 0ccc 1D000000 		.4byte	.LVL216-1
ARM GAS  C:\Users\PC\AppData\Local\Temp\ccyhv7od.s 			page 129


 5423 0cd0 0100     		.2byte	0x1
 5424 0cd2 50       		.byte	0x50
 5425 0cd3 00000000 		.4byte	0
 5426 0cd7 00000000 		.4byte	0
 5427              	.LLST87:
 5428 0cdb 00000000 		.4byte	.LVL217
 5429 0cdf 12000000 		.4byte	.LVL221
 5430 0ce3 0100     		.2byte	0x1
 5431 0ce5 50       		.byte	0x50
 5432 0ce6 12000000 		.4byte	.LVL221
 5433 0cea 26000000 		.4byte	.LVL228
 5434 0cee 0100     		.2byte	0x1
 5435 0cf0 56       		.byte	0x56
 5436 0cf1 26000000 		.4byte	.LVL228
 5437 0cf5 2C000000 		.4byte	.LFE47
 5438 0cf9 0400     		.2byte	0x4
 5439 0cfb F3       		.byte	0xf3
 5440 0cfc 01       		.uleb128 0x1
 5441 0cfd 50       		.byte	0x50
 5442 0cfe 9F       		.byte	0x9f
 5443 0cff 00000000 		.4byte	0
 5444 0d03 00000000 		.4byte	0
 5445              	.LLST88:
 5446 0d07 0E000000 		.4byte	.LVL220
 5447 0d0b 12000000 		.4byte	.LVL221
 5448 0d0f 0100     		.2byte	0x1
 5449 0d11 53       		.byte	0x53
 5450 0d12 12000000 		.4byte	.LVL221
 5451 0d16 1E000000 		.4byte	.LVL224
 5452 0d1a 0100     		.2byte	0x1
 5453 0d1c 54       		.byte	0x54
 5454 0d1d 1E000000 		.4byte	.LVL224
 5455 0d21 20000000 		.4byte	.LVL225
 5456 0d25 0100     		.2byte	0x1
 5457 0d27 53       		.byte	0x53
 5458 0d28 20000000 		.4byte	.LVL225
 5459 0d2c 26000000 		.4byte	.LVL226
 5460 0d30 0100     		.2byte	0x1
 5461 0d32 54       		.byte	0x54
 5462 0d33 26000000 		.4byte	.LVL226
 5463 0d37 2C000000 		.4byte	.LFE47
 5464 0d3b 0300     		.2byte	0x3
 5465 0d3d 73       		.byte	0x73
 5466 0d3e 7F       		.sleb128 -1
 5467 0d3f 9F       		.byte	0x9f
 5468 0d40 00000000 		.4byte	0
 5469 0d44 00000000 		.4byte	0
 5470              	.LLST89:
 5471 0d48 0E000000 		.4byte	.LVL220
 5472 0d4c 12000000 		.4byte	.LVL221
 5473 0d50 0100     		.2byte	0x1
 5474 0d52 53       		.byte	0x53
 5475 0d53 00000000 		.4byte	0
 5476 0d57 00000000 		.4byte	0
 5477              	.LLST90:
 5478 0d5b 0C000000 		.4byte	.LVL219
 5479 0d5f 0E000000 		.4byte	.LVL220
ARM GAS  C:\Users\PC\AppData\Local\Temp\ccyhv7od.s 			page 130


 5480 0d63 0100     		.2byte	0x1
 5481 0d65 53       		.byte	0x53
 5482 0d66 00000000 		.4byte	0
 5483 0d6a 00000000 		.4byte	0
 5484              	.LLST91:
 5485 0d6e 04000000 		.4byte	.LVL218
 5486 0d72 12000000 		.4byte	.LVL221
 5487 0d76 0200     		.2byte	0x2
 5488 0d78 30       		.byte	0x30
 5489 0d79 9F       		.byte	0x9f
 5490 0d7a 12000000 		.4byte	.LVL221
 5491 0d7e 26000000 		.4byte	.LVL227
 5492 0d82 0100     		.2byte	0x1
 5493 0d84 55       		.byte	0x55
 5494 0d85 26000000 		.4byte	.LVL227
 5495 0d89 2C000000 		.4byte	.LFE47
 5496 0d8d 0100     		.2byte	0x1
 5497 0d8f 50       		.byte	0x50
 5498 0d90 00000000 		.4byte	0
 5499 0d94 00000000 		.4byte	0
 5500              	.LLST92:
 5501 0d98 02000000 		.4byte	.LVL229
 5502 0d9c 08000000 		.4byte	.LVL230
 5503 0da0 0200     		.2byte	0x2
 5504 0da2 33       		.byte	0x33
 5505 0da3 9F       		.byte	0x9f
 5506 0da4 08000000 		.4byte	.LVL230
 5507 0da8 12000000 		.4byte	.LVL233
 5508 0dac 0100     		.2byte	0x1
 5509 0dae 54       		.byte	0x54
 5510 0daf 12000000 		.4byte	.LVL233
 5511 0db3 14000000 		.4byte	.LVL234
 5512 0db7 0100     		.2byte	0x1
 5513 0db9 53       		.byte	0x53
 5514 0dba 14000000 		.4byte	.LVL234
 5515 0dbe 1A000000 		.4byte	.LVL235
 5516 0dc2 0100     		.2byte	0x1
 5517 0dc4 54       		.byte	0x54
 5518 0dc5 1A000000 		.4byte	.LVL235
 5519 0dc9 1C000000 		.4byte	.LFE46
 5520 0dcd 0300     		.2byte	0x3
 5521 0dcf 73       		.byte	0x73
 5522 0dd0 7F       		.sleb128 -1
 5523 0dd1 9F       		.byte	0x9f
 5524 0dd2 00000000 		.4byte	0
 5525 0dd6 00000000 		.4byte	0
 5526              	.LLST93:
 5527 0dda 02000000 		.4byte	.LVL229
 5528 0dde 08000000 		.4byte	.LVL230
 5529 0de2 0200     		.2byte	0x2
 5530 0de4 30       		.byte	0x30
 5531 0de5 9F       		.byte	0x9f
 5532 0de6 08000000 		.4byte	.LVL230
 5533 0dea 1A000000 		.4byte	.LVL236
 5534 0dee 0100     		.2byte	0x1
 5535 0df0 55       		.byte	0x55
 5536 0df1 1A000000 		.4byte	.LVL236
ARM GAS  C:\Users\PC\AppData\Local\Temp\ccyhv7od.s 			page 131


 5537 0df5 1C000000 		.4byte	.LFE46
 5538 0df9 0100     		.2byte	0x1
 5539 0dfb 50       		.byte	0x50
 5540 0dfc 00000000 		.4byte	0
 5541 0e00 00000000 		.4byte	0
 5542              		.section	.debug_aranges,"",%progbits
 5543 0000 E4000000 		.4byte	0xe4
 5544 0004 0200     		.2byte	0x2
 5545 0006 00000000 		.4byte	.Ldebug_info0
 5546 000a 04       		.byte	0x4
 5547 000b 00       		.byte	0
 5548 000c 0000     		.2byte	0
 5549 000e 0000     		.2byte	0
 5550 0010 00000000 		.4byte	.LFB54
 5551 0014 1E000000 		.4byte	.LFE54-.LFB54
 5552 0018 00000000 		.4byte	.LFB53
 5553 001c 1E000000 		.4byte	.LFE53-.LFB53
 5554 0020 00000000 		.4byte	.LFB52
 5555 0024 24000000 		.4byte	.LFE52-.LFB52
 5556 0028 00000000 		.4byte	.LFB51
 5557 002c 28000000 		.4byte	.LFE51-.LFB51
 5558 0030 00000000 		.4byte	.LFB50
 5559 0034 16000000 		.4byte	.LFE50-.LFB50
 5560 0038 00000000 		.4byte	.LFB59
 5561 003c 32000000 		.4byte	.LFE59-.LFB59
 5562 0040 00000000 		.4byte	.LFB57
 5563 0044 2C000000 		.4byte	.LFE57-.LFB57
 5564 0048 00000000 		.4byte	.LFB63
 5565 004c 2E000000 		.4byte	.LFE63-.LFB63
 5566 0050 00000000 		.4byte	.LFB56
 5567 0054 8C000000 		.4byte	.LFE56-.LFB56
 5568 0058 00000000 		.4byte	.LFB55
 5569 005c 16000000 		.4byte	.LFE55-.LFB55
 5570 0060 00000000 		.4byte	.LFB45
 5571 0064 08000000 		.4byte	.LFE45-.LFB45
 5572 0068 00000000 		.4byte	.LFB61
 5573 006c 2C000000 		.4byte	.LFE61-.LFB61
 5574 0070 00000000 		.4byte	.LFB64
 5575 0074 44000000 		.4byte	.LFE64-.LFB64
 5576 0078 00000000 		.4byte	.LFB62
 5577 007c 2C000000 		.4byte	.LFE62-.LFB62
 5578 0080 00000000 		.4byte	.LFB67
 5579 0084 2C000000 		.4byte	.LFE67-.LFB67
 5580 0088 00000000 		.4byte	.LFB68
 5581 008c 2C000000 		.4byte	.LFE68-.LFB68
 5582 0090 00000000 		.4byte	.LFB69
 5583 0094 18000000 		.4byte	.LFE69-.LFB69
 5584 0098 00000000 		.4byte	.LFB60
 5585 009c 68000000 		.4byte	.LFE60-.LFB60
 5586 00a0 00000000 		.4byte	.LFB58
 5587 00a4 2C000000 		.4byte	.LFE58-.LFB58
 5588 00a8 00000000 		.4byte	.LFB66
 5589 00ac 18000000 		.4byte	.LFE66-.LFB66
 5590 00b0 00000000 		.4byte	.LFB65
 5591 00b4 2C000000 		.4byte	.LFE65-.LFB65
 5592 00b8 00000000 		.4byte	.LFB70
 5593 00bc 12000000 		.4byte	.LFE70-.LFB70
ARM GAS  C:\Users\PC\AppData\Local\Temp\ccyhv7od.s 			page 132


 5594 00c0 00000000 		.4byte	.LFB49
 5595 00c4 8E000000 		.4byte	.LFE49-.LFB49
 5596 00c8 00000000 		.4byte	.LFB48
 5597 00cc 24000000 		.4byte	.LFE48-.LFB48
 5598 00d0 00000000 		.4byte	.LFB47
 5599 00d4 2C000000 		.4byte	.LFE47-.LFB47
 5600 00d8 00000000 		.4byte	.LFB46
 5601 00dc 1C000000 		.4byte	.LFE46-.LFB46
 5602 00e0 00000000 		.4byte	0
 5603 00e4 00000000 		.4byte	0
 5604              		.section	.debug_ranges,"",%progbits
 5605              	.Ldebug_ranges0:
 5606 0000 00000000 		.4byte	.LFB54
 5607 0004 1E000000 		.4byte	.LFE54
 5608 0008 00000000 		.4byte	.LFB53
 5609 000c 1E000000 		.4byte	.LFE53
 5610 0010 00000000 		.4byte	.LFB52
 5611 0014 24000000 		.4byte	.LFE52
 5612 0018 00000000 		.4byte	.LFB51
 5613 001c 28000000 		.4byte	.LFE51
 5614 0020 00000000 		.4byte	.LFB50
 5615 0024 16000000 		.4byte	.LFE50
 5616 0028 00000000 		.4byte	.LFB59
 5617 002c 32000000 		.4byte	.LFE59
 5618 0030 00000000 		.4byte	.LFB57
 5619 0034 2C000000 		.4byte	.LFE57
 5620 0038 00000000 		.4byte	.LFB63
 5621 003c 2E000000 		.4byte	.LFE63
 5622 0040 00000000 		.4byte	.LFB56
 5623 0044 8C000000 		.4byte	.LFE56
 5624 0048 00000000 		.4byte	.LFB55
 5625 004c 16000000 		.4byte	.LFE55
 5626 0050 00000000 		.4byte	.LFB45
 5627 0054 08000000 		.4byte	.LFE45
 5628 0058 00000000 		.4byte	.LFB61
 5629 005c 2C000000 		.4byte	.LFE61
 5630 0060 00000000 		.4byte	.LFB64
 5631 0064 44000000 		.4byte	.LFE64
 5632 0068 00000000 		.4byte	.LFB62
 5633 006c 2C000000 		.4byte	.LFE62
 5634 0070 00000000 		.4byte	.LFB67
 5635 0074 2C000000 		.4byte	.LFE67
 5636 0078 00000000 		.4byte	.LFB68
 5637 007c 2C000000 		.4byte	.LFE68
 5638 0080 00000000 		.4byte	.LFB69
 5639 0084 18000000 		.4byte	.LFE69
 5640 0088 00000000 		.4byte	.LFB60
 5641 008c 68000000 		.4byte	.LFE60
 5642 0090 00000000 		.4byte	.LFB58
 5643 0094 2C000000 		.4byte	.LFE58
 5644 0098 00000000 		.4byte	.LFB66
 5645 009c 18000000 		.4byte	.LFE66
 5646 00a0 00000000 		.4byte	.LFB65
 5647 00a4 2C000000 		.4byte	.LFE65
 5648 00a8 00000000 		.4byte	.LFB70
 5649 00ac 12000000 		.4byte	.LFE70
 5650 00b0 00000000 		.4byte	.LFB49
ARM GAS  C:\Users\PC\AppData\Local\Temp\ccyhv7od.s 			page 133


 5651 00b4 8E000000 		.4byte	.LFE49
 5652 00b8 00000000 		.4byte	.LFB48
 5653 00bc 24000000 		.4byte	.LFE48
 5654 00c0 00000000 		.4byte	.LFB47
 5655 00c4 2C000000 		.4byte	.LFE47
 5656 00c8 00000000 		.4byte	.LFB46
 5657 00cc 1C000000 		.4byte	.LFE46
 5658 00d0 00000000 		.4byte	0
 5659 00d4 00000000 		.4byte	0
 5660              		.section	.debug_line,"",%progbits
 5661              	.Ldebug_line0:
 5662 0000 BE040000 		.section	.debug_str,"MS",%progbits,1
 5662      0200D001 
 5662      00000201 
 5662      FB0E0D00 
 5662      01010101 
 5663              	.LASF22:
 5664 0000 75696E74 		.ascii	"uint16\000"
 5664      313600
 5665              	.LASF110:
 5666 0007 70747257 		.ascii	"ptrWidgetRam\000"
 5666      69646765 
 5666      7452616D 
 5666      00
 5667              	.LASF141:
 5668 0014 536D6172 		.ascii	"SmartSense_RunNoiseEnvelope\000"
 5668      7453656E 
 5668      73655F52 
 5668      756E4E6F 
 5668      69736545 
 5669              	.LASF83:
 5670 0030 43617053 		.ascii	"CapSense_FLASH_STRUCT\000"
 5670      656E7365 
 5670      5F464C41 
 5670      53485F53 
 5670      54525543 
 5671              	.LASF137:
 5672 0046 43617053 		.ascii	"CapSense_UpdateWidgetBaseline\000"
 5672      656E7365 
 5672      5F557064 
 5672      61746557 
 5672      69646765 
 5673              	.LASF58:
 5674 0064 67657374 		.ascii	"gestureId\000"
 5674      75726549 
 5674      6400
 5675              	.LASF95:
 5676 006e 43617053 		.ascii	"CapSense_FtInitializeBaseline\000"
 5676      656E7365 
 5676      5F467449 
 5676      6E697469 
 5676      616C697A 
 5677              	.LASF6:
 5678 008c 5F5F7569 		.ascii	"__uint8_t\000"
 5678      6E74385F 
 5678      7400
 5679              	.LASF56:
ARM GAS  C:\Users\PC\AppData\Local\Temp\ccyhv7od.s 			page 134


 5680 0096 66696E67 		.ascii	"fingerCap\000"
 5680      65724361 
 5680      7000
 5681              	.LASF43:
 5682 00a0 43617053 		.ascii	"CapSense_SENSE_METHOD_CSX_E\000"
 5682      656E7365 
 5682      5F53454E 
 5682      53455F4D 
 5682      4554484F 
 5683              	.LASF80:
 5684 00bc 69697246 		.ascii	"iirFilterCoeff\000"
 5684      696C7465 
 5684      72436F65 
 5684      666600
 5685              	.LASF115:
 5686 00cb 43617053 		.ascii	"CapSense_RunAverageInternal\000"
 5686      656E7365 
 5686      5F52756E 
 5686      41766572 
 5686      61676549 
 5687              	.LASF65:
 5688 00e7 43617053 		.ascii	"CapSense_RAM_SNS_STRUCT\000"
 5688      656E7365 
 5688      5F52414D 
 5688      5F534E53 
 5688      5F535452 
 5689              	.LASF12:
 5690 00ff 6C6F6E67 		.ascii	"long long unsigned int\000"
 5690      206C6F6E 
 5690      6720756E 
 5690      7369676E 
 5690      65642069 
 5691              	.LASF107:
 5692 0116 43617053 		.ascii	"CapSense_InitializeMedian\000"
 5692      656E7365 
 5692      5F496E69 
 5692      7469616C 
 5692      697A654D 
 5693              	.LASF66:
 5694 0130 70747232 		.ascii	"ptr2SnsFlash\000"
 5694      536E7346 
 5694      6C617368 
 5694      00
 5695              	.LASF20:
 5696 013d 63795F73 		.ascii	"cy_status\000"
 5696      74617475 
 5696      7300
 5697              	.LASF62:
 5698 0147 64696666 		.ascii	"diff\000"
 5698      00
 5699              	.LASF25:
 5700 014c 43617053 		.ascii	"CapSense_LOW_BSLN_RST_TYPE\000"
 5700      656E7365 
 5700      5F4C4F57 
 5700      5F42534C 
 5700      4E5F5253 
 5701              	.LASF129:
ARM GAS  C:\Users\PC\AppData\Local\Temp\ccyhv7od.s 			page 135


 5702 0167 66696C74 		.ascii	"filteredOutput\000"
 5702      65726564 
 5702      4F757470 
 5702      757400
 5703              	.LASF145:
 5704 0176 43617053 		.ascii	"CapSense_dsFlash\000"
 5704      656E7365 
 5704      5F647346 
 5704      6C617368 
 5704      00
 5705              	.LASF24:
 5706 0187 43617053 		.ascii	"CapSense_THRESHOLD_TYPE\000"
 5706      656E7365 
 5706      5F544852 
 5706      4553484F 
 5706      4C445F54 
 5707              	.LASF35:
 5708 019f 43617053 		.ascii	"CapSense_WD_LINEAR_SLIDER_E\000"
 5708      656E7365 
 5708      5F57445F 
 5708      4C494E45 
 5708      41525F53 
 5709              	.LASF119:
 5710 01bb 43617053 		.ascii	"CapSense_InitializeNoiseEnvelope\000"
 5710      656E7365 
 5710      5F496E69 
 5710      7469616C 
 5710      697A654E 
 5711              	.LASF133:
 5712 01dc 62617365 		.ascii	"baselineCoeff\000"
 5712      6C696E65 
 5712      436F6566 
 5712      6600
 5713              	.LASF1:
 5714 01ea 6C6F6E67 		.ascii	"long long int\000"
 5714      206C6F6E 
 5714      6720696E 
 5714      7400
 5715              	.LASF3:
 5716 01f8 7369676E 		.ascii	"signed char\000"
 5716      65642063 
 5716      68617200 
 5717              	.LASF88:
 5718 0204 43617053 		.ascii	"CapSense_REGULAR_FLTR_STRUCT\000"
 5718      656E7365 
 5718      5F524547 
 5718      554C4152 
 5718      5F464C54 
 5719              	.LASF9:
 5720 0221 6C6F6E67 		.ascii	"long int\000"
 5720      20696E74 
 5720      00
 5721              	.LASF68:
 5722 022a 70747232 		.ascii	"ptr2SnsRam\000"
 5722      536E7352 
 5722      616D00
 5723              	.LASF126:
ARM GAS  C:\Users\PC\AppData\Local\Temp\ccyhv7od.s 			page 136


 5724 0235 696E7075 		.ascii	"input\000"
 5724      7400
 5725              	.LASF21:
 5726 023b 75696E74 		.ascii	"uint8\000"
 5726      3800
 5727              	.LASF14:
 5728 0241 75696E74 		.ascii	"uint16_t\000"
 5728      31365F74 
 5728      00
 5729              	.LASF19:
 5730 024a 646F7562 		.ascii	"double\000"
 5730      6C6500
 5731              	.LASF45:
 5732 0251 43617053 		.ascii	"CapSense_SENSE_METHOD_ENUM\000"
 5732      656E7365 
 5732      5F53454E 
 5732      53455F4D 
 5732      4554484F 
 5733              	.LASF77:
 5734 026c 78526573 		.ascii	"xResolution\000"
 5734      6F6C7574 
 5734      696F6E00 
 5735              	.LASF128:
 5736 0278 73686966 		.ascii	"shift\000"
 5736      7400
 5737              	.LASF98:
 5738 027e 73656E73 		.ascii	"sensorId\000"
 5738      6F724964 
 5738      00
 5739              	.LASF23:
 5740 0287 75696E74 		.ascii	"uint32\000"
 5740      333200
 5741              	.LASF50:
 5742 028e 68797374 		.ascii	"hysteresis\000"
 5742      65726573 
 5742      697300
 5743              	.LASF10:
 5744 0299 5F5F7569 		.ascii	"__uint32_t\000"
 5744      6E743332 
 5744      5F7400
 5745              	.LASF61:
 5746 02a4 62736C6E 		.ascii	"bslnExt\000"
 5746      45787400 
 5747              	.LASF44:
 5748 02ac 43617053 		.ascii	"CapSense_SENSE_METHOD_BIST_E\000"
 5748      656E7365 
 5748      5F53454E 
 5748      53455F4D 
 5748      4554484F 
 5749              	.LASF76:
 5750 02c9 6E756D52 		.ascii	"numRows\000"
 5750      6F777300 
 5751              	.LASF102:
 5752 02d1 73656E73 		.ascii	"sensorsNumber\000"
 5752      6F72734E 
 5752      756D6265 
 5752      7200
ARM GAS  C:\Users\PC\AppData\Local\Temp\ccyhv7od.s 			page 137


 5753              	.LASF37:
 5754 02df 43617053 		.ascii	"CapSense_WD_MATRIX_BUTTON_E\000"
 5754      656E7365 
 5754      5F57445F 
 5754      4D415452 
 5754      49585F42 
 5755              	.LASF116:
 5756 02fb 74656D70 		.ascii	"temp\000"
 5756      00
 5757              	.LASF60:
 5758 0300 62736C6E 		.ascii	"bsln\000"
 5758      00
 5759              	.LASF0:
 5760 0305 756E7369 		.ascii	"unsigned int\000"
 5760      676E6564 
 5760      20696E74 
 5760      00
 5761              	.LASF79:
 5762 0312 70747232 		.ascii	"ptr2NoiseEnvlp\000"
 5762      4E6F6973 
 5762      65456E76 
 5762      6C7000
 5763              	.LASF11:
 5764 0321 6C6F6E67 		.ascii	"long unsigned int\000"
 5764      20756E73 
 5764      69676E65 
 5764      6420696E 
 5764      7400
 5765              	.LASF84:
 5766 0333 6D656448 		.ascii	"medHistory\000"
 5766      6973746F 
 5766      727900
 5767              	.LASF120:
 5768 033e 43617053 		.ascii	"CapSense_RunMedianInternal\000"
 5768      656E7365 
 5768      5F52756E 
 5768      4D656469 
 5768      616E496E 
 5769              	.LASF74:
 5770 0359 73656E73 		.ascii	"senseMethod\000"
 5770      654D6574 
 5770      686F6400 
 5771              	.LASF52:
 5772 0365 6C6F7742 		.ascii	"lowBslnRst\000"
 5772      736C6E52 
 5772      737400
 5773              	.LASF123:
 5774 0370 43617053 		.ascii	"CapSense_FtRunEnabledFilters\000"
 5774      656E7365 
 5774      5F467452 
 5774      756E456E 
 5774      61626C65 
 5775              	.LASF8:
 5776 038d 73686F72 		.ascii	"short unsigned int\000"
 5776      7420756E 
 5776      7369676E 
 5776      65642069 
ARM GAS  C:\Users\PC\AppData\Local\Temp\ccyhv7od.s 			page 138


 5776      6E7400
 5777              	.LASF130:
 5778 03a0 43617053 		.ascii	"CapSense_FtUpdateBaseline\000"
 5778      656E7365 
 5778      5F467455 
 5778      70646174 
 5778      65426173 
 5779              	.LASF117:
 5780 03ba 43617053 		.ascii	"CapSense_RunAverage\000"
 5780      656E7365 
 5780      5F52756E 
 5780      41766572 
 5780      61676500 
 5781              	.LASF94:
 5782 03ce 43617053 		.ascii	"CapSense_FtInitializeBaselineChannel\000"
 5782      656E7365 
 5782      5F467449 
 5782      6E697469 
 5782      616C697A 
 5783              	.LASF41:
 5784 03f3 43617053 		.ascii	"CapSense_UNDEFINED_E\000"
 5784      656E7365 
 5784      5F554E44 
 5784      4546494E 
 5784      45445F45 
 5785              	.LASF136:
 5786 0408 43617053 		.ascii	"CapSense_UpdateSensorBaseline\000"
 5786      656E7365 
 5786      5F557064 
 5786      61746553 
 5786      656E736F 
 5787              	.LASF144:
 5788 0426 433A5C55 		.ascii	"C:\\Users\\PC\\Desktop\\Workspace01\\Design01.cydsn"
 5788      73657273 
 5788      5C50435C 
 5788      4465736B 
 5788      746F705C 
 5789 0454 00       		.ascii	"\000"
 5790              	.LASF67:
 5791 0455 70747232 		.ascii	"ptr2WdgtRam\000"
 5791      57646774 
 5791      52616D00 
 5792              	.LASF5:
 5793 0461 73686F72 		.ascii	"short int\000"
 5793      7420696E 
 5793      7400
 5794              	.LASF92:
 5795 046b 77645479 		.ascii	"wdType\000"
 5795      706500
 5796              	.LASF138:
 5797 0472 62736C6E 		.ascii	"bslnStatus\000"
 5797      53746174 
 5797      757300
 5798              	.LASF97:
 5799 047d 77696467 		.ascii	"widgetId\000"
 5799      65744964 
 5799      00
ARM GAS  C:\Users\PC\AppData\Local\Temp\ccyhv7od.s 			page 139


 5800              	.LASF127:
 5801 0486 70726576 		.ascii	"prevOutput\000"
 5801      4F757470 
 5801      757400
 5802              	.LASF132:
 5803 0491 64696666 		.ascii	"difference\000"
 5803      6572656E 
 5803      636500
 5804              	.LASF53:
 5805 049c 69646163 		.ascii	"idacMod\000"
 5805      4D6F6400 
 5806              	.LASF124:
 5807 04a4 43617053 		.ascii	"CapSense_FtMedian\000"
 5807      656E7365 
 5807      5F46744D 
 5807      65646961 
 5807      6E00
 5808              	.LASF75:
 5809 04b6 6E756D43 		.ascii	"numCols\000"
 5809      6F6C7300 
 5810              	.LASF118:
 5811 04be 43617053 		.ascii	"CapSense_RunNoiseEnvelope\000"
 5811      656E7365 
 5811      5F52756E 
 5811      4E6F6973 
 5811      65456E76 
 5812              	.LASF100:
 5813 04d8 70747257 		.ascii	"ptrWidget\000"
 5813      69646765 
 5813      7400
 5814              	.LASF86:
 5815 04e2 43617053 		.ascii	"CapSense_REGULAR_FLTR_CHANNEL_STRUCT\000"
 5815      656E7365 
 5815      5F524547 
 5815      554C4152 
 5815      5F464C54 
 5816              	.LASF96:
 5817 0507 43617053 		.ascii	"CapSense_InitializeSensorBaseline\000"
 5817      656E7365 
 5817      5F496E69 
 5817      7469616C 
 5817      697A6553 
 5818              	.LASF71:
 5819 0529 73746174 		.ascii	"staticConfig\000"
 5819      6963436F 
 5819      6E666967 
 5819      00
 5820              	.LASF49:
 5821 0536 6E4E6F69 		.ascii	"nNoiseTh\000"
 5821      73655468 
 5821      00
 5822              	.LASF57:
 5823 053f 73696750 		.ascii	"sigPFC\000"
 5823      464300
 5824              	.LASF73:
 5825 0546 77646774 		.ascii	"wdgtType\000"
 5825      54797065 
ARM GAS  C:\Users\PC\AppData\Local\Temp\ccyhv7od.s 			page 140


 5825      00
 5826              	.LASF78:
 5827 054f 7843656E 		.ascii	"xCentroidMultiplier\000"
 5827      74726F69 
 5827      644D756C 
 5827      7469706C 
 5827      69657200 
 5828              	.LASF42:
 5829 0563 43617053 		.ascii	"CapSense_SENSE_METHOD_CSD_E\000"
 5829      656E7365 
 5829      5F53454E 
 5829      53455F4D 
 5829      4554484F 
 5830              	.LASF85:
 5831 057f 61766748 		.ascii	"avgHistory\000"
 5831      6973746F 
 5831      727900
 5832              	.LASF113:
 5833 058a 43617053 		.ascii	"CapSense_FtInitialize\000"
 5833      656E7365 
 5833      5F467449 
 5833      6E697469 
 5833      616C697A 
 5834              	.LASF121:
 5835 05a0 43617053 		.ascii	"CapSense_RunMedian\000"
 5835      656E7365 
 5835      5F52756E 
 5835      4D656469 
 5835      616E00
 5836              	.LASF18:
 5837 05b3 666C6F61 		.ascii	"float\000"
 5837      7400
 5838              	.LASF36:
 5839 05b9 43617053 		.ascii	"CapSense_WD_RADIAL_SLIDER_E\000"
 5839      656E7365 
 5839      5F57445F 
 5839      52414449 
 5839      414C5F53 
 5840              	.LASF33:
 5841 05d5 534D4152 		.ascii	"SMARTSENSE_CSD_NOISE_ENVELOPE_STRUCT\000"
 5841      5453454E 
 5841      53455F43 
 5841      53445F4E 
 5841      4F495345 
 5842              	.LASF135:
 5843 05fa 68697374 		.ascii	"history\000"
 5843      6F727900 
 5844              	.LASF106:
 5845 0602 70747253 		.ascii	"ptrSensorObj\000"
 5845      656E736F 
 5845      724F626A 
 5845      00
 5846              	.LASF87:
 5847 060f 72656775 		.ascii	"regularChannel\000"
 5847      6C617243 
 5847      68616E6E 
 5847      656C00
ARM GAS  C:\Users\PC\AppData\Local\Temp\ccyhv7od.s 			page 141


 5848              	.LASF34:
 5849 061e 43617053 		.ascii	"CapSense_WD_BUTTON_E\000"
 5849      656E7365 
 5849      5F57445F 
 5849      42555454 
 5849      4F4E5F45 
 5850              	.LASF26:
 5851 0633 70617261 		.ascii	"param0\000"
 5851      6D3000
 5852              	.LASF27:
 5853 063a 70617261 		.ascii	"param1\000"
 5853      6D3100
 5854              	.LASF28:
 5855 0641 70617261 		.ascii	"param2\000"
 5855      6D3200
 5856              	.LASF29:
 5857 0648 70617261 		.ascii	"param3\000"
 5857      6D3300
 5858              	.LASF30:
 5859 064f 70617261 		.ascii	"param4\000"
 5859      6D3400
 5860              	.LASF31:
 5861 0656 70617261 		.ascii	"param5\000"
 5861      6D3500
 5862              	.LASF32:
 5863 065d 70617261 		.ascii	"param6\000"
 5863      6D3600
 5864              	.LASF81:
 5865 0664 43617053 		.ascii	"CapSense_FLASH_WD_STRUCT\000"
 5865      656E7365 
 5865      5F464C41 
 5865      53485F57 
 5865      445F5354 
 5866              	.LASF69:
 5867 067d 70747232 		.ascii	"ptr2FltrHistory\000"
 5867      466C7472 
 5867      48697374 
 5867      6F727900 
 5868              	.LASF112:
 5869 068d 43617053 		.ascii	"CapSense_InitializeAllFilters\000"
 5869      656E7365 
 5869      5F496E69 
 5869      7469616C 
 5869      697A6541 
 5870              	.LASF139:
 5871 06ab 43617053 		.ascii	"CapSense_UpdateAllBaselines\000"
 5871      656E7365 
 5871      5F557064 
 5871      61746541 
 5871      6C6C4261 
 5872              	.LASF122:
 5873 06c7 43617053 		.ascii	"CapSense_FtRunEnabledFiltersInternal\000"
 5873      656E7365 
 5873      5F467452 
 5873      756E456E 
 5873      61626C65 
 5874              	.LASF38:
ARM GAS  C:\Users\PC\AppData\Local\Temp\ccyhv7od.s 			page 142


 5875 06ec 43617053 		.ascii	"CapSense_WD_TOUCHPAD_E\000"
 5875      656E7365 
 5875      5F57445F 
 5875      544F5543 
 5875      48504144 
 5876              	.LASF143:
 5877 0703 47656E65 		.ascii	"Generated_Source\\PSoC6\\CapSense_Filter.c\000"
 5877      72617465 
 5877      645F536F 
 5877      75726365 
 5877      5C50536F 
 5878              	.LASF99:
 5879 072c 66726571 		.ascii	"freqChannel\000"
 5879      4368616E 
 5879      6E656C00 
 5880              	.LASF93:
 5881 0738 6368616E 		.ascii	"channel\000"
 5881      6E656C00 
 5882              	.LASF90:
 5883 0740 43617053 		.ascii	"CapSense_PTR_FILTER_VARIANT\000"
 5883      656E7365 
 5883      5F505452 
 5883      5F46494C 
 5883      5445525F 
 5884              	.LASF15:
 5885 075c 75696E74 		.ascii	"uint32_t\000"
 5885      33325F74 
 5885      00
 5886              	.LASF142:
 5887 0765 474E5520 		.ascii	"GNU C11 5.4.1 20160609 (release) [ARM/embedded-5-br"
 5887      43313120 
 5887      352E342E 
 5887      31203230 
 5887      31363036 
 5888 0798 616E6368 		.ascii	"anch revision 237715] -mcpu=cortex-m0plus -mthumb -"
 5888      20726576 
 5888      6973696F 
 5888      6E203233 
 5888      37373135 
 5889 07cb 67202D4F 		.ascii	"g -Og -ffunction-sections -ffat-lto-objects\000"
 5889      67202D66 
 5889      66756E63 
 5889      74696F6E 
 5889      2D736563 
 5890              	.LASF2:
 5891 07f7 6C6F6E67 		.ascii	"long double\000"
 5891      20646F75 
 5891      626C6500 
 5892              	.LASF17:
 5893 0803 63686172 		.ascii	"char\000"
 5893      00
 5894              	.LASF7:
 5895 0808 5F5F7569 		.ascii	"__uint16_t\000"
 5895      6E743136 
 5895      5F7400
 5896              	.LASF54:
 5897 0813 736E7343 		.ascii	"snsClk\000"
ARM GAS  C:\Users\PC\AppData\Local\Temp\ccyhv7od.s 			page 143


 5897      6C6B00
 5898              	.LASF59:
 5899 081a 43617053 		.ascii	"CapSense_RAM_WD_BASE_STRUCT\000"
 5899      656E7365 
 5899      5F52414D 
 5899      5F57445F 
 5899      42415345 
 5900              	.LASF140:
 5901 0836 536D6172 		.ascii	"SmartSense_InitializeNoiseEnvelope\000"
 5901      7453656E 
 5901      73655F49 
 5901      6E697469 
 5901      616C697A 
 5902              	.LASF51:
 5903 0859 6F6E4465 		.ascii	"onDebounce\000"
 5903      626F756E 
 5903      636500
 5904              	.LASF40:
 5905 0864 43617053 		.ascii	"CapSense_WD_TYPE_ENUM\000"
 5905      656E7365 
 5905      5F57445F 
 5905      54595045 
 5905      5F454E55 
 5906              	.LASF101:
 5907 087a 43617053 		.ascii	"CapSense_InitializeWidgetBaseline\000"
 5907      656E7365 
 5907      5F496E69 
 5907      7469616C 
 5907      697A6557 
 5908              	.LASF64:
 5909 089c 69646163 		.ascii	"idacComp\000"
 5909      436F6D70 
 5909      00
 5910              	.LASF109:
 5911 08a5 43617053 		.ascii	"CapSense_InitializeWidgetFilter\000"
 5911      656E7365 
 5911      5F496E69 
 5911      7469616C 
 5911      697A6557 
 5912              	.LASF4:
 5913 08c5 756E7369 		.ascii	"unsigned char\000"
 5913      676E6564 
 5913      20636861 
 5913      7200
 5914              	.LASF63:
 5915 08d3 6E656742 		.ascii	"negBslnRstCnt\000"
 5915      736C6E52 
 5915      7374436E 
 5915      7400
 5916              	.LASF103:
 5917 08e1 43617053 		.ascii	"CapSense_InitializeAllBaselines\000"
 5917      656E7365 
 5917      5F496E69 
 5917      7469616C 
 5917      697A6541 
 5918              	.LASF70:
 5919 0901 70747232 		.ascii	"ptr2DebounceArr\000"
ARM GAS  C:\Users\PC\AppData\Local\Temp\ccyhv7od.s 			page 144


 5919      4465626F 
 5919      756E6365 
 5919      41727200 
 5920              	.LASF114:
 5921 0911 43617053 		.ascii	"CapSense_InitializeAverage\000"
 5921      656E7365 
 5921      5F496E69 
 5921      7469616C 
 5921      697A6541 
 5922              	.LASF46:
 5923 092c 7265736F 		.ascii	"resolution\000"
 5923      6C757469 
 5923      6F6E00
 5924              	.LASF72:
 5925 0937 746F7461 		.ascii	"totalNumSns\000"
 5925      6C4E756D 
 5925      536E7300 
 5926              	.LASF82:
 5927 0943 77646774 		.ascii	"wdgtArray\000"
 5927      41727261 
 5927      7900
 5928              	.LASF125:
 5929 094d 43617053 		.ascii	"CapSense_FtIIR1stOrder\000"
 5929      656E7365 
 5929      5F467449 
 5929      49523173 
 5929      744F7264 
 5930              	.LASF13:
 5931 0964 75696E74 		.ascii	"uint8_t\000"
 5931      385F7400 
 5932              	.LASF131:
 5933 096c 7369676E 		.ascii	"sign\000"
 5933      00
 5934              	.LASF16:
 5935 0971 73697A65 		.ascii	"sizetype\000"
 5935      74797065 
 5935      00
 5936              	.LASF55:
 5937 097a 736E7343 		.ascii	"snsClkSource\000"
 5937      6C6B536F 
 5937      75726365 
 5937      00
 5938              	.LASF105:
 5939 0987 70747246 		.ascii	"ptrFilterHistObj\000"
 5939      696C7465 
 5939      72486973 
 5939      744F626A 
 5939      00
 5940              	.LASF108:
 5941 0998 43617053 		.ascii	"CapSense_InitializeAverageInternal\000"
 5941      656E7365 
 5941      5F496E69 
 5941      7469616C 
 5941      697A6541 
 5942              	.LASF91:
 5943 09bb 70747253 		.ascii	"ptrSensor\000"
 5943      656E736F 
ARM GAS  C:\Users\PC\AppData\Local\Temp\ccyhv7od.s 			page 145


 5943      7200
 5944              	.LASF111:
 5945 09c5 7074724E 		.ascii	"ptrNoiseEnvelope\000"
 5945      6F697365 
 5945      456E7665 
 5945      6C6F7065 
 5945      00
 5946              	.LASF47:
 5947 09d6 66696E67 		.ascii	"fingerTh\000"
 5947      65725468 
 5947      00
 5948              	.LASF39:
 5949 09df 43617053 		.ascii	"CapSense_WD_PROXIMITY_E\000"
 5949      656E7365 
 5949      5F57445F 
 5949      50524F58 
 5949      494D4954 
 5950              	.LASF89:
 5951 09f7 70747252 		.ascii	"ptrRegular\000"
 5951      6567756C 
 5951      617200
 5952              	.LASF134:
 5953 0a02 72657375 		.ascii	"result\000"
 5953      6C7400
 5954              	.LASF104:
 5955 0a09 43617053 		.ascii	"CapSense_InitializeMedianInternal\000"
 5955      656E7365 
 5955      5F496E69 
 5955      7469616C 
 5955      697A654D 
 5956              	.LASF48:
 5957 0a2b 6E6F6973 		.ascii	"noiseTh\000"
 5957      65546800 
 5958              		.ident	"GCC: (GNU Tools for ARM Embedded Processors) 5.4.1 20160609 (release) [ARM/embedded-5-bran
