ARM GAS  C:\Users\PC\AppData\Local\Temp\ccYqRaZ6.s 			page 1


   1              		.syntax unified
   2              		.cpu cortex-m0
   3              		.fpu softvfp
   4              		.eabi_attribute 20, 1
   5              		.eabi_attribute 21, 1
   6              		.eabi_attribute 23, 3
   7              		.eabi_attribute 24, 1
   8              		.eabi_attribute 25, 1
   9              		.eabi_attribute 26, 1
  10              		.eabi_attribute 30, 6
  11              		.eabi_attribute 34, 0
  12              		.eabi_attribute 18, 4
  13              		.thumb
  14              		.syntax unified
  15              		.file	"BLE_gatt.c"
  16              		.text
  17              	.Ltext0:
  18              		.cfi_sections	.debug_frame
  19              		.comm	cyBle_state,1,1
  20              		.global	cyBle_gatts
  21              		.section	.rodata
  22              		.align	2
  23              		.type	cyBle_gatts, %object
  24              		.size	cyBle_gatts, 6
  25              	cyBle_gatts:
  26 0000 0800     		.short	8
  27 0002 0A00     		.short	10
  28 0004 0B00     		.short	11
  29              		.data
  30              		.align	2
  31              		.type	cyBle_attValues, %object
  32              		.size	cyBle_attValues, 46
  33              	cyBle_attValues:
  34 0000 50       		.byte	80
  35 0001 72       		.byte	114
  36 0002 6F       		.byte	111
  37 0003 78       		.byte	120
  38 0004 69       		.byte	105
  39 0005 6D       		.byte	109
  40 0006 69       		.byte	105
  41 0007 74       		.byte	116
  42 0008 79       		.byte	121
  43 0009 50       		.byte	80
  44 000a 73       		.byte	115
  45 000b 4F       		.byte	79
  46 000c 43       		.byte	67
  47 000d 81       		.byte	-127
  48 000e 04       		.byte	4
  49 000f 3C       		.byte	60
  50 0010 00       		.byte	0
  51 0011 50       		.byte	80
  52 0012 00       		.byte	0
  53 0013 00       		.byte	0
  54 0014 00       		.byte	0
  55 0015 C8       		.byte	-56
  56 0016 00       		.byte	0
  57 0017 00       		.byte	0
ARM GAS  C:\Users\PC\AppData\Local\Temp\ccYqRaZ6.s 			page 2


  58 0018 00       		.byte	0
  59 0019 00       		.byte	0
  60 001a 00       		.byte	0
  61 001b 00       		.byte	0
  62 001c 43       		.byte	67
  63 001d 61       		.byte	97
  64 001e 70       		.byte	112
  65 001f 53       		.byte	83
  66 0020 65       		.byte	101
  67 0021 6E       		.byte	110
  68 0022 73       		.byte	115
  69 0023 65       		.byte	101
  70 0024 20       		.byte	32
  71 0025 50       		.byte	80
  72 0026 72       		.byte	114
  73 0027 6F       		.byte	111
  74 0028 78       		.byte	120
  75 0029 69       		.byte	105
  76 002a 6D       		.byte	109
  77 002b 69       		.byte	105
  78 002c 74       		.byte	116
  79 002d 79       		.byte	121
  80              		.comm	cyBle_attValuesCCCD,4,4
  81              		.global	cyBle_attValuesLen
  82 002e 0000     		.align	2
  83              		.type	cyBle_attValuesLen, %object
  84              		.size	cyBle_attValuesLen, 64
  85              	cyBle_attValuesLen:
  86 0030 0D00     		.short	13
  87 0032 0000     		.space	2
  88 0034 00000000 		.word	cyBle_attValues
  89 0038 0200     		.short	2
  90 003a 0000     		.space	2
  91 003c 0D000000 		.word	cyBle_attValues+13
  92 0040 0800     		.short	8
  93 0042 0000     		.space	2
  94 0044 0F000000 		.word	cyBle_attValues+15
  95 0048 0400     		.short	4
  96 004a 0000     		.space	2
  97 004c 17000000 		.word	cyBle_attValues+23
  98 0050 0200     		.short	2
  99 0052 0000     		.space	2
 100 0054 00000000 		.word	cyBle_attValuesCCCD
 101 0058 0100     		.short	1
 102 005a 0000     		.space	2
 103 005c 1B000000 		.word	cyBle_attValues+27
 104 0060 0200     		.short	2
 105 0062 0000     		.space	2
 106 0064 02000000 		.word	cyBle_attValuesCCCD+2
 107 0068 1200     		.short	18
 108 006a 0000     		.space	2
 109 006c 1C000000 		.word	cyBle_attValues+28
 110              		.global	cyBle_gattDB
 111              		.section	.rodata
 112 0006 0000     		.align	2
 113              		.type	cyBle_gattDB, %object
 114              		.size	cyBle_gattDB, 320
ARM GAS  C:\Users\PC\AppData\Local\Temp\ccYqRaZ6.s 			page 3


 115              	cyBle_gattDB:
 116 0008 0100     		.short	1
 117 000a 0028     		.short	10240
 118 000c 01000000 		.word	1
 119 0010 0700     		.short	7
 120 0012 0000     		.space	2
 121 0014 0018     		.short	6144
 122 0016 0000     		.space	2
 123 0018 00000000 		.word	0
 124 001c 0200     		.short	2
 125 001e 0328     		.short	10243
 126 0020 01000200 		.word	131073
 127 0024 0300     		.short	3
 128 0026 0000     		.space	2
 129 0028 002A     		.short	10752
 130 002a 0000     		.space	2
 131 002c 00000000 		.word	0
 132 0030 0300     		.short	3
 133 0032 002A     		.short	10752
 134 0034 01000201 		.word	16908289
 135 0038 0300     		.short	3
 136 003a 0000     		.space	2
 137 003c 0D00     		.short	13
 138 003e 0000     		.space	2
 139 0040 00000000 		.word	cyBle_attValuesLen
 140 0044 0400     		.short	4
 141 0046 0328     		.short	10243
 142 0048 01000200 		.word	131073
 143 004c 0500     		.short	5
 144 004e 0000     		.space	2
 145 0050 012A     		.short	10753
 146 0052 0000     		.space	2
 147 0054 00000000 		.word	0
 148 0058 0500     		.short	5
 149 005a 012A     		.short	10753
 150 005c 01000201 		.word	16908289
 151 0060 0500     		.short	5
 152 0062 0000     		.space	2
 153 0064 0200     		.short	2
 154 0066 0000     		.space	2
 155 0068 08000000 		.word	cyBle_attValuesLen+8
 156 006c 0600     		.short	6
 157 006e 0328     		.short	10243
 158 0070 01000200 		.word	131073
 159 0074 0700     		.short	7
 160 0076 0000     		.space	2
 161 0078 042A     		.short	10756
 162 007a 0000     		.space	2
 163 007c 00000000 		.word	0
 164 0080 0700     		.short	7
 165 0082 042A     		.short	10756
 166 0084 01000201 		.word	16908289
 167 0088 0700     		.short	7
 168 008a 0000     		.space	2
 169 008c 0800     		.short	8
 170 008e 0000     		.space	2
 171 0090 10000000 		.word	cyBle_attValuesLen+16
ARM GAS  C:\Users\PC\AppData\Local\Temp\ccYqRaZ6.s 			page 4


 172 0094 0800     		.short	8
 173 0096 0028     		.short	10240
 174 0098 01000000 		.word	1
 175 009c 0B00     		.short	11
 176 009e 0000     		.space	2
 177 00a0 0118     		.short	6145
 178 00a2 0000     		.space	2
 179 00a4 00000000 		.word	0
 180 00a8 0900     		.short	9
 181 00aa 0328     		.short	10243
 182 00ac 01002200 		.word	2228225
 183 00b0 0B00     		.short	11
 184 00b2 0000     		.space	2
 185 00b4 052A     		.short	10757
 186 00b6 0000     		.space	2
 187 00b8 00000000 		.word	0
 188 00bc 0A00     		.short	10
 189 00be 052A     		.short	10757
 190 00c0 01002201 		.word	19005441
 191 00c4 0B00     		.short	11
 192 00c6 0000     		.space	2
 193 00c8 0400     		.short	4
 194 00ca 0000     		.space	2
 195 00cc 18000000 		.word	cyBle_attValuesLen+24
 196 00d0 0B00     		.short	11
 197 00d2 0229     		.short	10498
 198 00d4 01010A01 		.word	17432833
 199 00d8 0B00     		.short	11
 200 00da 0000     		.space	2
 201 00dc 0200     		.short	2
 202 00de 0000     		.space	2
 203 00e0 20000000 		.word	cyBle_attValuesLen+32
 204 00e4 0C00     		.short	12
 205 00e6 0028     		.short	10240
 206 00e8 01000000 		.word	1
 207 00ec 1000     		.short	16
 208 00ee 0000     		.space	2
 209 00f0 B5CA     		.short	-13643
 210 00f2 0000     		.space	2
 211 00f4 00000000 		.word	0
 212 00f8 0D00     		.short	13
 213 00fa 0328     		.short	10243
 214 00fc 01001000 		.word	1048577
 215 0100 1000     		.short	16
 216 0102 0000     		.space	2
 217 0104 A1CA     		.short	-13663
 218 0106 0000     		.space	2
 219 0108 00000000 		.word	0
 220 010c 0E00     		.short	14
 221 010e A1CA     		.short	-13663
 222 0110 00001001 		.word	17825792
 223 0114 1000     		.short	16
 224 0116 0000     		.space	2
 225 0118 0100     		.short	1
 226 011a 0000     		.space	2
 227 011c 28000000 		.word	cyBle_attValuesLen+40
 228 0120 0F00     		.short	15
ARM GAS  C:\Users\PC\AppData\Local\Temp\ccYqRaZ6.s 			page 5


 229 0122 0229     		.short	10498
 230 0124 01090A01 		.word	17434881
 231 0128 0F00     		.short	15
 232 012a 0000     		.space	2
 233 012c 0200     		.short	2
 234 012e 0000     		.space	2
 235 0130 30000000 		.word	cyBle_attValuesLen+48
 236 0134 1000     		.short	16
 237 0136 0129     		.short	10497
 238 0138 01000201 		.word	16908289
 239 013c 1000     		.short	16
 240 013e 0000     		.space	2
 241 0140 1200     		.short	18
 242 0142 0000     		.space	2
 243 0144 38000000 		.word	cyBle_attValuesLen+56
 244              		.section	.text.CyBle_GattsReInitGattDb,"ax",%progbits
 245              		.align	2
 246              		.global	CyBle_GattsReInitGattDb
 247              		.code	16
 248              		.thumb_func
 249              		.type	CyBle_GattsReInitGattDb, %function
 250              	CyBle_GattsReInitGattDb:
 251              	.LFB2:
 252              		.file 1 "Generated_Source\\PSoC4\\BLE_gatt.c"
   1:Generated_Source\PSoC4/BLE_gatt.c **** /***************************************************************************//**
   2:Generated_Source\PSoC4/BLE_gatt.c **** * \file CYBLE_gatt.c
   3:Generated_Source\PSoC4/BLE_gatt.c **** * \version 3.30
   4:Generated_Source\PSoC4/BLE_gatt.c **** * 
   5:Generated_Source\PSoC4/BLE_gatt.c **** * \brief
   6:Generated_Source\PSoC4/BLE_gatt.c **** *  This file contains the source code for the GATT API of the BLE Component.
   7:Generated_Source\PSoC4/BLE_gatt.c **** * 
   8:Generated_Source\PSoC4/BLE_gatt.c **** ********************************************************************************
   9:Generated_Source\PSoC4/BLE_gatt.c **** * \copyright
  10:Generated_Source\PSoC4/BLE_gatt.c **** * Copyright 2014-2016, Cypress Semiconductor Corporation.  All rights reserved.
  11:Generated_Source\PSoC4/BLE_gatt.c **** * You may use this file only in accordance with the license, terms, conditions,
  12:Generated_Source\PSoC4/BLE_gatt.c **** * disclaimers, and limitations in the end user license agreement accompanying
  13:Generated_Source\PSoC4/BLE_gatt.c **** * the software package with which this file was provided.
  14:Generated_Source\PSoC4/BLE_gatt.c **** *******************************************************************************/
  15:Generated_Source\PSoC4/BLE_gatt.c **** 
  16:Generated_Source\PSoC4/BLE_gatt.c **** 
  17:Generated_Source\PSoC4/BLE_gatt.c **** #include "BLE_eventHandler.h"
  18:Generated_Source\PSoC4/BLE_gatt.c **** 
  19:Generated_Source\PSoC4/BLE_gatt.c **** 
  20:Generated_Source\PSoC4/BLE_gatt.c **** /***************************************
  21:Generated_Source\PSoC4/BLE_gatt.c **** * Global variables
  22:Generated_Source\PSoC4/BLE_gatt.c **** ***************************************/
  23:Generated_Source\PSoC4/BLE_gatt.c **** 
  24:Generated_Source\PSoC4/BLE_gatt.c **** CYBLE_STATE_T cyBle_state;
  25:Generated_Source\PSoC4/BLE_gatt.c **** 
  26:Generated_Source\PSoC4/BLE_gatt.c **** #if ((CYBLE_MODE_PROFILE) && (CYBLE_BONDING_REQUIREMENT == CYBLE_BONDING_YES))
  27:Generated_Source\PSoC4/BLE_gatt.c ****     
  28:Generated_Source\PSoC4/BLE_gatt.c **** #if(CYBLE_MODE_PROFILE)
  29:Generated_Source\PSoC4/BLE_gatt.c ****     #if defined(__ARMCC_VERSION)
  30:Generated_Source\PSoC4/BLE_gatt.c ****         CY_ALIGN(CYDEV_FLS_ROW_SIZE) const CY_BLE_FLASH_STORAGE cyBle_flashStorage CY_SECTION(".cy_
  31:Generated_Source\PSoC4/BLE_gatt.c ****     #elif defined (__GNUC__)
  32:Generated_Source\PSoC4/BLE_gatt.c ****         const CY_BLE_FLASH_STORAGE cyBle_flashStorage CY_SECTION(".cy_checksum_exclude")
  33:Generated_Source\PSoC4/BLE_gatt.c ****             CY_ALIGN(CYDEV_FLS_ROW_SIZE) =
ARM GAS  C:\Users\PC\AppData\Local\Temp\ccYqRaZ6.s 			page 6


  34:Generated_Source\PSoC4/BLE_gatt.c ****     #elif defined (__ICCARM__)
  35:Generated_Source\PSoC4/BLE_gatt.c ****         #pragma data_alignment=CY_FLASH_SIZEOF_ROW
  36:Generated_Source\PSoC4/BLE_gatt.c ****         #pragma location=".cy_checksum_exclude"
  37:Generated_Source\PSoC4/BLE_gatt.c ****         const CY_BLE_FLASH_STORAGE cyBle_flashStorage =
  38:Generated_Source\PSoC4/BLE_gatt.c ****     #endif  /* (__ARMCC_VERSION) */
  39:Generated_Source\PSoC4/BLE_gatt.c ****     {
  40:Generated_Source\PSoC4/BLE_gatt.c ****         { 0x00u, 0x00u, 0x00u, 0x00u, 0x00u, 0x00u, 0x00u, 0x00u, 0x00u, 0x00u, 0x00u, 0x00u, 0x00u
  41:Generated_Source\PSoC4/BLE_gatt.c ****         0x00u, 0x00u, 0x00u, 0x00u, 0x00u, 0x00u, 0x00u, 0x00u, 0x00u, 0x00u, 0x00u, 0x00u, 0x00u, 
  42:Generated_Source\PSoC4/BLE_gatt.c ****         0x00u, 0x00u, 0x00u, 0x00u, 0x00u, 0x00u, 0x00u, 0x00u, 0x00u, 0x00u, 0x00u, 0x00u, 0x00u, 
  43:Generated_Source\PSoC4/BLE_gatt.c ****         0x00u, 0x00u, 0x00u, 0x00u, 0x00u, 0x00u, 0x00u, 0x00u, 0x00u, 0x00u, 0x00u, 0x00u, 0x00u, 
  44:Generated_Source\PSoC4/BLE_gatt.c ****         0x00u, 0x00u, 0x00u, 0x00u, 0x00u, 0x00u, 0x00u, 0x00u, 0x00u, 0x00u, 0x00u, 0x00u, 0x00u, 
  45:Generated_Source\PSoC4/BLE_gatt.c ****         0x00u, 0x00u, 0x00u, 0x00u, 0x00u, 0x00u, 0x00u, 0x00u, 0x00u, 0x00u, 0x00u, 0x00u, 0x00u, 
  46:Generated_Source\PSoC4/BLE_gatt.c ****         0x00u, 0x00u, 0x00u, 0x00u, 0x00u, 0x00u, 0x00u, 0x00u, 0x00u, 0x00u, 0x00u, 0x00u, 0x00u, 
  47:Generated_Source\PSoC4/BLE_gatt.c ****         0x00u, 0x00u, 0x00u, 0x00u, 0x00u, 0x00u, 0x00u, 0x00u, 0x00u, 0x00u, 0x00u, 0x00u, 0x00u, 
  48:Generated_Source\PSoC4/BLE_gatt.c ****         0x00u, 0x00u, 0x00u, 0x00u, 0x00u, 0x00u, 0x00u, 0x00u, 0x00u, 0x00u, 0x00u, 0x00u, 0x00u, 
  49:Generated_Source\PSoC4/BLE_gatt.c ****         0x00u, 0x00u, 0x00u, 0x00u, 0x00u, 0x00u, 0x00u, 0x00u, 0x00u, 0x00u, 0x00u, 0x00u, 0x00u, 
  50:Generated_Source\PSoC4/BLE_gatt.c ****         0x00u, 0x00u, 0x00u, 0x00u, 0x00u, 0x00u, 0x00u, 0x00u, 0x00u, 0x00u, 0x00u, 0x00u, 0x00u, 
  51:Generated_Source\PSoC4/BLE_gatt.c ****         0x00u, 0x00u, 0x00u, 0x00u, 0x00u, 0x00u, 0x00u, 0x00u, 0x00u, 0x00u, 0x00u, 0x00u, 0x00u, 
  52:Generated_Source\PSoC4/BLE_gatt.c ****         0x00u, 0x00u, 0x00u, 0x00u, 0x00u, 0x00u, 0x00u, 0x00u, 0x00u, 0x00u, 0x00u, 0x00u, 0x00u, 
  53:Generated_Source\PSoC4/BLE_gatt.c ****         0x00u, 0x00u, 0x00u, 0x00u, 0x00u, 0x00u, 0x00u, 0x00u, 0x00u, 0x00u, 0x00u, 0x00u, 0x00u, 
  54:Generated_Source\PSoC4/BLE_gatt.c ****         0x00u, 0x00u, 0x00u, 0x00u, 0x00u, 0x00u, 0x00u, 0x00u, 0x00u, 0x00u, 0x00u, 0x00u, 0x00u, 
  55:Generated_Source\PSoC4/BLE_gatt.c ****         0x00u, 0x00u, 0x00u, 0x00u, 0x00u, 0x00u, 0x00u, 0x00u, 0x00u, 0x00u, 0x00u, 0x00u, 0x00u, 
  56:Generated_Source\PSoC4/BLE_gatt.c ****         0x00u, 0x00u, 0x00u, 0x00u, 0x00u, 0x00u, 0x00u, 0x00u, 0x00u, 0x00u, 0x00u, 0x00u, 0x00u, 
  57:Generated_Source\PSoC4/BLE_gatt.c ****         0x00u, 0x00u, 0x00u, 0x00u, 0x00u, 0x00u, 0x00u, 0x00u, 0x00u, 0x00u, 0x00u, 0x00u, 0x00u, 
  58:Generated_Source\PSoC4/BLE_gatt.c ****         0x00u, 0x00u, 0x00u, 0x00u, 0x00u, 0x00u, 0x00u, 0x00u, 0x00u, 0x00u, 0x00u, 0x00u, 0x00u, 
  59:Generated_Source\PSoC4/BLE_gatt.c ****         0x00u, 0x00u, 0x00u, 0x00u, 0x00u, 0x00u, 0x00u, 0x00u, 0x00u, 0x00u, 0x00u, 0x00u, 0x00u, 
  60:Generated_Source\PSoC4/BLE_gatt.c ****         0x00u, 0x00u, 0x00u, 0x00u, 0x00u, 0x00u, 0x00u, 0x00u, 0x00u, 0x00u, 0x00u, 0x00u, 0x00u, 
  61:Generated_Source\PSoC4/BLE_gatt.c ****         0x00u, 0x00u, 0x00u, 0x00u, 0x00u, 0x00u, 0x00u, 0x00u, 0x00u, 0x00u, 0x00u, 0x00u, 0x00u, 
  62:Generated_Source\PSoC4/BLE_gatt.c ****         0x00u, 0x00u, 0x00u, 0x00u, 0x00u, 0x00u, 0x00u, 0x00u, 0x00u, 0x00u, 0x00u, 0x00u, 0x00u, 
  63:Generated_Source\PSoC4/BLE_gatt.c ****         0x00u, 0x00u, 0x00u, 0x00u, 0x00u, 0x00u, 0x00u, 0x00u, 0x00u, 0x00u, 0x00u, 0x00u, 0x00u, 
  64:Generated_Source\PSoC4/BLE_gatt.c ****         0x00u, 0x00u, 0x00u, 0x00u, 0x00u, 0x00u, 0x00u, 0x00u, 0x00u, 0x00u, 0x00u, 0x00u, 0x00u, 
  65:Generated_Source\PSoC4/BLE_gatt.c ****         0x00u, 0x00u, 0x00u, 0x00u, 0x00u, 0x00u, 0x00u, 0x00u, 0x00u, 0x00u, 0x00u, 0x00u, 0x00u, 
  66:Generated_Source\PSoC4/BLE_gatt.c ****         0x00u, 0x00u, 0x00u, 0x00u, 0x00u, 0x00u, 0x00u, 0x00u, 0x00u, 0x00u, 0x00u, 0x00u, 0x00u, 
  67:Generated_Source\PSoC4/BLE_gatt.c ****         0x00u, 0x00u, 0x00u, 0x00u, 0x00u, 0x00u, 0x00u, 0x00u, 0x00u, 0x00u, 0x00u, 0x00u, 0x00u, 
  68:Generated_Source\PSoC4/BLE_gatt.c ****         0x00u, 0x00u, 0x00u, 0x00u, 0x00u, 0x00u, 0x00u, 0x00u, 0x00u, 0x00u, 0x00u, 0x00u, 0x00u, 
  69:Generated_Source\PSoC4/BLE_gatt.c ****         0x00u, 0x00u, 0x00u, 0x00u, 0x00u, 0x00u, 0x00u, 0x00u, 0x00u, 0x00u, 0x00u, 0x00u, 0x00u, 
  70:Generated_Source\PSoC4/BLE_gatt.c ****         0x00u, 0x00u, 0x00u, 0x00u, 0x00u, 0x00u, 0x00u, 0x00u, 0x00u, 0x00u, 0x00u, 0x00u, 0x00u, 
  71:Generated_Source\PSoC4/BLE_gatt.c ****         0x00u, 0x00u, 0x00u, 0x00u, 0x00u, 0x00u, 0x00u, 0x00u, 0x00u, 0x00u, 0x00u, 0x00u, 0x00u, 
  72:Generated_Source\PSoC4/BLE_gatt.c ****         0x00u, 0x00u, 0x00u, 0x00u, 0x00u, 0x00u, 0x00u, 0x00u, 0x00u, 0x00u, 0x00u, 0x00u, 0x00u, 
  73:Generated_Source\PSoC4/BLE_gatt.c ****         0x00u, 0x00u, 0x00u, 0x00u, 0x00u, 0x00u, 0x00u, 0x00u, 0x00u, 0x00u, 0x00u, 0x00u, 0x00u, 
  74:Generated_Source\PSoC4/BLE_gatt.c ****         0x00u, 0x00u, 0x00u, 0x00u, 0x00u, 0x00u, 0x00u, 0x00u, 0x00u, 0x00u, 0x00u, 0x00u, 0x00u, 
  75:Generated_Source\PSoC4/BLE_gatt.c ****         0x00u, 0x00u, 0x00u, 0x00u, 0x00u, 0x00u, 0x00u, 0x00u, 0x00u, 0x00u, 0x00u, 0x00u, 0x00u, 
  76:Generated_Source\PSoC4/BLE_gatt.c ****         0x00u, 0x00u, 0x00u, 0x00u, 0x00u, 0x00u, 0x00u, 0x00u, 0x00u, 0x00u, 0x00u, 0x00u, 0x00u, 
  77:Generated_Source\PSoC4/BLE_gatt.c ****         0x00u, 0x00u, 0x00u, 0x00u, 0x00u, 0x00u, 0x00u, 0x00u, 0x00u, 0x00u, 0x00u, 0x00u, 0x00u, 
  78:Generated_Source\PSoC4/BLE_gatt.c ****         0x00u, 0x00u, 0x00u, 0x00u, 0x00u, 0x00u, 0x00u, 0x00u, 0x00u, 0x00u, 0x00u, 0x00u, 0x00u, 
  79:Generated_Source\PSoC4/BLE_gatt.c ****         0x00u, 0x00u, 0x00u, 0x00u, 0x00u, 0x00u, 0x00u, 0x00u, 0x00u, 0x00u }, 
  80:Generated_Source\PSoC4/BLE_gatt.c ****         {{
  81:Generated_Source\PSoC4/BLE_gatt.c ****             0x00u, 0x00u,
  82:Generated_Source\PSoC4/BLE_gatt.c ****             0x00u, 0x00u,
  83:Generated_Source\PSoC4/BLE_gatt.c ****         },
  84:Generated_Source\PSoC4/BLE_gatt.c ****         {
  85:Generated_Source\PSoC4/BLE_gatt.c ****             0x00u, 0x00u,
  86:Generated_Source\PSoC4/BLE_gatt.c ****             0x00u, 0x00u,
  87:Generated_Source\PSoC4/BLE_gatt.c ****         },
  88:Generated_Source\PSoC4/BLE_gatt.c ****         {
  89:Generated_Source\PSoC4/BLE_gatt.c ****             0x00u, 0x00u,
  90:Generated_Source\PSoC4/BLE_gatt.c ****             0x00u, 0x00u,
ARM GAS  C:\Users\PC\AppData\Local\Temp\ccYqRaZ6.s 			page 7


  91:Generated_Source\PSoC4/BLE_gatt.c ****         },
  92:Generated_Source\PSoC4/BLE_gatt.c ****         {
  93:Generated_Source\PSoC4/BLE_gatt.c ****             0x00u, 0x00u,
  94:Generated_Source\PSoC4/BLE_gatt.c ****             0x00u, 0x00u,
  95:Generated_Source\PSoC4/BLE_gatt.c ****         },
  96:Generated_Source\PSoC4/BLE_gatt.c ****         {
  97:Generated_Source\PSoC4/BLE_gatt.c ****             0x00u, 0x00u,
  98:Generated_Source\PSoC4/BLE_gatt.c ****             0x00u, 0x00u,
  99:Generated_Source\PSoC4/BLE_gatt.c ****         }}, 
 100:Generated_Source\PSoC4/BLE_gatt.c ****         0x04u, /* CYBLE_GATT_DB_CCCD_COUNT */ 
 101:Generated_Source\PSoC4/BLE_gatt.c ****         0x05u, /* CYBLE_GAP_MAX_BONDED_DEVICE */ 
 102:Generated_Source\PSoC4/BLE_gatt.c ****     };
 103:Generated_Source\PSoC4/BLE_gatt.c **** #endif /* (CYBLE_MODE_PROFILE) */
 104:Generated_Source\PSoC4/BLE_gatt.c **** 
 105:Generated_Source\PSoC4/BLE_gatt.c **** #endif  /* (CYBLE_MODE_PROFILE) && (CYBLE_BONDING_REQUIREMENT == CYBLE_BONDING_YES) */
 106:Generated_Source\PSoC4/BLE_gatt.c **** 
 107:Generated_Source\PSoC4/BLE_gatt.c **** #if(CYBLE_GATT_ROLE_SERVER)
 108:Generated_Source\PSoC4/BLE_gatt.c ****     
 109:Generated_Source\PSoC4/BLE_gatt.c ****     const CYBLE_GATTS_T cyBle_gatts =
 110:Generated_Source\PSoC4/BLE_gatt.c **** {
 111:Generated_Source\PSoC4/BLE_gatt.c ****     0x0008u,    /* Handle of the GATT service */
 112:Generated_Source\PSoC4/BLE_gatt.c ****     0x000Au,    /* Handle of the Service Changed characteristic */
 113:Generated_Source\PSoC4/BLE_gatt.c ****     0x000Bu,    /* Handle of the Client Characteristic Configuration descriptor */
 114:Generated_Source\PSoC4/BLE_gatt.c **** };
 115:Generated_Source\PSoC4/BLE_gatt.c ****     
 116:Generated_Source\PSoC4/BLE_gatt.c ****     static uint8 cyBle_attValues[0x2Eu] = {
 117:Generated_Source\PSoC4/BLE_gatt.c ****     /* Device Name */
 118:Generated_Source\PSoC4/BLE_gatt.c ****     (uint8)'P', (uint8)'r', (uint8)'o', (uint8)'x', (uint8)'i', (uint8)'m', (uint8)'i', (uint8)'t',
 119:Generated_Source\PSoC4/BLE_gatt.c ****     (uint8)'P', (uint8)'s', (uint8)'O', (uint8)'C',
 120:Generated_Source\PSoC4/BLE_gatt.c **** 
 121:Generated_Source\PSoC4/BLE_gatt.c ****     /* Appearance */
 122:Generated_Source\PSoC4/BLE_gatt.c ****     0x81u, 0x04u,
 123:Generated_Source\PSoC4/BLE_gatt.c **** 
 124:Generated_Source\PSoC4/BLE_gatt.c ****     /* Peripheral Preferred Connection Parameters */
 125:Generated_Source\PSoC4/BLE_gatt.c ****     0x3Cu, 0x00u, 0x50u, 0x00u, 0x00u, 0x00u, 0xC8u, 0x00u,
 126:Generated_Source\PSoC4/BLE_gatt.c **** 
 127:Generated_Source\PSoC4/BLE_gatt.c ****     /* Service Changed */
 128:Generated_Source\PSoC4/BLE_gatt.c ****     0x00u, 0x00u, 0x00u, 0x00u,
 129:Generated_Source\PSoC4/BLE_gatt.c **** 
 130:Generated_Source\PSoC4/BLE_gatt.c ****     /* CapSense Proximity */
 131:Generated_Source\PSoC4/BLE_gatt.c ****     0x00u,
 132:Generated_Source\PSoC4/BLE_gatt.c **** 
 133:Generated_Source\PSoC4/BLE_gatt.c ****     /* Characteristic User Description */
 134:Generated_Source\PSoC4/BLE_gatt.c ****     (uint8)'C', (uint8)'a', (uint8)'p', (uint8)'S', (uint8)'e', (uint8)'n', (uint8)'s', (uint8)'e',
 135:Generated_Source\PSoC4/BLE_gatt.c ****     (uint8)'P', (uint8)'r', (uint8)'o', (uint8)'x', (uint8)'i', (uint8)'m', (uint8)'i', (uint8)'t',
 136:Generated_Source\PSoC4/BLE_gatt.c **** 
 137:Generated_Source\PSoC4/BLE_gatt.c **** };
 138:Generated_Source\PSoC4/BLE_gatt.c **** #if(CYBLE_GATT_DB_CCCD_COUNT != 0u)
 139:Generated_Source\PSoC4/BLE_gatt.c **** uint8 cyBle_attValuesCCCD[CYBLE_GATT_DB_CCCD_COUNT];
 140:Generated_Source\PSoC4/BLE_gatt.c **** #endif /* CYBLE_GATT_DB_CCCD_COUNT != 0u */
 141:Generated_Source\PSoC4/BLE_gatt.c **** 
 142:Generated_Source\PSoC4/BLE_gatt.c **** CYBLE_GATTS_ATT_GEN_VAL_LEN_T cyBle_attValuesLen[CYBLE_GATT_DB_ATT_VAL_COUNT] = {
 143:Generated_Source\PSoC4/BLE_gatt.c ****     { 0x000Du, (void *)&cyBle_attValues[0] }, /* Device Name */
 144:Generated_Source\PSoC4/BLE_gatt.c ****     { 0x0002u, (void *)&cyBle_attValues[13] }, /* Appearance */
 145:Generated_Source\PSoC4/BLE_gatt.c ****     { 0x0008u, (void *)&cyBle_attValues[15] }, /* Peripheral Preferred Connection Parameters */
 146:Generated_Source\PSoC4/BLE_gatt.c ****     { 0x0004u, (void *)&cyBle_attValues[23] }, /* Service Changed */
 147:Generated_Source\PSoC4/BLE_gatt.c ****     { 0x0002u, (void *)&cyBle_attValuesCCCD[0] }, /* Client Characteristic Configuration */
ARM GAS  C:\Users\PC\AppData\Local\Temp\ccYqRaZ6.s 			page 8


 148:Generated_Source\PSoC4/BLE_gatt.c ****     { 0x0001u, (void *)&cyBle_attValues[27] }, /* CapSense Proximity */
 149:Generated_Source\PSoC4/BLE_gatt.c ****     { 0x0002u, (void *)&cyBle_attValuesCCCD[2] }, /* Client Characteristic Configuration */
 150:Generated_Source\PSoC4/BLE_gatt.c ****     { 0x0012u, (void *)&cyBle_attValues[28] }, /* Characteristic User Description */
 151:Generated_Source\PSoC4/BLE_gatt.c **** };
 152:Generated_Source\PSoC4/BLE_gatt.c **** 
 153:Generated_Source\PSoC4/BLE_gatt.c **** const CYBLE_GATTS_DB_T cyBle_gattDB[0x10u] = {
 154:Generated_Source\PSoC4/BLE_gatt.c ****     { 0x0001u, 0x2800u /* Primary service                     */, 0x00000001u /*        */, 0x0007u
 155:Generated_Source\PSoC4/BLE_gatt.c ****     { 0x0002u, 0x2803u /* Characteristic                      */, 0x00020001u /* rd     */, 0x0003u
 156:Generated_Source\PSoC4/BLE_gatt.c ****     { 0x0003u, 0x2A00u /* Device Name                         */, 0x01020001u /* rd     */, 0x0003u
 157:Generated_Source\PSoC4/BLE_gatt.c ****     { 0x0004u, 0x2803u /* Characteristic                      */, 0x00020001u /* rd     */, 0x0005u
 158:Generated_Source\PSoC4/BLE_gatt.c ****     { 0x0005u, 0x2A01u /* Appearance                          */, 0x01020001u /* rd     */, 0x0005u
 159:Generated_Source\PSoC4/BLE_gatt.c ****     { 0x0006u, 0x2803u /* Characteristic                      */, 0x00020001u /* rd     */, 0x0007u
 160:Generated_Source\PSoC4/BLE_gatt.c ****     { 0x0007u, 0x2A04u /* Peripheral Preferred Connection Par */, 0x01020001u /* rd     */, 0x0007u
 161:Generated_Source\PSoC4/BLE_gatt.c ****     { 0x0008u, 0x2800u /* Primary service                     */, 0x00000001u /*        */, 0x000Bu
 162:Generated_Source\PSoC4/BLE_gatt.c ****     { 0x0009u, 0x2803u /* Characteristic                      */, 0x00220001u /* rd,ind */, 0x000Bu
 163:Generated_Source\PSoC4/BLE_gatt.c ****     { 0x000Au, 0x2A05u /* Service Changed                     */, 0x01220001u /* rd,ind */, 0x000Bu
 164:Generated_Source\PSoC4/BLE_gatt.c ****     { 0x000Bu, 0x2902u /* Client Characteristic Configuration */, 0x010A0101u /* rd,wr  */, 0x000Bu
 165:Generated_Source\PSoC4/BLE_gatt.c ****     { 0x000Cu, 0x2800u /* Primary service                     */, 0x00000001u /*        */, 0x0010u
 166:Generated_Source\PSoC4/BLE_gatt.c ****     { 0x000Du, 0x2803u /* Characteristic                      */, 0x00100001u /* ntf    */, 0x0010u
 167:Generated_Source\PSoC4/BLE_gatt.c ****     { 0x000Eu, 0xCAA1u /* CapSense Proximity                  */, 0x01100000u /* ntf    */, 0x0010u
 168:Generated_Source\PSoC4/BLE_gatt.c ****     { 0x000Fu, 0x2902u /* Client Characteristic Configuration */, 0x010A0901u /* rd,wr  */, 0x000Fu
 169:Generated_Source\PSoC4/BLE_gatt.c ****     { 0x0010u, 0x2901u /* Characteristic User Description     */, 0x01020001u /* rd     */, 0x0010u
 170:Generated_Source\PSoC4/BLE_gatt.c **** };
 171:Generated_Source\PSoC4/BLE_gatt.c **** 
 172:Generated_Source\PSoC4/BLE_gatt.c **** 
 173:Generated_Source\PSoC4/BLE_gatt.c **** #endif /* (CYBLE_GATT_ROLE_SERVER) */
 174:Generated_Source\PSoC4/BLE_gatt.c **** 
 175:Generated_Source\PSoC4/BLE_gatt.c **** #if(CYBLE_GATT_ROLE_CLIENT)
 176:Generated_Source\PSoC4/BLE_gatt.c ****     
 177:Generated_Source\PSoC4/BLE_gatt.c **** CYBLE_CLIENT_STATE_T cyBle_clientState;
 178:Generated_Source\PSoC4/BLE_gatt.c **** CYBLE_GATTC_T cyBle_gattc;
 179:Generated_Source\PSoC4/BLE_gatt.c **** CYBLE_GATT_ATTR_HANDLE_RANGE_T cyBle_gattcDiscoveryRange;
 180:Generated_Source\PSoC4/BLE_gatt.c ****     
 181:Generated_Source\PSoC4/BLE_gatt.c **** #endif /* (CYBLE_GATT_ROLE_CLIENT) */
 182:Generated_Source\PSoC4/BLE_gatt.c **** 
 183:Generated_Source\PSoC4/BLE_gatt.c **** 
 184:Generated_Source\PSoC4/BLE_gatt.c **** #if(CYBLE_GATT_ROLE_SERVER)
 185:Generated_Source\PSoC4/BLE_gatt.c **** 
 186:Generated_Source\PSoC4/BLE_gatt.c **** /****************************************************************************** 
 187:Generated_Source\PSoC4/BLE_gatt.c **** * Function Name: CyBle_GattsReInitGattDb
 188:Generated_Source\PSoC4/BLE_gatt.c **** ***************************************************************************//**
 189:Generated_Source\PSoC4/BLE_gatt.c **** * 
 190:Generated_Source\PSoC4/BLE_gatt.c **** *  Reinitializes the GATT database.
 191:Generated_Source\PSoC4/BLE_gatt.c **** * 
 192:Generated_Source\PSoC4/BLE_gatt.c **** *  \return
 193:Generated_Source\PSoC4/BLE_gatt.c **** *  CYBLE_API_RESULT_T: An API result states if the API succeeded or failed with
 194:Generated_Source\PSoC4/BLE_gatt.c **** *  error codes:
 195:Generated_Source\PSoC4/BLE_gatt.c **** 
 196:Generated_Source\PSoC4/BLE_gatt.c **** *  Errors codes                          | Description
 197:Generated_Source\PSoC4/BLE_gatt.c **** *  ------------                          | -----------
 198:Generated_Source\PSoC4/BLE_gatt.c **** *  CYBLE_ERROR_OK						 | GATT database was reinitialized successfully.
 199:Generated_Source\PSoC4/BLE_gatt.c **** *  CYBLE_ERROR_INVALID_STATE             | If the function is called in any state except CYBLE_STAT
 200:Generated_Source\PSoC4/BLE_gatt.c **** *  CYBLE_ERROR_INVALID_PARAMETER         | If the Database has zero entries or is a NULL pointer.
 201:Generated_Source\PSoC4/BLE_gatt.c **** * 
 202:Generated_Source\PSoC4/BLE_gatt.c **** ******************************************************************************/
 203:Generated_Source\PSoC4/BLE_gatt.c **** CYBLE_API_RESULT_T CyBle_GattsReInitGattDb(void)
 204:Generated_Source\PSoC4/BLE_gatt.c **** {
ARM GAS  C:\Users\PC\AppData\Local\Temp\ccYqRaZ6.s 			page 9


 253              		.loc 1 204 0
 254              		.cfi_startproc
 255              		@ args = 0, pretend = 0, frame = 8
 256              		@ frame_needed = 1, uses_anonymous_args = 0
 257 0000 90B5     		push	{r4, r7, lr}
 258              		.cfi_def_cfa_offset 12
 259              		.cfi_offset 4, -12
 260              		.cfi_offset 7, -8
 261              		.cfi_offset 14, -4
 262 0002 83B0     		sub	sp, sp, #12
 263              		.cfi_def_cfa_offset 24
 264 0004 00AF     		add	r7, sp, #0
 265              		.cfi_def_cfa_register 7
 205:Generated_Source\PSoC4/BLE_gatt.c ****     CYBLE_API_RESULT_T apiResult;
 206:Generated_Source\PSoC4/BLE_gatt.c ****     
 207:Generated_Source\PSoC4/BLE_gatt.c ****     if(CyBle_GetState() == CYBLE_STATE_DISCONNECTED)
 266              		.loc 1 207 0
 267 0006 0C4B     		ldr	r3, .L5
 268 0008 1B78     		ldrb	r3, [r3]
 269 000a 042B     		cmp	r3, #4
 270 000c 09D1     		bne	.L2
 208:Generated_Source\PSoC4/BLE_gatt.c ****     {
 209:Generated_Source\PSoC4/BLE_gatt.c ****         apiResult = CyBle_GattsDbRegister(cyBle_gattDB, CYBLE_GATT_DB_INDEX_COUNT, CYBLE_GATT_DB_MA
 271              		.loc 1 209 0
 272 000e BC1D     		adds	r4, r7, #6
 273 0010 0A4B     		ldr	r3, .L5+4
 274 0012 1222     		movs	r2, #18
 275 0014 1021     		movs	r1, #16
 276 0016 1800     		movs	r0, r3
 277 0018 FFF7FEFF 		bl	CyBle_GattsDbRegister
 278 001c 0300     		movs	r3, r0
 279 001e 2380     		strh	r3, [r4]
 280 0020 03E0     		b	.L3
 281              	.L2:
 210:Generated_Source\PSoC4/BLE_gatt.c ****     }
 211:Generated_Source\PSoC4/BLE_gatt.c ****     else
 212:Generated_Source\PSoC4/BLE_gatt.c ****     {
 213:Generated_Source\PSoC4/BLE_gatt.c ****         apiResult = CYBLE_ERROR_INVALID_STATE;
 282              		.loc 1 213 0
 283 0022 BB1D     		adds	r3, r7, #6
 284 0024 0422     		movs	r2, #4
 285 0026 FF32     		adds	r2, r2, #255
 286 0028 1A80     		strh	r2, [r3]
 287              	.L3:
 214:Generated_Source\PSoC4/BLE_gatt.c ****     }
 215:Generated_Source\PSoC4/BLE_gatt.c ****     
 216:Generated_Source\PSoC4/BLE_gatt.c ****     return(apiResult);
 288              		.loc 1 216 0
 289 002a BB1D     		adds	r3, r7, #6
 290 002c 1B88     		ldrh	r3, [r3]
 217:Generated_Source\PSoC4/BLE_gatt.c **** }
 291              		.loc 1 217 0
 292 002e 1800     		movs	r0, r3
 293 0030 BD46     		mov	sp, r7
 294 0032 03B0     		add	sp, sp, #12
 295              		@ sp needed
 296 0034 90BD     		pop	{r4, r7, pc}
ARM GAS  C:\Users\PC\AppData\Local\Temp\ccYqRaZ6.s 			page 10


 297              	.L6:
 298 0036 C046     		.align	2
 299              	.L5:
 300 0038 00000000 		.word	cyBle_state
 301 003c 00000000 		.word	cyBle_gattDB
 302              		.cfi_endproc
 303              	.LFE2:
 304              		.size	CyBle_GattsReInitGattDb, .-CyBle_GattsReInitGattDb
 305              		.section	.text.CyBle_GattsWriteEventHandler,"ax",%progbits
 306              		.align	2
 307              		.global	CyBle_GattsWriteEventHandler
 308              		.code	16
 309              		.thumb_func
 310              		.type	CyBle_GattsWriteEventHandler, %function
 311              	CyBle_GattsWriteEventHandler:
 312              	.LFB3:
 218:Generated_Source\PSoC4/BLE_gatt.c **** 
 219:Generated_Source\PSoC4/BLE_gatt.c **** 
 220:Generated_Source\PSoC4/BLE_gatt.c **** /****************************************************************************** 
 221:Generated_Source\PSoC4/BLE_gatt.c **** * Function Name: CyBle_GattsWriteEventHandler
 222:Generated_Source\PSoC4/BLE_gatt.c **** ***************************************************************************//**
 223:Generated_Source\PSoC4/BLE_gatt.c **** * 
 224:Generated_Source\PSoC4/BLE_gatt.c **** *  Handles the Write Request Event for GATT service.
 225:Generated_Source\PSoC4/BLE_gatt.c **** * 
 226:Generated_Source\PSoC4/BLE_gatt.c **** *  \param eventParam: The pointer to the data structure specified by the event.
 227:Generated_Source\PSoC4/BLE_gatt.c **** * 
 228:Generated_Source\PSoC4/BLE_gatt.c **** *  \return
 229:Generated_Source\PSoC4/BLE_gatt.c **** *  CYBLE_GATT_ERR_CODE_T: An API result returns one of the following status 
 230:Generated_Source\PSoC4/BLE_gatt.c **** *  values.
 231:Generated_Source\PSoC4/BLE_gatt.c **** 
 232:Generated_Source\PSoC4/BLE_gatt.c **** *  Errors codes                          | Description
 233:Generated_Source\PSoC4/BLE_gatt.c **** *  --------------------                  | -----------
 234:Generated_Source\PSoC4/BLE_gatt.c **** *  CYBLE_GATT_ERR_NONE                   | Write is successful.
 235:Generated_Source\PSoC4/BLE_gatt.c **** * 
 236:Generated_Source\PSoC4/BLE_gatt.c **** ******************************************************************************/
 237:Generated_Source\PSoC4/BLE_gatt.c **** CYBLE_GATT_ERR_CODE_T CyBle_GattsWriteEventHandler(CYBLE_GATTS_WRITE_REQ_PARAM_T *eventParam)
 238:Generated_Source\PSoC4/BLE_gatt.c **** {
 313              		.loc 1 238 0
 314              		.cfi_startproc
 315              		@ args = 0, pretend = 0, frame = 16
 316              		@ frame_needed = 1, uses_anonymous_args = 0
 317 0000 90B5     		push	{r4, r7, lr}
 318              		.cfi_def_cfa_offset 12
 319              		.cfi_offset 4, -12
 320              		.cfi_offset 7, -8
 321              		.cfi_offset 14, -4
 322 0002 85B0     		sub	sp, sp, #20
 323              		.cfi_def_cfa_offset 32
 324 0004 00AF     		add	r7, sp, #0
 325              		.cfi_def_cfa_register 7
 326 0006 7860     		str	r0, [r7, #4]
 239:Generated_Source\PSoC4/BLE_gatt.c ****     CYBLE_GATT_ERR_CODE_T gattErr = CYBLE_GATT_ERR_NONE;
 327              		.loc 1 239 0
 328 0008 0F23     		movs	r3, #15
 329 000a FB18     		adds	r3, r7, r3
 330 000c 0022     		movs	r2, #0
 331 000e 1A70     		strb	r2, [r3]
ARM GAS  C:\Users\PC\AppData\Local\Temp\ccYqRaZ6.s 			page 11


 240:Generated_Source\PSoC4/BLE_gatt.c ****     
 241:Generated_Source\PSoC4/BLE_gatt.c ****     /* Client Characteristic Configuration descriptor write request */
 242:Generated_Source\PSoC4/BLE_gatt.c ****     if(eventParam->handleValPair.attrHandle == cyBle_gatts.cccdHandle)
 332              		.loc 1 242 0
 333 0010 7B68     		ldr	r3, [r7, #4]
 334 0012 9B89     		ldrh	r3, [r3, #12]
 335 0014 0B22     		movs	r2, #11
 336 0016 9342     		cmp	r3, r2
 337 0018 32D1     		bne	.L8
 243:Generated_Source\PSoC4/BLE_gatt.c ****     {
 244:Generated_Source\PSoC4/BLE_gatt.c ****         /* Store value to database */
 245:Generated_Source\PSoC4/BLE_gatt.c ****         gattErr = CyBle_GattsWriteAttributeValue(&eventParam->handleValPair, 0u, 
 338              		.loc 1 245 0
 339 001a 7B68     		ldr	r3, [r7, #4]
 340 001c 181D     		adds	r0, r3, #4
 341 001e 7A68     		ldr	r2, [r7, #4]
 342 0020 0F23     		movs	r3, #15
 343 0022 FC18     		adds	r4, r7, r3
 344 0024 4023     		movs	r3, #64
 345 0026 0021     		movs	r1, #0
 346 0028 FFF7FEFF 		bl	CyBle_GattsWriteAttributeValue
 347 002c 0300     		movs	r3, r0
 348 002e 2370     		strb	r3, [r4]
 246:Generated_Source\PSoC4/BLE_gatt.c ****                         &eventParam->connHandle, CYBLE_GATT_DB_PEER_INITIATED);
 247:Generated_Source\PSoC4/BLE_gatt.c ****         
 248:Generated_Source\PSoC4/BLE_gatt.c ****         if(gattErr == CYBLE_GATT_ERR_NONE)
 349              		.loc 1 248 0
 350 0030 0F23     		movs	r3, #15
 351 0032 FB18     		adds	r3, r7, r3
 352 0034 1B78     		ldrb	r3, [r3]
 353 0036 002B     		cmp	r3, #0
 354 0038 1AD1     		bne	.L9
 249:Generated_Source\PSoC4/BLE_gatt.c ****         {
 250:Generated_Source\PSoC4/BLE_gatt.c ****             if(CYBLE_IS_INDICATION_ENABLED_IN_PTR(eventParam->handleValPair.value.val))
 355              		.loc 1 250 0
 356 003a 7B68     		ldr	r3, [r7, #4]
 357 003c 5B68     		ldr	r3, [r3, #4]
 358 003e 1800     		movs	r0, r3
 359 0040 FFF7FEFF 		bl	CyBle_Get16ByPtr
 360 0044 0300     		movs	r3, r0
 361 0046 1A00     		movs	r2, r3
 362 0048 0223     		movs	r3, #2
 363 004a 1340     		ands	r3, r2
 364 004c 9BB2     		uxth	r3, r3
 365 004e 002B     		cmp	r3, #0
 366 0050 07D0     		beq	.L10
 251:Generated_Source\PSoC4/BLE_gatt.c ****             {
 252:Generated_Source\PSoC4/BLE_gatt.c ****                 CyBle_ApplCallback((uint32)CYBLE_EVT_GATTS_INDICATION_ENABLED, eventParam);
 367              		.loc 1 252 0
 368 0052 0F4B     		ldr	r3, .L12
 369 0054 1B68     		ldr	r3, [r3]
 370 0056 7968     		ldr	r1, [r7, #4]
 371 0058 8222     		movs	r2, #130
 372 005a 5200     		lsls	r2, r2, #1
 373 005c 1000     		movs	r0, r2
 374 005e 9847     		blx	r3
 375 0060 06E0     		b	.L9
ARM GAS  C:\Users\PC\AppData\Local\Temp\ccYqRaZ6.s 			page 12


 376              	.L10:
 253:Generated_Source\PSoC4/BLE_gatt.c ****             }
 254:Generated_Source\PSoC4/BLE_gatt.c ****             else
 255:Generated_Source\PSoC4/BLE_gatt.c ****             {
 256:Generated_Source\PSoC4/BLE_gatt.c ****                 CyBle_ApplCallback((uint32)CYBLE_EVT_GATTS_INDICATION_DISABLED, eventParam);
 377              		.loc 1 256 0
 378 0062 0B4B     		ldr	r3, .L12
 379 0064 1B68     		ldr	r3, [r3]
 380 0066 7968     		ldr	r1, [r7, #4]
 381 0068 0622     		movs	r2, #6
 382 006a FF32     		adds	r2, r2, #255
 383 006c 1000     		movs	r0, r2
 384 006e 9847     		blx	r3
 385              	.L9:
 257:Generated_Source\PSoC4/BLE_gatt.c ****             }
 258:Generated_Source\PSoC4/BLE_gatt.c ****         }
 259:Generated_Source\PSoC4/BLE_gatt.c ****         cyBle_eventHandlerFlag &= (uint8)~CYBLE_CALLBACK;
 386              		.loc 1 259 0
 387 0070 084B     		ldr	r3, .L12+4
 388 0072 1B78     		ldrb	r3, [r3]
 389 0074 DBB2     		uxtb	r3, r3
 390 0076 0122     		movs	r2, #1
 391 0078 9343     		bics	r3, r2
 392 007a DAB2     		uxtb	r2, r3
 393 007c 054B     		ldr	r3, .L12+4
 394 007e 1A70     		strb	r2, [r3]
 395              	.L8:
 260:Generated_Source\PSoC4/BLE_gatt.c ****     }
 261:Generated_Source\PSoC4/BLE_gatt.c ****     return (gattErr);
 396              		.loc 1 261 0
 397 0080 0F23     		movs	r3, #15
 398 0082 FB18     		adds	r3, r7, r3
 399 0084 1B78     		ldrb	r3, [r3]
 262:Generated_Source\PSoC4/BLE_gatt.c **** }
 400              		.loc 1 262 0
 401 0086 1800     		movs	r0, r3
 402 0088 BD46     		mov	sp, r7
 403 008a 05B0     		add	sp, sp, #20
 404              		@ sp needed
 405 008c 90BD     		pop	{r4, r7, pc}
 406              	.L13:
 407 008e C046     		.align	2
 408              	.L12:
 409 0090 00000000 		.word	CyBle_ApplCallback
 410 0094 00000000 		.word	cyBle_eventHandlerFlag
 411              		.cfi_endproc
 412              	.LFE3:
 413              		.size	CyBle_GattsWriteEventHandler, .-CyBle_GattsWriteEventHandler
 414              		.text
 415              	.Letext0:
 416              		.file 2 "Generated_Source\\PSoC4\\cytypes.h"
 417              		.file 3 "Generated_Source\\PSoC4\\BLE_Stack.h"
 418              		.file 4 "Generated_Source\\PSoC4\\BLE_StackGatt.h"
 419              		.file 5 "Generated_Source\\PSoC4\\BLE_StackGattServer.h"
 420              		.file 6 "Generated_Source\\PSoC4\\BLE_StackGattDb.h"
 421              		.file 7 "Generated_Source\\PSoC4\\BLE.h"
 422              		.file 8 "Generated_Source\\PSoC4\\BLE_gatt.h"
ARM GAS  C:\Users\PC\AppData\Local\Temp\ccYqRaZ6.s 			page 13


 423              		.file 9 "Generated_Source\\PSoC4\\BLE_eventHandler.h"