ARM GAS  C:\Users\PC\AppData\Local\Temp\cclL7KI6.s 			page 1


   1              		.syntax unified
   2              		.cpu cortex-m0
   3              		.fpu softvfp
   4              		.eabi_attribute 20, 1
   5              		.eabi_attribute 21, 1
   6              		.eabi_attribute 23, 3
   7              		.eabi_attribute 24, 1
   8              		.eabi_attribute 25, 1
   9              		.eabi_attribute 26, 1
  10              		.eabi_attribute 30, 6
  11              		.eabi_attribute 34, 0
  12              		.eabi_attribute 18, 4
  13              		.thumb
  14              		.syntax unified
  15              		.file	"BLEApplications.c"
  16              		.text
  17              	.Ltext0:
  18              		.cfi_sections	.debug_frame
  19              		.global	deviceConnected
  20              		.bss
  21              		.type	deviceConnected, %object
  22              		.size	deviceConnected, 1
  23              	deviceConnected:
  24 0000 00       		.space	1
  25              		.global	startNotification
  26              		.type	startNotification, %object
  27              		.size	startNotification, 1
  28              	startNotification:
  29 0001 00       		.space	1
  30              		.comm	connectionHandle,2,4
  31              		.global	restartAdvertisement
  32              		.type	restartAdvertisement, %object
  33              		.size	restartAdvertisement, 1
  34              	restartAdvertisement:
  35 0002 00       		.space	1
  36              		.global	updateNotificationCCCAttribute
  37              		.type	updateNotificationCCCAttribute, %object
  38              		.size	updateNotificationCCCAttribute, 1
  39              	updateNotificationCCCAttribute:
  40 0003 00       		.space	1
  41              		.global	busyStatus
  42              		.type	busyStatus, %object
  43              		.size	busyStatus, 1
  44              	busyStatus:
  45 0004 00       		.space	1
  46              		.section	.text.CustomEventHandler,"ax",%progbits
  47              		.align	2
  48              		.global	CustomEventHandler
  49              		.code	16
  50              		.thumb_func
  51              		.type	CustomEventHandler, %function
  52              	CustomEventHandler:
  53              	.LFB37:
  54              		.file 1 "BLEApplications.c"
   1:BLEApplications.c **** #include "main.h"
   2:BLEApplications.c **** uint8 deviceConnected = FALSE;	
   3:BLEApplications.c **** 
ARM GAS  C:\Users\PC\AppData\Local\Temp\cclL7KI6.s 			page 2


   4:BLEApplications.c **** uint8 startNotification = FALSE;		
   5:BLEApplications.c **** 
   6:BLEApplications.c **** CYBLE_CONN_HANDLE_T  				connectionHandle;	
   7:BLEApplications.c **** 
   8:BLEApplications.c **** uint8 restartAdvertisement = FALSE;
   9:BLEApplications.c **** 
  10:BLEApplications.c **** uint8 updateNotificationCCCAttribute = FALSE;
  11:BLEApplications.c **** 
  12:BLEApplications.c **** uint8 busyStatus = 0;
  13:BLEApplications.c **** 
  14:BLEApplications.c **** void CustomEventHandler(uint32 event, void *eventParam)
  15:BLEApplications.c **** {
  55              		.loc 1 15 0
  56              		.cfi_startproc
  57              		@ args = 0, pretend = 0, frame = 16
  58              		@ frame_needed = 1, uses_anonymous_args = 0
  59 0000 80B5     		push	{r7, lr}
  60              		.cfi_def_cfa_offset 8
  61              		.cfi_offset 7, -8
  62              		.cfi_offset 14, -4
  63 0002 84B0     		sub	sp, sp, #16
  64              		.cfi_def_cfa_offset 24
  65 0004 00AF     		add	r7, sp, #0
  66              		.cfi_def_cfa_register 7
  67 0006 7860     		str	r0, [r7, #4]
  68 0008 3960     		str	r1, [r7]
  16:BLEApplications.c ****     CYBLE_GATTS_WRITE_REQ_PARAM_T *wrReqParam;
  17:BLEApplications.c **** 	
  18:BLEApplications.c ****     switch(event)
  69              		.loc 1 18 0
  70 000a 7B68     		ldr	r3, [r7, #4]
  71 000c 4C2B     		cmp	r3, #76
  72 000e 53D8     		bhi	.L16
  73 0010 7B68     		ldr	r3, [r7, #4]
  74 0012 9A00     		lsls	r2, r3, #2
  75 0014 2C4B     		ldr	r3, .L18
  76 0016 D318     		adds	r3, r2, r3
  77 0018 1B68     		ldr	r3, [r3]
  78 001a 9F46     		mov	pc, r3
  79              		.section	.rodata
  80              		.align	2
  81              	.L4:
  82 0000 B8000000 		.word	.L16
  83 0004 1C000000 		.word	.L3
  84 0008 24000000 		.word	.L5
  85 000c B8000000 		.word	.L16
  86 0010 B8000000 		.word	.L16
  87 0014 AE000000 		.word	.L6
  88 0018 B8000000 		.word	.L16
  89 001c B8000000 		.word	.L16
  90 0020 B8000000 		.word	.L16
  91 0024 B8000000 		.word	.L16
  92 0028 B8000000 		.word	.L16
  93 002c B8000000 		.word	.L16
  94 0030 B8000000 		.word	.L16
  95 0034 B8000000 		.word	.L16
  96 0038 B8000000 		.word	.L16
ARM GAS  C:\Users\PC\AppData\Local\Temp\cclL7KI6.s 			page 3


  97 003c B8000000 		.word	.L16
  98 0040 B8000000 		.word	.L16
  99 0044 B8000000 		.word	.L16
 100 0048 B8000000 		.word	.L16
 101 004c B8000000 		.word	.L16
 102 0050 B8000000 		.word	.L16
 103 0054 B8000000 		.word	.L16
 104 0058 B8000000 		.word	.L16
 105 005c B8000000 		.word	.L16
 106 0060 B8000000 		.word	.L16
 107 0064 B8000000 		.word	.L16
 108 0068 B8000000 		.word	.L16
 109 006c B8000000 		.word	.L16
 110 0070 B8000000 		.word	.L16
 111 0074 B8000000 		.word	.L16
 112 0078 B8000000 		.word	.L16
 113 007c B8000000 		.word	.L16
 114 0080 B8000000 		.word	.L16
 115 0084 B8000000 		.word	.L16
 116 0088 B8000000 		.word	.L16
 117 008c B8000000 		.word	.L16
 118 0090 B8000000 		.word	.L16
 119 0094 B8000000 		.word	.L16
 120 0098 2C000000 		.word	.L7
 121 009c B8000000 		.word	.L16
 122 00a0 3C000000 		.word	.L9
 123 00a4 B8000000 		.word	.L16
 124 00a8 B8000000 		.word	.L16
 125 00ac B8000000 		.word	.L16
 126 00b0 B8000000 		.word	.L16
 127 00b4 B8000000 		.word	.L16
 128 00b8 B8000000 		.word	.L16
 129 00bc B8000000 		.word	.L16
 130 00c0 B8000000 		.word	.L16
 131 00c4 B8000000 		.word	.L16
 132 00c8 B8000000 		.word	.L16
 133 00cc B8000000 		.word	.L16
 134 00d0 B8000000 		.word	.L16
 135 00d4 B8000000 		.word	.L16
 136 00d8 B8000000 		.word	.L16
 137 00dc B8000000 		.word	.L16
 138 00e0 B8000000 		.word	.L16
 139 00e4 B8000000 		.word	.L16
 140 00e8 B8000000 		.word	.L16
 141 00ec B8000000 		.word	.L16
 142 00f0 B8000000 		.word	.L16
 143 00f4 B8000000 		.word	.L16
 144 00f8 B8000000 		.word	.L16
 145 00fc B8000000 		.word	.L16
 146 0100 B8000000 		.word	.L16
 147 0104 44000000 		.word	.L10
 148 0108 5C000000 		.word	.L11
 149 010c B8000000 		.word	.L16
 150 0110 B8000000 		.word	.L16
 151 0114 B8000000 		.word	.L16
 152 0118 B8000000 		.word	.L16
 153 011c B8000000 		.word	.L16
ARM GAS  C:\Users\PC\AppData\Local\Temp\cclL7KI6.s 			page 4


 154 0120 B8000000 		.word	.L16
 155 0124 B8000000 		.word	.L16
 156 0128 B8000000 		.word	.L16
 157 012c B8000000 		.word	.L16
 158 0130 74000000 		.word	.L12
 159              		.section	.text.CustomEventHandler
 160              	.L3:
  19:BLEApplications.c **** 	{
  20:BLEApplications.c **** 
  21:BLEApplications.c **** 		case CYBLE_EVT_STACK_ON:
  22:BLEApplications.c **** 			restartAdvertisement = TRUE;
 161              		.loc 1 22 0
 162 001c 2B4B     		ldr	r3, .L18+4
 163 001e 0122     		movs	r2, #1
 164 0020 1A70     		strb	r2, [r3]
  23:BLEApplications.c **** 			
  24:BLEApplications.c **** 			break;
 165              		.loc 1 24 0
 166 0022 4CE0     		b	.L13
 167              	.L5:
  25:BLEApplications.c **** 		
  26:BLEApplications.c **** 		case CYBLE_EVT_TIMEOUT:
  27:BLEApplications.c **** 		    restartAdvertisement = TRUE;
 168              		.loc 1 27 0
 169 0024 294B     		ldr	r3, .L18+4
 170 0026 0122     		movs	r2, #1
 171 0028 1A70     		strb	r2, [r3]
  28:BLEApplications.c **** 			break;
 172              		.loc 1 28 0
 173 002a 48E0     		b	.L13
 174              	.L7:
  29:BLEApplications.c **** 			
  30:BLEApplications.c **** 		
  31:BLEApplications.c ****         case CYBLE_EVT_GAPP_ADVERTISEMENT_START_STOP:
  32:BLEApplications.c **** 			
  33:BLEApplications.c **** 			if(CyBle_GetState() == CYBLE_STATE_DISCONNECTED)
 175              		.loc 1 33 0
 176 002c 284B     		ldr	r3, .L18+8
 177 002e 1B78     		ldrb	r3, [r3]
 178 0030 042B     		cmp	r3, #4
 179 0032 43D1     		bne	.L17
  34:BLEApplications.c **** 			{
  35:BLEApplications.c **** 				restartAdvertisement = TRUE;
 180              		.loc 1 35 0
 181 0034 254B     		ldr	r3, .L18+4
 182 0036 0122     		movs	r2, #1
 183 0038 1A70     		strb	r2, [r3]
  36:BLEApplications.c **** 			}
  37:BLEApplications.c **** 			break;
 184              		.loc 1 37 0
 185 003a 3FE0     		b	.L17
 186              	.L9:
  38:BLEApplications.c **** 			
  39:BLEApplications.c **** 		case CYBLE_EVT_GAP_DEVICE_CONNECTED:		
  40:BLEApplications.c **** 
  41:BLEApplications.c **** 			break;
  42:BLEApplications.c **** 			
ARM GAS  C:\Users\PC\AppData\Local\Temp\cclL7KI6.s 			page 5


  43:BLEApplications.c ****         case CYBLE_EVT_GAP_DEVICE_DISCONNECTED:		
  44:BLEApplications.c **** 			
  45:BLEApplications.c **** 			restartAdvertisement = TRUE;
 187              		.loc 1 45 0
 188 003c 234B     		ldr	r3, .L18+4
 189 003e 0122     		movs	r2, #1
 190 0040 1A70     		strb	r2, [r3]
  46:BLEApplications.c **** 
  47:BLEApplications.c ****             break;
 191              		.loc 1 47 0
 192 0042 3CE0     		b	.L13
 193              	.L10:
  48:BLEApplications.c **** 
  49:BLEApplications.c ****         case CYBLE_EVT_GATT_CONNECT_IND:
  50:BLEApplications.c ****             connectionHandle = *(CYBLE_CONN_HANDLE_T *)eventParam;	
 194              		.loc 1 50 0
 195 0044 234A     		ldr	r2, .L18+12
 196 0046 3B68     		ldr	r3, [r7]
 197 0048 1000     		movs	r0, r2
 198 004a 1900     		movs	r1, r3
 199 004c 0223     		movs	r3, #2
 200 004e 1A00     		movs	r2, r3
 201 0050 FFF7FEFF 		bl	memcpy
  51:BLEApplications.c **** 
  52:BLEApplications.c **** 			deviceConnected = TRUE;	
 202              		.loc 1 52 0
 203 0054 204B     		ldr	r3, .L18+16
 204 0056 0122     		movs	r2, #1
 205 0058 1A70     		strb	r2, [r3]
  53:BLEApplications.c **** 	
  54:BLEApplications.c ****             break;
 206              		.loc 1 54 0
 207 005a 30E0     		b	.L13
 208              	.L11:
  55:BLEApplications.c **** 			
  56:BLEApplications.c ****         case CYBLE_EVT_GATT_DISCONNECT_IND:	
  57:BLEApplications.c **** 			deviceConnected = FALSE;
 209              		.loc 1 57 0
 210 005c 1E4B     		ldr	r3, .L18+16
 211 005e 0022     		movs	r2, #0
 212 0060 1A70     		strb	r2, [r3]
  58:BLEApplications.c **** 			
  59:BLEApplications.c **** 			startNotification = FALSE;
 213              		.loc 1 59 0
 214 0062 1E4B     		ldr	r3, .L18+20
 215 0064 0022     		movs	r2, #0
 216 0066 1A70     		strb	r2, [r3]
  60:BLEApplications.c **** 			
  61:BLEApplications.c **** 			updateNotificationCCCAttribute = TRUE;
 217              		.loc 1 61 0
 218 0068 1D4B     		ldr	r3, .L18+24
 219 006a 0122     		movs	r2, #1
 220 006c 1A70     		strb	r2, [r3]
  62:BLEApplications.c **** 			UpdateNotificationCCCD();
 221              		.loc 1 62 0
 222 006e FFF7FEFF 		bl	UpdateNotificationCCCD
  63:BLEApplications.c **** 			
ARM GAS  C:\Users\PC\AppData\Local\Temp\cclL7KI6.s 			page 6


  64:BLEApplications.c **** 			break;    
 223              		.loc 1 64 0
 224 0072 24E0     		b	.L13
 225              	.L12:
  65:BLEApplications.c ****             
  66:BLEApplications.c ****         case CYBLE_EVT_GATTS_WRITE_REQ:				
  67:BLEApplications.c ****             wrReqParam = (CYBLE_GATTS_WRITE_REQ_PARAM_T *) eventParam;
 226              		.loc 1 67 0
 227 0074 3B68     		ldr	r3, [r7]
 228 0076 FB60     		str	r3, [r7, #12]
  68:BLEApplications.c **** 			
  69:BLEApplications.c ****             if(CYBLE_CAPSENSE_CAPSENSE_PROXIMITY_CLIENT_CHARACTERISTIC_CONFIGURATION_DESC_HANDLE ==
 229              		.loc 1 69 0
 230 0078 FB68     		ldr	r3, [r7, #12]
 231 007a 9B89     		ldrh	r3, [r3, #12]
 232 007c 0F2B     		cmp	r3, #15
 233 007e 07D1     		bne	.L15
  70:BLEApplications.c ****             {
  71:BLEApplications.c **** 				startNotification = wrReqParam->handleValPair.value.val[CYBLE_CAPSENSE_CAPSENSE_PROXIMITY_CLIEN
 234              		.loc 1 71 0
 235 0080 FB68     		ldr	r3, [r7, #12]
 236 0082 5B68     		ldr	r3, [r3, #4]
 237 0084 1A78     		ldrb	r2, [r3]
 238 0086 154B     		ldr	r3, .L18+20
 239 0088 1A70     		strb	r2, [r3]
  72:BLEApplications.c **** 				
  73:BLEApplications.c **** 				updateNotificationCCCAttribute = TRUE;
 240              		.loc 1 73 0
 241 008a 154B     		ldr	r3, .L18+24
 242 008c 0122     		movs	r2, #1
 243 008e 1A70     		strb	r2, [r3]
 244              	.L15:
  74:BLEApplications.c **** 			}
  75:BLEApplications.c ****             
  76:BLEApplications.c **** 			CyBle_GattsWriteRsp(connectionHandle);
 245              		.loc 1 76 0
 246 0090 104B     		ldr	r3, .L18+12
 247 0092 1A78     		ldrb	r2, [r3]
 248 0094 5B78     		ldrb	r3, [r3, #1]
 249 0096 1B02     		lsls	r3, r3, #8
 250 0098 1A43     		orrs	r2, r3
 251 009a 0023     		movs	r3, #0
 252 009c 1204     		lsls	r2, r2, #16
 253 009e 120C     		lsrs	r2, r2, #16
 254 00a0 1B0C     		lsrs	r3, r3, #16
 255 00a2 1B04     		lsls	r3, r3, #16
 256 00a4 1343     		orrs	r3, r2
 257 00a6 1800     		movs	r0, r3
 258 00a8 FFF7FEFF 		bl	CyBle_GattsWriteRsp
  77:BLEApplications.c **** 			
  78:BLEApplications.c ****             break;
 259              		.loc 1 78 0
 260 00ac 07E0     		b	.L13
 261              	.L6:
  79:BLEApplications.c **** 			
  80:BLEApplications.c **** 		case CYBLE_EVT_STACK_BUSY_STATUS:
  81:BLEApplications.c ****             busyStatus = * (uint8*)eventParam;
ARM GAS  C:\Users\PC\AppData\Local\Temp\cclL7KI6.s 			page 7


 262              		.loc 1 81 0
 263 00ae 3B68     		ldr	r3, [r7]
 264 00b0 1A78     		ldrb	r2, [r3]
 265 00b2 0C4B     		ldr	r3, .L18+28
 266 00b4 1A70     		strb	r2, [r3]
  82:BLEApplications.c ****             break;
 267              		.loc 1 82 0
 268 00b6 02E0     		b	.L13
 269              	.L16:
  83:BLEApplications.c **** 			
  84:BLEApplications.c ****         default:
  85:BLEApplications.c ****                         
  86:BLEApplications.c ****             break;
 270              		.loc 1 86 0
 271 00b8 C046     		nop
 272 00ba 00E0     		b	.L13
 273              	.L17:
  37:BLEApplications.c **** 			
 274              		.loc 1 37 0
 275 00bc C046     		nop
 276              	.L13:
  87:BLEApplications.c **** 	} 
  88:BLEApplications.c **** }
 277              		.loc 1 88 0
 278 00be C046     		nop
 279 00c0 BD46     		mov	sp, r7
 280 00c2 04B0     		add	sp, sp, #16
 281              		@ sp needed
 282 00c4 80BD     		pop	{r7, pc}
 283              	.L19:
 284 00c6 C046     		.align	2
 285              	.L18:
 286 00c8 00000000 		.word	.L4
 287 00cc 00000000 		.word	restartAdvertisement
 288 00d0 00000000 		.word	cyBle_state
 289 00d4 00000000 		.word	connectionHandle
 290 00d8 00000000 		.word	deviceConnected
 291 00dc 00000000 		.word	startNotification
 292 00e0 00000000 		.word	updateNotificationCCCAttribute
 293 00e4 00000000 		.word	busyStatus
 294              		.cfi_endproc
 295              	.LFE37:
 296              		.size	CustomEventHandler, .-CustomEventHandler
 297              		.section	.text.SendDataOverCapSenseNotification,"ax",%progbits
 298              		.align	2
 299              		.global	SendDataOverCapSenseNotification
 300              		.code	16
 301              		.thumb_func
 302              		.type	SendDataOverCapSenseNotification, %function
 303              	SendDataOverCapSenseNotification:
 304              	.LFB38:
  89:BLEApplications.c **** 
  90:BLEApplications.c **** void SendDataOverCapSenseNotification(uint8 proximityValue)
  91:BLEApplications.c **** {
 305              		.loc 1 91 0
 306              		.cfi_startproc
 307              		@ args = 0, pretend = 0, frame = 24
ARM GAS  C:\Users\PC\AppData\Local\Temp\cclL7KI6.s 			page 8


 308              		@ frame_needed = 1, uses_anonymous_args = 0
 309 0000 80B5     		push	{r7, lr}
 310              		.cfi_def_cfa_offset 8
 311              		.cfi_offset 7, -8
 312              		.cfi_offset 14, -4
 313 0002 86B0     		sub	sp, sp, #24
 314              		.cfi_def_cfa_offset 32
 315 0004 00AF     		add	r7, sp, #0
 316              		.cfi_def_cfa_register 7
 317 0006 0200     		movs	r2, r0
 318 0008 FB1D     		adds	r3, r7, #7
 319 000a 1A70     		strb	r2, [r3]
  92:BLEApplications.c **** 	CYBLE_GATTS_HANDLE_VALUE_NTF_T		notificationHandle; 
  93:BLEApplications.c **** 
  94:BLEApplications.c **** 	if(busyStatus == CYBLE_STACK_STATE_FREE)
 320              		.loc 1 94 0
 321 000c 114B     		ldr	r3, .L23
 322 000e 1B78     		ldrb	r3, [r3]
 323 0010 002B     		cmp	r3, #0
 324 0012 1BD1     		bne	.L22
  95:BLEApplications.c **** 	{
  96:BLEApplications.c **** 		notificationHandle.attrHandle = CYBLE_CAPSENSE_CAPSENSE_PROXIMITY_CHAR_HANDLE;				
 325              		.loc 1 96 0
 326 0014 0C23     		movs	r3, #12
 327 0016 FB18     		adds	r3, r7, r3
 328 0018 0E22     		movs	r2, #14
 329 001a 1A81     		strh	r2, [r3, #8]
  97:BLEApplications.c **** 		notificationHandle.value.val = &proximityValue;
 330              		.loc 1 97 0
 331 001c 0C23     		movs	r3, #12
 332 001e FB18     		adds	r3, r7, r3
 333 0020 FA1D     		adds	r2, r7, #7
 334 0022 1A60     		str	r2, [r3]
  98:BLEApplications.c **** 		notificationHandle.value.len = CAPSENSE_NOTIFICATION_DATA_LEN;
 335              		.loc 1 98 0
 336 0024 0C23     		movs	r3, #12
 337 0026 FB18     		adds	r3, r7, r3
 338 0028 0122     		movs	r2, #1
 339 002a 9A80     		strh	r2, [r3, #4]
  99:BLEApplications.c **** 		
 100:BLEApplications.c **** 		CyBle_GattsNotification(connectionHandle,&notificationHandle);
 340              		.loc 1 100 0
 341 002c 0C23     		movs	r3, #12
 342 002e F918     		adds	r1, r7, r3
 343 0030 094B     		ldr	r3, .L23+4
 344 0032 1A78     		ldrb	r2, [r3]
 345 0034 5B78     		ldrb	r3, [r3, #1]
 346 0036 1B02     		lsls	r3, r3, #8
 347 0038 1A43     		orrs	r2, r3
 348 003a 0023     		movs	r3, #0
 349 003c 1204     		lsls	r2, r2, #16
 350 003e 120C     		lsrs	r2, r2, #16
 351 0040 1B0C     		lsrs	r3, r3, #16
 352 0042 1B04     		lsls	r3, r3, #16
 353 0044 1343     		orrs	r3, r2
 354 0046 1800     		movs	r0, r3
 355 0048 FFF7FEFF 		bl	CyBle_GattsNotification
ARM GAS  C:\Users\PC\AppData\Local\Temp\cclL7KI6.s 			page 9


 356              	.L22:
 101:BLEApplications.c **** 	}
 102:BLEApplications.c **** }
 357              		.loc 1 102 0
 358 004c C046     		nop
 359 004e BD46     		mov	sp, r7
 360 0050 06B0     		add	sp, sp, #24
 361              		@ sp needed
 362 0052 80BD     		pop	{r7, pc}
 363              	.L24:
 364              		.align	2
 365              	.L23:
 366 0054 00000000 		.word	busyStatus
 367 0058 00000000 		.word	connectionHandle
 368              		.cfi_endproc
 369              	.LFE38:
 370              		.size	SendDataOverCapSenseNotification, .-SendDataOverCapSenseNotification
 371              		.section	.text.UpdateNotificationCCCD,"ax",%progbits
 372              		.align	2
 373              		.global	UpdateNotificationCCCD
 374              		.code	16
 375              		.thumb_func
 376              		.type	UpdateNotificationCCCD, %function
 377              	UpdateNotificationCCCD:
 378              	.LFB39:
 103:BLEApplications.c **** 
 104:BLEApplications.c **** void UpdateNotificationCCCD(void)
 105:BLEApplications.c **** {
 379              		.loc 1 105 0
 380              		.cfi_startproc
 381              		@ args = 0, pretend = 0, frame = 16
 382              		@ frame_needed = 1, uses_anonymous_args = 0
 383 0000 80B5     		push	{r7, lr}
 384              		.cfi_def_cfa_offset 8
 385              		.cfi_offset 7, -8
 386              		.cfi_offset 14, -4
 387 0002 84B0     		sub	sp, sp, #16
 388              		.cfi_def_cfa_offset 24
 389 0004 00AF     		add	r7, sp, #0
 390              		.cfi_def_cfa_register 7
 106:BLEApplications.c **** 	uint8 CCCDvalue[2];
 107:BLEApplications.c **** 	
 108:BLEApplications.c **** 	CYBLE_GATT_HANDLE_VALUE_PAIR_T notificationCCCDhandle;
 109:BLEApplications.c **** 
 110:BLEApplications.c **** 	if(updateNotificationCCCAttribute)
 391              		.loc 1 110 0
 392 0006 124B     		ldr	r3, .L28
 393 0008 1B78     		ldrb	r3, [r3]
 394 000a 002B     		cmp	r3, #0
 395 000c 1BD0     		beq	.L27
 111:BLEApplications.c **** 	{
 112:BLEApplications.c **** 		updateNotificationCCCAttribute = FALSE;
 396              		.loc 1 112 0
 397 000e 104B     		ldr	r3, .L28
 398 0010 0022     		movs	r2, #0
 399 0012 1A70     		strb	r2, [r3]
 113:BLEApplications.c **** 	
ARM GAS  C:\Users\PC\AppData\Local\Temp\cclL7KI6.s 			page 10


 114:BLEApplications.c **** 		CCCDvalue[0] = startNotification;
 400              		.loc 1 114 0
 401 0014 0F4B     		ldr	r3, .L28+4
 402 0016 1A78     		ldrb	r2, [r3]
 403 0018 0C23     		movs	r3, #12
 404 001a FB18     		adds	r3, r7, r3
 405 001c 1A70     		strb	r2, [r3]
 115:BLEApplications.c **** 		CCCDvalue[1] = 0x00;
 406              		.loc 1 115 0
 407 001e 0C23     		movs	r3, #12
 408 0020 FB18     		adds	r3, r7, r3
 409 0022 0022     		movs	r2, #0
 410 0024 5A70     		strb	r2, [r3, #1]
 116:BLEApplications.c **** 		
 117:BLEApplications.c **** 		notificationCCCDhandle.attrHandle = CYBLE_CAPSENSE_CAPSENSE_PROXIMITY_CLIENT_CHARACTERISTIC_CONFI
 411              		.loc 1 117 0
 412 0026 3B00     		movs	r3, r7
 413 0028 0F22     		movs	r2, #15
 414 002a 1A81     		strh	r2, [r3, #8]
 118:BLEApplications.c **** 		notificationCCCDhandle.value.val = CCCDvalue;
 415              		.loc 1 118 0
 416 002c 3B00     		movs	r3, r7
 417 002e 0C22     		movs	r2, #12
 418 0030 BA18     		adds	r2, r7, r2
 419 0032 1A60     		str	r2, [r3]
 119:BLEApplications.c **** 		notificationCCCDhandle.value.len = CCC_DATA_LEN;
 420              		.loc 1 119 0
 421 0034 3B00     		movs	r3, r7
 422 0036 0222     		movs	r2, #2
 423 0038 9A80     		strh	r2, [r3, #4]
 120:BLEApplications.c **** 		
 121:BLEApplications.c **** 		CyBle_GattsWriteAttributeValue(&notificationCCCDhandle, ZERO, &connectionHandle, CYBLE_GATT_DB_LO
 424              		.loc 1 121 0
 425 003a 074A     		ldr	r2, .L28+8
 426 003c 3800     		movs	r0, r7
 427 003e 0023     		movs	r3, #0
 428 0040 0021     		movs	r1, #0
 429 0042 FFF7FEFF 		bl	CyBle_GattsWriteAttributeValue
 430              	.L27:
 122:BLEApplications.c **** 	}	
 123:BLEApplications.c **** }
 431              		.loc 1 123 0
 432 0046 C046     		nop
 433 0048 BD46     		mov	sp, r7
 434 004a 04B0     		add	sp, sp, #16
 435              		@ sp needed
 436 004c 80BD     		pop	{r7, pc}
 437              	.L29:
 438 004e C046     		.align	2
 439              	.L28:
 440 0050 00000000 		.word	updateNotificationCCCAttribute
 441 0054 00000000 		.word	startNotification
 442 0058 00000000 		.word	connectionHandle
 443              		.cfi_endproc
 444              	.LFE39:
 445              		.size	UpdateNotificationCCCD, .-UpdateNotificationCCCD
 446              		.section	.text.HandleStatusLED,"ax",%progbits
ARM GAS  C:\Users\PC\AppData\Local\Temp\cclL7KI6.s 			page 11


 447              		.align	2
 448              		.global	HandleStatusLED
 449              		.code	16
 450              		.thumb_func
 451              		.type	HandleStatusLED, %function
 452              	HandleStatusLED:
 453              	.LFB40:
 124:BLEApplications.c **** 
 125:BLEApplications.c **** void HandleStatusLED(void)
 126:BLEApplications.c **** {
 454              		.loc 1 126 0
 455              		.cfi_startproc
 456              		@ args = 0, pretend = 0, frame = 8
 457              		@ frame_needed = 1, uses_anonymous_args = 0
 458 0000 80B5     		push	{r7, lr}
 459              		.cfi_def_cfa_offset 8
 460              		.cfi_offset 7, -8
 461              		.cfi_offset 14, -4
 462 0002 82B0     		sub	sp, sp, #8
 463              		.cfi_def_cfa_offset 16
 464 0004 00AF     		add	r7, sp, #0
 465              		.cfi_def_cfa_register 7
 127:BLEApplications.c **** 
 128:BLEApplications.c **** 	static uint32 led_counter = TRUE;
 129:BLEApplications.c **** 
 130:BLEApplications.c **** 	static uint8 state = 0xFF;
 131:BLEApplications.c **** 
 132:BLEApplications.c **** 	uint8 state_changed = FALSE;
 466              		.loc 1 132 0
 467 0006 FB1D     		adds	r3, r7, #7
 468 0008 0022     		movs	r2, #0
 469 000a 1A70     		strb	r2, [r3]
 133:BLEApplications.c **** 	
 134:BLEApplications.c **** 	if(state != CyBle_GetState())
 470              		.loc 1 134 0
 471 000c 2E4B     		ldr	r3, .L42
 472 000e 1A78     		ldrb	r2, [r3]
 473 0010 2E4B     		ldr	r3, .L42+4
 474 0012 1B78     		ldrb	r3, [r3]
 475 0014 9A42     		cmp	r2, r3
 476 0016 09D0     		beq	.L31
 135:BLEApplications.c **** 	{
 136:BLEApplications.c **** 		state_changed = TRUE;
 477              		.loc 1 136 0
 478 0018 FB1D     		adds	r3, r7, #7
 479 001a 0122     		movs	r2, #1
 480 001c 1A70     		strb	r2, [r3]
 137:BLEApplications.c **** 				
 138:BLEApplications.c **** 		if(CyBle_GetState() == CYBLE_STATE_ADVERTISING)
 481              		.loc 1 138 0
 482 001e 2B4B     		ldr	r3, .L42+4
 483 0020 1B78     		ldrb	r3, [r3]
 484 0022 032B     		cmp	r3, #3
 485 0024 02D1     		bne	.L31
 139:BLEApplications.c **** 		{
 140:BLEApplications.c **** 			led_counter = TRUE;
 486              		.loc 1 140 0
ARM GAS  C:\Users\PC\AppData\Local\Temp\cclL7KI6.s 			page 12


 487 0026 2A4B     		ldr	r3, .L42+8
 488 0028 0122     		movs	r2, #1
 489 002a 1A60     		str	r2, [r3]
 490              	.L31:
 141:BLEApplications.c **** 		}
 142:BLEApplications.c **** 	}
 143:BLEApplications.c **** 	
 144:BLEApplications.c **** 	state = CyBle_GetState();
 491              		.loc 1 144 0
 492 002c 274B     		ldr	r3, .L42+4
 493 002e 1A78     		ldrb	r2, [r3]
 494 0030 254B     		ldr	r3, .L42
 495 0032 1A70     		strb	r2, [r3]
 145:BLEApplications.c **** 		
 146:BLEApplications.c **** 	switch(state)
 496              		.loc 1 146 0
 497 0034 244B     		ldr	r3, .L42
 498 0036 1B78     		ldrb	r3, [r3]
 499 0038 032B     		cmp	r3, #3
 500 003a 12D0     		beq	.L33
 501 003c 042B     		cmp	r3, #4
 502 003e 31D0     		beq	.L34
 503 0040 022B     		cmp	r3, #2
 504 0042 00D0     		beq	.L35
 147:BLEApplications.c **** 	{
 148:BLEApplications.c **** 		case CYBLE_STATE_CONNECTED:
 149:BLEApplications.c **** 			if(state_changed)
 150:BLEApplications.c **** 			{
 151:BLEApplications.c **** 				state_changed = FALSE;
 152:BLEApplications.c **** 				
 153:BLEApplications.c **** 				Status_LED_SetDriveMode(Status_LED_DM_ALG_HIZ);
 154:BLEApplications.c ****                 Status_LED_Write(LED_ON);
 155:BLEApplications.c **** 			}
 156:BLEApplications.c **** 		break;
 157:BLEApplications.c **** 		
 158:BLEApplications.c **** 		case CYBLE_STATE_ADVERTISING:
 159:BLEApplications.c **** 			if((--led_counter) == FALSE)
 160:BLEApplications.c **** 			{
 161:BLEApplications.c **** 				Status_LED_SetDriveMode(Status_LED_DM_STRONG);
 162:BLEApplications.c **** 				
 163:BLEApplications.c **** 				if(Status_LED_Read() == LED_OFF)
 164:BLEApplications.c **** 				{
 165:BLEApplications.c **** 					Status_LED_Write(LED_ON);
 166:BLEApplications.c **** 					led_counter	= LED_ADV_BLINK_PERIOD_ON;
 167:BLEApplications.c **** 				}
 168:BLEApplications.c **** 				else
 169:BLEApplications.c **** 				{
 170:BLEApplications.c **** 					Status_LED_Write(LED_OFF);
 171:BLEApplications.c **** 					led_counter	= LED_ADV_BLINK_PERIOD_OFF;
 172:BLEApplications.c **** 				}
 173:BLEApplications.c **** 			}
 174:BLEApplications.c **** 		break;
 175:BLEApplications.c **** 		
 176:BLEApplications.c **** 		case CYBLE_STATE_DISCONNECTED:
 177:BLEApplications.c **** 			Status_LED_Write(LED_OFF);
 178:BLEApplications.c **** 			Status_LED_SetDriveMode(Status_LED_DM_ALG_HIZ);
 179:BLEApplications.c **** 		break;
ARM GAS  C:\Users\PC\AppData\Local\Temp\cclL7KI6.s 			page 13


 180:BLEApplications.c **** 		
 181:BLEApplications.c **** 		default:
 182:BLEApplications.c **** 
 183:BLEApplications.c **** 		break;
 505              		.loc 1 183 0
 506 0044 38E0     		b	.L37
 507              	.L35:
 149:BLEApplications.c **** 			{
 508              		.loc 1 149 0
 509 0046 FB1D     		adds	r3, r7, #7
 510 0048 1B78     		ldrb	r3, [r3]
 511 004a 002B     		cmp	r3, #0
 512 004c 31D0     		beq	.L40
 151:BLEApplications.c **** 				
 513              		.loc 1 151 0
 514 004e FB1D     		adds	r3, r7, #7
 515 0050 0022     		movs	r2, #0
 516 0052 1A70     		strb	r2, [r3]
 153:BLEApplications.c ****                 Status_LED_Write(LED_ON);
 517              		.loc 1 153 0
 518 0054 0020     		movs	r0, #0
 519 0056 FFF7FEFF 		bl	Status_LED_SetDriveMode
 154:BLEApplications.c **** 			}
 520              		.loc 1 154 0
 521 005a 0020     		movs	r0, #0
 522 005c FFF7FEFF 		bl	Status_LED_Write
 156:BLEApplications.c **** 		
 523              		.loc 1 156 0
 524 0060 27E0     		b	.L40
 525              	.L33:
 159:BLEApplications.c **** 			{
 526              		.loc 1 159 0
 527 0062 1B4B     		ldr	r3, .L42+8
 528 0064 1B68     		ldr	r3, [r3]
 529 0066 5A1E     		subs	r2, r3, #1
 530 0068 194B     		ldr	r3, .L42+8
 531 006a 1A60     		str	r2, [r3]
 532 006c 184B     		ldr	r3, .L42+8
 533 006e 1B68     		ldr	r3, [r3]
 534 0070 002B     		cmp	r3, #0
 535 0072 20D1     		bne	.L41
 161:BLEApplications.c **** 				
 536              		.loc 1 161 0
 537 0074 0620     		movs	r0, #6
 538 0076 FFF7FEFF 		bl	Status_LED_SetDriveMode
 163:BLEApplications.c **** 				{
 539              		.loc 1 163 0
 540 007a FFF7FEFF 		bl	Status_LED_Read
 541 007e 0300     		movs	r3, r0
 542 0080 012B     		cmp	r3, #1
 543 0082 07D1     		bne	.L39
 165:BLEApplications.c **** 					led_counter	= LED_ADV_BLINK_PERIOD_ON;
 544              		.loc 1 165 0
 545 0084 0020     		movs	r0, #0
 546 0086 FFF7FEFF 		bl	Status_LED_Write
 166:BLEApplications.c **** 				}
 547              		.loc 1 166 0
ARM GAS  C:\Users\PC\AppData\Local\Temp\cclL7KI6.s 			page 14


 548 008a 114B     		ldr	r3, .L42+8
 549 008c FA22     		movs	r2, #250
 550 008e 5201     		lsls	r2, r2, #5
 551 0090 1A60     		str	r2, [r3]
 174:BLEApplications.c **** 		
 552              		.loc 1 174 0
 553 0092 10E0     		b	.L41
 554              	.L39:
 170:BLEApplications.c **** 					led_counter	= LED_ADV_BLINK_PERIOD_OFF;
 555              		.loc 1 170 0
 556 0094 0120     		movs	r0, #1
 557 0096 FFF7FEFF 		bl	Status_LED_Write
 171:BLEApplications.c **** 				}
 558              		.loc 1 171 0
 559 009a 0D4B     		ldr	r3, .L42+8
 560 009c FA22     		movs	r2, #250
 561 009e 5201     		lsls	r2, r2, #5
 562 00a0 1A60     		str	r2, [r3]
 174:BLEApplications.c **** 		
 563              		.loc 1 174 0
 564 00a2 08E0     		b	.L41
 565              	.L34:
 177:BLEApplications.c **** 			Status_LED_SetDriveMode(Status_LED_DM_ALG_HIZ);
 566              		.loc 1 177 0
 567 00a4 0120     		movs	r0, #1
 568 00a6 FFF7FEFF 		bl	Status_LED_Write
 178:BLEApplications.c **** 		break;
 569              		.loc 1 178 0
 570 00aa 0020     		movs	r0, #0
 571 00ac FFF7FEFF 		bl	Status_LED_SetDriveMode
 179:BLEApplications.c **** 		
 572              		.loc 1 179 0
 573 00b0 02E0     		b	.L37
 574              	.L40:
 156:BLEApplications.c **** 		
 575              		.loc 1 156 0
 576 00b2 C046     		nop
 577 00b4 00E0     		b	.L37
 578              	.L41:
 174:BLEApplications.c **** 		
 579              		.loc 1 174 0
 580 00b6 C046     		nop
 581              	.L37:
 184:BLEApplications.c **** 	}
 185:BLEApplications.c **** 	
 186:BLEApplications.c **** 	state_changed = FALSE;
 582              		.loc 1 186 0
 583 00b8 FB1D     		adds	r3, r7, #7
 584 00ba 0022     		movs	r2, #0
 585 00bc 1A70     		strb	r2, [r3]
 187:BLEApplications.c **** }
 586              		.loc 1 187 0
 587 00be C046     		nop
 588 00c0 BD46     		mov	sp, r7
 589 00c2 02B0     		add	sp, sp, #8
 590              		@ sp needed
 591 00c4 80BD     		pop	{r7, pc}
ARM GAS  C:\Users\PC\AppData\Local\Temp\cclL7KI6.s 			page 15


 592              	.L43:
 593 00c6 C046     		.align	2
 594              	.L42:
 595 00c8 00000000 		.word	state.7606
 596 00cc 00000000 		.word	cyBle_state
 597 00d0 04000000 		.word	led_counter.7605
 598              		.cfi_endproc
 599              	.LFE40:
 600              		.size	HandleStatusLED, .-HandleStatusLED
 601              		.data
 602              		.type	state.7606, %object
 603              		.size	state.7606, 1
 604              	state.7606:
 605 0000 FF       		.byte	-1
 606 0001 000000   		.align	2
 607              		.type	led_counter.7605, %object
 608              		.size	led_counter.7605, 4
 609              	led_counter.7605:
 610 0004 01000000 		.word	1
 611              		.text
 612              	.Letext0:
 613              		.file 2 "Generated_Source\\PSoC4/cytypes.h"
 614              		.file 3 "Generated_Source\\PSoC4/BLE_StackGatt.h"
 615              		.file 4 "Generated_Source\\PSoC4/BLE_StackGattServer.h"
 616              		.file 5 "Generated_Source\\PSoC4/BLE_Stack.h"
 617              		.file 6 "Generated_Source\\PSoC4/BLE_eventHandler.h"