ARM GAS  C:\Users\PC\AppData\Local\Temp\ccCQ7ucw.s 			page 1


   1              		.syntax unified
   2              		.cpu cortex-m0
   3              		.fpu softvfp
   4              		.eabi_attribute 20, 1
   5              		.eabi_attribute 21, 1
   6              		.eabi_attribute 23, 3
   7              		.eabi_attribute 24, 1
   8              		.eabi_attribute 25, 1
   9              		.eabi_attribute 26, 1
  10              		.eabi_attribute 30, 6
  11              		.eabi_attribute 34, 0
  12              		.eabi_attribute 18, 4
  13              		.thumb
  14              		.syntax unified
  15              		.file	"CapSense_SMS.c"
  16              		.text
  17              	.Ltext0:
  18              		.cfi_sections	.debug_frame
  19              		.global	CapSense_prescalerTable
  20              		.section	.rodata
  21              		.align	2
  22              		.type	CapSense_prescalerTable, %object
  23              		.size	CapSense_prescalerTable, 16
  24              	CapSense_prescalerTable:
  25 0000 01       		.byte	1
  26 0001 01       		.byte	1
  27 0002 01       		.byte	1
  28 0003 02       		.byte	2
  29 0004 02       		.byte	2
  30 0005 02       		.byte	2
  31 0006 02       		.byte	2
  32 0007 04       		.byte	4
  33 0008 04       		.byte	4
  34 0009 04       		.byte	4
  35 000a 04       		.byte	4
  36 000b 04       		.byte	4
  37 000c 04       		.byte	4
  38 000d 04       		.byte	4
  39 000e 04       		.byte	4
  40 000f 04       		.byte	4
  41              		.comm	CapSense_noiseEnvelopeTbl,1,4
  42              		.comm	CapSense_runningDifferenceTbl,1,4
  43              		.comm	CapSense_signRegisterTbl,1,4
  44              		.comm	CapSense_sampleMinTbl,2,4
  45              		.comm	CapSense_sampleMaxTbl,2,4
  46              		.comm	CapSense_previousSampleTbl,2,4
  47              		.comm	CapSense_kValueTbl,1,4
  48              		.global	CapSense_sensorSensitivity
  49              		.data
  50              		.align	2
  51              		.type	CapSense_sensorSensitivity, %object
  52              		.size	CapSense_sensorSensitivity, 1
  53              	CapSense_sensorSensitivity:
  54 0000 01       		.byte	1
  55              		.comm	CapSense_config,12,4
  56              		.global	CapSense_configPointers
  57              		.section	.rodata
ARM GAS  C:\Users\PC\AppData\Local\Temp\ccCQ7ucw.s 			page 2


  58              		.align	2
  59              		.type	CapSense_configPointers, %object
  60              		.size	CapSense_configPointers, 92
  61              	CapSense_configPointers:
  62 0010 00000000 		.word	CapSense_modulationIDAC
  63 0014 00000000 		.word	CapSense_compensationIDAC
  64 0018 00000000 		.word	CapSense_sensorSensitivity
  65 001c 00000000 		.word	CapSense_senseClkDividerVal
  66 0020 00000000 		.word	CapSense_sampleClkDividerVal
  67 0024 00000000 		.word	CapSense_widgetNumber
  68 0028 00000000 		.word	CapSense_widgetResolution
  69 002c 00000000 		.word	CapSense_noiseEnvelopeTbl
  70 0030 00000000 		.word	CapSense_runningDifferenceTbl
  71 0034 00000000 		.word	CapSense_signRegisterTbl
  72 0038 00000000 		.word	CapSense_sampleMinTbl
  73 003c 00000000 		.word	CapSense_sampleMaxTbl
  74 0040 00000000 		.word	CapSense_previousSampleTbl
  75 0044 00000000 		.word	CapSense_kValueTbl
  76 0048 00000000 		.word	CapSense_scanSpeedTbl
  77 004c 00000000 		.word	CapSense_prescalerTable
  78 0050 00000000 		.word	CapSense_rawDataIndex
  79 0054 00000000 		.word	CapSense_numberOfSensors
  80 0058 00000000 		.word	CapSense_GetSensorRaw
  81 005c 00000000 		.word	CapSense_PreScan
  82 0060 00000000 		.word	CapSense_ReadSensorRaw
  83 0064 00000000 		.word	CapSense_GetBitValue
  84 0068 00000000 		.word	CapSense_SetBitValue
  85              		.section	.text.CapSense_AutoTune,"ax",%progbits
  86              		.align	2
  87              		.global	CapSense_AutoTune
  88              		.code	16
  89              		.thumb_func
  90              		.type	CapSense_AutoTune, %function
  91              	CapSense_AutoTune:
  92              	.LFB36:
  93              		.file 1 "Generated_Source\\PSoC4\\CapSense_SMS.c"
   1:Generated_Source\PSoC4/CapSense_SMS.c **** /*******************************************************************************
   2:Generated_Source\PSoC4/CapSense_SMS.c **** * File Name: CapSense_SMS.c
   3:Generated_Source\PSoC4/CapSense_SMS.c **** * Version 2.60
   4:Generated_Source\PSoC4/CapSense_SMS.c **** *
   5:Generated_Source\PSoC4/CapSense_SMS.c **** * Description:
   6:Generated_Source\PSoC4/CapSense_SMS.c **** *  This file provides the source code of wrapper between CapSense CSD component
   7:Generated_Source\PSoC4/CapSense_SMS.c **** *  and Auto Tuning library.
   8:Generated_Source\PSoC4/CapSense_SMS.c **** *
   9:Generated_Source\PSoC4/CapSense_SMS.c **** * Note:
  10:Generated_Source\PSoC4/CapSense_SMS.c **** *
  11:Generated_Source\PSoC4/CapSense_SMS.c **** ********************************************************************************
  12:Generated_Source\PSoC4/CapSense_SMS.c **** * Copyright 2013-2016, Cypress Semiconductor Corporation.  All rights reserved.
  13:Generated_Source\PSoC4/CapSense_SMS.c **** * You may use this file only in accordance with the license, terms, conditions,
  14:Generated_Source\PSoC4/CapSense_SMS.c **** * disclaimers, and limitations in the end user license agreement accompanying
  15:Generated_Source\PSoC4/CapSense_SMS.c **** * the software package with which this file was provided.
  16:Generated_Source\PSoC4/CapSense_SMS.c **** *******************************************************************************/
  17:Generated_Source\PSoC4/CapSense_SMS.c **** 
  18:Generated_Source\PSoC4/CapSense_SMS.c **** #include "CapSense_SMS.h"
  19:Generated_Source\PSoC4/CapSense_SMS.c **** #include "CapSense_PVT.h"
  20:Generated_Source\PSoC4/CapSense_SMS.c **** 
  21:Generated_Source\PSoC4/CapSense_SMS.c **** #include "cytypes.h"
ARM GAS  C:\Users\PC\AppData\Local\Temp\ccCQ7ucw.s 			page 3


  22:Generated_Source\PSoC4/CapSense_SMS.c **** 
  23:Generated_Source\PSoC4/CapSense_SMS.c **** #if (CapSense_TUNING_METHOD == CapSense__TUNING_AUTO)
  24:Generated_Source\PSoC4/CapSense_SMS.c **** 
  25:Generated_Source\PSoC4/CapSense_SMS.c **** 
  26:Generated_Source\PSoC4/CapSense_SMS.c **** /*  Real Charge Divider values */
  27:Generated_Source\PSoC4/CapSense_SMS.c **** #if ((0u != CapSense_IS_M0S8PERI_BLOCK) && (0u == CY_PSOC4_4000))
  28:Generated_Source\PSoC4/CapSense_SMS.c ****     /*  Dividers are not chained */
  29:Generated_Source\PSoC4/CapSense_SMS.c ****     #if (CYDEV_BCLK__HFCLK__MHZ > 24u)
  30:Generated_Source\PSoC4/CapSense_SMS.c ****         const uint8 CapSense_prescalerTable[CapSense_PRESCALERS_TBL_SIZE] = {
  31:Generated_Source\PSoC4/CapSense_SMS.c ****             4u,     4u,     4u,    8u,    8u,    8u,    8u,    16u,    16u,    16u,    16u,    16u,
  32:Generated_Source\PSoC4/CapSense_SMS.c ****         };
  33:Generated_Source\PSoC4/CapSense_SMS.c ****     #elif (CYDEV_BCLK__HFCLK__MHZ >12u)
  34:Generated_Source\PSoC4/CapSense_SMS.c ****         const uint8 CapSense_prescalerTable[CapSense_PRESCALERS_TBL_SIZE] = {
  35:Generated_Source\PSoC4/CapSense_SMS.c ****             2u,     2u,     2u,    4u,    4u,    4u,    4u,    8u,    8u,    8u,    8u,    8u,    8
  36:Generated_Source\PSoC4/CapSense_SMS.c ****         };
  37:Generated_Source\PSoC4/CapSense_SMS.c ****     #else   /* (CYDEV_BCLK__HFCLK__MHZ > 12u) */
  38:Generated_Source\PSoC4/CapSense_SMS.c ****         const uint8 CapSense_prescalerTable[CapSense_PRESCALERS_TBL_SIZE] = {
  39:Generated_Source\PSoC4/CapSense_SMS.c ****             1u,     1u,     1u,    2u,    2u,    2u,    2u,    4u,    4u,    4u,    4u,    4u,    4
  40:Generated_Source\PSoC4/CapSense_SMS.c ****         };
  41:Generated_Source\PSoC4/CapSense_SMS.c ****     #endif /* (CYDEV_BCLK__HFCLK__MHZ > 24u) */
  42:Generated_Source\PSoC4/CapSense_SMS.c **** 
  43:Generated_Source\PSoC4/CapSense_SMS.c **** #elif (0u != CapSense_IS_M0S8PERI_BLOCK)
  44:Generated_Source\PSoC4/CapSense_SMS.c ****     /*  Dividers are not chained (PSoC 4000) */
  45:Generated_Source\PSoC4/CapSense_SMS.c ****     #if (CYDEV_BCLK__HFCLK__MHZ >= 12u)
  46:Generated_Source\PSoC4/CapSense_SMS.c ****         const uint8 CapSense_prescalerTable[CapSense_PRESCALERS_TBL_SIZE] = {
  47:Generated_Source\PSoC4/CapSense_SMS.c ****             1u,     1u,     1u,    2u,    2u,    2u,    2u,    4u,    4u,    4u,    4u,    4u,    4
  48:Generated_Source\PSoC4/CapSense_SMS.c ****         };
  49:Generated_Source\PSoC4/CapSense_SMS.c **** 
  50:Generated_Source\PSoC4/CapSense_SMS.c ****     #elif (CYDEV_BCLK__HFCLK__MHZ >= 6u)
  51:Generated_Source\PSoC4/CapSense_SMS.c ****         const uint8 CapSense_prescalerTable[CapSense_PRESCALERS_TBL_SIZE] = {
  52:Generated_Source\PSoC4/CapSense_SMS.c ****             1u,     1u,     1u,    1u,    1u,    1u,    1u,    2u,    2u,    2u,    2u,    2u,    2
  53:Generated_Source\PSoC4/CapSense_SMS.c ****         };
  54:Generated_Source\PSoC4/CapSense_SMS.c ****     #else
  55:Generated_Source\PSoC4/CapSense_SMS.c ****         const uint8 CapSense_prescalerTable[CapSense_PRESCALERS_TBL_SIZE] = {
  56:Generated_Source\PSoC4/CapSense_SMS.c ****             1u,     1u,     1u,    1u,    1u,    1u,    1u,    1u,    1u,    1u,    1u,    1u,    1
  57:Generated_Source\PSoC4/CapSense_SMS.c ****         };
  58:Generated_Source\PSoC4/CapSense_SMS.c ****     #endif /* (CYDEV_BCLK__HFCLK__MHZ > 12u) */
  59:Generated_Source\PSoC4/CapSense_SMS.c **** 
  60:Generated_Source\PSoC4/CapSense_SMS.c **** #else
  61:Generated_Source\PSoC4/CapSense_SMS.c ****     /*  Dividers are chained (PSoC 4100, PSoC 4200) */
  62:Generated_Source\PSoC4/CapSense_SMS.c ****     #if (CYDEV_BCLK__HFCLK__MHZ > 24u)
  63:Generated_Source\PSoC4/CapSense_SMS.c ****         const uint8 CapSense_prescalerTable[CapSense_PRESCALERS_TBL_SIZE] = {
  64:Generated_Source\PSoC4/CapSense_SMS.c ****             2u,     2u,     2u,    4u,    4u,    4u,    4u,    8u,    8u,    8u,    8u,    8u,    8
  65:Generated_Source\PSoC4/CapSense_SMS.c ****         };
  66:Generated_Source\PSoC4/CapSense_SMS.c **** 
  67:Generated_Source\PSoC4/CapSense_SMS.c ****     #elif (CYDEV_BCLK__HFCLK__MHZ >12u)
  68:Generated_Source\PSoC4/CapSense_SMS.c ****         const uint8 CapSense_prescalerTable[CapSense_PRESCALERS_TBL_SIZE] = {
  69:Generated_Source\PSoC4/CapSense_SMS.c ****             1u,     1u,     1u,    2u,    2u,    2u,    2u,    4u,    4u,    4u,    4u,    4u,    4
  70:Generated_Source\PSoC4/CapSense_SMS.c ****         };
  71:Generated_Source\PSoC4/CapSense_SMS.c ****     #else   /* (CYDEV_BCLK__HFCLK__MHZ > 12u) */
  72:Generated_Source\PSoC4/CapSense_SMS.c ****         const uint8 CapSense_prescalerTable[CapSense_PRESCALERS_TBL_SIZE] = {
  73:Generated_Source\PSoC4/CapSense_SMS.c ****             1u,     1u,     1u,    1u,    1u,    1u,    1u,    2u,    2u,    2u,    2u,    2u,    2
  74:Generated_Source\PSoC4/CapSense_SMS.c ****         };
  75:Generated_Source\PSoC4/CapSense_SMS.c ****     #endif /* (CYDEV_BCLK__HFCLK__MHZ > 24u) */
  76:Generated_Source\PSoC4/CapSense_SMS.c **** #endif /* ((0u != CapSense_IS_M0S8PERI_BLOCK) && (0u == CY_PSOC4_4000)) */
  77:Generated_Source\PSoC4/CapSense_SMS.c **** 
  78:Generated_Source\PSoC4/CapSense_SMS.c **** 
ARM GAS  C:\Users\PC\AppData\Local\Temp\ccCQ7ucw.s 			page 4


  79:Generated_Source\PSoC4/CapSense_SMS.c **** uint8 CapSense_noiseEnvelopeTbl[CapSense_TOTAL_SENSOR_COUNT];
  80:Generated_Source\PSoC4/CapSense_SMS.c **** uint8 CapSense_runningDifferenceTbl[CapSense_TOTAL_SENSOR_COUNT];
  81:Generated_Source\PSoC4/CapSense_SMS.c **** uint8 CapSense_signRegisterTbl[CapSense_TOTAL_SENSOR_COUNT];
  82:Generated_Source\PSoC4/CapSense_SMS.c **** uint16 CapSense_sampleMinTbl[CapSense_TOTAL_SENSOR_COUNT];
  83:Generated_Source\PSoC4/CapSense_SMS.c **** uint16 CapSense_sampleMaxTbl[CapSense_TOTAL_SENSOR_COUNT];
  84:Generated_Source\PSoC4/CapSense_SMS.c **** uint16 CapSense_previousSampleTbl[CapSense_TOTAL_SENSOR_COUNT];
  85:Generated_Source\PSoC4/CapSense_SMS.c **** uint8 CapSense_kValueTbl[CapSense_TOTAL_SENSOR_COUNT];
  86:Generated_Source\PSoC4/CapSense_SMS.c **** 
  87:Generated_Source\PSoC4/CapSense_SMS.c **** uint8 CapSense_sensorSensitivity[] = {
  88:Generated_Source\PSoC4/CapSense_SMS.c ****     1u, 
  89:Generated_Source\PSoC4/CapSense_SMS.c **** };
  90:Generated_Source\PSoC4/CapSense_SMS.c **** 
  91:Generated_Source\PSoC4/CapSense_SMS.c **** CapSense_CONFIG_TYPE_P4_v2_60 CapSense_config;
  92:Generated_Source\PSoC4/CapSense_SMS.c **** CapSense_CONFIG_TYPE_POINTERS_P4_v2_60 const CapSense_configPointers = {
  93:Generated_Source\PSoC4/CapSense_SMS.c ****     CapSense_modulationIDAC,
  94:Generated_Source\PSoC4/CapSense_SMS.c ****     CapSense_compensationIDAC,
  95:Generated_Source\PSoC4/CapSense_SMS.c ****     CapSense_sensorSensitivity,
  96:Generated_Source\PSoC4/CapSense_SMS.c ****     CapSense_senseClkDividerVal,
  97:Generated_Source\PSoC4/CapSense_SMS.c ****     CapSense_sampleClkDividerVal,
  98:Generated_Source\PSoC4/CapSense_SMS.c ****     CapSense_widgetNumber,
  99:Generated_Source\PSoC4/CapSense_SMS.c ****     CapSense_widgetResolution,
 100:Generated_Source\PSoC4/CapSense_SMS.c ****     CapSense_noiseEnvelopeTbl,
 101:Generated_Source\PSoC4/CapSense_SMS.c ****     CapSense_runningDifferenceTbl,
 102:Generated_Source\PSoC4/CapSense_SMS.c ****     CapSense_signRegisterTbl,
 103:Generated_Source\PSoC4/CapSense_SMS.c ****     CapSense_sampleMinTbl,
 104:Generated_Source\PSoC4/CapSense_SMS.c ****     CapSense_sampleMaxTbl,
 105:Generated_Source\PSoC4/CapSense_SMS.c ****     CapSense_previousSampleTbl,
 106:Generated_Source\PSoC4/CapSense_SMS.c ****     CapSense_kValueTbl,
 107:Generated_Source\PSoC4/CapSense_SMS.c ****     CapSense_scanSpeedTbl,
 108:Generated_Source\PSoC4/CapSense_SMS.c ****     CapSense_prescalerTable,
 109:Generated_Source\PSoC4/CapSense_SMS.c ****     (const uint8  *)CapSense_rawDataIndex,
 110:Generated_Source\PSoC4/CapSense_SMS.c ****     (const uint8  *)CapSense_numberOfSensors,
 111:Generated_Source\PSoC4/CapSense_SMS.c ****     &CapSense_GetSensorRaw,
 112:Generated_Source\PSoC4/CapSense_SMS.c ****     &CapSense_PreScan,
 113:Generated_Source\PSoC4/CapSense_SMS.c ****     &CapSense_ReadSensorRaw,
 114:Generated_Source\PSoC4/CapSense_SMS.c ****     &CapSense_GetBitValue,
 115:Generated_Source\PSoC4/CapSense_SMS.c ****     &CapSense_SetBitValue
 116:Generated_Source\PSoC4/CapSense_SMS.c **** };
 117:Generated_Source\PSoC4/CapSense_SMS.c **** 
 118:Generated_Source\PSoC4/CapSense_SMS.c **** 
 119:Generated_Source\PSoC4/CapSense_SMS.c **** /*******************************************************************************
 120:Generated_Source\PSoC4/CapSense_SMS.c **** * Function Name: CapSense_AutoTune
 121:Generated_Source\PSoC4/CapSense_SMS.c **** ********************************************************************************
 122:Generated_Source\PSoC4/CapSense_SMS.c **** *
 123:Generated_Source\PSoC4/CapSense_SMS.c **** * Summary:
 124:Generated_Source\PSoC4/CapSense_SMS.c **** *  Provides the tuning procedure for all sensors.
 125:Generated_Source\PSoC4/CapSense_SMS.c **** *
 126:Generated_Source\PSoC4/CapSense_SMS.c **** * Parameters:
 127:Generated_Source\PSoC4/CapSense_SMS.c **** *  None
 128:Generated_Source\PSoC4/CapSense_SMS.c **** *
 129:Generated_Source\PSoC4/CapSense_SMS.c **** * Return:
 130:Generated_Source\PSoC4/CapSense_SMS.c **** *  None
 131:Generated_Source\PSoC4/CapSense_SMS.c **** *
 132:Generated_Source\PSoC4/CapSense_SMS.c **** * Global Variables:
 133:Generated_Source\PSoC4/CapSense_SMS.c **** *   CapSense_config: the structure which contains configuration parameters
 134:Generated_Source\PSoC4/CapSense_SMS.c **** *   CapSense_senseClkDividerVal[]: used to store the Analog Switch
 135:Generated_Source\PSoC4/CapSense_SMS.c **** *   dividers for each sensor.
ARM GAS  C:\Users\PC\AppData\Local\Temp\ccCQ7ucw.s 			page 5


 136:Generated_Source\PSoC4/CapSense_SMS.c **** *   CapSense_senseClkDividerVal[]: used to store the
 137:Generated_Source\PSoC4/CapSense_SMS.c **** *    Analog Switch divider for all sensors.
 138:Generated_Source\PSoC4/CapSense_SMS.c **** *   CapSense_prescalersTuningDone - used to notify the Tuner GUI that
 139:Generated_Source\PSoC4/CapSense_SMS.c **** *   the pre-scalers tuning  is done.
 140:Generated_Source\PSoC4/CapSense_SMS.c **** *
 141:Generated_Source\PSoC4/CapSense_SMS.c **** * Side Effects:
 142:Generated_Source\PSoC4/CapSense_SMS.c **** *  None
 143:Generated_Source\PSoC4/CapSense_SMS.c **** *
 144:Generated_Source\PSoC4/CapSense_SMS.c **** *******************************************************************************/
 145:Generated_Source\PSoC4/CapSense_SMS.c **** void CapSense_AutoTune(void)
 146:Generated_Source\PSoC4/CapSense_SMS.c **** {
  94              		.loc 1 146 0
  95              		.cfi_startproc
  96              		@ args = 0, pretend = 0, frame = 8
  97              		@ frame_needed = 1, uses_anonymous_args = 0
  98 0000 80B5     		push	{r7, lr}
  99              		.cfi_def_cfa_offset 8
 100              		.cfi_offset 7, -8
 101              		.cfi_offset 14, -4
 102 0002 82B0     		sub	sp, sp, #8
 103              		.cfi_def_cfa_offset 16
 104 0004 00AF     		add	r7, sp, #0
 105              		.cfi_def_cfa_register 7
 147:Generated_Source\PSoC4/CapSense_SMS.c ****     uint32 curSensor;
 148:Generated_Source\PSoC4/CapSense_SMS.c ****     uint32 widget;
 149:Generated_Source\PSoC4/CapSense_SMS.c **** 
 150:Generated_Source\PSoC4/CapSense_SMS.c ****     CapSense_config.totalScanslotsNum = CapSense_TOTAL_SCANSLOT_COUNT;
 106              		.loc 1 150 0
 107 0006 334B     		ldr	r3, .L8
 108 0008 0122     		movs	r2, #1
 109 000a 1A70     		strb	r2, [r3]
 151:Generated_Source\PSoC4/CapSense_SMS.c ****     CapSense_config.totalWidgetsNum = CapSense_END_OF_WIDGETS_INDEX;
 110              		.loc 1 151 0
 111 000c 314B     		ldr	r3, .L8
 112 000e 0122     		movs	r2, #1
 113 0010 5A70     		strb	r2, [r3, #1]
 152:Generated_Source\PSoC4/CapSense_SMS.c ****     CapSense_config.totalSensorsNum = CapSense_TOTAL_SENSOR_COUNT;
 114              		.loc 1 152 0
 115 0012 304B     		ldr	r3, .L8
 116 0014 0122     		movs	r2, #1
 117 0016 9A70     		strb	r2, [r3, #2]
 153:Generated_Source\PSoC4/CapSense_SMS.c **** 
 154:Generated_Source\PSoC4/CapSense_SMS.c ****     CapSense_config.hfclkFreq_MHz = CYDEV_BCLK__HFCLK__MHZ;
 118              		.loc 1 154 0
 119 0018 2E4B     		ldr	r3, .L8
 120 001a 0C22     		movs	r2, #12
 121 001c DA80     		strh	r2, [r3, #6]
 155:Generated_Source\PSoC4/CapSense_SMS.c ****     CapSense_config.sensetivitySeed = CapSense_SENSETIVITY_FACTOR;
 122              		.loc 1 155 0
 123 001e 2D4B     		ldr	r3, .L8
 124 0020 2D4A     		ldr	r2, .L8+4
 125 0022 9A80     		strh	r2, [r3, #4]
 156:Generated_Source\PSoC4/CapSense_SMS.c **** 
 157:Generated_Source\PSoC4/CapSense_SMS.c ****     CapSense_config.pointers = &CapSense_configPointers;
 126              		.loc 1 157 0
 127 0024 2B4B     		ldr	r3, .L8
 128 0026 2D4A     		ldr	r2, .L8+8
ARM GAS  C:\Users\PC\AppData\Local\Temp\ccCQ7ucw.s 			page 6


 129 0028 9A60     		str	r2, [r3, #8]
 158:Generated_Source\PSoC4/CapSense_SMS.c **** 
 159:Generated_Source\PSoC4/CapSense_SMS.c ****     CapSense_SetAnalogSwitchesSrcDirect();
 130              		.loc 1 159 0
 131 002a FFF7FEFF 		bl	CapSense_SetAnalogSwitchesSrcDirect
 160:Generated_Source\PSoC4/CapSense_SMS.c **** 
 161:Generated_Source\PSoC4/CapSense_SMS.c ****     for(widget = 0u; widget < CapSense_config.totalWidgetsNum; widget++)
 132              		.loc 1 161 0
 133 002e 0023     		movs	r3, #0
 134 0030 3B60     		str	r3, [r7]
 135 0032 07E0     		b	.L2
 136              	.L3:
 162:Generated_Source\PSoC4/CapSense_SMS.c ****     {
 163:Generated_Source\PSoC4/CapSense_SMS.c ****         CapSense_widgetResolution[widget] = CapSense_CALIBRATION_RESOLUTION;
 137              		.loc 1 163 0 discriminator 3
 138 0034 2A4B     		ldr	r3, .L8+12
 139 0036 3A68     		ldr	r2, [r7]
 140 0038 9200     		lsls	r2, r2, #2
 141 003a 2A49     		ldr	r1, .L8+16
 142 003c D150     		str	r1, [r2, r3]
 161:Generated_Source\PSoC4/CapSense_SMS.c ****     {
 143              		.loc 1 161 0 discriminator 3
 144 003e 3B68     		ldr	r3, [r7]
 145 0040 0133     		adds	r3, r3, #1
 146 0042 3B60     		str	r3, [r7]
 147              	.L2:
 161:Generated_Source\PSoC4/CapSense_SMS.c ****     {
 148              		.loc 1 161 0 is_stmt 0 discriminator 1
 149 0044 234B     		ldr	r3, .L8
 150 0046 5B78     		ldrb	r3, [r3, #1]
 151 0048 1A00     		movs	r2, r3
 152 004a 3B68     		ldr	r3, [r7]
 153 004c 9A42     		cmp	r2, r3
 154 004e F1D8     		bhi	.L3
 164:Generated_Source\PSoC4/CapSense_SMS.c ****     }
 165:Generated_Source\PSoC4/CapSense_SMS.c **** 
 166:Generated_Source\PSoC4/CapSense_SMS.c **** 
 167:Generated_Source\PSoC4/CapSense_SMS.c ****     for(curSensor = 0u; curSensor < CapSense_TOTAL_SCANSLOT_COUNT; curSensor++)
 155              		.loc 1 167 0 is_stmt 1
 156 0050 0023     		movs	r3, #0
 157 0052 7B60     		str	r3, [r7, #4]
 158 0054 0CE0     		b	.L4
 159              	.L5:
 168:Generated_Source\PSoC4/CapSense_SMS.c ****     {
 169:Generated_Source\PSoC4/CapSense_SMS.c ****         CapSense_senseClkDividerVal[curSensor] = CapSense_CALIBRATION_ASD;
 160              		.loc 1 169 0 discriminator 3
 161 0056 244A     		ldr	r2, .L8+20
 162 0058 7B68     		ldr	r3, [r7, #4]
 163 005a D318     		adds	r3, r2, r3
 164 005c 0422     		movs	r2, #4
 165 005e 1A70     		strb	r2, [r3]
 170:Generated_Source\PSoC4/CapSense_SMS.c ****         CapSense_sampleClkDividerVal[curSensor] = CapSense_CALIBRATION_MD;
 166              		.loc 1 170 0 discriminator 3
 167 0060 224A     		ldr	r2, .L8+24
 168 0062 7B68     		ldr	r3, [r7, #4]
 169 0064 D318     		adds	r3, r2, r3
 170 0066 0122     		movs	r2, #1
ARM GAS  C:\Users\PC\AppData\Local\Temp\ccCQ7ucw.s 			page 7


 171 0068 1A70     		strb	r2, [r3]
 167:Generated_Source\PSoC4/CapSense_SMS.c ****     {
 172              		.loc 1 167 0 discriminator 3
 173 006a 7B68     		ldr	r3, [r7, #4]
 174 006c 0133     		adds	r3, r3, #1
 175 006e 7B60     		str	r3, [r7, #4]
 176              	.L4:
 167:Generated_Source\PSoC4/CapSense_SMS.c ****     {
 177              		.loc 1 167 0 is_stmt 0 discriminator 1
 178 0070 7B68     		ldr	r3, [r7, #4]
 179 0072 002B     		cmp	r3, #0
 180 0074 EFD0     		beq	.L5
 171:Generated_Source\PSoC4/CapSense_SMS.c ****     }
 172:Generated_Source\PSoC4/CapSense_SMS.c **** 
 173:Generated_Source\PSoC4/CapSense_SMS.c ****     CapSense_DisableBaselineIDAC();
 181              		.loc 1 173 0 is_stmt 1
 182 0076 FFF7FEFF 		bl	CapSense_DisableBaselineIDAC
 174:Generated_Source\PSoC4/CapSense_SMS.c **** 
 175:Generated_Source\PSoC4/CapSense_SMS.c ****     CalibrateSensors_P4_v2_60(&CapSense_config, CapSense_CAL_RAW_COUNT);
 183              		.loc 1 175 0
 184 007a 1D4A     		ldr	r2, .L8+28
 185 007c 154B     		ldr	r3, .L8
 186 007e 1100     		movs	r1, r2
 187 0080 1800     		movs	r0, r3
 188 0082 FFF7FEFF 		bl	CalibrateSensors_P4_v2_60
 176:Generated_Source\PSoC4/CapSense_SMS.c **** 
 177:Generated_Source\PSoC4/CapSense_SMS.c ****     #if(0u != CapSense_TOTAL_CENTROIDS_COUNT)
 178:Generated_Source\PSoC4/CapSense_SMS.c ****         CapSense_NormalizeWidgets(CapSense_END_OF_WIDGETS_INDEX, CapSense_modulationIDAC);
 179:Generated_Source\PSoC4/CapSense_SMS.c ****     #endif /* (0u != CapSense_TOTAL_CENTROIDS_COUNT)  */
 180:Generated_Source\PSoC4/CapSense_SMS.c **** 
 181:Generated_Source\PSoC4/CapSense_SMS.c ****     TunePrescalers_P4_v2_60(&CapSense_config);
 189              		.loc 1 181 0
 190 0086 134B     		ldr	r3, .L8
 191 0088 1800     		movs	r0, r3
 192 008a FFF7FEFF 		bl	TunePrescalers_P4_v2_60
 182:Generated_Source\PSoC4/CapSense_SMS.c **** 
 183:Generated_Source\PSoC4/CapSense_SMS.c ****     #if(CapSense_PRS_OPTIONS != CapSense__PRS_NONE)
 184:Generated_Source\PSoC4/CapSense_SMS.c ****         CapSense_prescalersTuningDone = 1u;
 193              		.loc 1 184 0
 194 008e 194B     		ldr	r3, .L8+32
 195 0090 0122     		movs	r2, #1
 196 0092 1A70     		strb	r2, [r3]
 185:Generated_Source\PSoC4/CapSense_SMS.c ****     #endif /* (CapSense_PRS_OPTIONS == CapSense__PRS_NONE) */
 186:Generated_Source\PSoC4/CapSense_SMS.c **** 
 187:Generated_Source\PSoC4/CapSense_SMS.c ****     CalibrateSensors_P4_v2_60(&CapSense_config, CapSense_CAL_RAW_COUNT);
 197              		.loc 1 187 0
 198 0094 164A     		ldr	r2, .L8+28
 199 0096 0F4B     		ldr	r3, .L8
 200 0098 1100     		movs	r1, r2
 201 009a 1800     		movs	r0, r3
 202 009c FFF7FEFF 		bl	CalibrateSensors_P4_v2_60
 188:Generated_Source\PSoC4/CapSense_SMS.c ****     #if(0u != CapSense_TOTAL_CENTROIDS_COUNT)
 189:Generated_Source\PSoC4/CapSense_SMS.c ****         CapSense_NormalizeWidgets(CapSense_END_OF_WIDGETS_INDEX, CapSense_modulationIDAC);
 190:Generated_Source\PSoC4/CapSense_SMS.c ****     #endif /* (0u != CapSense_TOTAL_CENTROIDS_COUNT)  */
 191:Generated_Source\PSoC4/CapSense_SMS.c ****     TuneSensitivity_P4_v2_60(&CapSense_config);
 203              		.loc 1 191 0
 204 00a0 0C4B     		ldr	r3, .L8
ARM GAS  C:\Users\PC\AppData\Local\Temp\ccCQ7ucw.s 			page 8


 205 00a2 1800     		movs	r0, r3
 206 00a4 FFF7FEFF 		bl	TuneSensitivity_P4_v2_60
 192:Generated_Source\PSoC4/CapSense_SMS.c **** 
 193:Generated_Source\PSoC4/CapSense_SMS.c ****     CapSense_EnableBaselineIDAC(&CapSense_config);
 207              		.loc 1 193 0
 208 00a8 0A4B     		ldr	r3, .L8
 209 00aa 1800     		movs	r0, r3
 210 00ac FFF7FEFF 		bl	CapSense_EnableBaselineIDAC
 194:Generated_Source\PSoC4/CapSense_SMS.c **** 
 195:Generated_Source\PSoC4/CapSense_SMS.c ****     for(curSensor = 0u; curSensor < CapSense_TOTAL_SCANSLOT_COUNT; curSensor++)
 211              		.loc 1 195 0
 212 00b0 0023     		movs	r3, #0
 213 00b2 7B60     		str	r3, [r7, #4]
 214 00b4 06E0     		b	.L6
 215              	.L7:
 196:Generated_Source\PSoC4/CapSense_SMS.c ****     {
 197:Generated_Source\PSoC4/CapSense_SMS.c ****         CapSense_UpdateThresholds(curSensor);
 216              		.loc 1 197 0 discriminator 3
 217 00b6 7B68     		ldr	r3, [r7, #4]
 218 00b8 1800     		movs	r0, r3
 219 00ba FFF7FEFF 		bl	CapSense_UpdateThresholds
 195:Generated_Source\PSoC4/CapSense_SMS.c ****     {
 220              		.loc 1 195 0 discriminator 3
 221 00be 7B68     		ldr	r3, [r7, #4]
 222 00c0 0133     		adds	r3, r3, #1
 223 00c2 7B60     		str	r3, [r7, #4]
 224              	.L6:
 195:Generated_Source\PSoC4/CapSense_SMS.c ****     {
 225              		.loc 1 195 0 is_stmt 0 discriminator 1
 226 00c4 7B68     		ldr	r3, [r7, #4]
 227 00c6 002B     		cmp	r3, #0
 228 00c8 F5D0     		beq	.L7
 198:Generated_Source\PSoC4/CapSense_SMS.c ****     }
 199:Generated_Source\PSoC4/CapSense_SMS.c **** }
 229              		.loc 1 199 0 is_stmt 1
 230 00ca C046     		nop
 231 00cc BD46     		mov	sp, r7
 232 00ce 02B0     		add	sp, sp, #8
 233              		@ sp needed
 234 00d0 80BD     		pop	{r7, pc}
 235              	.L9:
 236 00d2 C046     		.align	2
 237              	.L8:
 238 00d4 00000000 		.word	CapSense_config
 239 00d8 CC040000 		.word	1228
 240 00dc 00000000 		.word	CapSense_configPointers
 241 00e0 00000000 		.word	CapSense_widgetResolution
 242 00e4 0000FF0F 		.word	268369920
 243 00e8 00000000 		.word	CapSense_senseClkDividerVal
 244 00ec 00000000 		.word	CapSense_sampleClkDividerVal
 245 00f0 9A0D0000 		.word	3482
 246 00f4 00000000 		.word	CapSense_prescalersTuningDone
 247              		.cfi_endproc
 248              	.LFE36:
 249              		.size	CapSense_AutoTune, .-CapSense_AutoTune
 250              		.section	.text.CapSense_UpdateThresholds,"ax",%progbits
 251              		.align	2
ARM GAS  C:\Users\PC\AppData\Local\Temp\ccCQ7ucw.s 			page 9


 252              		.global	CapSense_UpdateThresholds
 253              		.code	16
 254              		.thumb_func
 255              		.type	CapSense_UpdateThresholds, %function
 256              	CapSense_UpdateThresholds:
 257              	.LFB37:
 200:Generated_Source\PSoC4/CapSense_SMS.c **** 
 201:Generated_Source\PSoC4/CapSense_SMS.c **** 
 202:Generated_Source\PSoC4/CapSense_SMS.c **** /*******************************************************************************
 203:Generated_Source\PSoC4/CapSense_SMS.c **** * Function Name: CapSense_UpdateThresholds
 204:Generated_Source\PSoC4/CapSense_SMS.c **** ********************************************************************************
 205:Generated_Source\PSoC4/CapSense_SMS.c **** *
 206:Generated_Source\PSoC4/CapSense_SMS.c **** * Summary:
 207:Generated_Source\PSoC4/CapSense_SMS.c **** *  The API updates the Finger Threshold, Hysteresis, Noise Threshold, and
 208:Generated_Source\PSoC4/CapSense_SMS.c **** *  Negative Noise Threshold in the AutoTuning (Smartsense) Mode.
 209:Generated_Source\PSoC4/CapSense_SMS.c **** *
 210:Generated_Source\PSoC4/CapSense_SMS.c **** * Parameters:
 211:Generated_Source\PSoC4/CapSense_SMS.c **** *  sensor: sensor number.
 212:Generated_Source\PSoC4/CapSense_SMS.c **** *
 213:Generated_Source\PSoC4/CapSense_SMS.c **** * Return:
 214:Generated_Source\PSoC4/CapSense_SMS.c **** *  None
 215:Generated_Source\PSoC4/CapSense_SMS.c **** *
 216:Generated_Source\PSoC4/CapSense_SMS.c **** * Global Variables:
 217:Generated_Source\PSoC4/CapSense_SMS.c **** *  CapSense_widgetNumber[] - contains widget Number for given sensor.
 218:Generated_Source\PSoC4/CapSense_SMS.c **** *  0 through 7 (sensor 0 is bit 0, sensor 1 is bit 1).
 219:Generated_Source\PSoC4/CapSense_SMS.c **** *  For other sensors the array element equals to 255.
 220:Generated_Source\PSoC4/CapSense_SMS.c **** *  CapSense_numberOfSensors[widget] - Number of sensors in the widget.
 221:Generated_Source\PSoC4/CapSense_SMS.c **** *   CapSense_fingerThreshold[] - contains the level of signal for each sensor
 222:Generated_Source\PSoC4/CapSense_SMS.c **** *   that determines if a finger present on the sensor.
 223:Generated_Source\PSoC4/CapSense_SMS.c **** *   CapSense_negativeNoiseThreshold[] - negative Noise Threshold
 224:Generated_Source\PSoC4/CapSense_SMS.c **** *   CapSense_hysteresis[] - the array with hysteresis values.
 225:Generated_Source\PSoC4/CapSense_SMS.c **** *
 226:Generated_Source\PSoC4/CapSense_SMS.c **** * Side Effects:
 227:Generated_Source\PSoC4/CapSense_SMS.c **** *  None
 228:Generated_Source\PSoC4/CapSense_SMS.c **** *
 229:Generated_Source\PSoC4/CapSense_SMS.c **** *******************************************************************************/
 230:Generated_Source\PSoC4/CapSense_SMS.c **** void CapSense_UpdateThresholds(uint32 sensor)
 231:Generated_Source\PSoC4/CapSense_SMS.c **** {
 258              		.loc 1 231 0
 259              		.cfi_startproc
 260              		@ args = 0, pretend = 0, frame = 16
 261              		@ frame_needed = 1, uses_anonymous_args = 0
 262 0000 80B5     		push	{r7, lr}
 263              		.cfi_def_cfa_offset 8
 264              		.cfi_offset 7, -8
 265              		.cfi_offset 14, -4
 266 0002 84B0     		sub	sp, sp, #16
 267              		.cfi_def_cfa_offset 24
 268 0004 00AF     		add	r7, sp, #0
 269              		.cfi_def_cfa_register 7
 270 0006 7860     		str	r0, [r7, #4]
 232:Generated_Source\PSoC4/CapSense_SMS.c ****     uint8 fingerThreshold;
 233:Generated_Source\PSoC4/CapSense_SMS.c ****     uint32 widget;
 234:Generated_Source\PSoC4/CapSense_SMS.c **** 
 235:Generated_Source\PSoC4/CapSense_SMS.c ****     widget = CapSense_widgetNumber[sensor];
 271              		.loc 1 235 0
 272 0008 164A     		ldr	r2, .L11
ARM GAS  C:\Users\PC\AppData\Local\Temp\ccCQ7ucw.s 			page 10


 273 000a 7B68     		ldr	r3, [r7, #4]
 274 000c D318     		adds	r3, r2, r3
 275 000e 1B78     		ldrb	r3, [r3]
 276 0010 FB60     		str	r3, [r7, #12]
 236:Generated_Source\PSoC4/CapSense_SMS.c **** 
 237:Generated_Source\PSoC4/CapSense_SMS.c ****     #if(0u != CapSense_FLEXIBLE_THRESHOLDS_EN)
 238:Generated_Source\PSoC4/CapSense_SMS.c ****         fingerThreshold = CapSense_fingerThreshold[widget];
 277              		.loc 1 238 0
 278 0012 0B23     		movs	r3, #11
 279 0014 FB18     		adds	r3, r7, r3
 280 0016 1449     		ldr	r1, .L11+4
 281 0018 FA68     		ldr	r2, [r7, #12]
 282 001a 8A18     		adds	r2, r1, r2
 283 001c 1278     		ldrb	r2, [r2]
 284 001e 1A70     		strb	r2, [r3]
 239:Generated_Source\PSoC4/CapSense_SMS.c ****         /* Update Threshold manually (flexible) */
 240:Generated_Source\PSoC4/CapSense_SMS.c ****         CapSense_noiseThreshold[widget] = (uint8)(fingerThreshold >> 1u);
 285              		.loc 1 240 0
 286 0020 0B23     		movs	r3, #11
 287 0022 FB18     		adds	r3, r7, r3
 288 0024 1B78     		ldrb	r3, [r3]
 289 0026 5B08     		lsrs	r3, r3, #1
 290 0028 D9B2     		uxtb	r1, r3
 291 002a 104A     		ldr	r2, .L11+8
 292 002c FB68     		ldr	r3, [r7, #12]
 293 002e D318     		adds	r3, r2, r3
 294 0030 0A1C     		adds	r2, r1, #0
 295 0032 1A70     		strb	r2, [r3]
 241:Generated_Source\PSoC4/CapSense_SMS.c ****         CapSense_negativeNoiseThreshold[widget] = (uint8)(fingerThreshold >> 1u);
 296              		.loc 1 241 0
 297 0034 0B23     		movs	r3, #11
 298 0036 FB18     		adds	r3, r7, r3
 299 0038 1B78     		ldrb	r3, [r3]
 300 003a 5B08     		lsrs	r3, r3, #1
 301 003c D9B2     		uxtb	r1, r3
 302 003e 0C4A     		ldr	r2, .L11+12
 303 0040 FB68     		ldr	r3, [r7, #12]
 304 0042 D318     		adds	r3, r2, r3
 305 0044 0A1C     		adds	r2, r1, #0
 306 0046 1A70     		strb	r2, [r3]
 242:Generated_Source\PSoC4/CapSense_SMS.c ****         CapSense_hysteresis[widget] = (uint8)(fingerThreshold >> 3u);
 307              		.loc 1 242 0
 308 0048 0B23     		movs	r3, #11
 309 004a FB18     		adds	r3, r7, r3
 310 004c 1B78     		ldrb	r3, [r3]
 311 004e DB08     		lsrs	r3, r3, #3
 312 0050 D9B2     		uxtb	r1, r3
 313 0052 084A     		ldr	r2, .L11+16
 314 0054 FB68     		ldr	r3, [r7, #12]
 315 0056 D318     		adds	r3, r2, r3
 316 0058 0A1C     		adds	r2, r1, #0
 317 005a 1A70     		strb	r2, [r3]
 243:Generated_Source\PSoC4/CapSense_SMS.c ****     #else
 244:Generated_Source\PSoC4/CapSense_SMS.c ****         /* Calculate Finger Threshold and Noise Threshold with Smartsense (automatic) */
 245:Generated_Source\PSoC4/CapSense_SMS.c ****         CalculateThresholds_P4_v2_60(&CapSense_config, (uint8)sensor, (uint8)widget, CapSense_finge
 246:Generated_Source\PSoC4/CapSense_SMS.c **** 
 247:Generated_Source\PSoC4/CapSense_SMS.c ****         fingerThreshold = CapSense_fingerThreshold[widget];
ARM GAS  C:\Users\PC\AppData\Local\Temp\ccCQ7ucw.s 			page 11


 248:Generated_Source\PSoC4/CapSense_SMS.c **** 
 249:Generated_Source\PSoC4/CapSense_SMS.c ****         /* Update Threshold based on calculated with Smartsense (automatic) */
 250:Generated_Source\PSoC4/CapSense_SMS.c ****         CapSense_negativeNoiseThreshold[widget] = CapSense_noiseThreshold[widget];
 251:Generated_Source\PSoC4/CapSense_SMS.c **** 
 252:Generated_Source\PSoC4/CapSense_SMS.c ****         if(fingerThreshold < CapSense_THRESHOLD_1)
 253:Generated_Source\PSoC4/CapSense_SMS.c ****         {
 254:Generated_Source\PSoC4/CapSense_SMS.c ****             CapSense_hysteresis[widget] = (uint8)(fingerThreshold >> 3u);
 255:Generated_Source\PSoC4/CapSense_SMS.c ****         }
 256:Generated_Source\PSoC4/CapSense_SMS.c ****         else if(fingerThreshold <  CapSense_THRESHOLD_2)
 257:Generated_Source\PSoC4/CapSense_SMS.c ****         {
 258:Generated_Source\PSoC4/CapSense_SMS.c ****             CapSense_hysteresis[widget] = (uint8)(fingerThreshold >> 4u);
 259:Generated_Source\PSoC4/CapSense_SMS.c ****         }
 260:Generated_Source\PSoC4/CapSense_SMS.c ****         else if(fingerThreshold <  CapSense_THRESHOLD_3)
 261:Generated_Source\PSoC4/CapSense_SMS.c ****         {
 262:Generated_Source\PSoC4/CapSense_SMS.c ****             CapSense_hysteresis[widget] = (uint8)(fingerThreshold >> 5u);
 263:Generated_Source\PSoC4/CapSense_SMS.c ****         }
 264:Generated_Source\PSoC4/CapSense_SMS.c ****         else if(fingerThreshold <  CapSense_THRESHOLD_4)
 265:Generated_Source\PSoC4/CapSense_SMS.c ****         {
 266:Generated_Source\PSoC4/CapSense_SMS.c ****             CapSense_hysteresis[widget] = (uint8)(fingerThreshold >> 6u);
 267:Generated_Source\PSoC4/CapSense_SMS.c ****         }
 268:Generated_Source\PSoC4/CapSense_SMS.c ****         else
 269:Generated_Source\PSoC4/CapSense_SMS.c ****         {
 270:Generated_Source\PSoC4/CapSense_SMS.c ****             CapSense_hysteresis[widget] = 0u;
 271:Generated_Source\PSoC4/CapSense_SMS.c ****         }
 272:Generated_Source\PSoC4/CapSense_SMS.c ****     #endif /* (0u != CapSense_FLEXIBLE_THRESHOLDS_EN)  */
 273:Generated_Source\PSoC4/CapSense_SMS.c **** }
 318              		.loc 1 273 0
 319 005c C046     		nop
 320 005e BD46     		mov	sp, r7
 321 0060 04B0     		add	sp, sp, #16
 322              		@ sp needed
 323 0062 80BD     		pop	{r7, pc}
 324              	.L12:
 325              		.align	2
 326              	.L11:
 327 0064 00000000 		.word	CapSense_widgetNumber
 328 0068 00000000 		.word	CapSense_fingerThreshold
 329 006c 00000000 		.word	CapSense_noiseThreshold
 330 0070 00000000 		.word	CapSense_negativeNoiseThreshold
 331 0074 00000000 		.word	CapSense_hysteresis
 332              		.cfi_endproc
 333              	.LFE37:
 334              		.size	CapSense_UpdateThresholds, .-CapSense_UpdateThresholds
 335              		.section	.text.CapSense_SetAnalogSwitchesSrcDirect,"ax",%progbits
 336              		.align	2
 337              		.global	CapSense_SetAnalogSwitchesSrcDirect
 338              		.code	16
 339              		.thumb_func
 340              		.type	CapSense_SetAnalogSwitchesSrcDirect, %function
 341              	CapSense_SetAnalogSwitchesSrcDirect:
 342              	.LFB38:
 274:Generated_Source\PSoC4/CapSense_SMS.c **** 
 275:Generated_Source\PSoC4/CapSense_SMS.c **** /*******************************************************************************
 276:Generated_Source\PSoC4/CapSense_SMS.c **** * Function Name: CapSense_SetAnalogSwitchesSrcDirect
 277:Generated_Source\PSoC4/CapSense_SMS.c **** ********************************************************************************
 278:Generated_Source\PSoC4/CapSense_SMS.c **** *
 279:Generated_Source\PSoC4/CapSense_SMS.c **** * Summary:
ARM GAS  C:\Users\PC\AppData\Local\Temp\ccCQ7ucw.s 			page 12


 280:Generated_Source\PSoC4/CapSense_SMS.c **** *  This API switches the charge clock source to prescaler.
 281:Generated_Source\PSoC4/CapSense_SMS.c **** *
 282:Generated_Source\PSoC4/CapSense_SMS.c **** * Parameters:
 283:Generated_Source\PSoC4/CapSense_SMS.c **** *  None
 284:Generated_Source\PSoC4/CapSense_SMS.c **** *
 285:Generated_Source\PSoC4/CapSense_SMS.c **** * Return:
 286:Generated_Source\PSoC4/CapSense_SMS.c **** *  None
 287:Generated_Source\PSoC4/CapSense_SMS.c **** *
 288:Generated_Source\PSoC4/CapSense_SMS.c **** * Global Variables:
 289:Generated_Source\PSoC4/CapSense_SMS.c **** *  None
 290:Generated_Source\PSoC4/CapSense_SMS.c **** *
 291:Generated_Source\PSoC4/CapSense_SMS.c **** * Side Effects:
 292:Generated_Source\PSoC4/CapSense_SMS.c **** *  None
 293:Generated_Source\PSoC4/CapSense_SMS.c **** *
 294:Generated_Source\PSoC4/CapSense_SMS.c **** *******************************************************************************/
 295:Generated_Source\PSoC4/CapSense_SMS.c **** void CapSense_SetAnalogSwitchesSrcDirect(void)
 296:Generated_Source\PSoC4/CapSense_SMS.c **** {
 343              		.loc 1 296 0
 344              		.cfi_startproc
 345              		@ args = 0, pretend = 0, frame = 0
 346              		@ frame_needed = 1, uses_anonymous_args = 0
 347 0000 80B5     		push	{r7, lr}
 348              		.cfi_def_cfa_offset 8
 349              		.cfi_offset 7, -8
 350              		.cfi_offset 14, -4
 351 0002 00AF     		add	r7, sp, #0
 352              		.cfi_def_cfa_register 7
 297:Generated_Source\PSoC4/CapSense_SMS.c ****     CapSense_CSD_CFG_REG &= ~(CapSense_CSD_CFG_PRS_SELECT);
 353              		.loc 1 297 0
 354 0004 044B     		ldr	r3, .L14
 355 0006 044A     		ldr	r2, .L14
 356 0008 1268     		ldr	r2, [r2]
 357 000a 4021     		movs	r1, #64
 358 000c 8A43     		bics	r2, r1
 359 000e 1A60     		str	r2, [r3]
 298:Generated_Source\PSoC4/CapSense_SMS.c **** }
 360              		.loc 1 298 0
 361 0010 C046     		nop
 362 0012 BD46     		mov	sp, r7
 363              		@ sp needed
 364 0014 80BD     		pop	{r7, pc}
 365              	.L15:
 366 0016 C046     		.align	2
 367              	.L14:
 368 0018 04002840 		.word	1076363268
 369              		.cfi_endproc
 370              	.LFE38:
 371              		.size	CapSense_SetAnalogSwitchesSrcDirect, .-CapSense_SetAnalogSwitchesSrcDirect
 372              		.section	.text.CapSense_DisableBaselineIDAC,"ax",%progbits
 373              		.align	2
 374              		.global	CapSense_DisableBaselineIDAC
 375              		.code	16
 376              		.thumb_func
 377              		.type	CapSense_DisableBaselineIDAC, %function
 378              	CapSense_DisableBaselineIDAC:
 379              	.LFB39:
 299:Generated_Source\PSoC4/CapSense_SMS.c **** 
ARM GAS  C:\Users\PC\AppData\Local\Temp\ccCQ7ucw.s 			page 13


 300:Generated_Source\PSoC4/CapSense_SMS.c **** 
 301:Generated_Source\PSoC4/CapSense_SMS.c **** /*******************************************************************************
 302:Generated_Source\PSoC4/CapSense_SMS.c **** * Function Name: CapSense_DisableBaselineIDAC
 303:Generated_Source\PSoC4/CapSense_SMS.c **** ********************************************************************************
 304:Generated_Source\PSoC4/CapSense_SMS.c **** *
 305:Generated_Source\PSoC4/CapSense_SMS.c **** * Summary:
 306:Generated_Source\PSoC4/CapSense_SMS.c **** *  The API disables the Compensation IDAC.
 307:Generated_Source\PSoC4/CapSense_SMS.c **** *
 308:Generated_Source\PSoC4/CapSense_SMS.c **** * Parameters:
 309:Generated_Source\PSoC4/CapSense_SMS.c **** *  None
 310:Generated_Source\PSoC4/CapSense_SMS.c **** *
 311:Generated_Source\PSoC4/CapSense_SMS.c **** * Return:
 312:Generated_Source\PSoC4/CapSense_SMS.c **** *  None
 313:Generated_Source\PSoC4/CapSense_SMS.c **** *
 314:Generated_Source\PSoC4/CapSense_SMS.c **** * Global Variables:
 315:Generated_Source\PSoC4/CapSense_SMS.c **** *  None
 316:Generated_Source\PSoC4/CapSense_SMS.c **** *
 317:Generated_Source\PSoC4/CapSense_SMS.c **** * Side Effects:
 318:Generated_Source\PSoC4/CapSense_SMS.c **** *  None
 319:Generated_Source\PSoC4/CapSense_SMS.c **** *
 320:Generated_Source\PSoC4/CapSense_SMS.c **** *******************************************************************************/
 321:Generated_Source\PSoC4/CapSense_SMS.c **** void CapSense_DisableBaselineIDAC(void)
 322:Generated_Source\PSoC4/CapSense_SMS.c **** {
 380              		.loc 1 322 0
 381              		.cfi_startproc
 382              		@ args = 0, pretend = 0, frame = 8
 383              		@ frame_needed = 1, uses_anonymous_args = 0
 384 0000 80B5     		push	{r7, lr}
 385              		.cfi_def_cfa_offset 8
 386              		.cfi_offset 7, -8
 387              		.cfi_offset 14, -4
 388 0002 82B0     		sub	sp, sp, #8
 389              		.cfi_def_cfa_offset 16
 390 0004 00AF     		add	r7, sp, #0
 391              		.cfi_def_cfa_register 7
 323:Generated_Source\PSoC4/CapSense_SMS.c ****     uint32 newRegValue;
 324:Generated_Source\PSoC4/CapSense_SMS.c **** 
 325:Generated_Source\PSoC4/CapSense_SMS.c ****     newRegValue = CapSense_CSD_IDAC_REG;
 392              		.loc 1 325 0
 393 0006 094B     		ldr	r3, .L17
 394 0008 1B68     		ldr	r3, [r3]
 395 000a 7B60     		str	r3, [r7, #4]
 326:Generated_Source\PSoC4/CapSense_SMS.c **** 
 327:Generated_Source\PSoC4/CapSense_SMS.c ****     newRegValue &= ~(CapSense_CSD_IDAC1_MODE_MASK | CapSense_CSD_IDAC2_MODE_MASK);
 396              		.loc 1 327 0
 397 000c 7B68     		ldr	r3, [r7, #4]
 398 000e 084A     		ldr	r2, .L17+4
 399 0010 1340     		ands	r3, r2
 400 0012 7B60     		str	r3, [r7, #4]
 328:Generated_Source\PSoC4/CapSense_SMS.c ****     newRegValue |= CapSense_CSD_IDAC1_MODE_VARIABLE;
 401              		.loc 1 328 0
 402 0014 7B68     		ldr	r3, [r7, #4]
 403 0016 8022     		movs	r2, #128
 404 0018 9200     		lsls	r2, r2, #2
 405 001a 1343     		orrs	r3, r2
 406 001c 7B60     		str	r3, [r7, #4]
 329:Generated_Source\PSoC4/CapSense_SMS.c **** 
ARM GAS  C:\Users\PC\AppData\Local\Temp\ccCQ7ucw.s 			page 14


 330:Generated_Source\PSoC4/CapSense_SMS.c ****     CapSense_CSD_IDAC_REG = newRegValue;
 407              		.loc 1 330 0
 408 001e 034B     		ldr	r3, .L17
 409 0020 7A68     		ldr	r2, [r7, #4]
 410 0022 1A60     		str	r2, [r3]
 331:Generated_Source\PSoC4/CapSense_SMS.c **** }
 411              		.loc 1 331 0
 412 0024 C046     		nop
 413 0026 BD46     		mov	sp, r7
 414 0028 02B0     		add	sp, sp, #8
 415              		@ sp needed
 416 002a 80BD     		pop	{r7, pc}
 417              	.L18:
 418              		.align	2
 419              	.L17:
 420 002c 08002840 		.word	1076363272
 421 0030 FFFCFFFC 		.word	-50332417
 422              		.cfi_endproc
 423              	.LFE39:
 424              		.size	CapSense_DisableBaselineIDAC, .-CapSense_DisableBaselineIDAC
 425              		.section	.text.CapSense_EnableBaselineIDAC,"ax",%progbits
 426              		.align	2
 427              		.global	CapSense_EnableBaselineIDAC
 428              		.code	16
 429              		.thumb_func
 430              		.type	CapSense_EnableBaselineIDAC, %function
 431              	CapSense_EnableBaselineIDAC:
 432              	.LFB40:
 332:Generated_Source\PSoC4/CapSense_SMS.c **** 
 333:Generated_Source\PSoC4/CapSense_SMS.c **** 
 334:Generated_Source\PSoC4/CapSense_SMS.c **** /*******************************************************************************
 335:Generated_Source\PSoC4/CapSense_SMS.c **** * Function Name: CapSense_EnableBaselineIDAC
 336:Generated_Source\PSoC4/CapSense_SMS.c **** ********************************************************************************
 337:Generated_Source\PSoC4/CapSense_SMS.c **** *
 338:Generated_Source\PSoC4/CapSense_SMS.c **** * Summary:
 339:Generated_Source\PSoC4/CapSense_SMS.c **** *  The API enables the Compensation IDAC.
 340:Generated_Source\PSoC4/CapSense_SMS.c **** *
 341:Generated_Source\PSoC4/CapSense_SMS.c **** * Parameters:
 342:Generated_Source\PSoC4/CapSense_SMS.c **** *  None
 343:Generated_Source\PSoC4/CapSense_SMS.c **** *
 344:Generated_Source\PSoC4/CapSense_SMS.c **** * Return:
 345:Generated_Source\PSoC4/CapSense_SMS.c **** *  None
 346:Generated_Source\PSoC4/CapSense_SMS.c **** *
 347:Generated_Source\PSoC4/CapSense_SMS.c **** * Global Variables:
 348:Generated_Source\PSoC4/CapSense_SMS.c **** *  CapSense_compensationIDAC[] - used to store a 7-bit idac value for all the sensors.
 349:Generated_Source\PSoC4/CapSense_SMS.c **** *
 350:Generated_Source\PSoC4/CapSense_SMS.c **** * Side Effects:
 351:Generated_Source\PSoC4/CapSense_SMS.c **** *  None
 352:Generated_Source\PSoC4/CapSense_SMS.c **** *
 353:Generated_Source\PSoC4/CapSense_SMS.c **** *******************************************************************************/
 354:Generated_Source\PSoC4/CapSense_SMS.c **** void  CapSense_EnableBaselineIDAC(const CapSense_CONFIG_TYPE_P4_v2_60 *config)
 355:Generated_Source\PSoC4/CapSense_SMS.c **** {
 433              		.loc 1 355 0
 434              		.cfi_startproc
 435              		@ args = 0, pretend = 0, frame = 16
 436              		@ frame_needed = 1, uses_anonymous_args = 0
 437 0000 80B5     		push	{r7, lr}
ARM GAS  C:\Users\PC\AppData\Local\Temp\ccCQ7ucw.s 			page 15


 438              		.cfi_def_cfa_offset 8
 439              		.cfi_offset 7, -8
 440              		.cfi_offset 14, -4
 441 0002 84B0     		sub	sp, sp, #16
 442              		.cfi_def_cfa_offset 24
 443 0004 00AF     		add	r7, sp, #0
 444              		.cfi_def_cfa_register 7
 445 0006 7860     		str	r0, [r7, #4]
 356:Generated_Source\PSoC4/CapSense_SMS.c ****     uint32 curSensor;
 357:Generated_Source\PSoC4/CapSense_SMS.c ****     uint32 newRegValue;
 358:Generated_Source\PSoC4/CapSense_SMS.c **** 
 359:Generated_Source\PSoC4/CapSense_SMS.c ****     for(curSensor = 0u; curSensor < config->totalScanslotsNum; curSensor++)
 446              		.loc 1 359 0
 447 0008 0023     		movs	r3, #0
 448 000a FB60     		str	r3, [r7, #12]
 449 000c 19E0     		b	.L20
 450              	.L21:
 360:Generated_Source\PSoC4/CapSense_SMS.c ****     {
 361:Generated_Source\PSoC4/CapSense_SMS.c ****         CapSense_compensationIDAC[curSensor] = CapSense_modulationIDAC[curSensor] / 2u;
 451              		.loc 1 361 0 discriminator 3
 452 000e 1C4A     		ldr	r2, .L22
 453 0010 FB68     		ldr	r3, [r7, #12]
 454 0012 D318     		adds	r3, r2, r3
 455 0014 1B78     		ldrb	r3, [r3]
 456 0016 5B08     		lsrs	r3, r3, #1
 457 0018 D9B2     		uxtb	r1, r3
 458 001a 1A4A     		ldr	r2, .L22+4
 459 001c FB68     		ldr	r3, [r7, #12]
 460 001e D318     		adds	r3, r2, r3
 461 0020 0A1C     		adds	r2, r1, #0
 462 0022 1A70     		strb	r2, [r3]
 362:Generated_Source\PSoC4/CapSense_SMS.c ****         CapSense_modulationIDAC[curSensor] = (CapSense_modulationIDAC[curSensor] + 1u) / 2u;
 463              		.loc 1 362 0 discriminator 3
 464 0024 164A     		ldr	r2, .L22
 465 0026 FB68     		ldr	r3, [r7, #12]
 466 0028 D318     		adds	r3, r2, r3
 467 002a 1B78     		ldrb	r3, [r3]
 468 002c 0133     		adds	r3, r3, #1
 469 002e 5B08     		lsrs	r3, r3, #1
 470 0030 D9B2     		uxtb	r1, r3
 471 0032 134A     		ldr	r2, .L22
 472 0034 FB68     		ldr	r3, [r7, #12]
 473 0036 D318     		adds	r3, r2, r3
 474 0038 0A1C     		adds	r2, r1, #0
 475 003a 1A70     		strb	r2, [r3]
 359:Generated_Source\PSoC4/CapSense_SMS.c ****     {
 476              		.loc 1 359 0 discriminator 3
 477 003c FB68     		ldr	r3, [r7, #12]
 478 003e 0133     		adds	r3, r3, #1
 479 0040 FB60     		str	r3, [r7, #12]
 480              	.L20:
 359:Generated_Source\PSoC4/CapSense_SMS.c ****     {
 481              		.loc 1 359 0 is_stmt 0 discriminator 1
 482 0042 7B68     		ldr	r3, [r7, #4]
 483 0044 1B78     		ldrb	r3, [r3]
 484 0046 1A00     		movs	r2, r3
 485 0048 FB68     		ldr	r3, [r7, #12]
ARM GAS  C:\Users\PC\AppData\Local\Temp\ccCQ7ucw.s 			page 16


 486 004a 9A42     		cmp	r2, r3
 487 004c DFD8     		bhi	.L21
 363:Generated_Source\PSoC4/CapSense_SMS.c ****     }
 364:Generated_Source\PSoC4/CapSense_SMS.c **** 
 365:Generated_Source\PSoC4/CapSense_SMS.c ****     CyIntDisable(CapSense_ISR_NUMBER);
 488              		.loc 1 365 0 is_stmt 1
 489 004e 1020     		movs	r0, #16
 490 0050 FFF7FEFF 		bl	CyIntDisable
 366:Generated_Source\PSoC4/CapSense_SMS.c **** 
 367:Generated_Source\PSoC4/CapSense_SMS.c ****     newRegValue = CapSense_CSD_IDAC_REG;
 491              		.loc 1 367 0
 492 0054 0C4B     		ldr	r3, .L22+8
 493 0056 1B68     		ldr	r3, [r3]
 494 0058 BB60     		str	r3, [r7, #8]
 368:Generated_Source\PSoC4/CapSense_SMS.c ****     newRegValue &= ~(CapSense_CSD_IDAC1_MODE_MASK | CapSense_CSD_IDAC2_MODE_MASK);
 495              		.loc 1 368 0
 496 005a BB68     		ldr	r3, [r7, #8]
 497 005c 0B4A     		ldr	r2, .L22+12
 498 005e 1340     		ands	r3, r2
 499 0060 BB60     		str	r3, [r7, #8]
 369:Generated_Source\PSoC4/CapSense_SMS.c ****     newRegValue |= (CapSense_CSD_IDAC1_MODE_VARIABLE | CapSense_CSD_IDAC2_MODE_FIXED);
 500              		.loc 1 369 0
 501 0062 BB68     		ldr	r3, [r7, #8]
 502 0064 0A4A     		ldr	r2, .L22+16
 503 0066 1343     		orrs	r3, r2
 504 0068 BB60     		str	r3, [r7, #8]
 370:Generated_Source\PSoC4/CapSense_SMS.c ****     CapSense_CSD_IDAC_REG = newRegValue;
 505              		.loc 1 370 0
 506 006a 074B     		ldr	r3, .L22+8
 507 006c BA68     		ldr	r2, [r7, #8]
 508 006e 1A60     		str	r2, [r3]
 371:Generated_Source\PSoC4/CapSense_SMS.c **** 
 372:Generated_Source\PSoC4/CapSense_SMS.c ****     CyIntEnable(CapSense_ISR_NUMBER);
 509              		.loc 1 372 0
 510 0070 1020     		movs	r0, #16
 511 0072 FFF7FEFF 		bl	CyIntEnable
 373:Generated_Source\PSoC4/CapSense_SMS.c **** }
 512              		.loc 1 373 0
 513 0076 C046     		nop
 514 0078 BD46     		mov	sp, r7
 515 007a 04B0     		add	sp, sp, #16
 516              		@ sp needed
 517 007c 80BD     		pop	{r7, pc}
 518              	.L23:
 519 007e C046     		.align	2
 520              	.L22:
 521 0080 00000000 		.word	CapSense_modulationIDAC
 522 0084 00000000 		.word	CapSense_compensationIDAC
 523 0088 08002840 		.word	1076363272
 524 008c FFFCFFFC 		.word	-50332417
 525 0090 00020001 		.word	16777728
 526              		.cfi_endproc
 527              	.LFE40:
 528              		.size	CapSense_EnableBaselineIDAC, .-CapSense_EnableBaselineIDAC
 529              		.section	.text.CapSense_SetSensitivity,"ax",%progbits
 530              		.align	2
 531              		.global	CapSense_SetSensitivity
ARM GAS  C:\Users\PC\AppData\Local\Temp\ccCQ7ucw.s 			page 17


 532              		.code	16
 533              		.thumb_func
 534              		.type	CapSense_SetSensitivity, %function
 535              	CapSense_SetSensitivity:
 536              	.LFB41:
 374:Generated_Source\PSoC4/CapSense_SMS.c **** 
 375:Generated_Source\PSoC4/CapSense_SMS.c **** 
 376:Generated_Source\PSoC4/CapSense_SMS.c **** /*******************************************************************************
 377:Generated_Source\PSoC4/CapSense_SMS.c **** * Function Name: CapSense_SetSensitivity
 378:Generated_Source\PSoC4/CapSense_SMS.c **** ********************************************************************************
 379:Generated_Source\PSoC4/CapSense_SMS.c **** *
 380:Generated_Source\PSoC4/CapSense_SMS.c **** * Summary:
 381:Generated_Source\PSoC4/CapSense_SMS.c **** *  This API sets the sensitivity value for the sensor. The sensitivity
 382:Generated_Source\PSoC4/CapSense_SMS.c **** *  value is used during the auto-tuning algorithm executed as part of the CapSense_Start API.
 383:Generated_Source\PSoC4/CapSense_SMS.c **** *  This API is called by the application layer prior to calling the CapSense_Start API.
 384:Generated_Source\PSoC4/CapSense_SMS.c **** *  Calling this API after execution of CapSense_Start API has no effect.
 385:Generated_Source\PSoC4/CapSense_SMS.c **** *
 386:Generated_Source\PSoC4/CapSense_SMS.c **** * Parameters:
 387:Generated_Source\PSoC4/CapSense_SMS.c **** *  sensor  Sensor index
 388:Generated_Source\PSoC4/CapSense_SMS.c **** *  data    Sensitivity of the sensor. Possible values are below
 389:Generated_Source\PSoC4/CapSense_SMS.c **** *  1 - 0.1pf sensitivity
 390:Generated_Source\PSoC4/CapSense_SMS.c **** *  2 - 0.2pf sensitivity
 391:Generated_Source\PSoC4/CapSense_SMS.c **** *  3 - 0.3pf sensitivity
 392:Generated_Source\PSoC4/CapSense_SMS.c **** *  4 - 0.4pf sensitivity
 393:Generated_Source\PSoC4/CapSense_SMS.c **** *  5 - 0.5pf sensitivity
 394:Generated_Source\PSoC4/CapSense_SMS.c **** *  6 - 0.6pf sensitivity
 395:Generated_Source\PSoC4/CapSense_SMS.c **** *  7 - 0.7pf sensitivity
 396:Generated_Source\PSoC4/CapSense_SMS.c **** *  8 - 0.8pf sensitivity
 397:Generated_Source\PSoC4/CapSense_SMS.c **** *  9 - 0.9pf sensitivity
 398:Generated_Source\PSoC4/CapSense_SMS.c **** *  10 - 1.0pf sensitivity
 399:Generated_Source\PSoC4/CapSense_SMS.c **** *  All other values, set sensitivity to 1.0pf
 400:Generated_Source\PSoC4/CapSense_SMS.c **** *
 401:Generated_Source\PSoC4/CapSense_SMS.c **** *  Return Value:
 402:Generated_Source\PSoC4/CapSense_SMS.c **** *   None
 403:Generated_Source\PSoC4/CapSense_SMS.c **** *
 404:Generated_Source\PSoC4/CapSense_SMS.c **** * Global Variables:
 405:Generated_Source\PSoC4/CapSense_SMS.c **** * CapSense_sensorSensitivity[] - This 8-bits array contains Sensitivity in the LSB nibble
 406:Generated_Source\PSoC4/CapSense_SMS.c **** *                                and Noise Reset Counter value in the MSB nibble.
 407:Generated_Source\PSoC4/CapSense_SMS.c **** *
 408:Generated_Source\PSoC4/CapSense_SMS.c **** * Side Effects:
 409:Generated_Source\PSoC4/CapSense_SMS.c **** *  None
 410:Generated_Source\PSoC4/CapSense_SMS.c **** *
 411:Generated_Source\PSoC4/CapSense_SMS.c **** *******************************************************************************/
 412:Generated_Source\PSoC4/CapSense_SMS.c **** void CapSense_SetSensitivity(uint32 sensor, uint32 value)
 413:Generated_Source\PSoC4/CapSense_SMS.c **** {
 537              		.loc 1 413 0
 538              		.cfi_startproc
 539              		@ args = 0, pretend = 0, frame = 8
 540              		@ frame_needed = 1, uses_anonymous_args = 0
 541 0000 80B5     		push	{r7, lr}
 542              		.cfi_def_cfa_offset 8
 543              		.cfi_offset 7, -8
 544              		.cfi_offset 14, -4
 545 0002 82B0     		sub	sp, sp, #8
 546              		.cfi_def_cfa_offset 16
 547 0004 00AF     		add	r7, sp, #0
 548              		.cfi_def_cfa_register 7
ARM GAS  C:\Users\PC\AppData\Local\Temp\ccCQ7ucw.s 			page 18


 549 0006 7860     		str	r0, [r7, #4]
 550 0008 3960     		str	r1, [r7]
 414:Generated_Source\PSoC4/CapSense_SMS.c ****     if(value > 10u)
 551              		.loc 1 414 0
 552 000a 3B68     		ldr	r3, [r7]
 553 000c 0A2B     		cmp	r3, #10
 554 000e 01D9     		bls	.L25
 415:Generated_Source\PSoC4/CapSense_SMS.c ****     {
 416:Generated_Source\PSoC4/CapSense_SMS.c ****         value = 10u;
 555              		.loc 1 416 0
 556 0010 0A23     		movs	r3, #10
 557 0012 3B60     		str	r3, [r7]
 558              	.L25:
 417:Generated_Source\PSoC4/CapSense_SMS.c ****     }
 418:Generated_Source\PSoC4/CapSense_SMS.c **** 
 419:Generated_Source\PSoC4/CapSense_SMS.c ****     /* Clear SensorSensitivity value in LSB nibble */
 420:Generated_Source\PSoC4/CapSense_SMS.c ****     CapSense_sensorSensitivity[sensor] &= (uint8)~CapSense_SENSITIVITY_MASK;
 559              		.loc 1 420 0
 560 0014 0F4A     		ldr	r2, .L26
 561 0016 7B68     		ldr	r3, [r7, #4]
 562 0018 D318     		adds	r3, r2, r3
 563 001a 1B78     		ldrb	r3, [r3]
 564 001c 0F22     		movs	r2, #15
 565 001e 9343     		bics	r3, r2
 566 0020 D9B2     		uxtb	r1, r3
 567 0022 0C4A     		ldr	r2, .L26
 568 0024 7B68     		ldr	r3, [r7, #4]
 569 0026 D318     		adds	r3, r2, r3
 570 0028 0A1C     		adds	r2, r1, #0
 571 002a 1A70     		strb	r2, [r3]
 421:Generated_Source\PSoC4/CapSense_SMS.c ****     /* Set SensorSensitivity value in LSB nibble */
 422:Generated_Source\PSoC4/CapSense_SMS.c ****     CapSense_sensorSensitivity[sensor] |= (uint8)value;
 572              		.loc 1 422 0
 573 002c 094A     		ldr	r2, .L26
 574 002e 7B68     		ldr	r3, [r7, #4]
 575 0030 D318     		adds	r3, r2, r3
 576 0032 1B78     		ldrb	r3, [r3]
 577 0034 5AB2     		sxtb	r2, r3
 578 0036 3B68     		ldr	r3, [r7]
 579 0038 5BB2     		sxtb	r3, r3
 580 003a 1343     		orrs	r3, r2
 581 003c 5BB2     		sxtb	r3, r3
 582 003e D9B2     		uxtb	r1, r3
 583 0040 044A     		ldr	r2, .L26
 584 0042 7B68     		ldr	r3, [r7, #4]
 585 0044 D318     		adds	r3, r2, r3
 586 0046 0A1C     		adds	r2, r1, #0
 587 0048 1A70     		strb	r2, [r3]
 423:Generated_Source\PSoC4/CapSense_SMS.c **** }
 588              		.loc 1 423 0
 589 004a C046     		nop
 590 004c BD46     		mov	sp, r7
 591 004e 02B0     		add	sp, sp, #8
 592              		@ sp needed
 593 0050 80BD     		pop	{r7, pc}
 594              	.L27:
 595 0052 C046     		.align	2
ARM GAS  C:\Users\PC\AppData\Local\Temp\ccCQ7ucw.s 			page 19


 596              	.L26:
 597 0054 00000000 		.word	CapSense_sensorSensitivity
 598              		.cfi_endproc
 599              	.LFE41:
 600              		.size	CapSense_SetSensitivity, .-CapSense_SetSensitivity
 601              		.section	.text.CapSense_GetSensitivityCoefficient,"ax",%progbits
 602              		.align	2
 603              		.global	CapSense_GetSensitivityCoefficient
 604              		.code	16
 605              		.thumb_func
 606              		.type	CapSense_GetSensitivityCoefficient, %function
 607              	CapSense_GetSensitivityCoefficient:
 608              	.LFB42:
 424:Generated_Source\PSoC4/CapSense_SMS.c **** 
 425:Generated_Source\PSoC4/CapSense_SMS.c **** 
 426:Generated_Source\PSoC4/CapSense_SMS.c **** /*******************************************************************************
 427:Generated_Source\PSoC4/CapSense_SMS.c **** * Function Name: CapSense_GetSensitivityCoefficient
 428:Generated_Source\PSoC4/CapSense_SMS.c **** ********************************************************************************
 429:Generated_Source\PSoC4/CapSense_SMS.c **** *
 430:Generated_Source\PSoC4/CapSense_SMS.c **** * Summary:
 431:Generated_Source\PSoC4/CapSense_SMS.c **** *  This API returns the K coefficient for the appropriate sensor.
 432:Generated_Source\PSoC4/CapSense_SMS.c **** *
 433:Generated_Source\PSoC4/CapSense_SMS.c **** * Parameters:
 434:Generated_Source\PSoC4/CapSense_SMS.c **** *  sensor:  Sensor index
 435:Generated_Source\PSoC4/CapSense_SMS.c **** *
 436:Generated_Source\PSoC4/CapSense_SMS.c **** *  Return Value:
 437:Generated_Source\PSoC4/CapSense_SMS.c **** *   K - value for the appropriate sensor.
 438:Generated_Source\PSoC4/CapSense_SMS.c **** *
 439:Generated_Source\PSoC4/CapSense_SMS.c **** * Global Variables:
 440:Generated_Source\PSoC4/CapSense_SMS.c **** *  CapSense_kValueTbl[] - This 8-bits array contains the K value for each sensor.
 441:Generated_Source\PSoC4/CapSense_SMS.c **** *
 442:Generated_Source\PSoC4/CapSense_SMS.c **** * Side Effects:
 443:Generated_Source\PSoC4/CapSense_SMS.c **** *  None
 444:Generated_Source\PSoC4/CapSense_SMS.c **** *
 445:Generated_Source\PSoC4/CapSense_SMS.c **** *******************************************************************************/
 446:Generated_Source\PSoC4/CapSense_SMS.c **** uint8 CapSense_GetSensitivityCoefficient(uint32 sensor)
 447:Generated_Source\PSoC4/CapSense_SMS.c **** {
 609              		.loc 1 447 0
 610              		.cfi_startproc
 611              		@ args = 0, pretend = 0, frame = 8
 612              		@ frame_needed = 1, uses_anonymous_args = 0
 613 0000 80B5     		push	{r7, lr}
 614              		.cfi_def_cfa_offset 8
 615              		.cfi_offset 7, -8
 616              		.cfi_offset 14, -4
 617 0002 82B0     		sub	sp, sp, #8
 618              		.cfi_def_cfa_offset 16
 619 0004 00AF     		add	r7, sp, #0
 620              		.cfi_def_cfa_register 7
 621 0006 7860     		str	r0, [r7, #4]
 448:Generated_Source\PSoC4/CapSense_SMS.c ****     return (CapSense_kValueTbl[sensor]);
 622              		.loc 1 448 0
 623 0008 034A     		ldr	r2, .L30
 624 000a 7B68     		ldr	r3, [r7, #4]
 625 000c D318     		adds	r3, r2, r3
 626 000e 1B78     		ldrb	r3, [r3]
 449:Generated_Source\PSoC4/CapSense_SMS.c **** }
ARM GAS  C:\Users\PC\AppData\Local\Temp\ccCQ7ucw.s 			page 20


 627              		.loc 1 449 0
 628 0010 1800     		movs	r0, r3
 629 0012 BD46     		mov	sp, r7
 630 0014 02B0     		add	sp, sp, #8
 631              		@ sp needed
 632 0016 80BD     		pop	{r7, pc}
 633              	.L31:
 634              		.align	2
 635              	.L30:
 636 0018 00000000 		.word	CapSense_kValueTbl
 637              		.cfi_endproc
 638              	.LFE42:
 639              		.size	CapSense_GetSensitivityCoefficient, .-CapSense_GetSensitivityCoefficient
 640              		.section	.text.CapSense_GetNoiseEnvelope,"ax",%progbits
 641              		.align	2
 642              		.global	CapSense_GetNoiseEnvelope
 643              		.code	16
 644              		.thumb_func
 645              		.type	CapSense_GetNoiseEnvelope, %function
 646              	CapSense_GetNoiseEnvelope:
 647              	.LFB43:
 450:Generated_Source\PSoC4/CapSense_SMS.c **** 
 451:Generated_Source\PSoC4/CapSense_SMS.c **** 
 452:Generated_Source\PSoC4/CapSense_SMS.c **** /*******************************************************************************
 453:Generated_Source\PSoC4/CapSense_SMS.c **** * Function Name: CapSense_GetNoiseEnvelope
 454:Generated_Source\PSoC4/CapSense_SMS.c **** ********************************************************************************
 455:Generated_Source\PSoC4/CapSense_SMS.c **** *
 456:Generated_Source\PSoC4/CapSense_SMS.c **** * Summary:
 457:Generated_Source\PSoC4/CapSense_SMS.c **** *  This function returns the noise value of a
 458:Generated_Source\PSoC4/CapSense_SMS.c **** *  component.
 459:Generated_Source\PSoC4/CapSense_SMS.c **** *
 460:Generated_Source\PSoC4/CapSense_SMS.c **** * Parameters:
 461:Generated_Source\PSoC4/CapSense_SMS.c **** *  sensor - Sensor number.
 462:Generated_Source\PSoC4/CapSense_SMS.c **** *
 463:Generated_Source\PSoC4/CapSense_SMS.c **** * Return:
 464:Generated_Source\PSoC4/CapSense_SMS.c **** *  The noise envelope value of the sensor
 465:Generated_Source\PSoC4/CapSense_SMS.c **** *  indicated by argument.
 466:Generated_Source\PSoC4/CapSense_SMS.c **** *
 467:Generated_Source\PSoC4/CapSense_SMS.c **** * Global Variables:
 468:Generated_Source\PSoC4/CapSense_SMS.c **** *  CapSense_noiseEnvelopeTbl[] - array with Noise Envelope.
 469:Generated_Source\PSoC4/CapSense_SMS.c **** *
 470:Generated_Source\PSoC4/CapSense_SMS.c **** * Side Effects:
 471:Generated_Source\PSoC4/CapSense_SMS.c **** *  None
 472:Generated_Source\PSoC4/CapSense_SMS.c **** *
 473:Generated_Source\PSoC4/CapSense_SMS.c **** *******************************************************************************/
 474:Generated_Source\PSoC4/CapSense_SMS.c **** uint16 CapSense_GetNoiseEnvelope(uint32 sensor)
 475:Generated_Source\PSoC4/CapSense_SMS.c **** {
 648              		.loc 1 475 0
 649              		.cfi_startproc
 650              		@ args = 0, pretend = 0, frame = 8
 651              		@ frame_needed = 1, uses_anonymous_args = 0
 652 0000 80B5     		push	{r7, lr}
 653              		.cfi_def_cfa_offset 8
 654              		.cfi_offset 7, -8
 655              		.cfi_offset 14, -4
 656 0002 82B0     		sub	sp, sp, #8
 657              		.cfi_def_cfa_offset 16
ARM GAS  C:\Users\PC\AppData\Local\Temp\ccCQ7ucw.s 			page 21


 658 0004 00AF     		add	r7, sp, #0
 659              		.cfi_def_cfa_register 7
 660 0006 7860     		str	r0, [r7, #4]
 476:Generated_Source\PSoC4/CapSense_SMS.c ****     return((uint16)((uint16)CapSense_noiseEnvelopeTbl[sensor] << 1u) + 1u);
 661              		.loc 1 476 0
 662 0008 064A     		ldr	r2, .L34
 663 000a 7B68     		ldr	r3, [r7, #4]
 664 000c D318     		adds	r3, r2, r3
 665 000e 1B78     		ldrb	r3, [r3]
 666 0010 9BB2     		uxth	r3, r3
 667 0012 DB18     		adds	r3, r3, r3
 668 0014 9BB2     		uxth	r3, r3
 669 0016 0133     		adds	r3, r3, #1
 670 0018 9BB2     		uxth	r3, r3
 477:Generated_Source\PSoC4/CapSense_SMS.c **** }
 671              		.loc 1 477 0
 672 001a 1800     		movs	r0, r3
 673 001c BD46     		mov	sp, r7
 674 001e 02B0     		add	sp, sp, #8
 675              		@ sp needed
 676 0020 80BD     		pop	{r7, pc}
 677              	.L35:
 678 0022 C046     		.align	2
 679              	.L34:
 680 0024 00000000 		.word	CapSense_noiseEnvelopeTbl
 681              		.cfi_endproc
 682              	.LFE43:
 683              		.size	CapSense_GetNoiseEnvelope, .-CapSense_GetNoiseEnvelope
 684              		.global	__aeabi_uidiv
 685              		.section	.text.CapSense_GetNormalizedDiffCountData,"ax",%progbits
 686              		.align	2
 687              		.global	CapSense_GetNormalizedDiffCountData
 688              		.code	16
 689              		.thumb_func
 690              		.type	CapSense_GetNormalizedDiffCountData, %function
 691              	CapSense_GetNormalizedDiffCountData:
 692              	.LFB44:
 478:Generated_Source\PSoC4/CapSense_SMS.c **** 
 479:Generated_Source\PSoC4/CapSense_SMS.c **** 
 480:Generated_Source\PSoC4/CapSense_SMS.c **** /*******************************************************************************
 481:Generated_Source\PSoC4/CapSense_SMS.c **** * Function Name: CapSense_GetNormalizedDiffCountData
 482:Generated_Source\PSoC4/CapSense_SMS.c **** ********************************************************************************
 483:Generated_Source\PSoC4/CapSense_SMS.c **** *
 484:Generated_Source\PSoC4/CapSense_SMS.c **** * Summary:
 485:Generated_Source\PSoC4/CapSense_SMS.c **** *  This API returns normalized difference count data.
 486:Generated_Source\PSoC4/CapSense_SMS.c **** *
 487:Generated_Source\PSoC4/CapSense_SMS.c **** * Parameters:
 488:Generated_Source\PSoC4/CapSense_SMS.c **** *  sensor:  Sensor number.
 489:Generated_Source\PSoC4/CapSense_SMS.c **** *
 490:Generated_Source\PSoC4/CapSense_SMS.c **** * Return:
 491:Generated_Source\PSoC4/CapSense_SMS.c **** *  This API returns a normalized count value of the sensor indicated by the
 492:Generated_Source\PSoC4/CapSense_SMS.c **** *  argument.
 493:Generated_Source\PSoC4/CapSense_SMS.c **** *
 494:Generated_Source\PSoC4/CapSense_SMS.c **** * Global Variables:
 495:Generated_Source\PSoC4/CapSense_SMS.c **** *  CapSense_sensorSignal[] - array with difference counts for sensors
 496:Generated_Source\PSoC4/CapSense_SMS.c **** *
 497:Generated_Source\PSoC4/CapSense_SMS.c **** * Side Effects:
ARM GAS  C:\Users\PC\AppData\Local\Temp\ccCQ7ucw.s 			page 22


 498:Generated_Source\PSoC4/CapSense_SMS.c **** *  None
 499:Generated_Source\PSoC4/CapSense_SMS.c **** *
 500:Generated_Source\PSoC4/CapSense_SMS.c **** *******************************************************************************/
 501:Generated_Source\PSoC4/CapSense_SMS.c **** uint16 CapSense_GetNormalizedDiffCountData(uint32 sensor)
 502:Generated_Source\PSoC4/CapSense_SMS.c **** {
 693              		.loc 1 502 0
 694              		.cfi_startproc
 695              		@ args = 0, pretend = 0, frame = 8
 696              		@ frame_needed = 1, uses_anonymous_args = 0
 697 0000 80B5     		push	{r7, lr}
 698              		.cfi_def_cfa_offset 8
 699              		.cfi_offset 7, -8
 700              		.cfi_offset 14, -4
 701 0002 82B0     		sub	sp, sp, #8
 702              		.cfi_def_cfa_offset 16
 703 0004 00AF     		add	r7, sp, #0
 704              		.cfi_def_cfa_register 7
 705 0006 7860     		str	r0, [r7, #4]
 503:Generated_Source\PSoC4/CapSense_SMS.c ****     return (uint16)(((uint32)CapSense_sensorSignal[sensor] << 7u) / CapSense_kValueTbl[sensor]);
 706              		.loc 1 503 0
 707 0008 084A     		ldr	r2, .L38
 708 000a 7B68     		ldr	r3, [r7, #4]
 709 000c D318     		adds	r3, r2, r3
 710 000e 1B78     		ldrb	r3, [r3]
 711 0010 D801     		lsls	r0, r3, #7
 712 0012 074A     		ldr	r2, .L38+4
 713 0014 7B68     		ldr	r3, [r7, #4]
 714 0016 D318     		adds	r3, r2, r3
 715 0018 1B78     		ldrb	r3, [r3]
 716 001a 1900     		movs	r1, r3
 717 001c FFF7FEFF 		bl	__aeabi_uidiv
 718 0020 0300     		movs	r3, r0
 719 0022 9BB2     		uxth	r3, r3
 504:Generated_Source\PSoC4/CapSense_SMS.c **** }
 720              		.loc 1 504 0
 721 0024 1800     		movs	r0, r3
 722 0026 BD46     		mov	sp, r7
 723 0028 02B0     		add	sp, sp, #8
 724              		@ sp needed
 725 002a 80BD     		pop	{r7, pc}
 726              	.L39:
 727              		.align	2
 728              	.L38:
 729 002c 00000000 		.word	CapSense_sensorSignal
 730 0030 00000000 		.word	CapSense_kValueTbl
 731              		.cfi_endproc
 732              	.LFE44:
 733              		.size	CapSense_GetNormalizedDiffCountData, .-CapSense_GetNormalizedDiffCountData
 734              		.text
 735              	.Letext0:
 736              		.file 2 "Generated_Source\\PSoC4\\cytypes.h"
 737              		.file 3 "Generated_Source\\PSoC4\\CapSense_PVT.h"
 738              		.file 4 "Generated_Source\\PSoC4\\CapSense.h"
 739              		.file 5 "Generated_Source\\PSoC4\\CapSense_CSHL.h"