ARM GAS  C:\Users\PC\AppData\Local\Temp\cc3ehIEg.s 			page 1


   1              		.syntax unified
   2              		.cpu cortex-m0
   3              		.fpu softvfp
   4              		.eabi_attribute 20, 1
   5              		.eabi_attribute 21, 1
   6              		.eabi_attribute 23, 3
   7              		.eabi_attribute 24, 1
   8              		.eabi_attribute 25, 1
   9              		.eabi_attribute 26, 1
  10              		.eabi_attribute 30, 6
  11              		.eabi_attribute 34, 0
  12              		.eabi_attribute 18, 4
  13              		.thumb
  14              		.syntax unified
  15              		.file	"CapSense.c"
  16              		.text
  17              	.Ltext0:
  18              		.cfi_sections	.debug_frame
  19              		.global	CapSense_lowLevelTuningDone
  20              		.bss
  21              		.type	CapSense_lowLevelTuningDone, %object
  22              		.size	CapSense_lowLevelTuningDone, 1
  23              	CapSense_lowLevelTuningDone:
  24 0000 00       		.space	1
  25              		.comm	CapSense_scanSpeedTbl,1,4
  26              		.global	CapSense_prescalersTuningDone
  27              		.type	CapSense_prescalersTuningDone, %object
  28              		.size	CapSense_prescalersTuningDone, 1
  29              	CapSense_prescalersTuningDone:
  30 0001 00       		.space	1
  31              		.global	CapSense_csdStatusVar
  32              		.type	CapSense_csdStatusVar, %object
  33              		.size	CapSense_csdStatusVar, 1
  34              	CapSense_csdStatusVar:
  35 0002 00       		.space	1
  36              		.global	CapSense_sensorIndex
  37              		.type	CapSense_sensorIndex, %object
  38              		.size	CapSense_sensorIndex, 1
  39              	CapSense_sensorIndex:
  40 0003 00       		.space	1
  41              		.global	CapSense_sensorRaw
  42              		.align	2
  43              		.type	CapSense_sensorRaw, %object
  44              		.size	CapSense_sensorRaw, 2
  45              	CapSense_sensorRaw:
  46 0004 0000     		.space	2
  47              		.comm	CapSense_csdTrim1,1,1
  48              		.comm	CapSense_unscannedSnsDriveMode,1,4
  49              		.comm	CapSense_sensorEnableMaskBackup,1,4
  50              		.global	CapSense_sensorEnableMask
  51 0006 0000     		.align	2
  52              		.type	CapSense_sensorEnableMask, %object
  53              		.size	CapSense_sensorEnableMask, 1
  54              	CapSense_sensorEnableMask:
  55 0008 00       		.space	1
  56              		.global	CapSense_pcTable
  57              		.data
ARM GAS  C:\Users\PC\AppData\Local\Temp\cc3ehIEg.s 			page 2


  58              		.align	2
  59              		.type	CapSense_pcTable, %object
  60              		.size	CapSense_pcTable, 4
  61              	CapSense_pcTable:
  62 0000 08020440 		.word	1074004488
  63              		.global	CapSense_portTable
  64              		.section	.rodata
  65              		.align	2
  66              		.type	CapSense_portTable, %object
  67              		.size	CapSense_portTable, 1
  68              	CapSense_portTable:
  69 0000 02       		.byte	2
  70              		.global	CapSense_maskTable
  71 0001 000000   		.align	2
  72              		.type	CapSense_maskTable, %object
  73              		.size	CapSense_maskTable, 4
  74              	CapSense_maskTable:
  75 0004 01000000 		.word	1
  76              		.global	CapSense_pinShiftTbl
  77              		.align	2
  78              		.type	CapSense_pinShiftTbl, %object
  79              		.size	CapSense_pinShiftTbl, 1
  80              	CapSense_pinShiftTbl:
  81 0008 00       		.space	1
  82              		.comm	CapSense_modulationIDAC,1,4
  83              		.comm	CapSense_compensationIDAC,1,4
  84              		.global	CapSense_widgetResolution
  85              		.data
  86              		.align	2
  87              		.type	CapSense_widgetResolution, %object
  88              		.size	CapSense_widgetResolution, 4
  89              	CapSense_widgetResolution:
  90 0004 0000FF0F 		.word	268369920
  91              		.comm	CapSense_senseClkDividerVal,1,4
  92              		.comm	CapSense_sampleClkDividerVal,1,4
  93              		.global	CapSense_widgetNumber
  94              		.section	.rodata
  95 0009 000000   		.align	2
  96              		.type	CapSense_widgetNumber, %object
  97              		.size	CapSense_widgetNumber, 1
  98              	CapSense_widgetNumber:
  99 000c 00       		.space	1
 100              		.global	CapSense_prtSelTbl
 101 000d 000000   		.align	2
 102              		.type	CapSense_prtSelTbl, %object
 103              		.size	CapSense_prtSelTbl, 28
 104              	CapSense_prtSelTbl:
 105 0010 00000240 		.word	1073872896
 106 0014 00010240 		.word	1073873152
 107 0018 00020240 		.word	1073873408
 108 001c 00030240 		.word	1073873664
 109 0020 00040240 		.word	1073873920
 110 0024 00050240 		.word	1073874176
 111 0028 00060240 		.word	1073874432
 112              		.global	CapSense_prtCfgTbl
 113              		.align	2
 114              		.type	CapSense_prtCfgTbl, %object
ARM GAS  C:\Users\PC\AppData\Local\Temp\cc3ehIEg.s 			page 3


 115              		.size	CapSense_prtCfgTbl, 28
 116              	CapSense_prtCfgTbl:
 117 002c 08000440 		.word	1074003976
 118 0030 08010440 		.word	1074004232
 119 0034 08020440 		.word	1074004488
 120 0038 08030440 		.word	1074004744
 121 003c 08040440 		.word	1074005000
 122 0040 08050440 		.word	1074005256
 123 0044 08060440 		.word	1074005512
 124              		.global	CapSense_prtDRTbl
 125              		.align	2
 126              		.type	CapSense_prtDRTbl, %object
 127              		.size	CapSense_prtDRTbl, 28
 128              	CapSense_prtDRTbl:
 129 0048 00000440 		.word	1074003968
 130 004c 00010440 		.word	1074004224
 131 0050 00020440 		.word	1074004480
 132 0054 00030440 		.word	1074004736
 133 0058 00040440 		.word	1074004992
 134 005c 00050440 		.word	1074005248
 135 0060 00060440 		.word	1074005504
 136              		.section	.text.CapSense_Init,"ax",%progbits
 137              		.align	2
 138              		.global	CapSense_Init
 139              		.code	16
 140              		.thumb_func
 141              		.type	CapSense_Init, %function
 142              	CapSense_Init:
 143              	.LFB36:
 144              		.file 1 "Generated_Source\\PSoC4\\CapSense.c"
   1:Generated_Source\PSoC4/CapSense.c **** /*******************************************************************************
   2:Generated_Source\PSoC4/CapSense.c **** * File Name: CapSense.c
   3:Generated_Source\PSoC4/CapSense.c **** * Version 2.60
   4:Generated_Source\PSoC4/CapSense.c **** *
   5:Generated_Source\PSoC4/CapSense.c **** * Description:
   6:Generated_Source\PSoC4/CapSense.c **** *  This file provides the source code for scanning APIs for the CapSense CSD
   7:Generated_Source\PSoC4/CapSense.c **** *  component.
   8:Generated_Source\PSoC4/CapSense.c **** *
   9:Generated_Source\PSoC4/CapSense.c **** * Note:
  10:Generated_Source\PSoC4/CapSense.c **** *
  11:Generated_Source\PSoC4/CapSense.c **** ********************************************************************************
  12:Generated_Source\PSoC4/CapSense.c **** * Copyright 2013-2016, Cypress Semiconductor Corporation.  All rights reserved.
  13:Generated_Source\PSoC4/CapSense.c **** * You may use this file only in accordance with the license, terms, conditions,
  14:Generated_Source\PSoC4/CapSense.c **** * disclaimers, and limitations in the end user license agreement accompanying
  15:Generated_Source\PSoC4/CapSense.c **** * the software package with which this file was provided.
  16:Generated_Source\PSoC4/CapSense.c **** *******************************************************************************/
  17:Generated_Source\PSoC4/CapSense.c **** 
  18:Generated_Source\PSoC4/CapSense.c **** #include "CapSense.h"
  19:Generated_Source\PSoC4/CapSense.c **** #include "CapSense_PVT.h"
  20:Generated_Source\PSoC4/CapSense.c **** #include "cypins.h"
  21:Generated_Source\PSoC4/CapSense.c **** 
  22:Generated_Source\PSoC4/CapSense.c **** 
  23:Generated_Source\PSoC4/CapSense.c **** #if(0u != CapSense_CSHL_API_GENERATE)
  24:Generated_Source\PSoC4/CapSense.c ****     #include "CapSense_CSHL.h"
  25:Generated_Source\PSoC4/CapSense.c **** #endif /* (0u != CapSense_CSHL_API_GENERATE) */
  26:Generated_Source\PSoC4/CapSense.c **** 
  27:Generated_Source\PSoC4/CapSense.c **** /* This definition is intended to prevent unexpected linker error.
ARM GAS  C:\Users\PC\AppData\Local\Temp\cc3ehIEg.s 			page 4


  28:Generated_Source\PSoC4/CapSense.c ****    For more details please see the IAR Technical Note 49981 */
  29:Generated_Source\PSoC4/CapSense.c **** #if defined(__ICCARM__)
  30:Generated_Source\PSoC4/CapSense.c ****     extern void CapSense_EnableSensor(uint32 sensor);
  31:Generated_Source\PSoC4/CapSense.c ****     extern void CapSense_DisableSensor(uint32 sensor);
  32:Generated_Source\PSoC4/CapSense.c **** #endif /* (__ICCARM__) */
  33:Generated_Source\PSoC4/CapSense.c **** 
  34:Generated_Source\PSoC4/CapSense.c **** /* SmartSense functions */
  35:Generated_Source\PSoC4/CapSense.c **** #if (CapSense_TUNING_METHOD == CapSense__TUNING_AUTO)
  36:Generated_Source\PSoC4/CapSense.c ****     uint8 CapSense_lowLevelTuningDone = 0u;
  37:Generated_Source\PSoC4/CapSense.c ****     uint8 CapSense_scanSpeedTbl[((CapSense_TOTAL_SENSOR_COUNT - 1u) / 8u) + 1u];
  38:Generated_Source\PSoC4/CapSense.c **** #endif /* (CapSense_TUNING_METHOD == CapSense__TUNING_AUTO) */
  39:Generated_Source\PSoC4/CapSense.c **** 
  40:Generated_Source\PSoC4/CapSense.c **** #if(CapSense_PRS_OPTIONS != CapSense__PRS_NONE)
  41:Generated_Source\PSoC4/CapSense.c ****     uint8 CapSense_prescalersTuningDone = 0u;
  42:Generated_Source\PSoC4/CapSense.c **** #endif /* (CapSense_PRS_OPTIONS == CapSense__PRS_NONE) */
  43:Generated_Source\PSoC4/CapSense.c **** 
  44:Generated_Source\PSoC4/CapSense.c **** /* Global software variables */
  45:Generated_Source\PSoC4/CapSense.c **** volatile uint8 CapSense_csdStatusVar = 0u;   /* CapSense CSD status, variable */
  46:Generated_Source\PSoC4/CapSense.c **** volatile uint8 CapSense_sensorIndex = 0u;    /* Index of scannig sensor */
  47:Generated_Source\PSoC4/CapSense.c **** 
  48:Generated_Source\PSoC4/CapSense.c **** /* Global array of Raw Counts */
  49:Generated_Source\PSoC4/CapSense.c **** uint16 CapSense_sensorRaw[CapSense_TOTAL_SENSOR_COUNT] = {0u};
  50:Generated_Source\PSoC4/CapSense.c **** 
  51:Generated_Source\PSoC4/CapSense.c **** /* Backup variables for trim registers*/
  52:Generated_Source\PSoC4/CapSense.c **** #if (CapSense_IDAC1_POLARITY == CapSense__IDAC_SINK)
  53:Generated_Source\PSoC4/CapSense.c ****     uint8 CapSense_csdTrim2;
  54:Generated_Source\PSoC4/CapSense.c **** #else
  55:Generated_Source\PSoC4/CapSense.c ****     uint8 CapSense_csdTrim1;
  56:Generated_Source\PSoC4/CapSense.c **** #endif /* (CapSense_IDAC1_POLARITY == CapSense__IDAC_SINK) */
  57:Generated_Source\PSoC4/CapSense.c **** 
  58:Generated_Source\PSoC4/CapSense.c **** /* Global array of un-scanned sensors state */
  59:Generated_Source\PSoC4/CapSense.c **** uint8 CapSense_unscannedSnsDriveMode[CapSense_PORT_PIN_CONFIG_TBL_ZISE];
  60:Generated_Source\PSoC4/CapSense.c **** 
  61:Generated_Source\PSoC4/CapSense.c **** /* Backup array for CapSense_sensorEnableMask */
  62:Generated_Source\PSoC4/CapSense.c **** uint8 CapSense_sensorEnableMaskBackup[(((CapSense_TOTAL_SENSOR_COUNT - 1u) / 8u) + 1u)];
  63:Generated_Source\PSoC4/CapSense.c **** 
  64:Generated_Source\PSoC4/CapSense.c **** /* Configured constants and arrays by Customizer */
  65:Generated_Source\PSoC4/CapSense.c **** uint8 CapSense_sensorEnableMask[(((CapSense_TOTAL_SENSOR_COUNT - 1u) / 8u) + 1u)] = {
  66:Generated_Source\PSoC4/CapSense.c **** 0x0u, };
  67:Generated_Source\PSoC4/CapSense.c **** 
  68:Generated_Source\PSoC4/CapSense.c **** reg32 * CapSense_pcTable[] = {
  69:Generated_Source\PSoC4/CapSense.c ****     (reg32 *)CapSense_Sns__ProximitySensor0_0__PROX__PC, 
  70:Generated_Source\PSoC4/CapSense.c **** };
  71:Generated_Source\PSoC4/CapSense.c **** 
  72:Generated_Source\PSoC4/CapSense.c **** const uint8 CapSense_portTable[] = {
  73:Generated_Source\PSoC4/CapSense.c ****     CapSense_Sns__ProximitySensor0_0__PROX__PORT, 
  74:Generated_Source\PSoC4/CapSense.c **** };
  75:Generated_Source\PSoC4/CapSense.c **** 
  76:Generated_Source\PSoC4/CapSense.c **** const uint32 CapSense_maskTable[] = {
  77:Generated_Source\PSoC4/CapSense.c ****     CapSense_Sns__ProximitySensor0_0__PROX__MASK, 
  78:Generated_Source\PSoC4/CapSense.c **** };
  79:Generated_Source\PSoC4/CapSense.c **** 
  80:Generated_Source\PSoC4/CapSense.c **** const uint8 CapSense_pinShiftTbl[] = {
  81:Generated_Source\PSoC4/CapSense.c ****     (uint8) CapSense_Sns__ProximitySensor0_0__PROX__SHIFT, 
  82:Generated_Source\PSoC4/CapSense.c **** };
  83:Generated_Source\PSoC4/CapSense.c **** 
  84:Generated_Source\PSoC4/CapSense.c **** uint8 CapSense_modulationIDAC[CapSense_TOTAL_SENSOR_COUNT];
ARM GAS  C:\Users\PC\AppData\Local\Temp\cc3ehIEg.s 			page 5


  85:Generated_Source\PSoC4/CapSense.c **** uint8 CapSense_compensationIDAC[CapSense_TOTAL_SENSOR_COUNT];
  86:Generated_Source\PSoC4/CapSense.c **** 
  87:Generated_Source\PSoC4/CapSense.c **** uint32 CapSense_widgetResolution[CapSense_RESOLUTIONS_TBL_SIZE] = {
  88:Generated_Source\PSoC4/CapSense.c ****     CapSense_RESOLUTION_12_BITS,
  89:Generated_Source\PSoC4/CapSense.c **** };
  90:Generated_Source\PSoC4/CapSense.c **** 
  91:Generated_Source\PSoC4/CapSense.c **** uint8 CapSense_senseClkDividerVal[CapSense_TOTAL_SCANSLOT_COUNT];
  92:Generated_Source\PSoC4/CapSense.c **** uint8 CapSense_sampleClkDividerVal[CapSense_TOTAL_SCANSLOT_COUNT];
  93:Generated_Source\PSoC4/CapSense.c **** 
  94:Generated_Source\PSoC4/CapSense.c **** const uint8 CapSense_widgetNumber[CapSense_TOTAL_SENSOR_COUNT] = {
  95:Generated_Source\PSoC4/CapSense.c ****     0u, /* ProximitySensor0__PROX */
  96:Generated_Source\PSoC4/CapSense.c **** };
  97:Generated_Source\PSoC4/CapSense.c **** 
  98:Generated_Source\PSoC4/CapSense.c **** reg32* const CapSense_prtSelTbl[CapSense_CFG_REG_TBL_SIZE] = {
  99:Generated_Source\PSoC4/CapSense.c ****     ((reg32 *) CYREG_HSIOM_PORT_SEL0),
 100:Generated_Source\PSoC4/CapSense.c ****     ((reg32 *) CYREG_HSIOM_PORT_SEL1),
 101:Generated_Source\PSoC4/CapSense.c ****     ((reg32 *) CYREG_HSIOM_PORT_SEL2),
 102:Generated_Source\PSoC4/CapSense.c ****     ((reg32 *) CYREG_HSIOM_PORT_SEL3),
 103:Generated_Source\PSoC4/CapSense.c ****     ((reg32 *) CYREG_HSIOM_PORT_SEL4),
 104:Generated_Source\PSoC4/CapSense.c ****     ((reg32 *) CYREG_HSIOM_PORT_SEL5),
 105:Generated_Source\PSoC4/CapSense.c ****     ((reg32 *) CYREG_HSIOM_PORT_SEL6),
 106:Generated_Source\PSoC4/CapSense.c **** };
 107:Generated_Source\PSoC4/CapSense.c **** 
 108:Generated_Source\PSoC4/CapSense.c **** reg32* const CapSense_prtCfgTbl[CapSense_CFG_REG_TBL_SIZE] = {
 109:Generated_Source\PSoC4/CapSense.c ****     ((reg32 *) CYREG_GPIO_PRT0_PC),
 110:Generated_Source\PSoC4/CapSense.c ****     ((reg32 *) CYREG_GPIO_PRT1_PC),
 111:Generated_Source\PSoC4/CapSense.c ****     ((reg32 *) CYREG_GPIO_PRT2_PC),
 112:Generated_Source\PSoC4/CapSense.c ****     ((reg32 *) CYREG_GPIO_PRT3_PC),
 113:Generated_Source\PSoC4/CapSense.c ****     ((reg32 *) CYREG_GPIO_PRT4_PC),
 114:Generated_Source\PSoC4/CapSense.c ****     ((reg32 *) CYREG_GPIO_PRT5_PC),
 115:Generated_Source\PSoC4/CapSense.c ****     ((reg32 *) CYREG_GPIO_PRT6_PC),
 116:Generated_Source\PSoC4/CapSense.c **** };
 117:Generated_Source\PSoC4/CapSense.c **** 
 118:Generated_Source\PSoC4/CapSense.c **** reg32* const CapSense_prtDRTbl[CapSense_CFG_REG_TBL_SIZE] = {
 119:Generated_Source\PSoC4/CapSense.c ****     ((reg32 *) CYREG_GPIO_PRT0_DR),
 120:Generated_Source\PSoC4/CapSense.c ****     ((reg32 *) CYREG_GPIO_PRT1_DR),
 121:Generated_Source\PSoC4/CapSense.c ****     ((reg32 *) CYREG_GPIO_PRT2_DR),
 122:Generated_Source\PSoC4/CapSense.c ****     ((reg32 *) CYREG_GPIO_PRT3_DR),
 123:Generated_Source\PSoC4/CapSense.c ****     ((reg32 *) CYREG_GPIO_PRT4_DR),
 124:Generated_Source\PSoC4/CapSense.c ****     ((reg32 *) CYREG_GPIO_PRT5_DR),
 125:Generated_Source\PSoC4/CapSense.c ****     ((reg32 *) CYREG_GPIO_PRT6_DR),
 126:Generated_Source\PSoC4/CapSense.c **** };
 127:Generated_Source\PSoC4/CapSense.c **** 
 128:Generated_Source\PSoC4/CapSense.c **** 
 129:Generated_Source\PSoC4/CapSense.c **** 
 130:Generated_Source\PSoC4/CapSense.c **** /*******************************************************************************
 131:Generated_Source\PSoC4/CapSense.c **** * Function Name: CapSense_Init
 132:Generated_Source\PSoC4/CapSense.c **** ********************************************************************************
 133:Generated_Source\PSoC4/CapSense.c **** *
 134:Generated_Source\PSoC4/CapSense.c **** * Summary:
 135:Generated_Source\PSoC4/CapSense.c **** *  API initializes default CapSense configuration provided by the customizer that defines
 136:Generated_Source\PSoC4/CapSense.c **** *  the mode of component operations and resets all the sensors to an inactive state.
 137:Generated_Source\PSoC4/CapSense.c **** *
 138:Generated_Source\PSoC4/CapSense.c **** * Parameters:
 139:Generated_Source\PSoC4/CapSense.c **** *  None
 140:Generated_Source\PSoC4/CapSense.c **** *
 141:Generated_Source\PSoC4/CapSense.c **** * Return:
ARM GAS  C:\Users\PC\AppData\Local\Temp\cc3ehIEg.s 			page 6


 142:Generated_Source\PSoC4/CapSense.c **** *  None
 143:Generated_Source\PSoC4/CapSense.c **** *
 144:Generated_Source\PSoC4/CapSense.c **** * Global Variables:
 145:Generated_Source\PSoC4/CapSense.c **** *  CapSense_immunityIndex - defines immunity level.
 146:Generated_Source\PSoC4/CapSense.c **** *
 147:Generated_Source\PSoC4/CapSense.c **** * Side Effects:
 148:Generated_Source\PSoC4/CapSense.c **** *  None
 149:Generated_Source\PSoC4/CapSense.c **** *
 150:Generated_Source\PSoC4/CapSense.c **** *******************************************************************************/
 151:Generated_Source\PSoC4/CapSense.c **** void CapSense_Init(void)
 152:Generated_Source\PSoC4/CapSense.c **** {
 145              		.loc 1 152 0
 146              		.cfi_startproc
 147              		@ args = 0, pretend = 0, frame = 8
 148              		@ frame_needed = 1, uses_anonymous_args = 0
 149 0000 80B5     		push	{r7, lr}
 150              		.cfi_def_cfa_offset 8
 151              		.cfi_offset 7, -8
 152              		.cfi_offset 14, -4
 153 0002 82B0     		sub	sp, sp, #8
 154              		.cfi_def_cfa_offset 16
 155 0004 00AF     		add	r7, sp, #0
 156              		.cfi_def_cfa_register 7
 153:Generated_Source\PSoC4/CapSense.c ****     uint32 curSensor;
 154:Generated_Source\PSoC4/CapSense.c **** 
 155:Generated_Source\PSoC4/CapSense.c ****     #if(CapSense_IS_SHIELD_ENABLE)
 156:Generated_Source\PSoC4/CapSense.c **** 
 157:Generated_Source\PSoC4/CapSense.c ****         #if((CapSense_CSH_TANK_PREGARGE_OPTION == CapSense__CAPPRIOBUF) || (0u != CapSense_CSH_TANK
 158:Generated_Source\PSoC4/CapSense.c ****             uint32 newRegValue;
 159:Generated_Source\PSoC4/CapSense.c **** 
 160:Generated_Source\PSoC4/CapSense.c ****             newRegValue = CapSense_CTANK_CONNECTION_REG;
 161:Generated_Source\PSoC4/CapSense.c ****             newRegValue &= ~(CapSense_CSD_CTANK_CONNECTION_MASK);
 162:Generated_Source\PSoC4/CapSense.c ****             newRegValue |= CapSense_CSD_CTANK_TO_AMUXBUS_B;
 163:Generated_Source\PSoC4/CapSense.c ****             CapSense_CTANK_CONNECTION_REG = newRegValue;
 164:Generated_Source\PSoC4/CapSense.c **** 
 165:Generated_Source\PSoC4/CapSense.c ****             #if(CapSense_CSH_TANK_PREGARGE_OPTION == CapSense__CAPPRIOBUF)
 166:Generated_Source\PSoC4/CapSense.c ****                 newRegValue = CapSense_CTANK_PORT_PC_REG;
 167:Generated_Source\PSoC4/CapSense.c ****                 newRegValue &= ~(CapSense_CSD_CTANK_PC_MASK);
 168:Generated_Source\PSoC4/CapSense.c ****                 newRegValue |= CapSense_CTANK_PC_STRONG_MODE;
 169:Generated_Source\PSoC4/CapSense.c ****                 CapSense_CTANK_PORT_PC_REG = newRegValue;
 170:Generated_Source\PSoC4/CapSense.c **** 
 171:Generated_Source\PSoC4/CapSense.c ****                 newRegValue = CapSense_CTANK_PORT_DR_REG;
 172:Generated_Source\PSoC4/CapSense.c ****                 newRegValue &= ~(CapSense_CTANK_DR_MASK);
 173:Generated_Source\PSoC4/CapSense.c ****                 newRegValue |= CapSense_CTANK_DR_CONFIG;
 174:Generated_Source\PSoC4/CapSense.c ****                 CapSense_CTANK_PORT_DR_REG = newRegValue;
 175:Generated_Source\PSoC4/CapSense.c ****             #endif /* (CapSense_CSH_TANK_PREGARGE_OPTION == CapSense__CAPPRIOBUF) */
 176:Generated_Source\PSoC4/CapSense.c **** 
 177:Generated_Source\PSoC4/CapSense.c ****         #endif /* ((CapSense_CSH_TANK_PREGARGE_OPTION == CapSense__CAPPRIOBUF) || (CapSense_CSH_TAN
 178:Generated_Source\PSoC4/CapSense.c **** 
 179:Generated_Source\PSoC4/CapSense.c ****         CapSense_EnableShieldElectrode((uint32)CapSense_SHIELD_PIN_NUMBER, (uint32)CapSense_SHIELD_
 180:Generated_Source\PSoC4/CapSense.c **** 
 181:Generated_Source\PSoC4/CapSense.c ****     #endif /* (CapSense_IS_SHIELD_ENABLE) */
 182:Generated_Source\PSoC4/CapSense.c **** 
 183:Generated_Source\PSoC4/CapSense.c ****     for(curSensor = 0u; curSensor < CapSense_TOTAL_SENSOR_COUNT; curSensor++)
 157              		.loc 1 183 0
 158 0006 0023     		movs	r3, #0
 159 0008 7B60     		str	r3, [r7, #4]
ARM GAS  C:\Users\PC\AppData\Local\Temp\cc3ehIEg.s 			page 7


 160 000a 07E0     		b	.L2
 161              	.L3:
 184:Generated_Source\PSoC4/CapSense.c ****     {
 185:Generated_Source\PSoC4/CapSense.c ****         CapSense_SetUnscannedSensorState(curSensor, CapSense_CONNECT_INACTIVE_SNS);
 162              		.loc 1 185 0 discriminator 3
 163 000c 7B68     		ldr	r3, [r7, #4]
 164 000e 0021     		movs	r1, #0
 165 0010 1800     		movs	r0, r3
 166 0012 FFF7FEFF 		bl	CapSense_SetUnscannedSensorState
 183:Generated_Source\PSoC4/CapSense.c ****     {
 167              		.loc 1 183 0 discriminator 3
 168 0016 7B68     		ldr	r3, [r7, #4]
 169 0018 0133     		adds	r3, r3, #1
 170 001a 7B60     		str	r3, [r7, #4]
 171              	.L2:
 183:Generated_Source\PSoC4/CapSense.c ****     {
 172              		.loc 1 183 0 is_stmt 0 discriminator 1
 173 001c 7B68     		ldr	r3, [r7, #4]
 174 001e 002B     		cmp	r3, #0
 175 0020 F4D0     		beq	.L3
 186:Generated_Source\PSoC4/CapSense.c ****     }
 187:Generated_Source\PSoC4/CapSense.c **** 
 188:Generated_Source\PSoC4/CapSense.c ****     CapSense_CsdHwBlockInit();
 176              		.loc 1 188 0 is_stmt 1
 177 0022 FFF7FEFF 		bl	CapSense_CsdHwBlockInit
 189:Generated_Source\PSoC4/CapSense.c ****     CapSense_SetShieldDelay(CapSense_SHIELD_DELAY );
 178              		.loc 1 189 0
 179 0026 0020     		movs	r0, #0
 180 0028 FFF7FEFF 		bl	CapSense_SetShieldDelay
 190:Generated_Source\PSoC4/CapSense.c **** 
 191:Generated_Source\PSoC4/CapSense.c ****     /* Clear all sensors */
 192:Generated_Source\PSoC4/CapSense.c ****     CapSense_ClearSensors();
 181              		.loc 1 192 0
 182 002c FFF7FEFF 		bl	CapSense_ClearSensors
 193:Generated_Source\PSoC4/CapSense.c **** }
 183              		.loc 1 193 0
 184 0030 C046     		nop
 185 0032 BD46     		mov	sp, r7
 186 0034 02B0     		add	sp, sp, #8
 187              		@ sp needed
 188 0036 80BD     		pop	{r7, pc}
 189              		.cfi_endproc
 190              	.LFE36:
 191              		.size	CapSense_Init, .-CapSense_Init
 192              		.section	.text.CapSense_CsdHwBlockInit,"ax",%progbits
 193              		.align	2
 194              		.global	CapSense_CsdHwBlockInit
 195              		.code	16
 196              		.thumb_func
 197              		.type	CapSense_CsdHwBlockInit, %function
 198              	CapSense_CsdHwBlockInit:
 199              	.LFB37:
 194:Generated_Source\PSoC4/CapSense.c **** 
 195:Generated_Source\PSoC4/CapSense.c **** /*******************************************************************************
 196:Generated_Source\PSoC4/CapSense.c **** * Function Name: CapSense_CsdHwBlockInit
 197:Generated_Source\PSoC4/CapSense.c **** ********************************************************************************
 198:Generated_Source\PSoC4/CapSense.c **** *
ARM GAS  C:\Users\PC\AppData\Local\Temp\cc3ehIEg.s 			page 8


 199:Generated_Source\PSoC4/CapSense.c **** * Summary:
 200:Generated_Source\PSoC4/CapSense.c **** *  Initialises the hardware parameters of the CSD block
 201:Generated_Source\PSoC4/CapSense.c **** *
 202:Generated_Source\PSoC4/CapSense.c **** * Parameters:
 203:Generated_Source\PSoC4/CapSense.c **** *  None
 204:Generated_Source\PSoC4/CapSense.c **** *
 205:Generated_Source\PSoC4/CapSense.c **** * Return:
 206:Generated_Source\PSoC4/CapSense.c **** *  None
 207:Generated_Source\PSoC4/CapSense.c **** *
 208:Generated_Source\PSoC4/CapSense.c **** * Global Variables:
 209:Generated_Source\PSoC4/CapSense.c **** *  CapSense_csdTrim1 - Contains IDAC trim register value for Sourcing Mode.
 210:Generated_Source\PSoC4/CapSense.c **** *  CapSense_csdTrim2 - Contains IDAC trim register value for Sinking Mode.
 211:Generated_Source\PSoC4/CapSense.c **** *
 212:Generated_Source\PSoC4/CapSense.c **** * Side Effects:
 213:Generated_Source\PSoC4/CapSense.c **** *  None
 214:Generated_Source\PSoC4/CapSense.c **** *
 215:Generated_Source\PSoC4/CapSense.c **** *******************************************************************************/
 216:Generated_Source\PSoC4/CapSense.c **** void CapSense_CsdHwBlockInit(void)
 217:Generated_Source\PSoC4/CapSense.c **** {
 200              		.loc 1 217 0
 201              		.cfi_startproc
 202              		@ args = 0, pretend = 0, frame = 8
 203              		@ frame_needed = 1, uses_anonymous_args = 0
 204 0000 80B5     		push	{r7, lr}
 205              		.cfi_def_cfa_offset 8
 206              		.cfi_offset 7, -8
 207              		.cfi_offset 14, -4
 208 0002 82B0     		sub	sp, sp, #8
 209              		.cfi_def_cfa_offset 16
 210 0004 00AF     		add	r7, sp, #0
 211              		.cfi_def_cfa_register 7
 218:Generated_Source\PSoC4/CapSense.c ****     uint32 newRegValue;
 219:Generated_Source\PSoC4/CapSense.c **** 
 220:Generated_Source\PSoC4/CapSense.c ****         /* Set trim registers for CSD Mode */
 221:Generated_Source\PSoC4/CapSense.c ****     #if (CapSense_IDAC1_POLARITY == CapSense__IDAC_SINK)
 222:Generated_Source\PSoC4/CapSense.c ****         /* iDAC1 Sinking Mode */
 223:Generated_Source\PSoC4/CapSense.c ****         CapSense_csdTrim2 = (uint8)CapSense_CSD_TRIM2_REG;
 224:Generated_Source\PSoC4/CapSense.c ****         newRegValue = CapSense_csdTrim2;
 225:Generated_Source\PSoC4/CapSense.c ****         newRegValue &= CapSense_CSD_IDAC1_TRIM_MASK;
 226:Generated_Source\PSoC4/CapSense.c ****         newRegValue |= (uint32)((uint32)CapSense_SFLASH_CSD_TRIM2_REG & (uint32)CapSense_CSFLASH_TR
 227:Generated_Source\PSoC4/CapSense.c **** 
 228:Generated_Source\PSoC4/CapSense.c ****         #if (CapSense_IDAC_CNT == 2u)
 229:Generated_Source\PSoC4/CapSense.c ****             /* iDAC2 Sinking Mode */
 230:Generated_Source\PSoC4/CapSense.c ****             newRegValue &= CapSense_CSD_IDAC2_TRIM_MASK;
 231:Generated_Source\PSoC4/CapSense.c ****             newRegValue |= (uint32)((uint32)CapSense_SFLASH_CSD_TRIM2_REG & (uint32)CapSense_CSFLAS
 232:Generated_Source\PSoC4/CapSense.c ****         #endif /* (CapSense_IDAC_CNT == 2u) */
 233:Generated_Source\PSoC4/CapSense.c ****         CapSense_CSD_TRIM2_REG = newRegValue;
 234:Generated_Source\PSoC4/CapSense.c ****     #else
 235:Generated_Source\PSoC4/CapSense.c ****         /* iDAC1 Sourcing Mode */
 236:Generated_Source\PSoC4/CapSense.c ****         CapSense_csdTrim1 = (uint8)CapSense_CSD_TRIM1_REG;
 212              		.loc 1 236 0
 213 0006 244B     		ldr	r3, .L5
 214 0008 1B68     		ldr	r3, [r3]
 215 000a DAB2     		uxtb	r2, r3
 216 000c 234B     		ldr	r3, .L5+4
 217 000e 1A70     		strb	r2, [r3]
 237:Generated_Source\PSoC4/CapSense.c ****         newRegValue = CapSense_csdTrim1;
ARM GAS  C:\Users\PC\AppData\Local\Temp\cc3ehIEg.s 			page 9


 218              		.loc 1 237 0
 219 0010 224B     		ldr	r3, .L5+4
 220 0012 1B78     		ldrb	r3, [r3]
 221 0014 7B60     		str	r3, [r7, #4]
 238:Generated_Source\PSoC4/CapSense.c ****         newRegValue &= CapSense_CSD_IDAC1_TRIM_MASK;
 222              		.loc 1 238 0
 223 0016 7B68     		ldr	r3, [r7, #4]
 224 0018 0F22     		movs	r2, #15
 225 001a 9343     		bics	r3, r2
 226 001c 7B60     		str	r3, [r7, #4]
 239:Generated_Source\PSoC4/CapSense.c ****         newRegValue |= (uint32)((uint32)CapSense_SFLASH_CSD_TRIM1_REG & (uint32)CapSense_CSFLASH_TR
 227              		.loc 1 239 0
 228 001e 204B     		ldr	r3, .L5+8
 229 0020 1B78     		ldrb	r3, [r3]
 230 0022 DBB2     		uxtb	r3, r3
 231 0024 1A00     		movs	r2, r3
 232 0026 0F23     		movs	r3, #15
 233 0028 1340     		ands	r3, r2
 234 002a 7A68     		ldr	r2, [r7, #4]
 235 002c 1343     		orrs	r3, r2
 236 002e 7B60     		str	r3, [r7, #4]
 240:Generated_Source\PSoC4/CapSense.c ****         #if (CapSense_IDAC_CNT == 2u)
 241:Generated_Source\PSoC4/CapSense.c ****              /* iDAC2 Sourcing Mode */
 242:Generated_Source\PSoC4/CapSense.c ****             newRegValue &= CapSense_CSD_IDAC2_TRIM_MASK;
 237              		.loc 1 242 0
 238 0030 7B68     		ldr	r3, [r7, #4]
 239 0032 F022     		movs	r2, #240
 240 0034 9343     		bics	r3, r2
 241 0036 7B60     		str	r3, [r7, #4]
 243:Generated_Source\PSoC4/CapSense.c ****             newRegValue |= (uint32)((uint32)CapSense_SFLASH_CSD_TRIM1_REG & (uint32)CapSense_CSFLAS
 242              		.loc 1 243 0
 243 0038 194B     		ldr	r3, .L5+8
 244 003a 1B78     		ldrb	r3, [r3]
 245 003c DBB2     		uxtb	r3, r3
 246 003e 1A00     		movs	r2, r3
 247 0040 F023     		movs	r3, #240
 248 0042 1340     		ands	r3, r2
 249 0044 7A68     		ldr	r2, [r7, #4]
 250 0046 1343     		orrs	r3, r2
 251 0048 7B60     		str	r3, [r7, #4]
 244:Generated_Source\PSoC4/CapSense.c ****         #endif
 245:Generated_Source\PSoC4/CapSense.c ****         CapSense_CSD_TRIM1_REG = newRegValue;
 252              		.loc 1 245 0
 253 004a 134B     		ldr	r3, .L5
 254 004c 7A68     		ldr	r2, [r7, #4]
 255 004e 1A60     		str	r2, [r3]
 246:Generated_Source\PSoC4/CapSense.c ****     #endif /* (CapSense_IDAC1_POLARITY == CapSense__IDAC_SINK) */
 247:Generated_Source\PSoC4/CapSense.c **** 
 248:Generated_Source\PSoC4/CapSense.c ****     /* Configure CSD and IDAC */
 249:Generated_Source\PSoC4/CapSense.c ****     #if (CapSense_IDAC_CNT > 1u)
 250:Generated_Source\PSoC4/CapSense.c ****         CapSense_CSD_IDAC_REG = CapSense_DEFAULT_CSD_IDAC_CONFIG;
 256              		.loc 1 250 0
 257 0050 144B     		ldr	r3, .L5+12
 258 0052 154A     		ldr	r2, .L5+16
 259 0054 1A60     		str	r2, [r3]
 251:Generated_Source\PSoC4/CapSense.c ****         CapSense_CSD_CFG_REG = CapSense_DEFAULT_CSD_CONFIG;
 260              		.loc 1 251 0
ARM GAS  C:\Users\PC\AppData\Local\Temp\cc3ehIEg.s 			page 10


 261 0056 154B     		ldr	r3, .L5+20
 262 0058 154A     		ldr	r2, .L5+24
 263 005a 1A60     		str	r2, [r3]
 252:Generated_Source\PSoC4/CapSense.c ****     #else
 253:Generated_Source\PSoC4/CapSense.c ****         CapSense_CSD_IDAC_REG &= ~(CapSense_CSD_IDAC1_MODE_MASK  | CapSense_CSD_IDAC1_DATA_MASK);
 254:Generated_Source\PSoC4/CapSense.c ****         CapSense_CSD_IDAC_REG |= CapSense_DEFAULT_CSD_IDAC_CONFIG;
 255:Generated_Source\PSoC4/CapSense.c **** 
 256:Generated_Source\PSoC4/CapSense.c ****         CapSense_CSD_CFG_REG &= ~(CapSense_CSD_CONFIG_MASK);
 257:Generated_Source\PSoC4/CapSense.c ****         CapSense_CSD_CFG_REG |= (CapSense_DEFAULT_CSD_CONFIG);
 258:Generated_Source\PSoC4/CapSense.c ****     #endif /* (CapSense_IDAC_CNT > 1u) */
 259:Generated_Source\PSoC4/CapSense.c **** 
 260:Generated_Source\PSoC4/CapSense.c **** 
 261:Generated_Source\PSoC4/CapSense.c ****     /* Connect Cmod to AMUX bus */
 262:Generated_Source\PSoC4/CapSense.c ****     newRegValue = CapSense_CMOD_CONNECTION_REG;
 264              		.loc 1 262 0
 265 005c 154B     		ldr	r3, .L5+28
 266 005e 1B68     		ldr	r3, [r3]
 267 0060 7B60     		str	r3, [r7, #4]
 263:Generated_Source\PSoC4/CapSense.c ****     newRegValue &= ~(CapSense_CSD_CMOD_CONNECTION_MASK);
 268              		.loc 1 263 0
 269 0062 7B68     		ldr	r3, [r7, #4]
 270 0064 0F22     		movs	r2, #15
 271 0066 9343     		bics	r3, r2
 272 0068 7B60     		str	r3, [r7, #4]
 264:Generated_Source\PSoC4/CapSense.c ****     newRegValue |= CapSense_CSD_CMOD_TO_AMUXBUS_A;
 273              		.loc 1 264 0
 274 006a 7B68     		ldr	r3, [r7, #4]
 275 006c 0622     		movs	r2, #6
 276 006e 1343     		orrs	r3, r2
 277 0070 7B60     		str	r3, [r7, #4]
 265:Generated_Source\PSoC4/CapSense.c ****     CapSense_CMOD_CONNECTION_REG = newRegValue;
 278              		.loc 1 265 0
 279 0072 104B     		ldr	r3, .L5+28
 280 0074 7A68     		ldr	r2, [r7, #4]
 281 0076 1A60     		str	r2, [r3]
 266:Generated_Source\PSoC4/CapSense.c **** 
 267:Generated_Source\PSoC4/CapSense.c ****     /* Configure Dead Band PWM if it is enabled */
 268:Generated_Source\PSoC4/CapSense.c ****     #if(CapSense_CSD_4B_PWM_MODE != CapSense__PWM_OFF)
 269:Generated_Source\PSoC4/CapSense.c ****         CapSense_CSD_4B_PWM_REG = CapSense_DEFAULT_CSD_4B_PWM_CONFIG;
 270:Generated_Source\PSoC4/CapSense.c ****     #endif /* (CapSense_CSD_4B_PWM_MODE != CapSense__PWM_OFF) */
 271:Generated_Source\PSoC4/CapSense.c **** 
 272:Generated_Source\PSoC4/CapSense.c ****     /* Setup ISR */
 273:Generated_Source\PSoC4/CapSense.c ****     CyIntDisable(CapSense_ISR_NUMBER);
 282              		.loc 1 273 0
 283 0078 1020     		movs	r0, #16
 284 007a FFF7FEFF 		bl	CyIntDisable
 274:Generated_Source\PSoC4/CapSense.c ****     #if !defined(CY_EXTERNAL_INTERRUPT_CONFIG)
 275:Generated_Source\PSoC4/CapSense.c ****         (void)CyIntSetVector(CapSense_ISR_NUMBER, &CapSense_ISR);
 285              		.loc 1 275 0
 286 007e 0E4B     		ldr	r3, .L5+32
 287 0080 1900     		movs	r1, r3
 288 0082 1020     		movs	r0, #16
 289 0084 FFF7FEFF 		bl	CyIntSetVector
 276:Generated_Source\PSoC4/CapSense.c ****         CyIntSetPriority(CapSense_ISR_NUMBER, CapSense_ISR_PRIORITY);
 290              		.loc 1 276 0
 291 0088 0321     		movs	r1, #3
 292 008a 1020     		movs	r0, #16
ARM GAS  C:\Users\PC\AppData\Local\Temp\cc3ehIEg.s 			page 11


 293 008c FFF7FEFF 		bl	CyIntSetPriority
 277:Generated_Source\PSoC4/CapSense.c ****     #endif /* (CY_EXTERNAL_INTERRUPT_CONFIG) */
 278:Generated_Source\PSoC4/CapSense.c **** }
 294              		.loc 1 278 0
 295 0090 C046     		nop
 296 0092 BD46     		mov	sp, r7
 297 0094 02B0     		add	sp, sp, #8
 298              		@ sp needed
 299 0096 80BD     		pop	{r7, pc}
 300              	.L6:
 301              		.align	2
 302              	.L5:
 303 0098 00FF2840 		.word	1076428544
 304 009c 00000000 		.word	CapSense_csdTrim1
 305 00a0 62F2FF0F 		.word	268431970
 306 00a4 08002840 		.word	1076363272
 307 00a8 00020001 		.word	16777728
 308 00ac 04002840 		.word	1076363268
 309 00b0 0008A001 		.word	27265024
 310 00b4 00040240 		.word	1073873920
 311 00b8 00000000 		.word	CapSense_ISR
 312              		.cfi_endproc
 313              	.LFE37:
 314              		.size	CapSense_CsdHwBlockInit, .-CapSense_CsdHwBlockInit
 315              		.section	.text.CapSense_Enable,"ax",%progbits
 316              		.align	2
 317              		.global	CapSense_Enable
 318              		.code	16
 319              		.thumb_func
 320              		.type	CapSense_Enable, %function
 321              	CapSense_Enable:
 322              	.LFB38:
 279:Generated_Source\PSoC4/CapSense.c **** 
 280:Generated_Source\PSoC4/CapSense.c **** 
 281:Generated_Source\PSoC4/CapSense.c **** /*******************************************************************************
 282:Generated_Source\PSoC4/CapSense.c **** * Function Name: CapSense_Enable
 283:Generated_Source\PSoC4/CapSense.c **** ********************************************************************************
 284:Generated_Source\PSoC4/CapSense.c **** *
 285:Generated_Source\PSoC4/CapSense.c **** * Summary:
 286:Generated_Source\PSoC4/CapSense.c **** *  Enables the CSD block and related resources to an active mode.
 287:Generated_Source\PSoC4/CapSense.c **** *
 288:Generated_Source\PSoC4/CapSense.c **** * Parameters:
 289:Generated_Source\PSoC4/CapSense.c **** *  None
 290:Generated_Source\PSoC4/CapSense.c **** *
 291:Generated_Source\PSoC4/CapSense.c **** * Return:
 292:Generated_Source\PSoC4/CapSense.c **** *  None
 293:Generated_Source\PSoC4/CapSense.c **** *
 294:Generated_Source\PSoC4/CapSense.c **** * Global Variables:
 295:Generated_Source\PSoC4/CapSense.c **** *  None.
 296:Generated_Source\PSoC4/CapSense.c **** *
 297:Generated_Source\PSoC4/CapSense.c **** * Side Effects:
 298:Generated_Source\PSoC4/CapSense.c **** *  None
 299:Generated_Source\PSoC4/CapSense.c **** *
 300:Generated_Source\PSoC4/CapSense.c **** *******************************************************************************/
 301:Generated_Source\PSoC4/CapSense.c **** void CapSense_Enable(void)
 302:Generated_Source\PSoC4/CapSense.c **** {
 323              		.loc 1 302 0
ARM GAS  C:\Users\PC\AppData\Local\Temp\cc3ehIEg.s 			page 12


 324              		.cfi_startproc
 325              		@ args = 0, pretend = 0, frame = 8
 326              		@ frame_needed = 1, uses_anonymous_args = 0
 327 0000 80B5     		push	{r7, lr}
 328              		.cfi_def_cfa_offset 8
 329              		.cfi_offset 7, -8
 330              		.cfi_offset 14, -4
 331 0002 82B0     		sub	sp, sp, #8
 332              		.cfi_def_cfa_offset 16
 333 0004 00AF     		add	r7, sp, #0
 334              		.cfi_def_cfa_register 7
 303:Generated_Source\PSoC4/CapSense.c ****     uint32 newRegValue;
 304:Generated_Source\PSoC4/CapSense.c **** 
 305:Generated_Source\PSoC4/CapSense.c ****     /* Enable Clocks */
 306:Generated_Source\PSoC4/CapSense.c ****     CapSense_SenseClk_Stop();
 335              		.loc 1 306 0
 336 0006 FFF7FEFF 		bl	CapSense_SenseClk_Stop
 307:Generated_Source\PSoC4/CapSense.c ****     CapSense_SampleClk_Stop();
 337              		.loc 1 307 0
 338 000a FFF7FEFF 		bl	CapSense_SampleClk_Stop
 308:Generated_Source\PSoC4/CapSense.c **** 
 309:Generated_Source\PSoC4/CapSense.c ****     CapSense_SampleClk_SetDividerValue((uint16)CapSense_INITIAL_CLK_DIVIDER);
 339              		.loc 1 309 0
 340 000e 0021     		movs	r1, #0
 341 0010 0020     		movs	r0, #0
 342 0012 FFF7FEFF 		bl	CapSense_SampleClk_SetFractionalDividerRegister
 310:Generated_Source\PSoC4/CapSense.c ****     CapSense_SenseClk_SetDividerValue((uint16)CapSense_INITIAL_CLK_DIVIDER);
 343              		.loc 1 310 0
 344 0016 0021     		movs	r1, #0
 345 0018 0020     		movs	r0, #0
 346 001a FFF7FEFF 		bl	CapSense_SenseClk_SetFractionalDividerRegister
 311:Generated_Source\PSoC4/CapSense.c **** 
 312:Generated_Source\PSoC4/CapSense.c ****     #if (0u == CapSense_IS_M0S8PERI_BLOCK)
 313:Generated_Source\PSoC4/CapSense.c ****         CapSense_SenseClk_Start();
 314:Generated_Source\PSoC4/CapSense.c ****         CapSense_SampleClk_Start();
 315:Generated_Source\PSoC4/CapSense.c ****     #else
 316:Generated_Source\PSoC4/CapSense.c ****         CapSense_SampleClk_Start();
 347              		.loc 1 316 0
 348 001e FF20     		movs	r0, #255
 349 0020 FFF7FEFF 		bl	CapSense_SampleClk_StartEx
 317:Generated_Source\PSoC4/CapSense.c ****         CapSense_SenseClk_StartEx(CapSense_SampleClk__DIV_ID);
 350              		.loc 1 317 0
 351 0024 4020     		movs	r0, #64
 352 0026 FFF7FEFF 		bl	CapSense_SenseClk_StartEx
 318:Generated_Source\PSoC4/CapSense.c ****     #endif /* (0u == CapSense_IS_M0S8PERI_BLOCK) */
 319:Generated_Source\PSoC4/CapSense.c **** 
 320:Generated_Source\PSoC4/CapSense.c ****     /* Enable the CSD block */
 321:Generated_Source\PSoC4/CapSense.c ****     newRegValue = CapSense_CSD_CFG_REG;
 353              		.loc 1 321 0
 354 002a 084B     		ldr	r3, .L8
 355 002c 1B68     		ldr	r3, [r3]
 356 002e 7B60     		str	r3, [r7, #4]
 322:Generated_Source\PSoC4/CapSense.c ****     newRegValue |= (CapSense_CSD_CFG_ENABLE | CapSense_CSD_CFG_SENSE_COMP_EN
 357              		.loc 1 322 0
 358 0030 7B68     		ldr	r3, [r7, #4]
 359 0032 074A     		ldr	r2, .L8+4
 360 0034 1343     		orrs	r3, r2
ARM GAS  C:\Users\PC\AppData\Local\Temp\cc3ehIEg.s 			page 13


 361 0036 7B60     		str	r3, [r7, #4]
 323:Generated_Source\PSoC4/CapSense.c ****                                                    | CapSense_CSD_CFG_SENSE_EN);
 324:Generated_Source\PSoC4/CapSense.c ****     CapSense_CSD_CFG_REG = newRegValue;
 362              		.loc 1 324 0
 363 0038 044B     		ldr	r3, .L8
 364 003a 7A68     		ldr	r2, [r7, #4]
 365 003c 1A60     		str	r2, [r3]
 325:Generated_Source\PSoC4/CapSense.c **** 
 326:Generated_Source\PSoC4/CapSense.c ****     /* Enable interrupt */
 327:Generated_Source\PSoC4/CapSense.c ****     CyIntEnable(CapSense_ISR_NUMBER);
 366              		.loc 1 327 0
 367 003e 1020     		movs	r0, #16
 368 0040 FFF7FEFF 		bl	CyIntEnable
 328:Generated_Source\PSoC4/CapSense.c **** }
 369              		.loc 1 328 0
 370 0044 C046     		nop
 371 0046 BD46     		mov	sp, r7
 372 0048 02B0     		add	sp, sp, #8
 373              		@ sp needed
 374 004a 80BD     		pop	{r7, pc}
 375              	.L9:
 376              		.align	2
 377              	.L8:
 378 004c 04002840 		.word	1076363268
 379 0050 00100880 		.word	-2146955264
 380              		.cfi_endproc
 381              	.LFE38:
 382              		.size	CapSense_Enable, .-CapSense_Enable
 383              		.section	.text.CapSense_Start,"ax",%progbits
 384              		.align	2
 385              		.global	CapSense_Start
 386              		.code	16
 387              		.thumb_func
 388              		.type	CapSense_Start, %function
 389              	CapSense_Start:
 390              	.LFB39:
 329:Generated_Source\PSoC4/CapSense.c **** 
 330:Generated_Source\PSoC4/CapSense.c **** 
 331:Generated_Source\PSoC4/CapSense.c **** /*******************************************************************************
 332:Generated_Source\PSoC4/CapSense.c **** * Function Name: CapSense_Start
 333:Generated_Source\PSoC4/CapSense.c **** ********************************************************************************
 334:Generated_Source\PSoC4/CapSense.c **** *
 335:Generated_Source\PSoC4/CapSense.c **** * Summary:
 336:Generated_Source\PSoC4/CapSense.c **** *  This is the preferred method to begin the component operation. CapSense_Start()
 337:Generated_Source\PSoC4/CapSense.c **** *  calls the CapSense_Init() function, and then calls the CapSense_Enable()
 338:Generated_Source\PSoC4/CapSense.c **** *  function. Initializes the registers and starts the CSD method of the CapSense
 339:Generated_Source\PSoC4/CapSense.c **** *  component. Resets all the sensors to an inactive state. Enables interrupts for
 340:Generated_Source\PSoC4/CapSense.c **** *  sensors scanning. When the SmartSense tuning mode is selected, the tuning procedure
 341:Generated_Source\PSoC4/CapSense.c **** *  is applied for all the sensors. The CapSense_Start() routine must be called before
 342:Generated_Source\PSoC4/CapSense.c **** *  any other API routines.
 343:Generated_Source\PSoC4/CapSense.c **** *
 344:Generated_Source\PSoC4/CapSense.c **** * Parameters:
 345:Generated_Source\PSoC4/CapSense.c **** *  None
 346:Generated_Source\PSoC4/CapSense.c **** *
 347:Generated_Source\PSoC4/CapSense.c **** * Return:
 348:Generated_Source\PSoC4/CapSense.c **** *  None
 349:Generated_Source\PSoC4/CapSense.c **** *
ARM GAS  C:\Users\PC\AppData\Local\Temp\cc3ehIEg.s 			page 14


 350:Generated_Source\PSoC4/CapSense.c **** * Global Variables:
 351:Generated_Source\PSoC4/CapSense.c **** *   CapSense_initVar - used to check the initial configuration,
 352:Generated_Source\PSoC4/CapSense.c **** *   modified on the first function call.
 353:Generated_Source\PSoC4/CapSense.c **** *  CapSense_lowLevelTuningDone - Used to notify the Tuner GUI that
 354:Generated_Source\PSoC4/CapSense.c **** *   tuning of the scanning parameters is done.
 355:Generated_Source\PSoC4/CapSense.c **** *
 356:Generated_Source\PSoC4/CapSense.c **** * Side Effects:
 357:Generated_Source\PSoC4/CapSense.c **** *  None
 358:Generated_Source\PSoC4/CapSense.c **** *
 359:Generated_Source\PSoC4/CapSense.c **** *******************************************************************************/
 360:Generated_Source\PSoC4/CapSense.c **** void CapSense_Start(void)
 361:Generated_Source\PSoC4/CapSense.c **** {
 391              		.loc 1 361 0
 392              		.cfi_startproc
 393              		@ args = 0, pretend = 0, frame = 0
 394              		@ frame_needed = 1, uses_anonymous_args = 0
 395 0000 80B5     		push	{r7, lr}
 396              		.cfi_def_cfa_offset 8
 397              		.cfi_offset 7, -8
 398              		.cfi_offset 14, -4
 399 0002 00AF     		add	r7, sp, #0
 400              		.cfi_def_cfa_register 7
 362:Generated_Source\PSoC4/CapSense.c **** 
 363:Generated_Source\PSoC4/CapSense.c ****     static uint8 CapSense_initVar = 0u;
 364:Generated_Source\PSoC4/CapSense.c **** 
 365:Generated_Source\PSoC4/CapSense.c ****     #if((0u != CapSense_AUTOCALIBRATION_ENABLE) && (CapSense_TUNING_METHOD != CapSense__TUNING_AUTO
 366:Generated_Source\PSoC4/CapSense.c ****         uint32 curSensor;
 367:Generated_Source\PSoC4/CapSense.c ****         uint32 rawLevel;
 368:Generated_Source\PSoC4/CapSense.c ****         uint32 widget;
 369:Generated_Source\PSoC4/CapSense.c ****     #endif /* ((0u != CapSense_AUTOCALIBRATION_ENABLE) && (CapSense_TUNING_METHOD != CapSense__TUNI
 370:Generated_Source\PSoC4/CapSense.c **** 
 371:Generated_Source\PSoC4/CapSense.c ****     if (CapSense_initVar == 0u)
 401              		.loc 1 371 0
 402 0004 0C4B     		ldr	r3, .L12
 403 0006 1B78     		ldrb	r3, [r3]
 404 0008 002B     		cmp	r3, #0
 405 000a 04D1     		bne	.L11
 372:Generated_Source\PSoC4/CapSense.c ****     {
 373:Generated_Source\PSoC4/CapSense.c ****         CapSense_Init();
 406              		.loc 1 373 0
 407 000c FFF7FEFF 		bl	CapSense_Init
 374:Generated_Source\PSoC4/CapSense.c ****         CapSense_initVar = 1u;
 408              		.loc 1 374 0
 409 0010 094B     		ldr	r3, .L12
 410 0012 0122     		movs	r2, #1
 411 0014 1A70     		strb	r2, [r3]
 412              	.L11:
 375:Generated_Source\PSoC4/CapSense.c ****     }
 376:Generated_Source\PSoC4/CapSense.c ****     CapSense_Enable();
 413              		.loc 1 376 0
 414 0016 FFF7FEFF 		bl	CapSense_Enable
 377:Generated_Source\PSoC4/CapSense.c **** 
 378:Generated_Source\PSoC4/CapSense.c ****     /* AutoTunning start */
 379:Generated_Source\PSoC4/CapSense.c ****     #if(CapSense_TUNING_METHOD == CapSense__TUNING_AUTO)
 380:Generated_Source\PSoC4/CapSense.c ****         #if(0u != CapSense_CSHL_API_GENERATE)
 381:Generated_Source\PSoC4/CapSense.c ****             CapSense_AutoTune();
 415              		.loc 1 381 0
ARM GAS  C:\Users\PC\AppData\Local\Temp\cc3ehIEg.s 			page 15


 416 001a FFF7FEFF 		bl	CapSense_AutoTune
 382:Generated_Source\PSoC4/CapSense.c ****             CapSense_lowLevelTuningDone = 1u;
 417              		.loc 1 382 0
 418 001e 074B     		ldr	r3, .L12+4
 419 0020 0122     		movs	r2, #1
 420 0022 1A70     		strb	r2, [r3]
 383:Generated_Source\PSoC4/CapSense.c ****         #endif /* (0u != CapSense_CSHL_API_GENERATE) */
 384:Generated_Source\PSoC4/CapSense.c ****     #else
 385:Generated_Source\PSoC4/CapSense.c ****         #if(0u != CapSense_AUTOCALIBRATION_ENABLE)
 386:Generated_Source\PSoC4/CapSense.c **** 
 387:Generated_Source\PSoC4/CapSense.c ****             #if(CapSense_IDAC_CNT > 1u)
 388:Generated_Source\PSoC4/CapSense.c ****                 CapSense_CSD_IDAC_REG &= ~(CapSense_CSD_IDAC2_MODE_MASK);
 389:Generated_Source\PSoC4/CapSense.c ****             #endif /* (CapSense_IDAC_CNT > 1u) */
 390:Generated_Source\PSoC4/CapSense.c **** 
 391:Generated_Source\PSoC4/CapSense.c ****             for(curSensor = 0u; curSensor < CapSense_TOTAL_SCANSLOT_COUNT; curSensor++)
 392:Generated_Source\PSoC4/CapSense.c ****             {
 393:Generated_Source\PSoC4/CapSense.c ****                 widget = CapSense_widgetNumber[curSensor];
 394:Generated_Source\PSoC4/CapSense.c ****                 rawLevel = CapSense_widgetResolution[widget] >> CapSense_RESOLUTION_OFFSET;
 395:Generated_Source\PSoC4/CapSense.c **** 
 396:Generated_Source\PSoC4/CapSense.c ****                 /* Calibration level should be equal to 85% from scanning resolution */
 397:Generated_Source\PSoC4/CapSense.c ****                 rawLevel = (rawLevel * 85u) / 100u;
 398:Generated_Source\PSoC4/CapSense.c **** 
 399:Generated_Source\PSoC4/CapSense.c ****                 CapSense_CalibrateSensor(curSensor, rawLevel, CapSense_modulationIDAC);
 400:Generated_Source\PSoC4/CapSense.c ****             }
 401:Generated_Source\PSoC4/CapSense.c **** 
 402:Generated_Source\PSoC4/CapSense.c ****             #if(0u != CapSense_TOTAL_CENTROIDS_COUNT)
 403:Generated_Source\PSoC4/CapSense.c ****                 CapSense_NormalizeWidgets(CapSense_END_OF_WIDGETS_INDEX, CapSense_modulationIDAC);
 404:Generated_Source\PSoC4/CapSense.c ****             #endif /* (0u != CapSense_TOTAL_CENTROIDS_COUNT)  */
 405:Generated_Source\PSoC4/CapSense.c **** 
 406:Generated_Source\PSoC4/CapSense.c ****             #if(CapSense_IDAC_CNT > 1u)
 407:Generated_Source\PSoC4/CapSense.c ****                 for(curSensor = 0u; curSensor < CapSense_TOTAL_SCANSLOT_COUNT; curSensor++)
 408:Generated_Source\PSoC4/CapSense.c ****                 {
 409:Generated_Source\PSoC4/CapSense.c ****                     CapSense_compensationIDAC[curSensor] = CapSense_modulationIDAC[curSensor] / 2u;
 410:Generated_Source\PSoC4/CapSense.c ****                     CapSense_modulationIDAC[curSensor] = (CapSense_modulationIDAC[curSensor] + 1u) 
 411:Generated_Source\PSoC4/CapSense.c ****                 }
 412:Generated_Source\PSoC4/CapSense.c ****                 CapSense_CSD_IDAC_REG |= CapSense_CSD_IDAC2_MODE_FIXED;
 413:Generated_Source\PSoC4/CapSense.c ****             #endif /* (CapSense_IDAC_CNT > 1u) */
 414:Generated_Source\PSoC4/CapSense.c **** 
 415:Generated_Source\PSoC4/CapSense.c ****         #endif /* (0u != CapSense_AUTOCALIBRATION_ENABLE) */
 416:Generated_Source\PSoC4/CapSense.c **** 
 417:Generated_Source\PSoC4/CapSense.c ****     #endif /* ((CapSense_TUNING_METHOD == CapSense__TUNING_AUTO) */
 418:Generated_Source\PSoC4/CapSense.c **** 
 419:Generated_Source\PSoC4/CapSense.c ****     /* Initialize Advanced Centroid */
 420:Generated_Source\PSoC4/CapSense.c ****     #if(CapSense_TOTAL_TRACKPAD_GESTURES_COUNT > 0u)
 421:Generated_Source\PSoC4/CapSense.c ****         CapSense_AdvancedCentroidInit();
 422:Generated_Source\PSoC4/CapSense.c ****     #endif /* (CapSense_TOTAL_TRACKPAD_GESTURES_COUNT > 0u) */
 423:Generated_Source\PSoC4/CapSense.c **** 
 424:Generated_Source\PSoC4/CapSense.c ****     /* Connect sense comparator input to AMUXA */
 425:Generated_Source\PSoC4/CapSense.c ****     CapSense_CSD_CFG_REG |= CapSense_CSD_CFG_SENSE_INSEL;
 421              		.loc 1 425 0
 422 0024 064B     		ldr	r3, .L12+8
 423 0026 064A     		ldr	r2, .L12+8
 424 0028 1268     		ldr	r2, [r2]
 425 002a 8021     		movs	r1, #128
 426 002c C903     		lsls	r1, r1, #15
 427 002e 0A43     		orrs	r2, r1
 428 0030 1A60     		str	r2, [r3]
ARM GAS  C:\Users\PC\AppData\Local\Temp\cc3ehIEg.s 			page 16


 426:Generated_Source\PSoC4/CapSense.c **** }
 429              		.loc 1 426 0
 430 0032 C046     		nop
 431 0034 BD46     		mov	sp, r7
 432              		@ sp needed
 433 0036 80BD     		pop	{r7, pc}
 434              	.L13:
 435              		.align	2
 436              	.L12:
 437 0038 09000000 		.word	CapSense_initVar.5436
 438 003c 00000000 		.word	CapSense_lowLevelTuningDone
 439 0040 04002840 		.word	1076363268
 440              		.cfi_endproc
 441              	.LFE39:
 442              		.size	CapSense_Start, .-CapSense_Start
 443              		.section	.text.CapSense_Stop,"ax",%progbits
 444              		.align	2
 445              		.global	CapSense_Stop
 446              		.code	16
 447              		.thumb_func
 448              		.type	CapSense_Stop, %function
 449              	CapSense_Stop:
 450              	.LFB40:
 427:Generated_Source\PSoC4/CapSense.c **** 
 428:Generated_Source\PSoC4/CapSense.c **** 
 429:Generated_Source\PSoC4/CapSense.c **** /*******************************************************************************
 430:Generated_Source\PSoC4/CapSense.c **** * Function Name: CapSense_Stop
 431:Generated_Source\PSoC4/CapSense.c **** ********************************************************************************
 432:Generated_Source\PSoC4/CapSense.c **** *
 433:Generated_Source\PSoC4/CapSense.c **** * Summary:
 434:Generated_Source\PSoC4/CapSense.c **** *  Stops the sensor scanning, disables component interrupts, and resets all the
 435:Generated_Source\PSoC4/CapSense.c **** *  sensors to an inactive state. Disables the Active mode power template bits for
 436:Generated_Source\PSoC4/CapSense.c **** *  the subcomponents used within CapSense.
 437:Generated_Source\PSoC4/CapSense.c **** *
 438:Generated_Source\PSoC4/CapSense.c **** * Parameters:
 439:Generated_Source\PSoC4/CapSense.c **** *  None
 440:Generated_Source\PSoC4/CapSense.c **** *
 441:Generated_Source\PSoC4/CapSense.c **** * Return:
 442:Generated_Source\PSoC4/CapSense.c **** *  None
 443:Generated_Source\PSoC4/CapSense.c **** *
 444:Generated_Source\PSoC4/CapSense.c **** * Global Variables:
 445:Generated_Source\PSoC4/CapSense.c **** *  CapSense_csdTrim1 - Contains the IDAC trim register value for the Sourcing Mode.
 446:Generated_Source\PSoC4/CapSense.c **** *  CapSense_csdTrim2 - Contains the IDAC trim register value for vSinking Mode.
 447:Generated_Source\PSoC4/CapSense.c **** *
 448:Generated_Source\PSoC4/CapSense.c **** * Side Effects:
 449:Generated_Source\PSoC4/CapSense.c **** *  This function should be called after scans are completed.
 450:Generated_Source\PSoC4/CapSense.c **** *
 451:Generated_Source\PSoC4/CapSense.c **** *******************************************************************************/
 452:Generated_Source\PSoC4/CapSense.c **** void CapSense_Stop(void)
 453:Generated_Source\PSoC4/CapSense.c **** {
 451              		.loc 1 453 0
 452              		.cfi_startproc
 453              		@ args = 0, pretend = 0, frame = 0
 454              		@ frame_needed = 1, uses_anonymous_args = 0
 455 0000 80B5     		push	{r7, lr}
 456              		.cfi_def_cfa_offset 8
 457              		.cfi_offset 7, -8
ARM GAS  C:\Users\PC\AppData\Local\Temp\cc3ehIEg.s 			page 17


 458              		.cfi_offset 14, -4
 459 0002 00AF     		add	r7, sp, #0
 460              		.cfi_def_cfa_register 7
 454:Generated_Source\PSoC4/CapSense.c ****     /* Disable interrupt */
 455:Generated_Source\PSoC4/CapSense.c ****     CyIntDisable(CapSense_ISR_NUMBER);
 461              		.loc 1 455 0
 462 0004 1020     		movs	r0, #16
 463 0006 FFF7FEFF 		bl	CyIntDisable
 456:Generated_Source\PSoC4/CapSense.c **** 
 457:Generated_Source\PSoC4/CapSense.c ****     CapSense_CSD_CFG_REG &= ~(CapSense_CSD_CFG_SENSE_COMP_EN | CapSense_CSD_CFG_SENSE_EN);
 464              		.loc 1 457 0
 465 000a 094B     		ldr	r3, .L15
 466 000c 084A     		ldr	r2, .L15
 467 000e 1268     		ldr	r2, [r2]
 468 0010 0849     		ldr	r1, .L15+4
 469 0012 0A40     		ands	r2, r1
 470 0014 1A60     		str	r2, [r3]
 458:Generated_Source\PSoC4/CapSense.c **** 
 459:Generated_Source\PSoC4/CapSense.c ****     #if(CapSense_IDAC_CNT == 2u)
 460:Generated_Source\PSoC4/CapSense.c ****         CapSense_CSD_CFG_REG &= ~(CapSense_CSD_CFG_ENABLE);
 471              		.loc 1 460 0
 472 0016 064B     		ldr	r3, .L15
 473 0018 054A     		ldr	r2, .L15
 474 001a 1268     		ldr	r2, [r2]
 475 001c 5200     		lsls	r2, r2, #1
 476 001e 5208     		lsrs	r2, r2, #1
 477 0020 1A60     		str	r2, [r3]
 461:Generated_Source\PSoC4/CapSense.c ****     #endif /* (CapSense_IDAC_CNT == 2u) */
 462:Generated_Source\PSoC4/CapSense.c **** 
 463:Generated_Source\PSoC4/CapSense.c ****     /* Disable the Clocks */
 464:Generated_Source\PSoC4/CapSense.c ****     CapSense_SenseClk_Stop();
 478              		.loc 1 464 0
 479 0022 FFF7FEFF 		bl	CapSense_SenseClk_Stop
 465:Generated_Source\PSoC4/CapSense.c ****     CapSense_SampleClk_Stop();
 480              		.loc 1 465 0
 481 0026 FFF7FEFF 		bl	CapSense_SampleClk_Stop
 466:Generated_Source\PSoC4/CapSense.c **** }
 482              		.loc 1 466 0
 483 002a C046     		nop
 484 002c BD46     		mov	sp, r7
 485              		@ sp needed
 486 002e 80BD     		pop	{r7, pc}
 487              	.L16:
 488              		.align	2
 489              	.L15:
 490 0030 04002840 		.word	1076363268
 491 0034 FFEFF7FF 		.word	-528385
 492              		.cfi_endproc
 493              	.LFE40:
 494              		.size	CapSense_Stop, .-CapSense_Stop
 495              		.section	.text.CapSense_FindNextSensor,"ax",%progbits
 496              		.align	2
 497              		.global	CapSense_FindNextSensor
 498              		.code	16
 499              		.thumb_func
 500              		.type	CapSense_FindNextSensor, %function
 501              	CapSense_FindNextSensor:
ARM GAS  C:\Users\PC\AppData\Local\Temp\cc3ehIEg.s 			page 18


 502              	.LFB41:
 467:Generated_Source\PSoC4/CapSense.c **** 
 468:Generated_Source\PSoC4/CapSense.c **** 
 469:Generated_Source\PSoC4/CapSense.c **** /*******************************************************************************
 470:Generated_Source\PSoC4/CapSense.c **** * Function Name: CapSense_FindNextSensor
 471:Generated_Source\PSoC4/CapSense.c **** ********************************************************************************
 472:Generated_Source\PSoC4/CapSense.c **** *
 473:Generated_Source\PSoC4/CapSense.c **** * Summary:
 474:Generated_Source\PSoC4/CapSense.c **** *  Finds the next sensor to scan.
 475:Generated_Source\PSoC4/CapSense.c **** *
 476:Generated_Source\PSoC4/CapSense.c **** * Parameters:
 477:Generated_Source\PSoC4/CapSense.c **** *  snsIndex:  Current index of sensor.
 478:Generated_Source\PSoC4/CapSense.c **** *
 479:Generated_Source\PSoC4/CapSense.c **** * Return:
 480:Generated_Source\PSoC4/CapSense.c **** *  Returns the next sensor index to scan.
 481:Generated_Source\PSoC4/CapSense.c **** *
 482:Generated_Source\PSoC4/CapSense.c **** * Global Variables:
 483:Generated_Source\PSoC4/CapSense.c **** *  CapSense_sensorEnableMask[] - used to store bit masks of the enabled sensors.
 484:Generated_Source\PSoC4/CapSense.c **** *
 485:Generated_Source\PSoC4/CapSense.c **** * Side Effects:
 486:Generated_Source\PSoC4/CapSense.c **** *  This function affects the  current scanning and should not
 487:Generated_Source\PSoC4/CapSense.c **** *  be used outside the component.
 488:Generated_Source\PSoC4/CapSense.c **** *
 489:Generated_Source\PSoC4/CapSense.c **** *******************************************************************************/
 490:Generated_Source\PSoC4/CapSense.c **** uint8 CapSense_FindNextSensor(uint8 snsIndex)
 491:Generated_Source\PSoC4/CapSense.c **** {
 503              		.loc 1 491 0
 504              		.cfi_startproc
 505              		@ args = 0, pretend = 0, frame = 16
 506              		@ frame_needed = 1, uses_anonymous_args = 0
 507 0000 80B5     		push	{r7, lr}
 508              		.cfi_def_cfa_offset 8
 509              		.cfi_offset 7, -8
 510              		.cfi_offset 14, -4
 511 0002 84B0     		sub	sp, sp, #16
 512              		.cfi_def_cfa_offset 24
 513 0004 00AF     		add	r7, sp, #0
 514              		.cfi_def_cfa_register 7
 515 0006 0200     		movs	r2, r0
 516 0008 FB1D     		adds	r3, r7, #7
 517 000a 1A70     		strb	r2, [r3]
 518              	.L20:
 492:Generated_Source\PSoC4/CapSense.c ****     uint32 enableFlag;
 493:Generated_Source\PSoC4/CapSense.c **** 
 494:Generated_Source\PSoC4/CapSense.c ****     /* Check if sensor enabled */
 495:Generated_Source\PSoC4/CapSense.c ****     do
 496:Generated_Source\PSoC4/CapSense.c ****     {
 497:Generated_Source\PSoC4/CapSense.c ****         /* Proceed with next sensor */
 498:Generated_Source\PSoC4/CapSense.c ****         snsIndex++;
 519              		.loc 1 498 0
 520 000c FB1D     		adds	r3, r7, #7
 521 000e 1A78     		ldrb	r2, [r3]
 522 0010 FB1D     		adds	r3, r7, #7
 523 0012 0132     		adds	r2, r2, #1
 524 0014 1A70     		strb	r2, [r3]
 499:Generated_Source\PSoC4/CapSense.c ****         if(snsIndex == CapSense_TOTAL_SENSOR_COUNT)
 525              		.loc 1 499 0
ARM GAS  C:\Users\PC\AppData\Local\Temp\cc3ehIEg.s 			page 19


 526 0016 FB1D     		adds	r3, r7, #7
 527 0018 1B78     		ldrb	r3, [r3]
 528 001a 012B     		cmp	r3, #1
 529 001c 0CD0     		beq	.L22
 500:Generated_Source\PSoC4/CapSense.c ****         {
 501:Generated_Source\PSoC4/CapSense.c ****             break;
 502:Generated_Source\PSoC4/CapSense.c ****         }
 503:Generated_Source\PSoC4/CapSense.c ****         enableFlag = CapSense_GetBitValue(CapSense_sensorEnableMask, (uint32)snsIndex);
 530              		.loc 1 503 0
 531 001e FB1D     		adds	r3, r7, #7
 532 0020 1A78     		ldrb	r2, [r3]
 533 0022 094B     		ldr	r3, .L23
 534 0024 1100     		movs	r1, r2
 535 0026 1800     		movs	r0, r3
 536 0028 FFF7FEFF 		bl	CapSense_GetBitValue
 537 002c 0300     		movs	r3, r0
 538 002e FB60     		str	r3, [r7, #12]
 504:Generated_Source\PSoC4/CapSense.c ****     }
 505:Generated_Source\PSoC4/CapSense.c ****     while(enableFlag == 0u);
 539              		.loc 1 505 0
 540 0030 FB68     		ldr	r3, [r7, #12]
 541 0032 002B     		cmp	r3, #0
 542 0034 EAD0     		beq	.L20
 543 0036 00E0     		b	.L19
 544              	.L22:
 501:Generated_Source\PSoC4/CapSense.c ****         }
 545              		.loc 1 501 0
 546 0038 C046     		nop
 547              	.L19:
 506:Generated_Source\PSoC4/CapSense.c **** 
 507:Generated_Source\PSoC4/CapSense.c ****     return ((uint8)snsIndex);
 548              		.loc 1 507 0
 549 003a FB1D     		adds	r3, r7, #7
 550 003c 1B78     		ldrb	r3, [r3]
 508:Generated_Source\PSoC4/CapSense.c **** }
 551              		.loc 1 508 0
 552 003e 1800     		movs	r0, r3
 553 0040 BD46     		mov	sp, r7
 554 0042 04B0     		add	sp, sp, #16
 555              		@ sp needed
 556 0044 80BD     		pop	{r7, pc}
 557              	.L24:
 558 0046 C046     		.align	2
 559              	.L23:
 560 0048 00000000 		.word	CapSense_sensorEnableMask
 561              		.cfi_endproc
 562              	.LFE41:
 563              		.size	CapSense_FindNextSensor, .-CapSense_FindNextSensor
 564              		.section	.text.CapSense_ScanSensor,"ax",%progbits
 565              		.align	2
 566              		.global	CapSense_ScanSensor
 567              		.code	16
 568              		.thumb_func
 569              		.type	CapSense_ScanSensor, %function
 570              	CapSense_ScanSensor:
 571              	.LFB42:
 509:Generated_Source\PSoC4/CapSense.c **** 
ARM GAS  C:\Users\PC\AppData\Local\Temp\cc3ehIEg.s 			page 20


 510:Generated_Source\PSoC4/CapSense.c **** 
 511:Generated_Source\PSoC4/CapSense.c **** /*******************************************************************************
 512:Generated_Source\PSoC4/CapSense.c **** * Function Name: CapSense_ScanSensor
 513:Generated_Source\PSoC4/CapSense.c **** ********************************************************************************
 514:Generated_Source\PSoC4/CapSense.c **** *
 515:Generated_Source\PSoC4/CapSense.c **** * Summary:
 516:Generated_Source\PSoC4/CapSense.c **** *  Sets the scan settings and starts scanning a sensor. After scanning is complete,
 517:Generated_Source\PSoC4/CapSense.c **** *  the ISR copies the measured sensor raw data to the global raw sensor array.
 518:Generated_Source\PSoC4/CapSense.c **** *  Use of the ISR ensures this function is non-blocking.
 519:Generated_Source\PSoC4/CapSense.c **** *  Each sensor has a unique number within the sensor array.
 520:Generated_Source\PSoC4/CapSense.c **** *  This number is assigned by the CapSense customizer in sequence.
 521:Generated_Source\PSoC4/CapSense.c **** *
 522:Generated_Source\PSoC4/CapSense.c **** * Parameters:
 523:Generated_Source\PSoC4/CapSense.c **** *  sensor:  Sensor number.
 524:Generated_Source\PSoC4/CapSense.c **** *
 525:Generated_Source\PSoC4/CapSense.c **** * Return:
 526:Generated_Source\PSoC4/CapSense.c **** *  None
 527:Generated_Source\PSoC4/CapSense.c **** *
 528:Generated_Source\PSoC4/CapSense.c **** * Global Variables:
 529:Generated_Source\PSoC4/CapSense.c **** *  CapSense_csdStatusVar - used to provide the status and mode of the scanning process.
 530:Generated_Source\PSoC4/CapSense.c **** *  Sets the busy status(scan in progress) and mode of scan as single scan.
 531:Generated_Source\PSoC4/CapSense.c **** *  CapSense_sensorIndex - used to store a sensor scanning sensor number.
 532:Generated_Source\PSoC4/CapSense.c **** *  Sets to the provided sensor argument.
 533:Generated_Source\PSoC4/CapSense.c **** *
 534:Generated_Source\PSoC4/CapSense.c **** * Side Effects:
 535:Generated_Source\PSoC4/CapSense.c **** *  None
 536:Generated_Source\PSoC4/CapSense.c **** *
 537:Generated_Source\PSoC4/CapSense.c **** *******************************************************************************/
 538:Generated_Source\PSoC4/CapSense.c **** void CapSense_ScanSensor(uint32 sensor)
 539:Generated_Source\PSoC4/CapSense.c **** {
 572              		.loc 1 539 0
 573              		.cfi_startproc
 574              		@ args = 0, pretend = 0, frame = 8
 575              		@ frame_needed = 1, uses_anonymous_args = 0
 576 0000 80B5     		push	{r7, lr}
 577              		.cfi_def_cfa_offset 8
 578              		.cfi_offset 7, -8
 579              		.cfi_offset 14, -4
 580 0002 82B0     		sub	sp, sp, #8
 581              		.cfi_def_cfa_offset 16
 582 0004 00AF     		add	r7, sp, #0
 583              		.cfi_def_cfa_register 7
 584 0006 7860     		str	r0, [r7, #4]
 540:Generated_Source\PSoC4/CapSense.c ****     /* Clears status/control variable and set sensorIndex */
 541:Generated_Source\PSoC4/CapSense.c ****     CapSense_csdStatusVar = 0u;
 585              		.loc 1 541 0
 586 0008 084B     		ldr	r3, .L26
 587 000a 0022     		movs	r2, #0
 588 000c 1A70     		strb	r2, [r3]
 542:Generated_Source\PSoC4/CapSense.c ****     CapSense_sensorIndex = (uint8)sensor;
 589              		.loc 1 542 0
 590 000e 7B68     		ldr	r3, [r7, #4]
 591 0010 DAB2     		uxtb	r2, r3
 592 0012 074B     		ldr	r3, .L26+4
 593 0014 1A70     		strb	r2, [r3]
 543:Generated_Source\PSoC4/CapSense.c **** 
 544:Generated_Source\PSoC4/CapSense.c ****     /* Start of sensor scan */
ARM GAS  C:\Users\PC\AppData\Local\Temp\cc3ehIEg.s 			page 21


 545:Generated_Source\PSoC4/CapSense.c ****     CapSense_csdStatusVar = (CapSense_SW_STS_BUSY | CapSense_SW_CTRL_SINGLE_SCAN);
 594              		.loc 1 545 0
 595 0016 054B     		ldr	r3, .L26
 596 0018 8122     		movs	r2, #129
 597 001a 1A70     		strb	r2, [r3]
 546:Generated_Source\PSoC4/CapSense.c ****     CapSense_PreScan(sensor);
 598              		.loc 1 546 0
 599 001c 7B68     		ldr	r3, [r7, #4]
 600 001e 1800     		movs	r0, r3
 601 0020 FFF7FEFF 		bl	CapSense_PreScan
 547:Generated_Source\PSoC4/CapSense.c **** }
 602              		.loc 1 547 0
 603 0024 C046     		nop
 604 0026 BD46     		mov	sp, r7
 605 0028 02B0     		add	sp, sp, #8
 606              		@ sp needed
 607 002a 80BD     		pop	{r7, pc}
 608              	.L27:
 609              		.align	2
 610              	.L26:
 611 002c 00000000 		.word	CapSense_csdStatusVar
 612 0030 00000000 		.word	CapSense_sensorIndex
 613              		.cfi_endproc
 614              	.LFE42:
 615              		.size	CapSense_ScanSensor, .-CapSense_ScanSensor
 616              		.section	.text.CapSense_ScanWidget,"ax",%progbits
 617              		.align	2
 618              		.global	CapSense_ScanWidget
 619              		.code	16
 620              		.thumb_func
 621              		.type	CapSense_ScanWidget, %function
 622              	CapSense_ScanWidget:
 623              	.LFB43:
 548:Generated_Source\PSoC4/CapSense.c **** 
 549:Generated_Source\PSoC4/CapSense.c **** 
 550:Generated_Source\PSoC4/CapSense.c **** #if(0u != CapSense_CSHL_API_GENERATE)
 551:Generated_Source\PSoC4/CapSense.c **** /*******************************************************************************
 552:Generated_Source\PSoC4/CapSense.c **** * Function Name: CapSense_ScanWidget
 553:Generated_Source\PSoC4/CapSense.c **** ********************************************************************************
 554:Generated_Source\PSoC4/CapSense.c **** *
 555:Generated_Source\PSoC4/CapSense.c **** * Summary:
 556:Generated_Source\PSoC4/CapSense.c **** *  Sets the scan settings and starts scanning a widget.
 557:Generated_Source\PSoC4/CapSense.c **** *
 558:Generated_Source\PSoC4/CapSense.c **** * Parameters:
 559:Generated_Source\PSoC4/CapSense.c **** *  uint32 widget: Widget number.
 560:Generated_Source\PSoC4/CapSense.c **** *
 561:Generated_Source\PSoC4/CapSense.c **** * Return:
 562:Generated_Source\PSoC4/CapSense.c **** *  None
 563:Generated_Source\PSoC4/CapSense.c **** *
 564:Generated_Source\PSoC4/CapSense.c **** * Global Variables:
 565:Generated_Source\PSoC4/CapSense.c **** *  CapSense_csdStatusVar - used to provide the status and mode of the scanning process.
 566:Generated_Source\PSoC4/CapSense.c **** *  Sets the busy status(scan in progress) and clears the single scan mode.
 567:Generated_Source\PSoC4/CapSense.c **** *  CapSense_sensorIndex - used to store a sensor scanning sensor number.
 568:Generated_Source\PSoC4/CapSense.c **** *  Sets to 0xFF and provided to function CapSense_FindNextSensor or
 569:Generated_Source\PSoC4/CapSense.c **** *  CapSense_sensorEnableMask[] - used to store bit masks of the enabled sensors.
 570:Generated_Source\PSoC4/CapSense.c **** *  CapSense_sensorEnableMaskBackup[] - used to backup bit masks of the enabled
 571:Generated_Source\PSoC4/CapSense.c **** *   sensors.
ARM GAS  C:\Users\PC\AppData\Local\Temp\cc3ehIEg.s 			page 22


 572:Generated_Source\PSoC4/CapSense.c **** *
 573:Generated_Source\PSoC4/CapSense.c **** * Side Effects:
 574:Generated_Source\PSoC4/CapSense.c **** *  None
 575:Generated_Source\PSoC4/CapSense.c **** *
 576:Generated_Source\PSoC4/CapSense.c **** *******************************************************************************/
 577:Generated_Source\PSoC4/CapSense.c **** void CapSense_ScanWidget(uint32 widget)
 578:Generated_Source\PSoC4/CapSense.c **** {
 624              		.loc 1 578 0
 625              		.cfi_startproc
 626              		@ args = 0, pretend = 0, frame = 24
 627              		@ frame_needed = 1, uses_anonymous_args = 0
 628 0000 80B5     		push	{r7, lr}
 629              		.cfi_def_cfa_offset 8
 630              		.cfi_offset 7, -8
 631              		.cfi_offset 14, -4
 632 0002 86B0     		sub	sp, sp, #24
 633              		.cfi_def_cfa_offset 32
 634 0004 00AF     		add	r7, sp, #0
 635              		.cfi_def_cfa_register 7
 636 0006 7860     		str	r0, [r7, #4]
 579:Generated_Source\PSoC4/CapSense.c ****     uint32 sensorsPerWidget;
 580:Generated_Source\PSoC4/CapSense.c ****     uint32 lastSensor;
 581:Generated_Source\PSoC4/CapSense.c ****     uint32 snsIndex;
 582:Generated_Source\PSoC4/CapSense.c **** 
 583:Generated_Source\PSoC4/CapSense.c ****     /* Get first sensor in widget */
 584:Generated_Source\PSoC4/CapSense.c ****     CapSense_sensorIndex = CapSense_rawDataIndex[widget];
 637              		.loc 1 584 0
 638 0008 2E4A     		ldr	r2, .L38
 639 000a 7B68     		ldr	r3, [r7, #4]
 640 000c D318     		adds	r3, r2, r3
 641 000e 1A78     		ldrb	r2, [r3]
 642 0010 2D4B     		ldr	r3, .L38+4
 643 0012 1A70     		strb	r2, [r3]
 585:Generated_Source\PSoC4/CapSense.c **** 
 586:Generated_Source\PSoC4/CapSense.c ****     /* Get number of sensors in widget */
 587:Generated_Source\PSoC4/CapSense.c ****     sensorsPerWidget = CapSense_numberOfSensors[widget];
 644              		.loc 1 587 0
 645 0014 2D4A     		ldr	r2, .L38+8
 646 0016 7B68     		ldr	r3, [r7, #4]
 647 0018 D318     		adds	r3, r2, r3
 648 001a 1B78     		ldrb	r3, [r3]
 649 001c 7B61     		str	r3, [r7, #20]
 588:Generated_Source\PSoC4/CapSense.c **** 
 589:Generated_Source\PSoC4/CapSense.c ****     /* Check if generic Sensor */
 590:Generated_Source\PSoC4/CapSense.c ****     if(sensorsPerWidget == 0u)
 650              		.loc 1 590 0
 651 001e 7B69     		ldr	r3, [r7, #20]
 652 0020 002B     		cmp	r3, #0
 653 0022 01D1     		bne	.L29
 591:Generated_Source\PSoC4/CapSense.c ****     {
 592:Generated_Source\PSoC4/CapSense.c ****         sensorsPerWidget = 1u;
 654              		.loc 1 592 0
 655 0024 0123     		movs	r3, #1
 656 0026 7B61     		str	r3, [r7, #20]
 657              	.L29:
 593:Generated_Source\PSoC4/CapSense.c ****     }
 594:Generated_Source\PSoC4/CapSense.c **** 
ARM GAS  C:\Users\PC\AppData\Local\Temp\cc3ehIEg.s 			page 23


 595:Generated_Source\PSoC4/CapSense.c ****     /* Get last sensor in widget */
 596:Generated_Source\PSoC4/CapSense.c ****     lastSensor = (CapSense_rawDataIndex[widget] + sensorsPerWidget) - 1u;
 658              		.loc 1 596 0
 659 0028 264A     		ldr	r2, .L38
 660 002a 7B68     		ldr	r3, [r7, #4]
 661 002c D318     		adds	r3, r2, r3
 662 002e 1B78     		ldrb	r3, [r3]
 663 0030 1A00     		movs	r2, r3
 664 0032 7B69     		ldr	r3, [r7, #20]
 665 0034 D318     		adds	r3, r2, r3
 666 0036 013B     		subs	r3, r3, #1
 667 0038 FB60     		str	r3, [r7, #12]
 597:Generated_Source\PSoC4/CapSense.c **** 
 598:Generated_Source\PSoC4/CapSense.c ****     /* Backup sensorEnableMask array */
 599:Generated_Source\PSoC4/CapSense.c ****     for(snsIndex = 0u; snsIndex < CapSense_TOTAL_SENSOR_MASK; snsIndex++)
 668              		.loc 1 599 0
 669 003a 0023     		movs	r3, #0
 670 003c 3B61     		str	r3, [r7, #16]
 671 003e 0BE0     		b	.L30
 672              	.L31:
 600:Generated_Source\PSoC4/CapSense.c ****     {
 601:Generated_Source\PSoC4/CapSense.c ****         /* Backup sensorEnableMask array */
 602:Generated_Source\PSoC4/CapSense.c ****         CapSense_sensorEnableMaskBackup[snsIndex] = CapSense_sensorEnableMask[snsIndex];
 673              		.loc 1 602 0 discriminator 3
 674 0040 234A     		ldr	r2, .L38+12
 675 0042 3B69     		ldr	r3, [r7, #16]
 676 0044 D318     		adds	r3, r2, r3
 677 0046 1978     		ldrb	r1, [r3]
 678 0048 224A     		ldr	r2, .L38+16
 679 004a 3B69     		ldr	r3, [r7, #16]
 680 004c D318     		adds	r3, r2, r3
 681 004e 0A1C     		adds	r2, r1, #0
 682 0050 1A70     		strb	r2, [r3]
 599:Generated_Source\PSoC4/CapSense.c ****     {
 683              		.loc 1 599 0 discriminator 3
 684 0052 3B69     		ldr	r3, [r7, #16]
 685 0054 0133     		adds	r3, r3, #1
 686 0056 3B61     		str	r3, [r7, #16]
 687              	.L30:
 599:Generated_Source\PSoC4/CapSense.c ****     {
 688              		.loc 1 599 0 is_stmt 0 discriminator 1
 689 0058 3B69     		ldr	r3, [r7, #16]
 690 005a 002B     		cmp	r3, #0
 691 005c F0D0     		beq	.L31
 603:Generated_Source\PSoC4/CapSense.c ****     }
 604:Generated_Source\PSoC4/CapSense.c **** 
 605:Generated_Source\PSoC4/CapSense.c ****     /* Update sensorEnableMask to scan the sensors that belong to widget */
 606:Generated_Source\PSoC4/CapSense.c ****     for(snsIndex = 0u; snsIndex < CapSense_TOTAL_SENSOR_COUNT; snsIndex++)
 692              		.loc 1 606 0 is_stmt 1
 693 005e 0023     		movs	r3, #0
 694 0060 3B61     		str	r3, [r7, #16]
 695 0062 1AE0     		b	.L32
 696              	.L35:
 607:Generated_Source\PSoC4/CapSense.c ****     {
 608:Generated_Source\PSoC4/CapSense.c ****         /* Update sensorEnableMask array bits to scan the widget only */
 609:Generated_Source\PSoC4/CapSense.c ****         if((snsIndex >= CapSense_sensorIndex) && (snsIndex <= lastSensor))
 697              		.loc 1 609 0
ARM GAS  C:\Users\PC\AppData\Local\Temp\cc3ehIEg.s 			page 24


 698 0064 184B     		ldr	r3, .L38+4
 699 0066 1B78     		ldrb	r3, [r3]
 700 0068 DBB2     		uxtb	r3, r3
 701 006a 1A00     		movs	r2, r3
 702 006c 3B69     		ldr	r3, [r7, #16]
 703 006e 9A42     		cmp	r2, r3
 704 0070 0AD8     		bhi	.L33
 705              		.loc 1 609 0 is_stmt 0 discriminator 1
 706 0072 3A69     		ldr	r2, [r7, #16]
 707 0074 FB68     		ldr	r3, [r7, #12]
 708 0076 9A42     		cmp	r2, r3
 709 0078 06D8     		bhi	.L33
 610:Generated_Source\PSoC4/CapSense.c ****         {
 611:Generated_Source\PSoC4/CapSense.c ****             /* Set sensor bit to scan */
 612:Generated_Source\PSoC4/CapSense.c ****             CapSense_SetBitValue(CapSense_sensorEnableMask, snsIndex, 1u);
 710              		.loc 1 612 0 is_stmt 1
 711 007a 3969     		ldr	r1, [r7, #16]
 712 007c 144B     		ldr	r3, .L38+12
 713 007e 0122     		movs	r2, #1
 714 0080 1800     		movs	r0, r3
 715 0082 FFF7FEFF 		bl	CapSense_SetBitValue
 716 0086 05E0     		b	.L34
 717              	.L33:
 613:Generated_Source\PSoC4/CapSense.c ****         }
 614:Generated_Source\PSoC4/CapSense.c ****         else
 615:Generated_Source\PSoC4/CapSense.c ****         {
 616:Generated_Source\PSoC4/CapSense.c ****             /* Reset sensor bit to do not scan */
 617:Generated_Source\PSoC4/CapSense.c ****             CapSense_SetBitValue(CapSense_sensorEnableMask, snsIndex, 0u);
 718              		.loc 1 617 0
 719 0088 3969     		ldr	r1, [r7, #16]
 720 008a 114B     		ldr	r3, .L38+12
 721 008c 0022     		movs	r2, #0
 722 008e 1800     		movs	r0, r3
 723 0090 FFF7FEFF 		bl	CapSense_SetBitValue
 724              	.L34:
 606:Generated_Source\PSoC4/CapSense.c ****     {
 725              		.loc 1 606 0 discriminator 2
 726 0094 3B69     		ldr	r3, [r7, #16]
 727 0096 0133     		adds	r3, r3, #1
 728 0098 3B61     		str	r3, [r7, #16]
 729              	.L32:
 606:Generated_Source\PSoC4/CapSense.c ****     {
 730              		.loc 1 606 0 is_stmt 0 discriminator 1
 731 009a 3B69     		ldr	r3, [r7, #16]
 732 009c 002B     		cmp	r3, #0
 733 009e E1D0     		beq	.L35
 618:Generated_Source\PSoC4/CapSense.c ****         }
 619:Generated_Source\PSoC4/CapSense.c ****     }
 620:Generated_Source\PSoC4/CapSense.c **** 
 621:Generated_Source\PSoC4/CapSense.c ****     /* Check end of scan condition */
 622:Generated_Source\PSoC4/CapSense.c ****     if(CapSense_sensorIndex < CapSense_TOTAL_SENSOR_COUNT)
 734              		.loc 1 622 0 is_stmt 1
 735 00a0 094B     		ldr	r3, .L38+4
 736 00a2 1B78     		ldrb	r3, [r3]
 737 00a4 DBB2     		uxtb	r3, r3
 738 00a6 002B     		cmp	r3, #0
 739 00a8 08D1     		bne	.L37
ARM GAS  C:\Users\PC\AppData\Local\Temp\cc3ehIEg.s 			page 25


 623:Generated_Source\PSoC4/CapSense.c ****     {
 624:Generated_Source\PSoC4/CapSense.c ****         /* Set widget busy bit in status/control variable*/
 625:Generated_Source\PSoC4/CapSense.c ****         CapSense_csdStatusVar = (CapSense_SW_STS_BUSY | CapSense_SW_CTRL_WIDGET_SCAN);
 740              		.loc 1 625 0
 741 00aa 0B4B     		ldr	r3, .L38+20
 742 00ac 4122     		movs	r2, #65
 743 00ae 1A70     		strb	r2, [r3]
 626:Generated_Source\PSoC4/CapSense.c ****         /* Scan first sensor of widget*/
 627:Generated_Source\PSoC4/CapSense.c ****         CapSense_PreScan((uint32)CapSense_sensorIndex);
 744              		.loc 1 627 0
 745 00b0 054B     		ldr	r3, .L38+4
 746 00b2 1B78     		ldrb	r3, [r3]
 747 00b4 DBB2     		uxtb	r3, r3
 748 00b6 1800     		movs	r0, r3
 749 00b8 FFF7FEFF 		bl	CapSense_PreScan
 750              	.L37:
 628:Generated_Source\PSoC4/CapSense.c ****     }
 629:Generated_Source\PSoC4/CapSense.c **** }
 751              		.loc 1 629 0
 752 00bc C046     		nop
 753 00be BD46     		mov	sp, r7
 754 00c0 06B0     		add	sp, sp, #24
 755              		@ sp needed
 756 00c2 80BD     		pop	{r7, pc}
 757              	.L39:
 758              		.align	2
 759              	.L38:
 760 00c4 00000000 		.word	CapSense_rawDataIndex
 761 00c8 00000000 		.word	CapSense_sensorIndex
 762 00cc 00000000 		.word	CapSense_numberOfSensors
 763 00d0 00000000 		.word	CapSense_sensorEnableMask
 764 00d4 00000000 		.word	CapSense_sensorEnableMaskBackup
 765 00d8 00000000 		.word	CapSense_csdStatusVar
 766              		.cfi_endproc
 767              	.LFE43:
 768              		.size	CapSense_ScanWidget, .-CapSense_ScanWidget
 769              		.section	.text.CapSense_ScanEnabledWidgets,"ax",%progbits
 770              		.align	2
 771              		.global	CapSense_ScanEnabledWidgets
 772              		.code	16
 773              		.thumb_func
 774              		.type	CapSense_ScanEnabledWidgets, %function
 775              	CapSense_ScanEnabledWidgets:
 776              	.LFB44:
 630:Generated_Source\PSoC4/CapSense.c **** #endif /* (0u != CapSense_CSHL_API_GENERATE) */
 631:Generated_Source\PSoC4/CapSense.c **** 
 632:Generated_Source\PSoC4/CapSense.c **** 
 633:Generated_Source\PSoC4/CapSense.c **** /*******************************************************************************
 634:Generated_Source\PSoC4/CapSense.c **** * Function Name: CapSense_ScanEnableWidgets
 635:Generated_Source\PSoC4/CapSense.c **** ********************************************************************************
 636:Generated_Source\PSoC4/CapSense.c **** *
 637:Generated_Source\PSoC4/CapSense.c **** * Summary:
 638:Generated_Source\PSoC4/CapSense.c **** *  This is the preferred method to scan all of the enabled widgets.
 639:Generated_Source\PSoC4/CapSense.c **** *  The API starts scanning a sensor within the enabled widgets.
 640:Generated_Source\PSoC4/CapSense.c **** *  The ISR continues scanning the sensors until all the enabled widgets are scanned.
 641:Generated_Source\PSoC4/CapSense.c **** *  Use of the ISR ensures this function is non-blocking.
 642:Generated_Source\PSoC4/CapSense.c **** *  All the widgets are enabled by default except proximity widgets.
ARM GAS  C:\Users\PC\AppData\Local\Temp\cc3ehIEg.s 			page 26


 643:Generated_Source\PSoC4/CapSense.c **** *  The proximity widgets must be manually enabled as their long scan time
 644:Generated_Source\PSoC4/CapSense.c **** *  is incompatible with a fast response required of other widget types.
 645:Generated_Source\PSoC4/CapSense.c **** *
 646:Generated_Source\PSoC4/CapSense.c **** * Parameters:
 647:Generated_Source\PSoC4/CapSense.c **** *  None
 648:Generated_Source\PSoC4/CapSense.c **** *
 649:Generated_Source\PSoC4/CapSense.c **** * Return:
 650:Generated_Source\PSoC4/CapSense.c **** *  None
 651:Generated_Source\PSoC4/CapSense.c **** *
 652:Generated_Source\PSoC4/CapSense.c **** * Global Variables:
 653:Generated_Source\PSoC4/CapSense.c **** *  CapSense_csdStatusVar - used to provide the status and mode of the scanning process.
 654:Generated_Source\PSoC4/CapSense.c **** *  Sets the busy status(scan in progress) and clears the single scan mode.
 655:Generated_Source\PSoC4/CapSense.c **** *  CapSense_sensorIndex - used to store a sensor scanning sensor number.
 656:Generated_Source\PSoC4/CapSense.c **** *  Sets to 0xFF and provided to function CapSense_FindNextSensor or
 657:Generated_Source\PSoC4/CapSense.c **** *
 658:Generated_Source\PSoC4/CapSense.c **** * Side Effects:
 659:Generated_Source\PSoC4/CapSense.c **** *  None
 660:Generated_Source\PSoC4/CapSense.c **** *
 661:Generated_Source\PSoC4/CapSense.c **** *******************************************************************************/
 662:Generated_Source\PSoC4/CapSense.c **** void CapSense_ScanEnabledWidgets(void)
 663:Generated_Source\PSoC4/CapSense.c **** {
 777              		.loc 1 663 0
 778              		.cfi_startproc
 779              		@ args = 0, pretend = 0, frame = 0
 780              		@ frame_needed = 1, uses_anonymous_args = 0
 781 0000 80B5     		push	{r7, lr}
 782              		.cfi_def_cfa_offset 8
 783              		.cfi_offset 7, -8
 784              		.cfi_offset 14, -4
 785 0002 00AF     		add	r7, sp, #0
 786              		.cfi_def_cfa_register 7
 664:Generated_Source\PSoC4/CapSense.c ****     /* Clears status/control variable and set sensorIndex */
 665:Generated_Source\PSoC4/CapSense.c ****     CapSense_csdStatusVar = 0u;
 787              		.loc 1 665 0
 788 0004 124B     		ldr	r3, .L43
 789 0006 0022     		movs	r2, #0
 790 0008 1A70     		strb	r2, [r3]
 666:Generated_Source\PSoC4/CapSense.c ****     CapSense_sensorIndex = 0xFFu;
 791              		.loc 1 666 0
 792 000a 124B     		ldr	r3, .L43+4
 793 000c FF22     		movs	r2, #255
 794 000e 1A70     		strb	r2, [r3]
 667:Generated_Source\PSoC4/CapSense.c **** 
 668:Generated_Source\PSoC4/CapSense.c ****     /* Find next sensor */
 669:Generated_Source\PSoC4/CapSense.c ****     CapSense_sensorIndex = (uint8)CapSense_FindNextSensor(CapSense_sensorIndex);
 795              		.loc 1 669 0
 796 0010 104B     		ldr	r3, .L43+4
 797 0012 1B78     		ldrb	r3, [r3]
 798 0014 DBB2     		uxtb	r3, r3
 799 0016 1800     		movs	r0, r3
 800 0018 FFF7FEFF 		bl	CapSense_FindNextSensor
 801 001c 0300     		movs	r3, r0
 802 001e 1A00     		movs	r2, r3
 803 0020 0C4B     		ldr	r3, .L43+4
 804 0022 1A70     		strb	r2, [r3]
 670:Generated_Source\PSoC4/CapSense.c **** 
 671:Generated_Source\PSoC4/CapSense.c ****     /* Check end of scan condition */
ARM GAS  C:\Users\PC\AppData\Local\Temp\cc3ehIEg.s 			page 27


 672:Generated_Source\PSoC4/CapSense.c ****     if(CapSense_sensorIndex < CapSense_TOTAL_SENSOR_COUNT)
 805              		.loc 1 672 0
 806 0024 0B4B     		ldr	r3, .L43+4
 807 0026 1B78     		ldrb	r3, [r3]
 808 0028 DBB2     		uxtb	r3, r3
 809 002a 002B     		cmp	r3, #0
 810 002c 0DD1     		bne	.L42
 673:Generated_Source\PSoC4/CapSense.c ****     {
 674:Generated_Source\PSoC4/CapSense.c ****         CapSense_csdStatusVar |= CapSense_SW_STS_BUSY;
 811              		.loc 1 674 0
 812 002e 084B     		ldr	r3, .L43
 813 0030 1B78     		ldrb	r3, [r3]
 814 0032 DBB2     		uxtb	r3, r3
 815 0034 0122     		movs	r2, #1
 816 0036 1343     		orrs	r3, r2
 817 0038 DAB2     		uxtb	r2, r3
 818 003a 054B     		ldr	r3, .L43
 819 003c 1A70     		strb	r2, [r3]
 675:Generated_Source\PSoC4/CapSense.c ****         CapSense_PreScan((uint32)CapSense_sensorIndex);
 820              		.loc 1 675 0
 821 003e 054B     		ldr	r3, .L43+4
 822 0040 1B78     		ldrb	r3, [r3]
 823 0042 DBB2     		uxtb	r3, r3
 824 0044 1800     		movs	r0, r3
 825 0046 FFF7FEFF 		bl	CapSense_PreScan
 826              	.L42:
 676:Generated_Source\PSoC4/CapSense.c ****     }
 677:Generated_Source\PSoC4/CapSense.c **** }
 827              		.loc 1 677 0
 828 004a C046     		nop
 829 004c BD46     		mov	sp, r7
 830              		@ sp needed
 831 004e 80BD     		pop	{r7, pc}
 832              	.L44:
 833              		.align	2
 834              	.L43:
 835 0050 00000000 		.word	CapSense_csdStatusVar
 836 0054 00000000 		.word	CapSense_sensorIndex
 837              		.cfi_endproc
 838              	.LFE44:
 839              		.size	CapSense_ScanEnabledWidgets, .-CapSense_ScanEnabledWidgets
 840              		.section	.text.CapSense_IsBusy,"ax",%progbits
 841              		.align	2
 842              		.global	CapSense_IsBusy
 843              		.code	16
 844              		.thumb_func
 845              		.type	CapSense_IsBusy, %function
 846              	CapSense_IsBusy:
 847              	.LFB45:
 678:Generated_Source\PSoC4/CapSense.c **** 
 679:Generated_Source\PSoC4/CapSense.c **** 
 680:Generated_Source\PSoC4/CapSense.c **** /*******************************************************************************
 681:Generated_Source\PSoC4/CapSense.c **** * Function Name: CapSense_IsBusy
 682:Generated_Source\PSoC4/CapSense.c **** ********************************************************************************
 683:Generated_Source\PSoC4/CapSense.c **** *
 684:Generated_Source\PSoC4/CapSense.c **** * Summary:
 685:Generated_Source\PSoC4/CapSense.c **** *  Returns the state of the CapSense component. 1 means that scanning in
ARM GAS  C:\Users\PC\AppData\Local\Temp\cc3ehIEg.s 			page 28


 686:Generated_Source\PSoC4/CapSense.c **** *  progress and 0 means that scanning is complete.
 687:Generated_Source\PSoC4/CapSense.c **** *
 688:Generated_Source\PSoC4/CapSense.c **** * Parameters:
 689:Generated_Source\PSoC4/CapSense.c **** *  None
 690:Generated_Source\PSoC4/CapSense.c **** *
 691:Generated_Source\PSoC4/CapSense.c **** * Return:
 692:Generated_Source\PSoC4/CapSense.c **** *  Returns the state of scanning. 1 - scanning in progress, 0 - scanning
 693:Generated_Source\PSoC4/CapSense.c **** *  completed.
 694:Generated_Source\PSoC4/CapSense.c **** *
 695:Generated_Source\PSoC4/CapSense.c **** * Global Variables:
 696:Generated_Source\PSoC4/CapSense.c **** *  CapSense_csdStatusVar - used to provide the status and mode of the scanning process.
 697:Generated_Source\PSoC4/CapSense.c **** *  Checks the busy status.
 698:Generated_Source\PSoC4/CapSense.c **** *
 699:Generated_Source\PSoC4/CapSense.c **** * Side Effects:
 700:Generated_Source\PSoC4/CapSense.c **** *  None
 701:Generated_Source\PSoC4/CapSense.c **** *
 702:Generated_Source\PSoC4/CapSense.c **** *******************************************************************************/
 703:Generated_Source\PSoC4/CapSense.c **** uint32 CapSense_IsBusy(void)
 704:Generated_Source\PSoC4/CapSense.c **** {
 848              		.loc 1 704 0
 849              		.cfi_startproc
 850              		@ args = 0, pretend = 0, frame = 0
 851              		@ frame_needed = 1, uses_anonymous_args = 0
 852 0000 80B5     		push	{r7, lr}
 853              		.cfi_def_cfa_offset 8
 854              		.cfi_offset 7, -8
 855              		.cfi_offset 14, -4
 856 0002 00AF     		add	r7, sp, #0
 857              		.cfi_def_cfa_register 7
 705:Generated_Source\PSoC4/CapSense.c ****     return ((uint32)((0u != (CapSense_csdStatusVar & CapSense_SW_STS_BUSY)) ? 1u : 0u));
 858              		.loc 1 705 0
 859 0004 044B     		ldr	r3, .L47
 860 0006 1B78     		ldrb	r3, [r3]
 861 0008 DBB2     		uxtb	r3, r3
 862 000a 1A00     		movs	r2, r3
 863 000c 0123     		movs	r3, #1
 864 000e 1340     		ands	r3, r2
 706:Generated_Source\PSoC4/CapSense.c **** }
 865              		.loc 1 706 0
 866 0010 1800     		movs	r0, r3
 867 0012 BD46     		mov	sp, r7
 868              		@ sp needed
 869 0014 80BD     		pop	{r7, pc}
 870              	.L48:
 871 0016 C046     		.align	2
 872              	.L47:
 873 0018 00000000 		.word	CapSense_csdStatusVar
 874              		.cfi_endproc
 875              	.LFE45:
 876              		.size	CapSense_IsBusy, .-CapSense_IsBusy
 877              		.section	.text.CapSense_ReadSensorRaw,"ax",%progbits
 878              		.align	2
 879              		.global	CapSense_ReadSensorRaw
 880              		.code	16
 881              		.thumb_func
 882              		.type	CapSense_ReadSensorRaw, %function
 883              	CapSense_ReadSensorRaw:
ARM GAS  C:\Users\PC\AppData\Local\Temp\cc3ehIEg.s 			page 29


 884              	.LFB46:
 707:Generated_Source\PSoC4/CapSense.c **** 
 708:Generated_Source\PSoC4/CapSense.c **** 
 709:Generated_Source\PSoC4/CapSense.c **** /*******************************************************************************
 710:Generated_Source\PSoC4/CapSense.c **** * Function Name: CapSense_ReadSensorRaw
 711:Generated_Source\PSoC4/CapSense.c **** ********************************************************************************
 712:Generated_Source\PSoC4/CapSense.c **** *
 713:Generated_Source\PSoC4/CapSense.c **** * Summary:
 714:Generated_Source\PSoC4/CapSense.c **** *  Returns sensor raw data from the global CapSense_sensorRaw[ ] array.
 715:Generated_Source\PSoC4/CapSense.c **** *  Each scan sensor has a unique number within the sensor array.
 716:Generated_Source\PSoC4/CapSense.c **** *  This number is assigned by the CapSense customizer in sequence.
 717:Generated_Source\PSoC4/CapSense.c **** *  Raw data can be used to perform calculations outside of the CapSense
 718:Generated_Source\PSoC4/CapSense.c **** *  provided framework.
 719:Generated_Source\PSoC4/CapSense.c **** *
 720:Generated_Source\PSoC4/CapSense.c **** * Parameters:
 721:Generated_Source\PSoC4/CapSense.c **** *  sensor:  Sensor number.
 722:Generated_Source\PSoC4/CapSense.c **** *
 723:Generated_Source\PSoC4/CapSense.c **** * Return:
 724:Generated_Source\PSoC4/CapSense.c **** *  Returns the current raw data value for a defined sensor number.
 725:Generated_Source\PSoC4/CapSense.c **** *
 726:Generated_Source\PSoC4/CapSense.c **** * Global Variables:
 727:Generated_Source\PSoC4/CapSense.c **** *  CapSense_sensorRaw[] - used to store sensors raw data.
 728:Generated_Source\PSoC4/CapSense.c **** *
 729:Generated_Source\PSoC4/CapSense.c **** * Side Effects:
 730:Generated_Source\PSoC4/CapSense.c **** *  None
 731:Generated_Source\PSoC4/CapSense.c **** *
 732:Generated_Source\PSoC4/CapSense.c **** *******************************************************************************/
 733:Generated_Source\PSoC4/CapSense.c **** uint16 CapSense_ReadSensorRaw(uint32 sensor)
 734:Generated_Source\PSoC4/CapSense.c **** {
 885              		.loc 1 734 0
 886              		.cfi_startproc
 887              		@ args = 0, pretend = 0, frame = 8
 888              		@ frame_needed = 1, uses_anonymous_args = 0
 889 0000 80B5     		push	{r7, lr}
 890              		.cfi_def_cfa_offset 8
 891              		.cfi_offset 7, -8
 892              		.cfi_offset 14, -4
 893 0002 82B0     		sub	sp, sp, #8
 894              		.cfi_def_cfa_offset 16
 895 0004 00AF     		add	r7, sp, #0
 896              		.cfi_def_cfa_register 7
 897 0006 7860     		str	r0, [r7, #4]
 735:Generated_Source\PSoC4/CapSense.c ****     return CapSense_sensorRaw[sensor];
 898              		.loc 1 735 0
 899 0008 034B     		ldr	r3, .L51
 900 000a 7A68     		ldr	r2, [r7, #4]
 901 000c 5200     		lsls	r2, r2, #1
 902 000e D35A     		ldrh	r3, [r2, r3]
 736:Generated_Source\PSoC4/CapSense.c **** }
 903              		.loc 1 736 0
 904 0010 1800     		movs	r0, r3
 905 0012 BD46     		mov	sp, r7
 906 0014 02B0     		add	sp, sp, #8
 907              		@ sp needed
 908 0016 80BD     		pop	{r7, pc}
 909              	.L52:
 910              		.align	2
ARM GAS  C:\Users\PC\AppData\Local\Temp\cc3ehIEg.s 			page 30


 911              	.L51:
 912 0018 00000000 		.word	CapSense_sensorRaw
 913              		.cfi_endproc
 914              	.LFE46:
 915              		.size	CapSense_ReadSensorRaw, .-CapSense_ReadSensorRaw
 916              		.section	.text.CapSense_WriteSensorRaw,"ax",%progbits
 917              		.align	2
 918              		.global	CapSense_WriteSensorRaw
 919              		.code	16
 920              		.thumb_func
 921              		.type	CapSense_WriteSensorRaw, %function
 922              	CapSense_WriteSensorRaw:
 923              	.LFB47:
 737:Generated_Source\PSoC4/CapSense.c **** 
 738:Generated_Source\PSoC4/CapSense.c **** 
 739:Generated_Source\PSoC4/CapSense.c **** /*******************************************************************************
 740:Generated_Source\PSoC4/CapSense.c **** * Function Name: CapSense_WriteSensorRaw
 741:Generated_Source\PSoC4/CapSense.c **** ********************************************************************************
 742:Generated_Source\PSoC4/CapSense.c **** *
 743:Generated_Source\PSoC4/CapSense.c **** * Summary:
 744:Generated_Source\PSoC4/CapSense.c **** *  This API writes the raw count value passed as an argument to the sensor Raw count array.
 745:Generated_Source\PSoC4/CapSense.c **** *
 746:Generated_Source\PSoC4/CapSense.c **** * Parameters:
 747:Generated_Source\PSoC4/CapSense.c **** *  sensor:  Sensor number.
 748:Generated_Source\PSoC4/CapSense.c **** *  value: Raw count value.
 749:Generated_Source\PSoC4/CapSense.c **** *
 750:Generated_Source\PSoC4/CapSense.c **** * Global Variables:
 751:Generated_Source\PSoC4/CapSense.c **** *  CapSense_sensorRaw[] - used to store sensors raw data.
 752:Generated_Source\PSoC4/CapSense.c **** *
 753:Generated_Source\PSoC4/CapSense.c **** * Return:
 754:Generated_Source\PSoC4/CapSense.c **** *  None
 755:Generated_Source\PSoC4/CapSense.c **** *
 756:Generated_Source\PSoC4/CapSense.c **** * Side Effects:
 757:Generated_Source\PSoC4/CapSense.c **** *  None
 758:Generated_Source\PSoC4/CapSense.c **** *
 759:Generated_Source\PSoC4/CapSense.c **** *******************************************************************************/
 760:Generated_Source\PSoC4/CapSense.c **** void CapSense_WriteSensorRaw(uint32 sensor, uint16 value)
 761:Generated_Source\PSoC4/CapSense.c **** {
 924              		.loc 1 761 0
 925              		.cfi_startproc
 926              		@ args = 0, pretend = 0, frame = 8
 927              		@ frame_needed = 1, uses_anonymous_args = 0
 928 0000 80B5     		push	{r7, lr}
 929              		.cfi_def_cfa_offset 8
 930              		.cfi_offset 7, -8
 931              		.cfi_offset 14, -4
 932 0002 82B0     		sub	sp, sp, #8
 933              		.cfi_def_cfa_offset 16
 934 0004 00AF     		add	r7, sp, #0
 935              		.cfi_def_cfa_register 7
 936 0006 7860     		str	r0, [r7, #4]
 937 0008 0A00     		movs	r2, r1
 938 000a BB1C     		adds	r3, r7, #2
 939 000c 1A80     		strh	r2, [r3]
 762:Generated_Source\PSoC4/CapSense.c ****     CapSense_sensorRaw[sensor] = value;
 940              		.loc 1 762 0
 941 000e 054B     		ldr	r3, .L54
ARM GAS  C:\Users\PC\AppData\Local\Temp\cc3ehIEg.s 			page 31


 942 0010 7A68     		ldr	r2, [r7, #4]
 943 0012 5200     		lsls	r2, r2, #1
 944 0014 B91C     		adds	r1, r7, #2
 945 0016 0988     		ldrh	r1, [r1]
 946 0018 D152     		strh	r1, [r2, r3]
 763:Generated_Source\PSoC4/CapSense.c **** }
 947              		.loc 1 763 0
 948 001a C046     		nop
 949 001c BD46     		mov	sp, r7
 950 001e 02B0     		add	sp, sp, #8
 951              		@ sp needed
 952 0020 80BD     		pop	{r7, pc}
 953              	.L55:
 954 0022 C046     		.align	2
 955              	.L54:
 956 0024 00000000 		.word	CapSense_sensorRaw
 957              		.cfi_endproc
 958              	.LFE47:
 959              		.size	CapSense_WriteSensorRaw, .-CapSense_WriteSensorRaw
 960              		.section	.text.CapSense_SetScanResolution,"ax",%progbits
 961              		.align	2
 962              		.global	CapSense_SetScanResolution
 963              		.code	16
 964              		.thumb_func
 965              		.type	CapSense_SetScanResolution, %function
 966              	CapSense_SetScanResolution:
 967              	.LFB48:
 764:Generated_Source\PSoC4/CapSense.c **** 
 765:Generated_Source\PSoC4/CapSense.c **** 
 766:Generated_Source\PSoC4/CapSense.c **** #if (CapSense_TUNING_METHOD != CapSense__TUNING_NONE)
 767:Generated_Source\PSoC4/CapSense.c ****     /*******************************************************************************
 768:Generated_Source\PSoC4/CapSense.c ****     * Function Name: CapSense_SetScanResolution
 769:Generated_Source\PSoC4/CapSense.c ****     ********************************************************************************
 770:Generated_Source\PSoC4/CapSense.c ****     *
 771:Generated_Source\PSoC4/CapSense.c ****     * Summary:
 772:Generated_Source\PSoC4/CapSense.c ****     *  Sets a value of the sensor scan resolution for a widget.
 773:Generated_Source\PSoC4/CapSense.c ****     *  The MIN resolution can be set 8-bit. The MAX Resolution can be set 16 bit.
 774:Generated_Source\PSoC4/CapSense.c ****     *  This function is not available for the tuning mode "None".
 775:Generated_Source\PSoC4/CapSense.c ****     *
 776:Generated_Source\PSoC4/CapSense.c ****     * Parameters:
 777:Generated_Source\PSoC4/CapSense.c ****     *  widget:     Widget index.
 778:Generated_Source\PSoC4/CapSense.c ****     *  resolution: Represents the resolution value. The following defines which are available in th
 779:Generated_Source\PSoC4/CapSense.c ****     *              CapSense.h file should be used:
 780:Generated_Source\PSoC4/CapSense.c ****     *              CapSense_RESOLUTION_6_BITS
 781:Generated_Source\PSoC4/CapSense.c ****     *              CapSense_RESOLUTION_7_BITS
 782:Generated_Source\PSoC4/CapSense.c ****     *              CapSense_RESOLUTION_8_BITS
 783:Generated_Source\PSoC4/CapSense.c ****     *              CapSense_RESOLUTION_9_BITS
 784:Generated_Source\PSoC4/CapSense.c ****     *              CapSense_RESOLUTION_10_BITS
 785:Generated_Source\PSoC4/CapSense.c ****     *              CapSense_RESOLUTION_11_BITS
 786:Generated_Source\PSoC4/CapSense.c ****     *              CapSense_RESOLUTION_12_BITS
 787:Generated_Source\PSoC4/CapSense.c ****     *              CapSense_RESOLUTION_13_BITS
 788:Generated_Source\PSoC4/CapSense.c ****     *              CapSense_RESOLUTION_14_BITS
 789:Generated_Source\PSoC4/CapSense.c ****     *              CapSense_RESOLUTION_15_BITS
 790:Generated_Source\PSoC4/CapSense.c ****     *              CapSense_RESOLUTION_16_BITS
 791:Generated_Source\PSoC4/CapSense.c ****     *
 792:Generated_Source\PSoC4/CapSense.c ****     * Return:
 793:Generated_Source\PSoC4/CapSense.c ****     *  None
ARM GAS  C:\Users\PC\AppData\Local\Temp\cc3ehIEg.s 			page 32


 794:Generated_Source\PSoC4/CapSense.c ****     *
 795:Generated_Source\PSoC4/CapSense.c ****     * Global Variables:
 796:Generated_Source\PSoC4/CapSense.c ****     *  CapSense_widgetResolution[] - used to store scan resolution of each widget.
 797:Generated_Source\PSoC4/CapSense.c ****     *
 798:Generated_Source\PSoC4/CapSense.c ****     * Side Effects:
 799:Generated_Source\PSoC4/CapSense.c ****     *  None
 800:Generated_Source\PSoC4/CapSense.c ****     *
 801:Generated_Source\PSoC4/CapSense.c ****     *******************************************************************************/
 802:Generated_Source\PSoC4/CapSense.c ****     void CapSense_SetScanResolution(uint32 widget, uint32 resolution)
 803:Generated_Source\PSoC4/CapSense.c ****     {
 968              		.loc 1 803 0
 969              		.cfi_startproc
 970              		@ args = 0, pretend = 0, frame = 8
 971              		@ frame_needed = 1, uses_anonymous_args = 0
 972 0000 80B5     		push	{r7, lr}
 973              		.cfi_def_cfa_offset 8
 974              		.cfi_offset 7, -8
 975              		.cfi_offset 14, -4
 976 0002 82B0     		sub	sp, sp, #8
 977              		.cfi_def_cfa_offset 16
 978 0004 00AF     		add	r7, sp, #0
 979              		.cfi_def_cfa_register 7
 980 0006 7860     		str	r0, [r7, #4]
 981 0008 3960     		str	r1, [r7]
 804:Generated_Source\PSoC4/CapSense.c ****         CapSense_widgetResolution[widget] = resolution;
 982              		.loc 1 804 0
 983 000a 044B     		ldr	r3, .L57
 984 000c 7A68     		ldr	r2, [r7, #4]
 985 000e 9200     		lsls	r2, r2, #2
 986 0010 3968     		ldr	r1, [r7]
 987 0012 D150     		str	r1, [r2, r3]
 805:Generated_Source\PSoC4/CapSense.c ****     }
 988              		.loc 1 805 0
 989 0014 C046     		nop
 990 0016 BD46     		mov	sp, r7
 991 0018 02B0     		add	sp, sp, #8
 992              		@ sp needed
 993 001a 80BD     		pop	{r7, pc}
 994              	.L58:
 995              		.align	2
 996              	.L57:
 997 001c 00000000 		.word	CapSense_widgetResolution
 998              		.cfi_endproc
 999              	.LFE48:
 1000              		.size	CapSense_SetScanResolution, .-CapSense_SetScanResolution
 1001              		.section	.text.CapSense_GetScanResolution,"ax",%progbits
 1002              		.align	2
 1003              		.global	CapSense_GetScanResolution
 1004              		.code	16
 1005              		.thumb_func
 1006              		.type	CapSense_GetScanResolution, %function
 1007              	CapSense_GetScanResolution:
 1008              	.LFB49:
 806:Generated_Source\PSoC4/CapSense.c **** #endif /* (CapSense_TUNING_METHOD != CapSense__TUNING_NONE) */
 807:Generated_Source\PSoC4/CapSense.c **** 
 808:Generated_Source\PSoC4/CapSense.c **** 
 809:Generated_Source\PSoC4/CapSense.c **** /*******************************************************************************
ARM GAS  C:\Users\PC\AppData\Local\Temp\cc3ehIEg.s 			page 33


 810:Generated_Source\PSoC4/CapSense.c **** * Function Name: CapSense_GetScanResolution
 811:Generated_Source\PSoC4/CapSense.c **** ********************************************************************************
 812:Generated_Source\PSoC4/CapSense.c **** *
 813:Generated_Source\PSoC4/CapSense.c **** * Summary:
 814:Generated_Source\PSoC4/CapSense.c **** *  Returns the resolution value for the appropriate sensor.
 815:Generated_Source\PSoC4/CapSense.c **** *  This function is not available for tuning mode "None".
 816:Generated_Source\PSoC4/CapSense.c **** *
 817:Generated_Source\PSoC4/CapSense.c **** * Parameters:
 818:Generated_Source\PSoC4/CapSense.c **** *  widget:     Widget index.
 819:Generated_Source\PSoC4/CapSense.c **** *
 820:Generated_Source\PSoC4/CapSense.c **** * Return:
 821:Generated_Source\PSoC4/CapSense.c **** *  resolution: Returns the resolution value for the appropriate sensor.
 822:Generated_Source\PSoC4/CapSense.c **** *              The resolution values are defined in the CapSense.h file
 823:Generated_Source\PSoC4/CapSense.c **** *              The defines are encountered below:
 824:Generated_Source\PSoC4/CapSense.c **** *              CapSense_RESOLUTION_6_BITS
 825:Generated_Source\PSoC4/CapSense.c **** *              CapSense_RESOLUTION_7_BITS
 826:Generated_Source\PSoC4/CapSense.c **** *              CapSense_RESOLUTION_8_BITS
 827:Generated_Source\PSoC4/CapSense.c **** *              CapSense_RESOLUTION_9_BITS
 828:Generated_Source\PSoC4/CapSense.c **** *              CapSense_RESOLUTION_10_BITS
 829:Generated_Source\PSoC4/CapSense.c **** *              CapSense_RESOLUTION_11_BITS
 830:Generated_Source\PSoC4/CapSense.c **** *              CapSense_RESOLUTION_12_BITS
 831:Generated_Source\PSoC4/CapSense.c **** *              CapSense_RESOLUTION_13_BITS
 832:Generated_Source\PSoC4/CapSense.c **** *              CapSense_RESOLUTION_14_BITS
 833:Generated_Source\PSoC4/CapSense.c **** *              CapSense_RESOLUTION_15_BITS
 834:Generated_Source\PSoC4/CapSense.c **** *              CapSense_RESOLUTION_16_BITS
 835:Generated_Source\PSoC4/CapSense.c **** *
 836:Generated_Source\PSoC4/CapSense.c **** * Global Variables:
 837:Generated_Source\PSoC4/CapSense.c **** *  CapSense_widgetResolution[] - used to store scan resolution of every widget.
 838:Generated_Source\PSoC4/CapSense.c **** *
 839:Generated_Source\PSoC4/CapSense.c **** * Side Effects:
 840:Generated_Source\PSoC4/CapSense.c **** *  None
 841:Generated_Source\PSoC4/CapSense.c **** *
 842:Generated_Source\PSoC4/CapSense.c **** *******************************************************************************/
 843:Generated_Source\PSoC4/CapSense.c **** uint32 CapSense_GetScanResolution(uint32 widget)
 844:Generated_Source\PSoC4/CapSense.c **** {
 1009              		.loc 1 844 0
 1010              		.cfi_startproc
 1011              		@ args = 0, pretend = 0, frame = 8
 1012              		@ frame_needed = 1, uses_anonymous_args = 0
 1013 0000 80B5     		push	{r7, lr}
 1014              		.cfi_def_cfa_offset 8
 1015              		.cfi_offset 7, -8
 1016              		.cfi_offset 14, -4
 1017 0002 82B0     		sub	sp, sp, #8
 1018              		.cfi_def_cfa_offset 16
 1019 0004 00AF     		add	r7, sp, #0
 1020              		.cfi_def_cfa_register 7
 1021 0006 7860     		str	r0, [r7, #4]
 845:Generated_Source\PSoC4/CapSense.c ****     return(CapSense_widgetResolution[widget]);
 1022              		.loc 1 845 0
 1023 0008 034B     		ldr	r3, .L61
 1024 000a 7A68     		ldr	r2, [r7, #4]
 1025 000c 9200     		lsls	r2, r2, #2
 1026 000e D358     		ldr	r3, [r2, r3]
 846:Generated_Source\PSoC4/CapSense.c **** }
 1027              		.loc 1 846 0
 1028 0010 1800     		movs	r0, r3
ARM GAS  C:\Users\PC\AppData\Local\Temp\cc3ehIEg.s 			page 34


 1029 0012 BD46     		mov	sp, r7
 1030 0014 02B0     		add	sp, sp, #8
 1031              		@ sp needed
 1032 0016 80BD     		pop	{r7, pc}
 1033              	.L62:
 1034              		.align	2
 1035              	.L61:
 1036 0018 00000000 		.word	CapSense_widgetResolution
 1037              		.cfi_endproc
 1038              	.LFE49:
 1039              		.size	CapSense_GetScanResolution, .-CapSense_GetScanResolution
 1040              		.section	.text.CapSense_ClearSensors,"ax",%progbits
 1041              		.align	2
 1042              		.global	CapSense_ClearSensors
 1043              		.code	16
 1044              		.thumb_func
 1045              		.type	CapSense_ClearSensors, %function
 1046              	CapSense_ClearSensors:
 1047              	.LFB50:
 847:Generated_Source\PSoC4/CapSense.c **** 
 848:Generated_Source\PSoC4/CapSense.c **** 
 849:Generated_Source\PSoC4/CapSense.c **** /*******************************************************************************
 850:Generated_Source\PSoC4/CapSense.c **** * Function Name: CapSense_ClearSensors
 851:Generated_Source\PSoC4/CapSense.c **** ********************************************************************************
 852:Generated_Source\PSoC4/CapSense.c **** *
 853:Generated_Source\PSoC4/CapSense.c **** * Summary:
 854:Generated_Source\PSoC4/CapSense.c **** *  Resets all the sensors to the non-sampling state by sequentially disconnecting
 855:Generated_Source\PSoC4/CapSense.c **** *  all the sensors from Analog MUX Bus and putting them to an inactive state.
 856:Generated_Source\PSoC4/CapSense.c **** *
 857:Generated_Source\PSoC4/CapSense.c **** * Parameters:
 858:Generated_Source\PSoC4/CapSense.c **** *  None
 859:Generated_Source\PSoC4/CapSense.c **** *
 860:Generated_Source\PSoC4/CapSense.c **** * Return:
 861:Generated_Source\PSoC4/CapSense.c **** *  None
 862:Generated_Source\PSoC4/CapSense.c **** *
 863:Generated_Source\PSoC4/CapSense.c **** * Global Variables:
 864:Generated_Source\PSoC4/CapSense.c **** *  None
 865:Generated_Source\PSoC4/CapSense.c **** *
 866:Generated_Source\PSoC4/CapSense.c **** * Side Effects:
 867:Generated_Source\PSoC4/CapSense.c **** *  None
 868:Generated_Source\PSoC4/CapSense.c **** *
 869:Generated_Source\PSoC4/CapSense.c **** *******************************************************************************/
 870:Generated_Source\PSoC4/CapSense.c **** void CapSense_ClearSensors(void)
 871:Generated_Source\PSoC4/CapSense.c **** {
 1048              		.loc 1 871 0
 1049              		.cfi_startproc
 1050              		@ args = 0, pretend = 0, frame = 8
 1051              		@ frame_needed = 1, uses_anonymous_args = 0
 1052 0000 80B5     		push	{r7, lr}
 1053              		.cfi_def_cfa_offset 8
 1054              		.cfi_offset 7, -8
 1055              		.cfi_offset 14, -4
 1056 0002 82B0     		sub	sp, sp, #8
 1057              		.cfi_def_cfa_offset 16
 1058 0004 00AF     		add	r7, sp, #0
 1059              		.cfi_def_cfa_register 7
 872:Generated_Source\PSoC4/CapSense.c ****     uint32 snsIndex;
ARM GAS  C:\Users\PC\AppData\Local\Temp\cc3ehIEg.s 			page 35


 873:Generated_Source\PSoC4/CapSense.c **** 
 874:Generated_Source\PSoC4/CapSense.c ****     for (snsIndex = 0u; snsIndex < CapSense_TOTAL_SENSOR_COUNT; snsIndex++)
 1060              		.loc 1 874 0
 1061 0006 0023     		movs	r3, #0
 1062 0008 7B60     		str	r3, [r7, #4]
 1063 000a 06E0     		b	.L64
 1064              	.L65:
 875:Generated_Source\PSoC4/CapSense.c ****     {
 876:Generated_Source\PSoC4/CapSense.c ****         CapSense_DisableScanSlot(snsIndex);
 1065              		.loc 1 876 0 discriminator 3
 1066 000c 7B68     		ldr	r3, [r7, #4]
 1067 000e 1800     		movs	r0, r3
 1068 0010 FFF7FEFF 		bl	CapSense_DisableSensor
 874:Generated_Source\PSoC4/CapSense.c ****     {
 1069              		.loc 1 874 0 discriminator 3
 1070 0014 7B68     		ldr	r3, [r7, #4]
 1071 0016 0133     		adds	r3, r3, #1
 1072 0018 7B60     		str	r3, [r7, #4]
 1073              	.L64:
 874:Generated_Source\PSoC4/CapSense.c ****     {
 1074              		.loc 1 874 0 is_stmt 0 discriminator 1
 1075 001a 7B68     		ldr	r3, [r7, #4]
 1076 001c 002B     		cmp	r3, #0
 1077 001e F5D0     		beq	.L65
 877:Generated_Source\PSoC4/CapSense.c ****     }
 878:Generated_Source\PSoC4/CapSense.c **** }
 1078              		.loc 1 878 0 is_stmt 1
 1079 0020 C046     		nop
 1080 0022 BD46     		mov	sp, r7
 1081 0024 02B0     		add	sp, sp, #8
 1082              		@ sp needed
 1083 0026 80BD     		pop	{r7, pc}
 1084              		.cfi_endproc
 1085              	.LFE50:
 1086              		.size	CapSense_ClearSensors, .-CapSense_ClearSensors
 1087              		.section	.text.CapSense_EnableSensor,"ax",%progbits
 1088              		.align	2
 1089              		.global	CapSense_EnableSensor
 1090              		.code	16
 1091              		.thumb_func
 1092              		.type	CapSense_EnableSensor, %function
 1093              	CapSense_EnableSensor:
 1094              	.LFB51:
 879:Generated_Source\PSoC4/CapSense.c **** 
 880:Generated_Source\PSoC4/CapSense.c **** 
 881:Generated_Source\PSoC4/CapSense.c **** #if (CapSense_IS_COMPLEX_SCANSLOTS)
 882:Generated_Source\PSoC4/CapSense.c ****     /*******************************************************************************
 883:Generated_Source\PSoC4/CapSense.c ****     * Function Name: CapSense_EnableScanSlot
 884:Generated_Source\PSoC4/CapSense.c ****     ********************************************************************************
 885:Generated_Source\PSoC4/CapSense.c ****     *
 886:Generated_Source\PSoC4/CapSense.c ****     * Summary:
 887:Generated_Source\PSoC4/CapSense.c ****     *  Configures the selected slot to measure during the next measurement
 888:Generated_Source\PSoC4/CapSense.c ****     *  cycle. The corresponding pin/pins are set to Analog High-Z mode and
 889:Generated_Source\PSoC4/CapSense.c ****     *  connected to the Analog Mux Bus. This also enables the comparator function.
 890:Generated_Source\PSoC4/CapSense.c ****     *
 891:Generated_Source\PSoC4/CapSense.c ****     * Parameters:
 892:Generated_Source\PSoC4/CapSense.c ****     *  slot:  Slot number.
ARM GAS  C:\Users\PC\AppData\Local\Temp\cc3ehIEg.s 			page 36


 893:Generated_Source\PSoC4/CapSense.c ****     *
 894:Generated_Source\PSoC4/CapSense.c ****     * Return:
 895:Generated_Source\PSoC4/CapSense.c ****     *  None
 896:Generated_Source\PSoC4/CapSense.c ****     *
 897:Generated_Source\PSoC4/CapSense.c ****     * Global Constants:
 898:Generated_Source\PSoC4/CapSense.c ****     *  CapSense_portTable[]  - used to store the port number that pin
 899:Generated_Source\PSoC4/CapSense.c ****     *  belongs to for each sensor.
 900:Generated_Source\PSoC4/CapSense.c ****     *  CapSense_maskTable[]  - used to store the pin within the port for
 901:Generated_Source\PSoC4/CapSense.c ****     *  each sensor.
 902:Generated_Source\PSoC4/CapSense.c ****     *  CapSense_indexTable[] - used to store indexes of complex sensors.
 903:Generated_Source\PSoC4/CapSense.c ****     *  The offset and position in this array are stored in a port and mask table for
 904:Generated_Source\PSoC4/CapSense.c ****     *  complex sensors.
 905:Generated_Source\PSoC4/CapSense.c ****     *  Bit 7 (msb) is used to define the sensor type: single or complex.
 906:Generated_Source\PSoC4/CapSense.c ****     *
 907:Generated_Source\PSoC4/CapSense.c ****     * Side Effects:
 908:Generated_Source\PSoC4/CapSense.c ****     *  None
 909:Generated_Source\PSoC4/CapSense.c ****     *
 910:Generated_Source\PSoC4/CapSense.c ****     *******************************************************************************/
 911:Generated_Source\PSoC4/CapSense.c ****     void CapSense_EnableScanSlot(uint32 slot)
 912:Generated_Source\PSoC4/CapSense.c ****     {
 913:Generated_Source\PSoC4/CapSense.c ****         uint8 j;
 914:Generated_Source\PSoC4/CapSense.c ****         uint8 snsNumber;
 915:Generated_Source\PSoC4/CapSense.c ****         const uint8 *index;
 916:Generated_Source\PSoC4/CapSense.c ****         /* Read sensor type: single or complex */
 917:Generated_Source\PSoC4/CapSense.c ****         uint8 snsType = CapSense_portTable[slot];
 918:Generated_Source\PSoC4/CapSense.c **** 
 919:Generated_Source\PSoC4/CapSense.c ****         /* Check if sensor is complex */
 920:Generated_Source\PSoC4/CapSense.c ****         if ((snsType & CapSense_COMPLEX_SS_FLAG) == 0u)
 921:Generated_Source\PSoC4/CapSense.c ****         {
 922:Generated_Source\PSoC4/CapSense.c ****             /* Enable sensor (single) */
 923:Generated_Source\PSoC4/CapSense.c ****             CapSense_EnableSensor(slot);
 924:Generated_Source\PSoC4/CapSense.c ****         }
 925:Generated_Source\PSoC4/CapSense.c ****         else
 926:Generated_Source\PSoC4/CapSense.c ****         {
 927:Generated_Source\PSoC4/CapSense.c ****             /* Enable complex sensor */
 928:Generated_Source\PSoC4/CapSense.c ****             snsType &= ~CapSense_COMPLEX_SS_FLAG;
 929:Generated_Source\PSoC4/CapSense.c ****             index = &CapSense_indexTable[snsType];
 930:Generated_Source\PSoC4/CapSense.c ****             snsNumber = CapSense_maskTable[slot];
 931:Generated_Source\PSoC4/CapSense.c **** 
 932:Generated_Source\PSoC4/CapSense.c ****             for (j = 0u; j < snsNumber; j++)
 933:Generated_Source\PSoC4/CapSense.c ****             {
 934:Generated_Source\PSoC4/CapSense.c ****                 CapSense_EnableSensor(index[j]);
 935:Generated_Source\PSoC4/CapSense.c ****             }
 936:Generated_Source\PSoC4/CapSense.c ****         }
 937:Generated_Source\PSoC4/CapSense.c ****     }
 938:Generated_Source\PSoC4/CapSense.c **** 
 939:Generated_Source\PSoC4/CapSense.c **** 
 940:Generated_Source\PSoC4/CapSense.c ****     /*******************************************************************************
 941:Generated_Source\PSoC4/CapSense.c ****     * Function Name: CapSense_DisableScanSlot
 942:Generated_Source\PSoC4/CapSense.c ****     ********************************************************************************
 943:Generated_Source\PSoC4/CapSense.c ****     *
 944:Generated_Source\PSoC4/CapSense.c ****     * Summary:
 945:Generated_Source\PSoC4/CapSense.c ****     *  Disables the selected slot. The corresponding pin/pins is/are disconnected
 946:Generated_Source\PSoC4/CapSense.c ****     *  from the Analog Mux Bus and connected to GND, High_Z or Shield electrode.
 947:Generated_Source\PSoC4/CapSense.c ****     *
 948:Generated_Source\PSoC4/CapSense.c ****     * Parameters:
 949:Generated_Source\PSoC4/CapSense.c ****     *  slot:  Slot number.
ARM GAS  C:\Users\PC\AppData\Local\Temp\cc3ehIEg.s 			page 37


 950:Generated_Source\PSoC4/CapSense.c ****     *
 951:Generated_Source\PSoC4/CapSense.c ****     * Return:
 952:Generated_Source\PSoC4/CapSense.c ****     *  None
 953:Generated_Source\PSoC4/CapSense.c ****     *
 954:Generated_Source\PSoC4/CapSense.c ****     * Global Variables:
 955:Generated_Source\PSoC4/CapSense.c ****     *  CapSense_portTable[]  - used to store the port number that pin
 956:Generated_Source\PSoC4/CapSense.c ****     *  belongs to for each sensor.
 957:Generated_Source\PSoC4/CapSense.c ****     *  CapSense_maskTable[]  - used to store the pin within the port for
 958:Generated_Source\PSoC4/CapSense.c ****     *  each sensor.
 959:Generated_Source\PSoC4/CapSense.c ****     *  CapSense_indexTable[] - used to store indexes of complex sensors.
 960:Generated_Source\PSoC4/CapSense.c ****     *  The offset and position in this array are stored in a port and mask table for
 961:Generated_Source\PSoC4/CapSense.c ****     *  complex sensors.
 962:Generated_Source\PSoC4/CapSense.c ****     *  7bit(msb) is used to define the sensor type: single or complex.
 963:Generated_Source\PSoC4/CapSense.c ****     *
 964:Generated_Source\PSoC4/CapSense.c ****     * Side Effects:
 965:Generated_Source\PSoC4/CapSense.c ****     *  None
 966:Generated_Source\PSoC4/CapSense.c ****     *
 967:Generated_Source\PSoC4/CapSense.c ****     *******************************************************************************/
 968:Generated_Source\PSoC4/CapSense.c ****     void CapSense_DisableScanSlot(uint32 slot)
 969:Generated_Source\PSoC4/CapSense.c ****     {
 970:Generated_Source\PSoC4/CapSense.c ****         uint8 j;
 971:Generated_Source\PSoC4/CapSense.c ****         uint8 snsNumber;
 972:Generated_Source\PSoC4/CapSense.c ****         const uint8 *index;
 973:Generated_Source\PSoC4/CapSense.c **** 
 974:Generated_Source\PSoC4/CapSense.c ****         /* Read sensor type: single or complex */
 975:Generated_Source\PSoC4/CapSense.c ****         uint8 snsType = CapSense_portTable[slot];
 976:Generated_Source\PSoC4/CapSense.c **** 
 977:Generated_Source\PSoC4/CapSense.c ****         /* Check if sensor is complex */
 978:Generated_Source\PSoC4/CapSense.c ****         if ((snsType & CapSense_COMPLEX_SS_FLAG) == 0u)
 979:Generated_Source\PSoC4/CapSense.c ****         {
 980:Generated_Source\PSoC4/CapSense.c ****             /* Disable sensor (single) */
 981:Generated_Source\PSoC4/CapSense.c ****             CapSense_DisableSensor(slot);
 982:Generated_Source\PSoC4/CapSense.c ****         }
 983:Generated_Source\PSoC4/CapSense.c ****         else
 984:Generated_Source\PSoC4/CapSense.c ****         {
 985:Generated_Source\PSoC4/CapSense.c ****             /* Disable complex sensor */
 986:Generated_Source\PSoC4/CapSense.c ****             snsType &= ~CapSense_COMPLEX_SS_FLAG;
 987:Generated_Source\PSoC4/CapSense.c ****             index = &CapSense_indexTable[snsType];
 988:Generated_Source\PSoC4/CapSense.c ****             snsNumber = CapSense_maskTable[slot];
 989:Generated_Source\PSoC4/CapSense.c **** 
 990:Generated_Source\PSoC4/CapSense.c ****             for (j=0; j < snsNumber; j++)
 991:Generated_Source\PSoC4/CapSense.c ****             {
 992:Generated_Source\PSoC4/CapSense.c ****                 CapSense_DisableSensor(index[j]);
 993:Generated_Source\PSoC4/CapSense.c ****             }
 994:Generated_Source\PSoC4/CapSense.c ****         }
 995:Generated_Source\PSoC4/CapSense.c ****     }
 996:Generated_Source\PSoC4/CapSense.c **** #endif  /* CapSense_IS_COMPLEX_SCANSLOTS */
 997:Generated_Source\PSoC4/CapSense.c **** 
 998:Generated_Source\PSoC4/CapSense.c **** 
 999:Generated_Source\PSoC4/CapSense.c **** /*******************************************************************************
1000:Generated_Source\PSoC4/CapSense.c **** * Function Name: CapSense_EnableSensor
1001:Generated_Source\PSoC4/CapSense.c **** ********************************************************************************
1002:Generated_Source\PSoC4/CapSense.c **** *
1003:Generated_Source\PSoC4/CapSense.c **** * Summary:
1004:Generated_Source\PSoC4/CapSense.c **** *  Configures the selected sensor to measure during the next measurement cycle.
1005:Generated_Source\PSoC4/CapSense.c **** *  The corresponding pins are set to Analog High-Z mode and connected to the
1006:Generated_Source\PSoC4/CapSense.c **** *  Analog Mux Bus. This also enables the comparator function.
ARM GAS  C:\Users\PC\AppData\Local\Temp\cc3ehIEg.s 			page 38


1007:Generated_Source\PSoC4/CapSense.c **** *
1008:Generated_Source\PSoC4/CapSense.c **** * Parameters:
1009:Generated_Source\PSoC4/CapSense.c **** *  sensor:  Sensor number.
1010:Generated_Source\PSoC4/CapSense.c **** *
1011:Generated_Source\PSoC4/CapSense.c **** * Return:
1012:Generated_Source\PSoC4/CapSense.c **** *  None
1013:Generated_Source\PSoC4/CapSense.c **** *
1014:Generated_Source\PSoC4/CapSense.c **** * Global Variables:
1015:Generated_Source\PSoC4/CapSense.c **** *  CapSense_portTable[] - used to store the port number that pin
1016:Generated_Source\PSoC4/CapSense.c **** *  belongs to for each sensor.
1017:Generated_Source\PSoC4/CapSense.c **** *  CapSense_pinShiftTbl[] - used to store position of pin that
1018:Generated_Source\PSoC4/CapSense.c **** *  configured as sensor in port.
1019:Generated_Source\PSoC4/CapSense.c **** *  CapSense_prtSelTbl[] - Contains pointers to the HSIOM
1020:Generated_Source\PSoC4/CapSense.c **** *  registers for each port.
1021:Generated_Source\PSoC4/CapSense.c **** *  CapSense_PrtCfgTb[] - Contains pointers to the port config
1022:Generated_Source\PSoC4/CapSense.c **** *  registers for each port.
1023:Generated_Source\PSoC4/CapSense.c **** *
1024:Generated_Source\PSoC4/CapSense.c **** * Side Effects:
1025:Generated_Source\PSoC4/CapSense.c **** *  None
1026:Generated_Source\PSoC4/CapSense.c **** *
1027:Generated_Source\PSoC4/CapSense.c **** *******************************************************************************/
1028:Generated_Source\PSoC4/CapSense.c **** void CapSense_EnableSensor(uint32 sensor)
1029:Generated_Source\PSoC4/CapSense.c **** {
 1095              		.loc 1 1029 0
 1096              		.cfi_startproc
 1097              		@ args = 0, pretend = 0, frame = 24
 1098              		@ frame_needed = 1, uses_anonymous_args = 0
 1099 0000 90B5     		push	{r4, r7, lr}
 1100              		.cfi_def_cfa_offset 12
 1101              		.cfi_offset 4, -12
 1102              		.cfi_offset 7, -8
 1103              		.cfi_offset 14, -4
 1104 0002 87B0     		sub	sp, sp, #28
 1105              		.cfi_def_cfa_offset 40
 1106 0004 00AF     		add	r7, sp, #0
 1107              		.cfi_def_cfa_register 7
 1108 0006 7860     		str	r0, [r7, #4]
1030:Generated_Source\PSoC4/CapSense.c ****     uint8  pinModeShift;
1031:Generated_Source\PSoC4/CapSense.c ****     uint8  pinHSIOMShift;
1032:Generated_Source\PSoC4/CapSense.c ****     uint8 interruptState;
1033:Generated_Source\PSoC4/CapSense.c ****     uint32 newRegisterValue;
1034:Generated_Source\PSoC4/CapSense.c ****     uint32 port;
1035:Generated_Source\PSoC4/CapSense.c **** 
1036:Generated_Source\PSoC4/CapSense.c ****     port = (uint32) CapSense_portTable[sensor];
 1109              		.loc 1 1036 0
 1110 0008 0223     		movs	r3, #2
 1111 000a 7B61     		str	r3, [r7, #20]
1037:Generated_Source\PSoC4/CapSense.c ****     pinModeShift = CapSense_pinShiftTbl[sensor]  * CapSense_PC_PIN_CFG_SIZE;
 1112              		.loc 1 1037 0
 1113 000c 0023     		movs	r3, #0
 1114 000e 1322     		movs	r2, #19
 1115 0010 BA18     		adds	r2, r7, r2
 1116 0012 191C     		adds	r1, r3, #0
 1117 0014 0B1C     		adds	r3, r1, #0
 1118 0016 DB18     		adds	r3, r3, r3
 1119 0018 5B18     		adds	r3, r3, r1
 1120 001a 1370     		strb	r3, [r2]
ARM GAS  C:\Users\PC\AppData\Local\Temp\cc3ehIEg.s 			page 39


1038:Generated_Source\PSoC4/CapSense.c ****     pinHSIOMShift = CapSense_pinShiftTbl[sensor] * CapSense_HSIOM_PIN_CFG_SIZE;
 1121              		.loc 1 1038 0
 1122 001c 0022     		movs	r2, #0
 1123 001e 1223     		movs	r3, #18
 1124 0020 FB18     		adds	r3, r7, r3
 1125 0022 9200     		lsls	r2, r2, #2
 1126 0024 1A70     		strb	r2, [r3]
1039:Generated_Source\PSoC4/CapSense.c **** 
1040:Generated_Source\PSoC4/CapSense.c ****     interruptState = CyEnterCriticalSection();
 1127              		.loc 1 1040 0
 1128 0026 1123     		movs	r3, #17
 1129 0028 FC18     		adds	r4, r7, r3
 1130 002a FFF7FEFF 		bl	CyEnterCriticalSection
 1131 002e 0300     		movs	r3, r0
 1132 0030 2370     		strb	r3, [r4]
1041:Generated_Source\PSoC4/CapSense.c **** 
1042:Generated_Source\PSoC4/CapSense.c ****     newRegisterValue = *CapSense_prtSelTbl[port];
 1133              		.loc 1 1042 0
 1134 0032 1D4B     		ldr	r3, .L67
 1135 0034 7A69     		ldr	r2, [r7, #20]
 1136 0036 9200     		lsls	r2, r2, #2
 1137 0038 D358     		ldr	r3, [r2, r3]
 1138 003a 1B68     		ldr	r3, [r3]
 1139 003c FB60     		str	r3, [r7, #12]
1043:Generated_Source\PSoC4/CapSense.c ****     newRegisterValue &= ~(CapSense_CSD_HSIOM_MASK << pinHSIOMShift);
 1140              		.loc 1 1043 0
 1141 003e 1223     		movs	r3, #18
 1142 0040 FB18     		adds	r3, r7, r3
 1143 0042 1B78     		ldrb	r3, [r3]
 1144 0044 0F22     		movs	r2, #15
 1145 0046 9A40     		lsls	r2, r2, r3
 1146 0048 1300     		movs	r3, r2
 1147 004a DA43     		mvns	r2, r3
 1148 004c FB68     		ldr	r3, [r7, #12]
 1149 004e 1340     		ands	r3, r2
 1150 0050 FB60     		str	r3, [r7, #12]
1044:Generated_Source\PSoC4/CapSense.c ****     newRegisterValue |= (uint32)((uint32)CapSense_CSD_SENSE_PORT_MODE << pinHSIOMShift);
 1151              		.loc 1 1044 0
 1152 0052 1223     		movs	r3, #18
 1153 0054 FB18     		adds	r3, r7, r3
 1154 0056 1B78     		ldrb	r3, [r3]
 1155 0058 0422     		movs	r2, #4
 1156 005a 9A40     		lsls	r2, r2, r3
 1157 005c 1300     		movs	r3, r2
 1158 005e FA68     		ldr	r2, [r7, #12]
 1159 0060 1343     		orrs	r3, r2
 1160 0062 FB60     		str	r3, [r7, #12]
1045:Generated_Source\PSoC4/CapSense.c **** 
1046:Generated_Source\PSoC4/CapSense.c ****     *CapSense_prtCfgTbl[port] &= (uint32)~((uint32)CapSense_CSD_PIN_MODE_MASK << pinModeShift);
 1161              		.loc 1 1046 0
 1162 0064 114B     		ldr	r3, .L67+4
 1163 0066 7A69     		ldr	r2, [r7, #20]
 1164 0068 9200     		lsls	r2, r2, #2
 1165 006a D358     		ldr	r3, [r2, r3]
 1166 006c 0F4A     		ldr	r2, .L67+4
 1167 006e 7969     		ldr	r1, [r7, #20]
 1168 0070 8900     		lsls	r1, r1, #2
ARM GAS  C:\Users\PC\AppData\Local\Temp\cc3ehIEg.s 			page 40


 1169 0072 8A58     		ldr	r2, [r1, r2]
 1170 0074 1268     		ldr	r2, [r2]
 1171 0076 1321     		movs	r1, #19
 1172 0078 7918     		adds	r1, r7, r1
 1173 007a 0978     		ldrb	r1, [r1]
 1174 007c 0720     		movs	r0, #7
 1175 007e 8840     		lsls	r0, r0, r1
 1176 0080 0100     		movs	r1, r0
 1177 0082 C943     		mvns	r1, r1
 1178 0084 0A40     		ands	r2, r1
 1179 0086 1A60     		str	r2, [r3]
1047:Generated_Source\PSoC4/CapSense.c ****     *CapSense_prtSelTbl[port] = newRegisterValue;
 1180              		.loc 1 1047 0
 1181 0088 074B     		ldr	r3, .L67
 1182 008a 7A69     		ldr	r2, [r7, #20]
 1183 008c 9200     		lsls	r2, r2, #2
 1184 008e D358     		ldr	r3, [r2, r3]
 1185 0090 FA68     		ldr	r2, [r7, #12]
 1186 0092 1A60     		str	r2, [r3]
1048:Generated_Source\PSoC4/CapSense.c **** 
1049:Generated_Source\PSoC4/CapSense.c ****     CyExitCriticalSection(interruptState);
 1187              		.loc 1 1049 0
 1188 0094 1123     		movs	r3, #17
 1189 0096 FB18     		adds	r3, r7, r3
 1190 0098 1B78     		ldrb	r3, [r3]
 1191 009a 1800     		movs	r0, r3
 1192 009c FFF7FEFF 		bl	CyExitCriticalSection
1050:Generated_Source\PSoC4/CapSense.c **** }
 1193              		.loc 1 1050 0
 1194 00a0 C046     		nop
 1195 00a2 BD46     		mov	sp, r7
 1196 00a4 07B0     		add	sp, sp, #28
 1197              		@ sp needed
 1198 00a6 90BD     		pop	{r4, r7, pc}
 1199              	.L68:
 1200              		.align	2
 1201              	.L67:
 1202 00a8 00000000 		.word	CapSense_prtSelTbl
 1203 00ac 00000000 		.word	CapSense_prtCfgTbl
 1204              		.cfi_endproc
 1205              	.LFE51:
 1206              		.size	CapSense_EnableSensor, .-CapSense_EnableSensor
 1207              		.section	.text.CapSense_DisableSensor,"ax",%progbits
 1208              		.align	2
 1209              		.global	CapSense_DisableSensor
 1210              		.code	16
 1211              		.thumb_func
 1212              		.type	CapSense_DisableSensor, %function
 1213              	CapSense_DisableSensor:
 1214              	.LFB52:
1051:Generated_Source\PSoC4/CapSense.c **** 
1052:Generated_Source\PSoC4/CapSense.c **** 
1053:Generated_Source\PSoC4/CapSense.c **** /*******************************************************************************
1054:Generated_Source\PSoC4/CapSense.c **** * Function Name: CapSense_DisableSensor
1055:Generated_Source\PSoC4/CapSense.c **** ********************************************************************************
1056:Generated_Source\PSoC4/CapSense.c **** *
1057:Generated_Source\PSoC4/CapSense.c **** * Summary:
ARM GAS  C:\Users\PC\AppData\Local\Temp\cc3ehIEg.s 			page 41


1058:Generated_Source\PSoC4/CapSense.c **** *  Disables the selected sensor. The corresponding pin is disconnected from the
1059:Generated_Source\PSoC4/CapSense.c **** *  Analog Mux Bus and connected to GND, High_Z or Shield electrode.
1060:Generated_Source\PSoC4/CapSense.c **** *
1061:Generated_Source\PSoC4/CapSense.c **** * Parameters:
1062:Generated_Source\PSoC4/CapSense.c **** *  sensor:  Sensor number
1063:Generated_Source\PSoC4/CapSense.c **** *
1064:Generated_Source\PSoC4/CapSense.c **** * Return:
1065:Generated_Source\PSoC4/CapSense.c **** *  None
1066:Generated_Source\PSoC4/CapSense.c **** *
1067:Generated_Source\PSoC4/CapSense.c **** * Global Variables:
1068:Generated_Source\PSoC4/CapSense.c **** *  CapSense_portTable[] - used to store the port number that pin
1069:Generated_Source\PSoC4/CapSense.c **** *  belongs to for each sensor.
1070:Generated_Source\PSoC4/CapSense.c **** *  CapSense_pinShiftTbl[] - used to store position of pin that
1071:Generated_Source\PSoC4/CapSense.c **** *  configured as a sensor in the port.
1072:Generated_Source\PSoC4/CapSense.c **** *  CapSense_prtSelTbl[] - Contains pointers to the HSIOM
1073:Generated_Source\PSoC4/CapSense.c **** *  registers for each port.
1074:Generated_Source\PSoC4/CapSense.c **** *  CapSense_PrtCfgTb[] - Contains pointers to the port config
1075:Generated_Source\PSoC4/CapSense.c **** *  registers for each port.
1076:Generated_Source\PSoC4/CapSense.c **** *
1077:Generated_Source\PSoC4/CapSense.c **** * Side Effects:
1078:Generated_Source\PSoC4/CapSense.c **** *  None
1079:Generated_Source\PSoC4/CapSense.c **** *
1080:Generated_Source\PSoC4/CapSense.c **** *******************************************************************************/
1081:Generated_Source\PSoC4/CapSense.c **** void CapSense_DisableSensor(uint32 sensor)
1082:Generated_Source\PSoC4/CapSense.c **** {
 1215              		.loc 1 1082 0
 1216              		.cfi_startproc
 1217              		@ args = 0, pretend = 0, frame = 32
 1218              		@ frame_needed = 1, uses_anonymous_args = 0
 1219 0000 90B5     		push	{r4, r7, lr}
 1220              		.cfi_def_cfa_offset 12
 1221              		.cfi_offset 4, -12
 1222              		.cfi_offset 7, -8
 1223              		.cfi_offset 14, -4
 1224 0002 89B0     		sub	sp, sp, #36
 1225              		.cfi_def_cfa_offset 48
 1226 0004 00AF     		add	r7, sp, #0
 1227              		.cfi_def_cfa_register 7
 1228 0006 7860     		str	r0, [r7, #4]
1083:Generated_Source\PSoC4/CapSense.c ****     uint8 interruptState;
1084:Generated_Source\PSoC4/CapSense.c ****     uint32 newRegisterValue;
1085:Generated_Source\PSoC4/CapSense.c **** 
1086:Generated_Source\PSoC4/CapSense.c ****     uint32 port = (uint32) CapSense_portTable[sensor];
 1229              		.loc 1 1086 0
 1230 0008 0223     		movs	r3, #2
 1231 000a 7B61     		str	r3, [r7, #20]
1087:Generated_Source\PSoC4/CapSense.c ****     uint8  pinHSIOMShift = CapSense_pinShiftTbl[sensor] * CapSense_HSIOM_PIN_CFG_SIZE;
 1232              		.loc 1 1087 0
 1233 000c 0022     		movs	r2, #0
 1234 000e 1323     		movs	r3, #19
 1235 0010 FB18     		adds	r3, r7, r3
 1236 0012 9200     		lsls	r2, r2, #2
 1237 0014 1A70     		strb	r2, [r3]
1088:Generated_Source\PSoC4/CapSense.c ****     uint8  pinModeShift = CapSense_pinShiftTbl[sensor]  * CapSense_PC_PIN_CFG_SIZE;
 1238              		.loc 1 1088 0
 1239 0016 0023     		movs	r3, #0
 1240 0018 1222     		movs	r2, #18
ARM GAS  C:\Users\PC\AppData\Local\Temp\cc3ehIEg.s 			page 42


 1241 001a BA18     		adds	r2, r7, r2
 1242 001c 191C     		adds	r1, r3, #0
 1243 001e 0B1C     		adds	r3, r1, #0
 1244 0020 DB18     		adds	r3, r3, r3
 1245 0022 5B18     		adds	r3, r3, r1
 1246 0024 1370     		strb	r3, [r2]
1089:Generated_Source\PSoC4/CapSense.c **** 
1090:Generated_Source\PSoC4/CapSense.c ****     uint32 inactiveConnect = CapSense_SNS_HIZANALOG_CONNECT;
 1247              		.loc 1 1090 0
 1248 0026 0023     		movs	r3, #0
 1249 0028 FB61     		str	r3, [r7, #28]
1091:Generated_Source\PSoC4/CapSense.c ****     uint32 sensorState = CapSense_unscannedSnsDriveMode[sensor];
 1250              		.loc 1 1091 0
 1251 002a 304A     		ldr	r2, .L72
 1252 002c 7B68     		ldr	r3, [r7, #4]
 1253 002e D318     		adds	r3, r2, r3
 1254 0030 1B78     		ldrb	r3, [r3]
 1255 0032 BB61     		str	r3, [r7, #24]
1092:Generated_Source\PSoC4/CapSense.c **** 
1093:Generated_Source\PSoC4/CapSense.c ****     *CapSense_prtSelTbl[port] &= ~(CapSense_CSD_HSIOM_MASK << pinHSIOMShift);
 1256              		.loc 1 1093 0
 1257 0034 2E4B     		ldr	r3, .L72+4
 1258 0036 7A69     		ldr	r2, [r7, #20]
 1259 0038 9200     		lsls	r2, r2, #2
 1260 003a D358     		ldr	r3, [r2, r3]
 1261 003c 2C4A     		ldr	r2, .L72+4
 1262 003e 7969     		ldr	r1, [r7, #20]
 1263 0040 8900     		lsls	r1, r1, #2
 1264 0042 8A58     		ldr	r2, [r1, r2]
 1265 0044 1268     		ldr	r2, [r2]
 1266 0046 1321     		movs	r1, #19
 1267 0048 7918     		adds	r1, r7, r1
 1268 004a 0978     		ldrb	r1, [r1]
 1269 004c 0F20     		movs	r0, #15
 1270 004e 8840     		lsls	r0, r0, r1
 1271 0050 0100     		movs	r1, r0
 1272 0052 C943     		mvns	r1, r1
 1273 0054 0A40     		ands	r2, r1
 1274 0056 1A60     		str	r2, [r3]
1094:Generated_Source\PSoC4/CapSense.c **** 
1095:Generated_Source\PSoC4/CapSense.c ****     #if(CapSense_IS_SHIELD_ENABLE != 0)
1096:Generated_Source\PSoC4/CapSense.c ****     if(sensorState != (uint32)CapSense__SHIELD)
1097:Generated_Source\PSoC4/CapSense.c ****     {
1098:Generated_Source\PSoC4/CapSense.c ****     #else
1099:Generated_Source\PSoC4/CapSense.c ****         /* Connected to Ground if shield is disabled */
1100:Generated_Source\PSoC4/CapSense.c ****         if(sensorState == (uint32)CapSense__SHIELD)
 1275              		.loc 1 1100 0
 1276 0058 BB69     		ldr	r3, [r7, #24]
 1277 005a 022B     		cmp	r3, #2
 1278 005c 01D1     		bne	.L70
1101:Generated_Source\PSoC4/CapSense.c ****         {
1102:Generated_Source\PSoC4/CapSense.c ****             sensorState = (uint32)CapSense__GROUND;
 1279              		.loc 1 1102 0
 1280 005e 0023     		movs	r3, #0
 1281 0060 BB61     		str	r3, [r7, #24]
 1282              	.L70:
1103:Generated_Source\PSoC4/CapSense.c ****         }
ARM GAS  C:\Users\PC\AppData\Local\Temp\cc3ehIEg.s 			page 43


1104:Generated_Source\PSoC4/CapSense.c ****     #endif /* (CapSense_IS_SHIELD_ENABLE) */
1105:Generated_Source\PSoC4/CapSense.c ****         if(sensorState != (uint32)CapSense__HIZ_ANALOG)
 1283              		.loc 1 1105 0
 1284 0062 BB69     		ldr	r3, [r7, #24]
 1285 0064 012B     		cmp	r3, #1
 1286 0066 01D0     		beq	.L71
1106:Generated_Source\PSoC4/CapSense.c ****         {
1107:Generated_Source\PSoC4/CapSense.c ****             /* Connected to Ground */
1108:Generated_Source\PSoC4/CapSense.c ****             inactiveConnect = (uint32)CapSense_SNS_GROUND_CONNECT;
 1287              		.loc 1 1108 0
 1288 0068 0623     		movs	r3, #6
 1289 006a FB61     		str	r3, [r7, #28]
 1290              	.L71:
1109:Generated_Source\PSoC4/CapSense.c ****         }
1110:Generated_Source\PSoC4/CapSense.c **** 
1111:Generated_Source\PSoC4/CapSense.c ****         interruptState = CyEnterCriticalSection();
 1291              		.loc 1 1111 0
 1292 006c 1123     		movs	r3, #17
 1293 006e FC18     		adds	r4, r7, r3
 1294 0070 FFF7FEFF 		bl	CyEnterCriticalSection
 1295 0074 0300     		movs	r3, r0
 1296 0076 2370     		strb	r3, [r4]
1112:Generated_Source\PSoC4/CapSense.c **** 
1113:Generated_Source\PSoC4/CapSense.c ****         /* Set drive mode */
1114:Generated_Source\PSoC4/CapSense.c ****         newRegisterValue = *CapSense_prtCfgTbl[port];
 1297              		.loc 1 1114 0
 1298 0078 1E4B     		ldr	r3, .L72+8
 1299 007a 7A69     		ldr	r2, [r7, #20]
 1300 007c 9200     		lsls	r2, r2, #2
 1301 007e D358     		ldr	r3, [r2, r3]
 1302 0080 1B68     		ldr	r3, [r3]
 1303 0082 FB60     		str	r3, [r7, #12]
1115:Generated_Source\PSoC4/CapSense.c ****         newRegisterValue &= ~(CapSense_CSD_PIN_MODE_MASK << pinModeShift);
 1304              		.loc 1 1115 0
 1305 0084 1223     		movs	r3, #18
 1306 0086 FB18     		adds	r3, r7, r3
 1307 0088 1B78     		ldrb	r3, [r3]
 1308 008a 0722     		movs	r2, #7
 1309 008c 9A40     		lsls	r2, r2, r3
 1310 008e 1300     		movs	r3, r2
 1311 0090 DA43     		mvns	r2, r3
 1312 0092 FB68     		ldr	r3, [r7, #12]
 1313 0094 1340     		ands	r3, r2
 1314 0096 FB60     		str	r3, [r7, #12]
1116:Generated_Source\PSoC4/CapSense.c ****         newRegisterValue |=  (uint32)(inactiveConnect << pinModeShift);
 1315              		.loc 1 1116 0
 1316 0098 1223     		movs	r3, #18
 1317 009a FB18     		adds	r3, r7, r3
 1318 009c 1B78     		ldrb	r3, [r3]
 1319 009e FA69     		ldr	r2, [r7, #28]
 1320 00a0 9A40     		lsls	r2, r2, r3
 1321 00a2 1300     		movs	r3, r2
 1322 00a4 FA68     		ldr	r2, [r7, #12]
 1323 00a6 1343     		orrs	r3, r2
 1324 00a8 FB60     		str	r3, [r7, #12]
1117:Generated_Source\PSoC4/CapSense.c ****         *CapSense_prtCfgTbl[port] =  newRegisterValue;
 1325              		.loc 1 1117 0
ARM GAS  C:\Users\PC\AppData\Local\Temp\cc3ehIEg.s 			page 44


 1326 00aa 124B     		ldr	r3, .L72+8
 1327 00ac 7A69     		ldr	r2, [r7, #20]
 1328 00ae 9200     		lsls	r2, r2, #2
 1329 00b0 D358     		ldr	r3, [r2, r3]
 1330 00b2 FA68     		ldr	r2, [r7, #12]
 1331 00b4 1A60     		str	r2, [r3]
1118:Generated_Source\PSoC4/CapSense.c **** 
1119:Generated_Source\PSoC4/CapSense.c ****         CyExitCriticalSection(interruptState);
 1332              		.loc 1 1119 0
 1333 00b6 1123     		movs	r3, #17
 1334 00b8 FB18     		adds	r3, r7, r3
 1335 00ba 1B78     		ldrb	r3, [r3]
 1336 00bc 1800     		movs	r0, r3
 1337 00be FFF7FEFF 		bl	CyExitCriticalSection
1120:Generated_Source\PSoC4/CapSense.c **** 
1121:Generated_Source\PSoC4/CapSense.c ****         *CapSense_prtDRTbl[port]  &=  (uint32)~(uint32)((uint32)1u << CapSense_pinShiftTbl[sensor])
 1338              		.loc 1 1121 0
 1339 00c2 0D4B     		ldr	r3, .L72+12
 1340 00c4 7A69     		ldr	r2, [r7, #20]
 1341 00c6 9200     		lsls	r2, r2, #2
 1342 00c8 D358     		ldr	r3, [r2, r3]
 1343 00ca 0B4A     		ldr	r2, .L72+12
 1344 00cc 7969     		ldr	r1, [r7, #20]
 1345 00ce 8900     		lsls	r1, r1, #2
 1346 00d0 8A58     		ldr	r2, [r1, r2]
 1347 00d2 1268     		ldr	r2, [r2]
 1348 00d4 0021     		movs	r1, #0
 1349 00d6 0800     		movs	r0, r1
 1350 00d8 0121     		movs	r1, #1
 1351 00da 8140     		lsls	r1, r1, r0
 1352 00dc C943     		mvns	r1, r1
 1353 00de 0A40     		ands	r2, r1
 1354 00e0 1A60     		str	r2, [r3]
1122:Generated_Source\PSoC4/CapSense.c ****     #if(CapSense_IS_SHIELD_ENABLE != 0)
1123:Generated_Source\PSoC4/CapSense.c ****     }
1124:Generated_Source\PSoC4/CapSense.c ****     else
1125:Generated_Source\PSoC4/CapSense.c ****     {
1126:Generated_Source\PSoC4/CapSense.c ****         /* Connect to Shield */
1127:Generated_Source\PSoC4/CapSense.c ****         *CapSense_prtSelTbl[port] |= (CapSense_CSD_SHIELD_PORT_MODE << pinHSIOMShift);
1128:Generated_Source\PSoC4/CapSense.c ****     }
1129:Generated_Source\PSoC4/CapSense.c ****     #endif /* (CapSense_IS_SHIELD_ENABLE) */
1130:Generated_Source\PSoC4/CapSense.c **** }
 1355              		.loc 1 1130 0
 1356 00e2 C046     		nop
 1357 00e4 BD46     		mov	sp, r7
 1358 00e6 09B0     		add	sp, sp, #36
 1359              		@ sp needed
 1360 00e8 90BD     		pop	{r4, r7, pc}
 1361              	.L73:
 1362 00ea C046     		.align	2
 1363              	.L72:
 1364 00ec 00000000 		.word	CapSense_unscannedSnsDriveMode
 1365 00f0 00000000 		.word	CapSense_prtSelTbl
 1366 00f4 00000000 		.word	CapSense_prtCfgTbl
 1367 00f8 00000000 		.word	CapSense_prtDRTbl
 1368              		.cfi_endproc
 1369              	.LFE52:
ARM GAS  C:\Users\PC\AppData\Local\Temp\cc3ehIEg.s 			page 45


 1370              		.size	CapSense_DisableSensor, .-CapSense_DisableSensor
 1371              		.section	.text.CapSense_SetDriveModeAllPins,"ax",%progbits
 1372              		.align	2
 1373              		.global	CapSense_SetDriveModeAllPins
 1374              		.code	16
 1375              		.thumb_func
 1376              		.type	CapSense_SetDriveModeAllPins, %function
 1377              	CapSense_SetDriveModeAllPins:
 1378              	.LFB53:
1131:Generated_Source\PSoC4/CapSense.c **** 
1132:Generated_Source\PSoC4/CapSense.c **** 
1133:Generated_Source\PSoC4/CapSense.c **** /*******************************************************************************
1134:Generated_Source\PSoC4/CapSense.c **** * Function Name: CapSense_SetDriveModeAllPins
1135:Generated_Source\PSoC4/CapSense.c **** ********************************************************************************
1136:Generated_Source\PSoC4/CapSense.c **** *
1137:Generated_Source\PSoC4/CapSense.c **** * Summary:
1138:Generated_Source\PSoC4/CapSense.c **** * This API sets the drive mode of port pins used by the CapSense
1139:Generated_Source\PSoC4/CapSense.c **** * component (sensors, guard, shield, shield tank and Cmod) to drive the
1140:Generated_Source\PSoC4/CapSense.c **** * mode specified by the argument.
1141:Generated_Source\PSoC4/CapSense.c **** *
1142:Generated_Source\PSoC4/CapSense.c **** * Parameters:
1143:Generated_Source\PSoC4/CapSense.c **** *  driveMode:  Drive mode definition.
1144:Generated_Source\PSoC4/CapSense.c **** *
1145:Generated_Source\PSoC4/CapSense.c **** * Return:
1146:Generated_Source\PSoC4/CapSense.c **** *  None
1147:Generated_Source\PSoC4/CapSense.c **** *
1148:Generated_Source\PSoC4/CapSense.c **** * Global Variables:
1149:Generated_Source\PSoC4/CapSense.c **** *  CapSense_portTable[] - used to store the port number that pin
1150:Generated_Source\PSoC4/CapSense.c **** *  belongs to for each sensor.
1151:Generated_Source\PSoC4/CapSense.c **** *  CapSense_pinShiftTbl[] - used to store position of pin that
1152:Generated_Source\PSoC4/CapSense.c **** *  configured as a sensor in the port.
1153:Generated_Source\PSoC4/CapSense.c **** *
1154:Generated_Source\PSoC4/CapSense.c **** * Side Effects:
1155:Generated_Source\PSoC4/CapSense.c **** *  This API shall be called only after CapSense component is stopped.
1156:Generated_Source\PSoC4/CapSense.c **** *
1157:Generated_Source\PSoC4/CapSense.c **** *******************************************************************************/
1158:Generated_Source\PSoC4/CapSense.c **** void CapSense_SetDriveModeAllPins(uint32 driveMode)
1159:Generated_Source\PSoC4/CapSense.c **** {
 1379              		.loc 1 1159 0
 1380              		.cfi_startproc
 1381              		@ args = 0, pretend = 0, frame = 24
 1382              		@ frame_needed = 1, uses_anonymous_args = 0
 1383 0000 80B5     		push	{r7, lr}
 1384              		.cfi_def_cfa_offset 8
 1385              		.cfi_offset 7, -8
 1386              		.cfi_offset 14, -4
 1387 0002 86B0     		sub	sp, sp, #24
 1388              		.cfi_def_cfa_offset 32
 1389 0004 00AF     		add	r7, sp, #0
 1390              		.cfi_def_cfa_register 7
 1391 0006 7860     		str	r0, [r7, #4]
1160:Generated_Source\PSoC4/CapSense.c ****     uint8 curSensor;
1161:Generated_Source\PSoC4/CapSense.c ****     #if (CapSense_IS_COMPLEX_SCANSLOTS)
1162:Generated_Source\PSoC4/CapSense.c ****         uint8 snsNumber;
1163:Generated_Source\PSoC4/CapSense.c ****         uint8 snsType;
1164:Generated_Source\PSoC4/CapSense.c ****     #endif  /* CapSense_IS_COMPLEX_SCANSLOTS */
1165:Generated_Source\PSoC4/CapSense.c ****     uint32 prtNumberTmp;
ARM GAS  C:\Users\PC\AppData\Local\Temp\cc3ehIEg.s 			page 46


1166:Generated_Source\PSoC4/CapSense.c ****     uint32 pinNumberTmp;
1167:Generated_Source\PSoC4/CapSense.c **** 
1168:Generated_Source\PSoC4/CapSense.c ****     for(curSensor = 0u; curSensor < CapSense_TOTAL_SENSOR_COUNT; curSensor++)
 1392              		.loc 1 1168 0
 1393 0008 1723     		movs	r3, #23
 1394 000a FB18     		adds	r3, r7, r3
 1395 000c 0022     		movs	r2, #0
 1396 000e 1A70     		strb	r2, [r3]
 1397 0010 10E0     		b	.L75
 1398              	.L76:
1169:Generated_Source\PSoC4/CapSense.c ****     {
1170:Generated_Source\PSoC4/CapSense.c ****         #if (CapSense_IS_COMPLEX_SCANSLOTS)
1171:Generated_Source\PSoC4/CapSense.c ****             /* Read sensor type: single or complex */
1172:Generated_Source\PSoC4/CapSense.c ****             snsType = CapSense_portTable[curSensor];
1173:Generated_Source\PSoC4/CapSense.c **** 
1174:Generated_Source\PSoC4/CapSense.c ****             /* Check if sensor is complex */
1175:Generated_Source\PSoC4/CapSense.c ****             if ((snsType & CapSense_COMPLEX_SS_FLAG) == 0u)
1176:Generated_Source\PSoC4/CapSense.c ****             {
1177:Generated_Source\PSoC4/CapSense.c ****                 /* The sensor is not complex */
1178:Generated_Source\PSoC4/CapSense.c ****                 snsNumber = curSensor;
1179:Generated_Source\PSoC4/CapSense.c ****             }
1180:Generated_Source\PSoC4/CapSense.c ****             else
1181:Generated_Source\PSoC4/CapSense.c ****             {
1182:Generated_Source\PSoC4/CapSense.c ****                 /* Get dedicated sensor ID of the complex sensor */
1183:Generated_Source\PSoC4/CapSense.c ****                 snsType &= ~CapSense_COMPLEX_SS_FLAG;
1184:Generated_Source\PSoC4/CapSense.c ****                 snsNumber = CapSense_indexTable[snsType];
1185:Generated_Source\PSoC4/CapSense.c ****             }
1186:Generated_Source\PSoC4/CapSense.c **** 
1187:Generated_Source\PSoC4/CapSense.c ****             prtNumberTmp = CapSense_portTable[snsNumber];
1188:Generated_Source\PSoC4/CapSense.c ****             pinNumberTmp = CapSense_pinShiftTbl[snsNumber];
1189:Generated_Source\PSoC4/CapSense.c ****         #else
1190:Generated_Source\PSoC4/CapSense.c ****             prtNumberTmp = CapSense_portTable[curSensor];
 1399              		.loc 1 1190 0 discriminator 3
 1400 0012 0223     		movs	r3, #2
 1401 0014 3B61     		str	r3, [r7, #16]
1191:Generated_Source\PSoC4/CapSense.c ****             pinNumberTmp = CapSense_pinShiftTbl[curSensor];
 1402              		.loc 1 1191 0 discriminator 3
 1403 0016 0023     		movs	r3, #0
 1404 0018 FB60     		str	r3, [r7, #12]
1192:Generated_Source\PSoC4/CapSense.c ****         #endif  /* CapSense_IS_COMPLEX_SCANSLOTS */
1193:Generated_Source\PSoC4/CapSense.c **** 
1194:Generated_Source\PSoC4/CapSense.c ****         CapSense_SetPinDriveMode(driveMode, pinNumberTmp, prtNumberTmp);
 1405              		.loc 1 1194 0 discriminator 3
 1406 001a 3A69     		ldr	r2, [r7, #16]
 1407 001c F968     		ldr	r1, [r7, #12]
 1408 001e 7B68     		ldr	r3, [r7, #4]
 1409 0020 1800     		movs	r0, r3
 1410 0022 FFF7FEFF 		bl	CapSense_SetPinDriveMode
1168:Generated_Source\PSoC4/CapSense.c ****     {
 1411              		.loc 1 1168 0 discriminator 3
 1412 0026 1723     		movs	r3, #23
 1413 0028 FB18     		adds	r3, r7, r3
 1414 002a 1A78     		ldrb	r2, [r3]
 1415 002c 1723     		movs	r3, #23
 1416 002e FB18     		adds	r3, r7, r3
 1417 0030 0132     		adds	r2, r2, #1
 1418 0032 1A70     		strb	r2, [r3]
ARM GAS  C:\Users\PC\AppData\Local\Temp\cc3ehIEg.s 			page 47


 1419              	.L75:
1168:Generated_Source\PSoC4/CapSense.c ****     {
 1420              		.loc 1 1168 0 is_stmt 0 discriminator 1
 1421 0034 1723     		movs	r3, #23
 1422 0036 FB18     		adds	r3, r7, r3
 1423 0038 1B78     		ldrb	r3, [r3]
 1424 003a 002B     		cmp	r3, #0
 1425 003c E9D0     		beq	.L76
1195:Generated_Source\PSoC4/CapSense.c ****     }
1196:Generated_Source\PSoC4/CapSense.c **** 
1197:Generated_Source\PSoC4/CapSense.c ****     CapSense_SetPinDriveMode(driveMode, (uint32)CapSense_CMOD_PIN_NUMBER, (uint32)CapSense_CMOD_PRT
 1426              		.loc 1 1197 0 is_stmt 1
 1427 003e 7B68     		ldr	r3, [r7, #4]
 1428 0040 0422     		movs	r2, #4
 1429 0042 0021     		movs	r1, #0
 1430 0044 1800     		movs	r0, r3
 1431 0046 FFF7FEFF 		bl	CapSense_SetPinDriveMode
1198:Generated_Source\PSoC4/CapSense.c **** 
1199:Generated_Source\PSoC4/CapSense.c ****     #if(0u != CapSense_CSH_TANK_ENABLE)
1200:Generated_Source\PSoC4/CapSense.c ****         CapSense_SetPinDriveMode(driveMode, (uint32)CapSense_CTANK_PIN_NUMBER, (uint32)CapSense_CTA
1201:Generated_Source\PSoC4/CapSense.c ****     #endif /* (0u != CapSense_CSH_TANK_ENABLE) */
1202:Generated_Source\PSoC4/CapSense.c **** 
1203:Generated_Source\PSoC4/CapSense.c ****     #if(0u != CapSense_IS_SHIELD_ENABLE)
1204:Generated_Source\PSoC4/CapSense.c ****         CapSense_SetPinDriveMode(driveMode, (uint32)CapSense_SHIELD_PIN_NUMBER, (uint32)CapSense_SH
1205:Generated_Source\PSoC4/CapSense.c ****     #endif /* (0u != CapSense_IS_SHIELD_ENABLE) */
1206:Generated_Source\PSoC4/CapSense.c **** }
 1432              		.loc 1 1206 0
 1433 004a C046     		nop
 1434 004c BD46     		mov	sp, r7
 1435 004e 06B0     		add	sp, sp, #24
 1436              		@ sp needed
 1437 0050 80BD     		pop	{r7, pc}
 1438              		.cfi_endproc
 1439              	.LFE53:
 1440              		.size	CapSense_SetDriveModeAllPins, .-CapSense_SetDriveModeAllPins
 1441 0052 C046     		.section	.text.CapSense_RestoreDriveModeAllPins,"ax",%progbits
 1442              		.align	2
 1443              		.global	CapSense_RestoreDriveModeAllPins
 1444              		.code	16
 1445              		.thumb_func
 1446              		.type	CapSense_RestoreDriveModeAllPins, %function
 1447              	CapSense_RestoreDriveModeAllPins:
 1448              	.LFB54:
1207:Generated_Source\PSoC4/CapSense.c **** 
1208:Generated_Source\PSoC4/CapSense.c **** 
1209:Generated_Source\PSoC4/CapSense.c **** /*******************************************************************************
1210:Generated_Source\PSoC4/CapSense.c **** * Function Name: CapSense_RestoreDriveModeAllPins
1211:Generated_Source\PSoC4/CapSense.c **** ********************************************************************************
1212:Generated_Source\PSoC4/CapSense.c **** *
1213:Generated_Source\PSoC4/CapSense.c **** * Summary:
1214:Generated_Source\PSoC4/CapSense.c **** *  This API restores the drive for all the CapSense port pins to the original
1215:Generated_Source\PSoC4/CapSense.c **** *  state.
1216:Generated_Source\PSoC4/CapSense.c **** *
1217:Generated_Source\PSoC4/CapSense.c **** * Parameters:
1218:Generated_Source\PSoC4/CapSense.c **** *  None
1219:Generated_Source\PSoC4/CapSense.c **** *
1220:Generated_Source\PSoC4/CapSense.c **** * Return:
ARM GAS  C:\Users\PC\AppData\Local\Temp\cc3ehIEg.s 			page 48


1221:Generated_Source\PSoC4/CapSense.c **** *  None
1222:Generated_Source\PSoC4/CapSense.c **** *
1223:Generated_Source\PSoC4/CapSense.c **** * Global Variables:
1224:Generated_Source\PSoC4/CapSense.c **** *  CapSense_prtSelTbl[] - Contains pointers to the HSIOM
1225:Generated_Source\PSoC4/CapSense.c **** *  registers for each port.
1226:Generated_Source\PSoC4/CapSense.c **** *
1227:Generated_Source\PSoC4/CapSense.c **** * Side Effects:
1228:Generated_Source\PSoC4/CapSense.c **** *  This API is called only after the CapSense component is stopped.
1229:Generated_Source\PSoC4/CapSense.c **** *
1230:Generated_Source\PSoC4/CapSense.c **** *******************************************************************************/
1231:Generated_Source\PSoC4/CapSense.c **** void CapSense_RestoreDriveModeAllPins(void)
1232:Generated_Source\PSoC4/CapSense.c **** {
 1449              		.loc 1 1232 0
 1450              		.cfi_startproc
 1451              		@ args = 0, pretend = 0, frame = 8
 1452              		@ frame_needed = 1, uses_anonymous_args = 0
 1453 0000 80B5     		push	{r7, lr}
 1454              		.cfi_def_cfa_offset 8
 1455              		.cfi_offset 7, -8
 1456              		.cfi_offset 14, -4
 1457 0002 82B0     		sub	sp, sp, #8
 1458              		.cfi_def_cfa_offset 16
 1459 0004 00AF     		add	r7, sp, #0
 1460              		.cfi_def_cfa_register 7
1233:Generated_Source\PSoC4/CapSense.c ****     uint32 newRegisterValue;
1234:Generated_Source\PSoC4/CapSense.c **** 
1235:Generated_Source\PSoC4/CapSense.c ****     CapSense_SetDriveModeAllPins(CY_SYS_PINS_DM_ALG_HIZ);
 1461              		.loc 1 1235 0
 1462 0006 0020     		movs	r0, #0
 1463 0008 FFF7FEFF 		bl	CapSense_SetDriveModeAllPins
1236:Generated_Source\PSoC4/CapSense.c **** 
1237:Generated_Source\PSoC4/CapSense.c ****     newRegisterValue = CapSense_CMOD_CONNECTION_REG;
 1464              		.loc 1 1237 0
 1465 000c 084B     		ldr	r3, .L78
 1466 000e 1B68     		ldr	r3, [r3]
 1467 0010 7B60     		str	r3, [r7, #4]
1238:Generated_Source\PSoC4/CapSense.c ****     newRegisterValue &= ~(CapSense_CSD_CMOD_CONNECTION_MASK);
 1468              		.loc 1 1238 0
 1469 0012 7B68     		ldr	r3, [r7, #4]
 1470 0014 0F22     		movs	r2, #15
 1471 0016 9343     		bics	r3, r2
 1472 0018 7B60     		str	r3, [r7, #4]
1239:Generated_Source\PSoC4/CapSense.c ****     newRegisterValue |= CapSense_CSD_CMOD_TO_AMUXBUS_A;
 1473              		.loc 1 1239 0
 1474 001a 7B68     		ldr	r3, [r7, #4]
 1475 001c 0622     		movs	r2, #6
 1476 001e 1343     		orrs	r3, r2
 1477 0020 7B60     		str	r3, [r7, #4]
1240:Generated_Source\PSoC4/CapSense.c ****     CapSense_CMOD_CONNECTION_REG = newRegisterValue;
 1478              		.loc 1 1240 0
 1479 0022 034B     		ldr	r3, .L78
 1480 0024 7A68     		ldr	r2, [r7, #4]
 1481 0026 1A60     		str	r2, [r3]
1241:Generated_Source\PSoC4/CapSense.c **** 
1242:Generated_Source\PSoC4/CapSense.c ****     #if(0u != CapSense_CSH_TANK_ENABLE)
1243:Generated_Source\PSoC4/CapSense.c ****         newRegisterValue = CapSense_CTANK_CONNECTION_REG;
1244:Generated_Source\PSoC4/CapSense.c ****         newRegisterValue &= ~(CapSense_CSD_CTANK_CONNECTION_MASK);
ARM GAS  C:\Users\PC\AppData\Local\Temp\cc3ehIEg.s 			page 49


1245:Generated_Source\PSoC4/CapSense.c ****         newRegisterValue |= CapSense_CSD_CTANK_TO_AMUXBUS_B;
1246:Generated_Source\PSoC4/CapSense.c ****         CapSense_CTANK_CONNECTION_REG = newRegisterValue;
1247:Generated_Source\PSoC4/CapSense.c ****     #endif/* (0u != CapSense_CSH_TANK_ENABLE) */
1248:Generated_Source\PSoC4/CapSense.c **** 
1249:Generated_Source\PSoC4/CapSense.c ****     #if(0u != CapSense_IS_SHIELD_ENABLE)
1250:Generated_Source\PSoC4/CapSense.c ****         newRegisterValue = *CapSense_prtSelTbl[CapSense_SHIELD_PORT_NUMBER];
1251:Generated_Source\PSoC4/CapSense.c ****         newRegisterValue &= ~(CapSense_CSD_HSIOM_MASK << ((uint32)CapSense_SHIELD_PIN_NUMBER * CapS
1252:Generated_Source\PSoC4/CapSense.c ****         newRegisterValue |= (CapSense_CSD_SHIELD_PORT_MODE << ((uint32)CapSense_SHIELD_PIN_NUMBER *
1253:Generated_Source\PSoC4/CapSense.c ****         *CapSense_prtSelTbl[CapSense_SHIELD_PORT_NUMBER] = newRegisterValue;
1254:Generated_Source\PSoC4/CapSense.c ****     #endif /* (0u != CapSense_IS_SHIELD_ENABLE) */
1255:Generated_Source\PSoC4/CapSense.c **** }
 1482              		.loc 1 1255 0
 1483 0028 C046     		nop
 1484 002a BD46     		mov	sp, r7
 1485 002c 02B0     		add	sp, sp, #8
 1486              		@ sp needed
 1487 002e 80BD     		pop	{r7, pc}
 1488              	.L79:
 1489              		.align	2
 1490              	.L78:
 1491 0030 00040240 		.word	1073873920
 1492              		.cfi_endproc
 1493              	.LFE54:
 1494              		.size	CapSense_RestoreDriveModeAllPins, .-CapSense_RestoreDriveModeAllPins
 1495              		.section	.text.CapSense_SetPinDriveMode,"ax",%progbits
 1496              		.align	2
 1497              		.global	CapSense_SetPinDriveMode
 1498              		.code	16
 1499              		.thumb_func
 1500              		.type	CapSense_SetPinDriveMode, %function
 1501              	CapSense_SetPinDriveMode:
 1502              	.LFB55:
1256:Generated_Source\PSoC4/CapSense.c **** 
1257:Generated_Source\PSoC4/CapSense.c **** 
1258:Generated_Source\PSoC4/CapSense.c **** /*******************************************************************************
1259:Generated_Source\PSoC4/CapSense.c **** * Function Name: CapSense_SetPinDriveMode
1260:Generated_Source\PSoC4/CapSense.c **** ********************************************************************************
1261:Generated_Source\PSoC4/CapSense.c **** *
1262:Generated_Source\PSoC4/CapSense.c **** * Summary:
1263:Generated_Source\PSoC4/CapSense.c **** * This API sets the drive mode for the appropriate port/pin.
1264:Generated_Source\PSoC4/CapSense.c **** *
1265:Generated_Source\PSoC4/CapSense.c **** * Parameters:
1266:Generated_Source\PSoC4/CapSense.c **** *  driveMode:  Drive mode definition.
1267:Generated_Source\PSoC4/CapSense.c **** *  portNumber: contains port number (0, 1, 2).
1268:Generated_Source\PSoC4/CapSense.c **** *  pinNumber: contains pin number (0, 1, 2, ... , 7).
1269:Generated_Source\PSoC4/CapSense.c **** *
1270:Generated_Source\PSoC4/CapSense.c **** * Return:
1271:Generated_Source\PSoC4/CapSense.c **** *  None
1272:Generated_Source\PSoC4/CapSense.c **** *
1273:Generated_Source\PSoC4/CapSense.c **** * Global Variables:
1274:Generated_Source\PSoC4/CapSense.c **** *  CapSense_prtSelTbl[] - Contains pointers to the HSIOM
1275:Generated_Source\PSoC4/CapSense.c **** *  registers for each port.
1276:Generated_Source\PSoC4/CapSense.c **** *  CapSense_prtCfgTb[] - Contains pointers to the port config
1277:Generated_Source\PSoC4/CapSense.c **** *  registers for each port.
1278:Generated_Source\PSoC4/CapSense.c **** *
1279:Generated_Source\PSoC4/CapSense.c **** * Side Effects:
1280:Generated_Source\PSoC4/CapSense.c **** *  This API is called only after CapSense component is stopped.
ARM GAS  C:\Users\PC\AppData\Local\Temp\cc3ehIEg.s 			page 50


1281:Generated_Source\PSoC4/CapSense.c **** *
1282:Generated_Source\PSoC4/CapSense.c **** *******************************************************************************/
1283:Generated_Source\PSoC4/CapSense.c **** void CapSense_SetPinDriveMode(uint32 driveMode, uint32 pinNumber, uint32 portNumber)
1284:Generated_Source\PSoC4/CapSense.c **** {
 1503              		.loc 1 1284 0
 1504              		.cfi_startproc
 1505              		@ args = 0, pretend = 0, frame = 24
 1506              		@ frame_needed = 1, uses_anonymous_args = 0
 1507 0000 80B5     		push	{r7, lr}
 1508              		.cfi_def_cfa_offset 8
 1509              		.cfi_offset 7, -8
 1510              		.cfi_offset 14, -4
 1511 0002 86B0     		sub	sp, sp, #24
 1512              		.cfi_def_cfa_offset 32
 1513 0004 00AF     		add	r7, sp, #0
 1514              		.cfi_def_cfa_register 7
 1515 0006 F860     		str	r0, [r7, #12]
 1516 0008 B960     		str	r1, [r7, #8]
 1517 000a 7A60     		str	r2, [r7, #4]
1285:Generated_Source\PSoC4/CapSense.c ****     uint32  pinModeShift;
1286:Generated_Source\PSoC4/CapSense.c ****     uint32 newRegisterValue;
1287:Generated_Source\PSoC4/CapSense.c **** 
1288:Generated_Source\PSoC4/CapSense.c ****     pinModeShift  = pinNumber * CapSense_PC_PIN_CFG_SIZE;
 1518              		.loc 1 1288 0
 1519 000c BA68     		ldr	r2, [r7, #8]
 1520 000e 1300     		movs	r3, r2
 1521 0010 5B00     		lsls	r3, r3, #1
 1522 0012 9B18     		adds	r3, r3, r2
 1523 0014 7B61     		str	r3, [r7, #20]
1289:Generated_Source\PSoC4/CapSense.c **** 
1290:Generated_Source\PSoC4/CapSense.c ****     newRegisterValue = *CapSense_prtCfgTbl[portNumber];
 1524              		.loc 1 1290 0
 1525 0016 0F4B     		ldr	r3, .L81
 1526 0018 7A68     		ldr	r2, [r7, #4]
 1527 001a 9200     		lsls	r2, r2, #2
 1528 001c D358     		ldr	r3, [r2, r3]
 1529 001e 1B68     		ldr	r3, [r3]
 1530 0020 3B61     		str	r3, [r7, #16]
1291:Generated_Source\PSoC4/CapSense.c ****     newRegisterValue &= ~(CapSense_CSD_PIN_MODE_MASK << pinModeShift);
 1531              		.loc 1 1291 0
 1532 0022 0722     		movs	r2, #7
 1533 0024 7B69     		ldr	r3, [r7, #20]
 1534 0026 9A40     		lsls	r2, r2, r3
 1535 0028 1300     		movs	r3, r2
 1536 002a DA43     		mvns	r2, r3
 1537 002c 3B69     		ldr	r3, [r7, #16]
 1538 002e 1340     		ands	r3, r2
 1539 0030 3B61     		str	r3, [r7, #16]
1292:Generated_Source\PSoC4/CapSense.c ****     newRegisterValue |=  (uint32)((uint32)driveMode << pinModeShift);
 1540              		.loc 1 1292 0
 1541 0032 FA68     		ldr	r2, [r7, #12]
 1542 0034 7B69     		ldr	r3, [r7, #20]
 1543 0036 9A40     		lsls	r2, r2, r3
 1544 0038 1300     		movs	r3, r2
 1545 003a 3A69     		ldr	r2, [r7, #16]
 1546 003c 1343     		orrs	r3, r2
 1547 003e 3B61     		str	r3, [r7, #16]
ARM GAS  C:\Users\PC\AppData\Local\Temp\cc3ehIEg.s 			page 51


1293:Generated_Source\PSoC4/CapSense.c ****     *CapSense_prtCfgTbl[portNumber] =  newRegisterValue;
 1548              		.loc 1 1293 0
 1549 0040 044B     		ldr	r3, .L81
 1550 0042 7A68     		ldr	r2, [r7, #4]
 1551 0044 9200     		lsls	r2, r2, #2
 1552 0046 D358     		ldr	r3, [r2, r3]
 1553 0048 3A69     		ldr	r2, [r7, #16]
 1554 004a 1A60     		str	r2, [r3]
1294:Generated_Source\PSoC4/CapSense.c **** }
 1555              		.loc 1 1294 0
 1556 004c C046     		nop
 1557 004e BD46     		mov	sp, r7
 1558 0050 06B0     		add	sp, sp, #24
 1559              		@ sp needed
 1560 0052 80BD     		pop	{r7, pc}
 1561              	.L82:
 1562              		.align	2
 1563              	.L81:
 1564 0054 00000000 		.word	CapSense_prtCfgTbl
 1565              		.cfi_endproc
 1566              	.LFE55:
 1567              		.size	CapSense_SetPinDriveMode, .-CapSense_SetPinDriveMode
 1568              		.section	.text.CapSense_PreScan,"ax",%progbits
 1569              		.align	2
 1570              		.global	CapSense_PreScan
 1571              		.code	16
 1572              		.thumb_func
 1573              		.type	CapSense_PreScan, %function
 1574              	CapSense_PreScan:
 1575              	.LFB56:
1295:Generated_Source\PSoC4/CapSense.c **** 
1296:Generated_Source\PSoC4/CapSense.c **** 
1297:Generated_Source\PSoC4/CapSense.c **** /*******************************************************************************
1298:Generated_Source\PSoC4/CapSense.c **** * Function Name: CapSense_PreScan
1299:Generated_Source\PSoC4/CapSense.c **** ********************************************************************************
1300:Generated_Source\PSoC4/CapSense.c **** *
1301:Generated_Source\PSoC4/CapSense.c **** * Summary:
1302:Generated_Source\PSoC4/CapSense.c **** *  Sets required settings, enables a sensor, removes Vref from AMUX and starts the
1303:Generated_Source\PSoC4/CapSense.c **** *  scanning process of the sensor.
1304:Generated_Source\PSoC4/CapSense.c **** *
1305:Generated_Source\PSoC4/CapSense.c **** * Parameters:
1306:Generated_Source\PSoC4/CapSense.c **** *  sensor:  Sensor number.
1307:Generated_Source\PSoC4/CapSense.c **** *
1308:Generated_Source\PSoC4/CapSense.c **** * Return:
1309:Generated_Source\PSoC4/CapSense.c **** *  None
1310:Generated_Source\PSoC4/CapSense.c **** *
1311:Generated_Source\PSoC4/CapSense.c **** * Global Variables:
1312:Generated_Source\PSoC4/CapSense.c **** * CapSense_widgetNumber[] - This array contains numbers of widgets for each sensor.
1313:Generated_Source\PSoC4/CapSense.c **** * CapSense_widgetResolution[] - Contains the widget resolution.
1314:Generated_Source\PSoC4/CapSense.c **** *
1315:Generated_Source\PSoC4/CapSense.c **** * Side Effects:
1316:Generated_Source\PSoC4/CapSense.c **** *  None
1317:Generated_Source\PSoC4/CapSense.c **** *
1318:Generated_Source\PSoC4/CapSense.c **** *******************************************************************************/
1319:Generated_Source\PSoC4/CapSense.c **** void CapSense_PreScan(uint32 sensor)
1320:Generated_Source\PSoC4/CapSense.c **** {
 1576              		.loc 1 1320 0
ARM GAS  C:\Users\PC\AppData\Local\Temp\cc3ehIEg.s 			page 52


 1577              		.cfi_startproc
 1578              		@ args = 0, pretend = 0, frame = 32
 1579              		@ frame_needed = 1, uses_anonymous_args = 0
 1580 0000 90B5     		push	{r4, r7, lr}
 1581              		.cfi_def_cfa_offset 12
 1582              		.cfi_offset 4, -12
 1583              		.cfi_offset 7, -8
 1584              		.cfi_offset 14, -4
 1585 0002 89B0     		sub	sp, sp, #36
 1586              		.cfi_def_cfa_offset 48
 1587 0004 00AF     		add	r7, sp, #0
 1588              		.cfi_def_cfa_register 7
 1589 0006 7860     		str	r0, [r7, #4]
1321:Generated_Source\PSoC4/CapSense.c ****     uint8 widget;
1322:Generated_Source\PSoC4/CapSense.c ****     uint8 interruptState;
1323:Generated_Source\PSoC4/CapSense.c ****     uint32 newRegValue;
1324:Generated_Source\PSoC4/CapSense.c ****     uint32 counterResolution;
1325:Generated_Source\PSoC4/CapSense.c **** 
1326:Generated_Source\PSoC4/CapSense.c ****     #if(CapSense_PRS_OPTIONS == CapSense__PRS_AUTO)
1327:Generated_Source\PSoC4/CapSense.c ****         uint8 senseClkDivMath;
1328:Generated_Source\PSoC4/CapSense.c ****         uint8 sampleClkDivMath;
1329:Generated_Source\PSoC4/CapSense.c ****     #endif /* (CapSense_PRS_OPTIONS == CapSense__PRS_AUTO) */
1330:Generated_Source\PSoC4/CapSense.c **** 
1331:Generated_Source\PSoC4/CapSense.c ****     #if ((CapSense_TUNING_METHOD == CapSense__TUNING_AUTO) &&\
1332:Generated_Source\PSoC4/CapSense.c ****          (0 != CapSense_IS_OVERSAMPLING_EN))
1333:Generated_Source\PSoC4/CapSense.c ****         uint32 oversamplingFactor;
1334:Generated_Source\PSoC4/CapSense.c ****     #endif /* ((CapSense_TUNING_METHOD == CapSense__TUNING_AUTO) &&\
1335:Generated_Source\PSoC4/CapSense.c ****                (0 != CapSense_IS_OVERSAMPLING_EN)) */
1336:Generated_Source\PSoC4/CapSense.c **** 
1337:Generated_Source\PSoC4/CapSense.c ****     /* Define widget sensor belongs to */
1338:Generated_Source\PSoC4/CapSense.c ****     widget = CapSense_widgetNumber[sensor];
 1590              		.loc 1 1338 0
 1591 0008 1723     		movs	r3, #23
 1592 000a FB18     		adds	r3, r7, r3
 1593 000c 0022     		movs	r2, #0
 1594 000e 1A70     		strb	r2, [r3]
1339:Generated_Source\PSoC4/CapSense.c **** 
1340:Generated_Source\PSoC4/CapSense.c ****     /* Recalculate Counter Resolution to MSB 16 bits */
1341:Generated_Source\PSoC4/CapSense.c ****     counterResolution = CapSense_widgetResolution[widget];
 1595              		.loc 1 1341 0
 1596 0010 1723     		movs	r3, #23
 1597 0012 FB18     		adds	r3, r7, r3
 1598 0014 1A78     		ldrb	r2, [r3]
 1599 0016 5F4B     		ldr	r3, .L87
 1600 0018 9200     		lsls	r2, r2, #2
 1601 001a D358     		ldr	r3, [r2, r3]
 1602 001c BB61     		str	r3, [r7, #24]
1342:Generated_Source\PSoC4/CapSense.c **** 
1343:Generated_Source\PSoC4/CapSense.c ****     #if ((CapSense_TUNING_METHOD == CapSense__TUNING_AUTO) &&\
1344:Generated_Source\PSoC4/CapSense.c ****          (0 != CapSense_IS_OVERSAMPLING_EN))
1345:Generated_Source\PSoC4/CapSense.c ****         oversamplingFactor = CapSense_GetBitValue(CapSense_scanSpeedTbl, sensor);
 1603              		.loc 1 1345 0
 1604 001e 7A68     		ldr	r2, [r7, #4]
 1605 0020 5D4B     		ldr	r3, .L87+4
 1606 0022 1100     		movs	r1, r2
 1607 0024 1800     		movs	r0, r3
 1608 0026 FFF7FEFF 		bl	CapSense_GetBitValue
ARM GAS  C:\Users\PC\AppData\Local\Temp\cc3ehIEg.s 			page 53


 1609 002a 0300     		movs	r3, r0
 1610 002c 3B61     		str	r3, [r7, #16]
1346:Generated_Source\PSoC4/CapSense.c **** 
1347:Generated_Source\PSoC4/CapSense.c ****         if(counterResolution < CapSense_RESOLUTION_16_BITS)
 1611              		.loc 1 1347 0
 1612 002e BB69     		ldr	r3, [r7, #24]
 1613 0030 5A4A     		ldr	r2, .L87+8
 1614 0032 9342     		cmp	r3, r2
 1615 0034 09D8     		bhi	.L84
1348:Generated_Source\PSoC4/CapSense.c ****         {
1349:Generated_Source\PSoC4/CapSense.c ****             counterResolution <<= oversamplingFactor;
 1616              		.loc 1 1349 0
 1617 0036 BA69     		ldr	r2, [r7, #24]
 1618 0038 3B69     		ldr	r3, [r7, #16]
 1619 003a 9A40     		lsls	r2, r2, r3
 1620 003c 1300     		movs	r3, r2
 1621 003e BB61     		str	r3, [r7, #24]
1350:Generated_Source\PSoC4/CapSense.c ****             counterResolution |= (uint32)(CapSense_RESOLUTION_8_BITS);
 1622              		.loc 1 1350 0
 1623 0040 BB69     		ldr	r3, [r7, #24]
 1624 0042 FF22     		movs	r2, #255
 1625 0044 1204     		lsls	r2, r2, #16
 1626 0046 1343     		orrs	r3, r2
 1627 0048 BB61     		str	r3, [r7, #24]
 1628              	.L84:
1351:Generated_Source\PSoC4/CapSense.c ****         }
1352:Generated_Source\PSoC4/CapSense.c ****     #endif /* ((CapSense_TUNING_METHOD == CapSense__TUNING_AUTO) &&\
1353:Generated_Source\PSoC4/CapSense.c ****                (0 != CapSense_IS_OVERSAMPLING_EN)) */
1354:Generated_Source\PSoC4/CapSense.c **** 
1355:Generated_Source\PSoC4/CapSense.c ****     #if (0u != CapSense_IS_M0S8PERI_BLOCK)
1356:Generated_Source\PSoC4/CapSense.c ****         CapSense_SenseClk_Stop();
 1629              		.loc 1 1356 0
 1630 004a FFF7FEFF 		bl	CapSense_SenseClk_Stop
1357:Generated_Source\PSoC4/CapSense.c ****         CapSense_SampleClk_Stop();
 1631              		.loc 1 1357 0
 1632 004e FFF7FEFF 		bl	CapSense_SampleClk_Stop
1358:Generated_Source\PSoC4/CapSense.c ****     #endif /* (0u != CapSense_IS_M0S8PERI_BLOCK) */
1359:Generated_Source\PSoC4/CapSense.c **** 
1360:Generated_Source\PSoC4/CapSense.c ****     #if (0u != CapSense_MULTIPLE_FREQUENCY_SET)
1361:Generated_Source\PSoC4/CapSense.c ****         CapSense_SampleClk_SetDividerValue((uint16)CapSense_sampleClkDividerVal[sensor]);
 1633              		.loc 1 1361 0
 1634 0052 534A     		ldr	r2, .L87+12
 1635 0054 7B68     		ldr	r3, [r7, #4]
 1636 0056 D318     		adds	r3, r2, r3
 1637 0058 1B78     		ldrb	r3, [r3]
 1638 005a 9BB2     		uxth	r3, r3
 1639 005c 013B     		subs	r3, r3, #1
 1640 005e 9BB2     		uxth	r3, r3
 1641 0060 0021     		movs	r1, #0
 1642 0062 1800     		movs	r0, r3
 1643 0064 FFF7FEFF 		bl	CapSense_SampleClk_SetFractionalDividerRegister
1362:Generated_Source\PSoC4/CapSense.c ****         CapSense_SenseClk_SetDividerValue((uint16)CapSense_senseClkDividerVal[sensor]);
 1644              		.loc 1 1362 0
 1645 0068 4E4A     		ldr	r2, .L87+16
 1646 006a 7B68     		ldr	r3, [r7, #4]
 1647 006c D318     		adds	r3, r2, r3
 1648 006e 1B78     		ldrb	r3, [r3]
ARM GAS  C:\Users\PC\AppData\Local\Temp\cc3ehIEg.s 			page 54


 1649 0070 9BB2     		uxth	r3, r3
 1650 0072 013B     		subs	r3, r3, #1
 1651 0074 9BB2     		uxth	r3, r3
 1652 0076 0021     		movs	r1, #0
 1653 0078 1800     		movs	r0, r3
 1654 007a FFF7FEFF 		bl	CapSense_SenseClk_SetFractionalDividerRegister
1363:Generated_Source\PSoC4/CapSense.c ****     #else
1364:Generated_Source\PSoC4/CapSense.c ****         CapSense_SampleClk_SetDividerValue((uint16)CapSense_sampleClkDividerVal);
1365:Generated_Source\PSoC4/CapSense.c ****         CapSense_SenseClk_SetDividerValue((uint16)CapSense_senseClkDividerVal);
1366:Generated_Source\PSoC4/CapSense.c ****     #endif /* (0u != CapSense_MULTIPLE_FREQUENCY_SET) */
1367:Generated_Source\PSoC4/CapSense.c **** 
1368:Generated_Source\PSoC4/CapSense.c ****     #if (0u != CapSense_IS_M0S8PERI_BLOCK)
1369:Generated_Source\PSoC4/CapSense.c ****         CapSense_SampleClk_Start();
 1655              		.loc 1 1369 0
 1656 007e FF20     		movs	r0, #255
 1657 0080 FFF7FEFF 		bl	CapSense_SampleClk_StartEx
1370:Generated_Source\PSoC4/CapSense.c ****         CapSense_SenseClk_StartEx(CapSense_SampleClk__DIV_ID);
 1658              		.loc 1 1370 0
 1659 0084 4020     		movs	r0, #64
 1660 0086 FFF7FEFF 		bl	CapSense_SenseClk_StartEx
1371:Generated_Source\PSoC4/CapSense.c **** 
1372:Generated_Source\PSoC4/CapSense.c ****         #if(CapSense_PRS_OPTIONS == CapSense__PRS_NONE)
1373:Generated_Source\PSoC4/CapSense.c ****             CyIntDisable(CapSense_ISR_NUMBER);
1374:Generated_Source\PSoC4/CapSense.c ****             CapSense_CSD_CNT_REG = CapSense_ONE_CYCLE;
1375:Generated_Source\PSoC4/CapSense.c ****             while(0u != (CapSense_CSD_CNT_REG & CapSense_RESOLUTION_16_BITS))
1376:Generated_Source\PSoC4/CapSense.c ****             {
1377:Generated_Source\PSoC4/CapSense.c ****             /* Wait until scanning is complete */
1378:Generated_Source\PSoC4/CapSense.c ****             }
1379:Generated_Source\PSoC4/CapSense.c ****             CapSense_CSD_INTR_REG = 1u;
1380:Generated_Source\PSoC4/CapSense.c ****             CyIntClearPending(CapSense_ISR_NUMBER);
1381:Generated_Source\PSoC4/CapSense.c ****             CyIntEnable(CapSense_ISR_NUMBER);
1382:Generated_Source\PSoC4/CapSense.c ****         #endif /* CapSense_PRS_OPTIONS == CapSense__PRS_NONE */
1383:Generated_Source\PSoC4/CapSense.c ****     #endif /* (0u != CapSense_IS_M0S8PERI_BLOCK) */
1384:Generated_Source\PSoC4/CapSense.c **** 
1385:Generated_Source\PSoC4/CapSense.c **** #if(CapSense_PRS_OPTIONS != CapSense__PRS_NONE)
1386:Generated_Source\PSoC4/CapSense.c **** 
1387:Generated_Source\PSoC4/CapSense.c ****     #if(CapSense_TUNING_METHOD == CapSense__TUNING_AUTO)
1388:Generated_Source\PSoC4/CapSense.c ****         if(CapSense_prescalersTuningDone != 0u)
 1661              		.loc 1 1388 0
 1662 008a 474B     		ldr	r3, .L87+20
 1663 008c 1B78     		ldrb	r3, [r3]
 1664 008e 002B     		cmp	r3, #0
 1665 0090 39D0     		beq	.L85
1389:Generated_Source\PSoC4/CapSense.c ****         {
1390:Generated_Source\PSoC4/CapSense.c ****     #endif /* (CapSense_TUNING_METHOD == CapSense__TUNING_AUTO) */
1391:Generated_Source\PSoC4/CapSense.c **** 
1392:Generated_Source\PSoC4/CapSense.c ****             CyIntDisable(CapSense_ISR_NUMBER);
 1666              		.loc 1 1392 0
 1667 0092 1020     		movs	r0, #16
 1668 0094 FFF7FEFF 		bl	CyIntDisable
1393:Generated_Source\PSoC4/CapSense.c **** 
1394:Generated_Source\PSoC4/CapSense.c ****             newRegValue = CapSense_CSD_CFG_REG;
 1669              		.loc 1 1394 0
 1670 0098 444B     		ldr	r3, .L87+24
 1671 009a 1B68     		ldr	r3, [r3]
 1672 009c FB61     		str	r3, [r7, #28]
1395:Generated_Source\PSoC4/CapSense.c ****             newRegValue |= CapSense_CSD_CFG_PRS_SELECT;
ARM GAS  C:\Users\PC\AppData\Local\Temp\cc3ehIEg.s 			page 55


 1673              		.loc 1 1395 0
 1674 009e FB69     		ldr	r3, [r7, #28]
 1675 00a0 4022     		movs	r2, #64
 1676 00a2 1343     		orrs	r3, r2
 1677 00a4 FB61     		str	r3, [r7, #28]
1396:Generated_Source\PSoC4/CapSense.c **** 
1397:Generated_Source\PSoC4/CapSense.c ****             #if(CapSense_PRS_OPTIONS == CapSense__PRS_AUTO)
1398:Generated_Source\PSoC4/CapSense.c **** 
1399:Generated_Source\PSoC4/CapSense.c ****                 newRegValue &= ~(CapSense_PRS_MODE_MASK);
 1678              		.loc 1 1399 0
 1679 00a6 FB69     		ldr	r3, [r7, #28]
 1680 00a8 8022     		movs	r2, #128
 1681 00aa 9343     		bics	r3, r2
 1682 00ac FB61     		str	r3, [r7, #28]
1400:Generated_Source\PSoC4/CapSense.c **** 
1401:Generated_Source\PSoC4/CapSense.c ****                 #if (0u != CapSense_MULTIPLE_FREQUENCY_SET)
1402:Generated_Source\PSoC4/CapSense.c ****                     senseClkDivMath = CapSense_senseClkDividerVal[sensor];
 1683              		.loc 1 1402 0
 1684 00ae 0F23     		movs	r3, #15
 1685 00b0 FB18     		adds	r3, r7, r3
 1686 00b2 3C49     		ldr	r1, .L87+16
 1687 00b4 7A68     		ldr	r2, [r7, #4]
 1688 00b6 8A18     		adds	r2, r1, r2
 1689 00b8 1278     		ldrb	r2, [r2]
 1690 00ba 1A70     		strb	r2, [r3]
1403:Generated_Source\PSoC4/CapSense.c ****                     sampleClkDivMath = CapSense_sampleClkDividerVal[sensor];
 1691              		.loc 1 1403 0
 1692 00bc 0E23     		movs	r3, #14
 1693 00be FB18     		adds	r3, r7, r3
 1694 00c0 3749     		ldr	r1, .L87+12
 1695 00c2 7A68     		ldr	r2, [r7, #4]
 1696 00c4 8A18     		adds	r2, r1, r2
 1697 00c6 1278     		ldrb	r2, [r2]
 1698 00c8 1A70     		strb	r2, [r3]
1404:Generated_Source\PSoC4/CapSense.c ****                 #else
1405:Generated_Source\PSoC4/CapSense.c ****                     senseClkDivMath = CapSense_senseClkDividerVal;
1406:Generated_Source\PSoC4/CapSense.c ****                     sampleClkDivMath = CapSense_sampleClkDividerVal;
1407:Generated_Source\PSoC4/CapSense.c ****                 #endif /* ( CapSense_MULTIPLE_FREQUENCY_SET) */
1408:Generated_Source\PSoC4/CapSense.c **** 
1409:Generated_Source\PSoC4/CapSense.c ****                 #if(0u == CapSense_IS_M0S8PERI_BLOCK)
1410:Generated_Source\PSoC4/CapSense.c ****                     senseClkDivMath *= sampleClkDivMath;
1411:Generated_Source\PSoC4/CapSense.c ****                 #endif /* (0u == CapSense_IS_M0S8PERI_BLOCK) */
1412:Generated_Source\PSoC4/CapSense.c **** 
1413:Generated_Source\PSoC4/CapSense.c ****                 if((senseClkDivMath * CapSense_RESOLUTION_12_BITS) <
 1699              		.loc 1 1413 0
 1700 00ca 0F23     		movs	r3, #15
 1701 00cc FB18     		adds	r3, r7, r3
 1702 00ce 1A78     		ldrb	r2, [r3]
 1703 00d0 1300     		movs	r3, r2
 1704 00d2 1B03     		lsls	r3, r3, #12
 1705 00d4 9B1A     		subs	r3, r3, r2
 1706 00d6 1B04     		lsls	r3, r3, #16
 1707 00d8 1800     		movs	r0, r3
1414:Generated_Source\PSoC4/CapSense.c ****                    (sampleClkDivMath * CapSense_widgetResolution[widget]))
 1708              		.loc 1 1414 0
 1709 00da 0E23     		movs	r3, #14
 1710 00dc FB18     		adds	r3, r7, r3
ARM GAS  C:\Users\PC\AppData\Local\Temp\cc3ehIEg.s 			page 56


 1711 00de 1B78     		ldrb	r3, [r3]
 1712 00e0 1722     		movs	r2, #23
 1713 00e2 BA18     		adds	r2, r7, r2
 1714 00e4 1178     		ldrb	r1, [r2]
 1715 00e6 2B4A     		ldr	r2, .L87
 1716 00e8 8900     		lsls	r1, r1, #2
 1717 00ea 8A58     		ldr	r2, [r1, r2]
 1718 00ec 5343     		muls	r3, r2
1413:Generated_Source\PSoC4/CapSense.c ****                    (sampleClkDivMath * CapSense_widgetResolution[widget]))
 1719              		.loc 1 1413 0
 1720 00ee 9842     		cmp	r0, r3
 1721 00f0 03D2     		bcs	.L86
1415:Generated_Source\PSoC4/CapSense.c ****                 {
1416:Generated_Source\PSoC4/CapSense.c ****                     newRegValue |= CapSense_CSD_PRS_12_BIT;
 1722              		.loc 1 1416 0
 1723 00f2 FB69     		ldr	r3, [r7, #28]
 1724 00f4 8022     		movs	r2, #128
 1725 00f6 1343     		orrs	r3, r2
 1726 00f8 FB61     		str	r3, [r7, #28]
 1727              	.L86:
1417:Generated_Source\PSoC4/CapSense.c ****                 }
1418:Generated_Source\PSoC4/CapSense.c ****             #endif /* (CapSense_PRS_OPTIONS == CapSense__PRS_AUTO) */
1419:Generated_Source\PSoC4/CapSense.c **** 
1420:Generated_Source\PSoC4/CapSense.c ****             CapSense_CSD_CFG_REG = newRegValue;
 1728              		.loc 1 1420 0
 1729 00fa 2C4B     		ldr	r3, .L87+24
 1730 00fc FA69     		ldr	r2, [r7, #28]
 1731 00fe 1A60     		str	r2, [r3]
1421:Generated_Source\PSoC4/CapSense.c **** 
1422:Generated_Source\PSoC4/CapSense.c ****             CyIntEnable(CapSense_ISR_NUMBER);
 1732              		.loc 1 1422 0
 1733 0100 1020     		movs	r0, #16
 1734 0102 FFF7FEFF 		bl	CyIntEnable
 1735              	.L85:
1423:Generated_Source\PSoC4/CapSense.c **** 
1424:Generated_Source\PSoC4/CapSense.c ****     #if(CapSense_TUNING_METHOD == CapSense__TUNING_AUTO)
1425:Generated_Source\PSoC4/CapSense.c ****         }
1426:Generated_Source\PSoC4/CapSense.c ****     #endif /* (CapSense_PRS_OPTIONS != CapSense__PRS_NONE) */
1427:Generated_Source\PSoC4/CapSense.c **** 
1428:Generated_Source\PSoC4/CapSense.c **** #endif /* (CapSense_PRS_OPTIONS == CapSense__PRS_NONE) */
1429:Generated_Source\PSoC4/CapSense.c **** 
1430:Generated_Source\PSoC4/CapSense.c ****     /* Set Idac Value */
1431:Generated_Source\PSoC4/CapSense.c ****     CyIntDisable(CapSense_ISR_NUMBER);
 1736              		.loc 1 1431 0
 1737 0106 1020     		movs	r0, #16
 1738 0108 FFF7FEFF 		bl	CyIntDisable
1432:Generated_Source\PSoC4/CapSense.c ****     newRegValue = CapSense_CSD_IDAC_REG;
 1739              		.loc 1 1432 0
 1740 010c 284B     		ldr	r3, .L87+28
 1741 010e 1B68     		ldr	r3, [r3]
 1742 0110 FB61     		str	r3, [r7, #28]
1433:Generated_Source\PSoC4/CapSense.c **** 
1434:Generated_Source\PSoC4/CapSense.c **** #if (CapSense_IDAC_CNT == 1u)
1435:Generated_Source\PSoC4/CapSense.c ****     newRegValue &= ~(CapSense_CSD_IDAC1_DATA_MASK);
1436:Generated_Source\PSoC4/CapSense.c ****     newRegValue |= CapSense_modulationIDAC[sensor];
1437:Generated_Source\PSoC4/CapSense.c **** #else
1438:Generated_Source\PSoC4/CapSense.c ****     newRegValue &= ~(CapSense_CSD_IDAC1_DATA_MASK | CapSense_CSD_IDAC2_DATA_MASK);
ARM GAS  C:\Users\PC\AppData\Local\Temp\cc3ehIEg.s 			page 57


 1743              		.loc 1 1438 0
 1744 0112 FB69     		ldr	r3, [r7, #28]
 1745 0114 274A     		ldr	r2, .L87+32
 1746 0116 1340     		ands	r3, r2
 1747 0118 FB61     		str	r3, [r7, #28]
1439:Generated_Source\PSoC4/CapSense.c ****     newRegValue |= (CapSense_modulationIDAC[sensor] |
 1748              		.loc 1 1439 0
 1749 011a 274A     		ldr	r2, .L87+36
 1750 011c 7B68     		ldr	r3, [r7, #4]
 1751 011e D318     		adds	r3, r2, r3
 1752 0120 1B78     		ldrb	r3, [r3]
 1753 0122 1900     		movs	r1, r3
1440:Generated_Source\PSoC4/CapSense.c ****                             (uint32)((uint32)CapSense_compensationIDAC[sensor] <<
 1754              		.loc 1 1440 0
 1755 0124 254A     		ldr	r2, .L87+40
 1756 0126 7B68     		ldr	r3, [r7, #4]
 1757 0128 D318     		adds	r3, r2, r3
 1758 012a 1B78     		ldrb	r3, [r3]
 1759 012c 1B04     		lsls	r3, r3, #16
1439:Generated_Source\PSoC4/CapSense.c ****     newRegValue |= (CapSense_modulationIDAC[sensor] |
 1760              		.loc 1 1439 0
 1761 012e 0B43     		orrs	r3, r1
 1762 0130 FA69     		ldr	r2, [r7, #28]
 1763 0132 1343     		orrs	r3, r2
 1764 0134 FB61     		str	r3, [r7, #28]
1441:Generated_Source\PSoC4/CapSense.c ****                             CapSense_CSD_IDAC2_DATA_OFFSET));
1442:Generated_Source\PSoC4/CapSense.c **** #endif /* (CapSense_IDAC_CNT == 1u) */
1443:Generated_Source\PSoC4/CapSense.c **** 
1444:Generated_Source\PSoC4/CapSense.c ****     CapSense_CSD_IDAC_REG = newRegValue;
 1765              		.loc 1 1444 0
 1766 0136 1E4B     		ldr	r3, .L87+28
 1767 0138 FA69     		ldr	r2, [r7, #28]
 1768 013a 1A60     		str	r2, [r3]
1445:Generated_Source\PSoC4/CapSense.c **** 
1446:Generated_Source\PSoC4/CapSense.c **** #if(CapSense_CMOD_PREGARGE_OPTION == CapSense__CAPPRIOBUF)
1447:Generated_Source\PSoC4/CapSense.c ****     newRegValue = CapSense_CMOD_CONNECTION_REG;
1448:Generated_Source\PSoC4/CapSense.c ****     newRegValue &= ~(CapSense_CSD_CMOD_CONNECTION_MASK);
1449:Generated_Source\PSoC4/CapSense.c ****     newRegValue |= CapSense_CSD_CMOD_TO_AMUXBUS_A;
1450:Generated_Source\PSoC4/CapSense.c ****     CapSense_CMOD_CONNECTION_REG = newRegValue;
1451:Generated_Source\PSoC4/CapSense.c **** 
1452:Generated_Source\PSoC4/CapSense.c ****     newRegValue = CapSense_CMOD_PORT_PC_REG;
1453:Generated_Source\PSoC4/CapSense.c ****     newRegValue &= ~(CapSense_CSD_CMOD_PC_MASK);
1454:Generated_Source\PSoC4/CapSense.c ****     newRegValue |= CapSense_CMOD_PC_HIGH_Z_MODE;
1455:Generated_Source\PSoC4/CapSense.c ****     CapSense_CMOD_PORT_PC_REG = newRegValue;
1456:Generated_Source\PSoC4/CapSense.c **** #endif /* (CapSense_CMOD_PREGARGE_OPTION == CapSense__CAPPRIOBUF) */
1457:Generated_Source\PSoC4/CapSense.c **** 
1458:Generated_Source\PSoC4/CapSense.c ****     /* Disconnect Vref Buffer from AMUX */
1459:Generated_Source\PSoC4/CapSense.c ****     newRegValue = CapSense_CSD_CFG_REG;
 1769              		.loc 1 1459 0
 1770 013c 1B4B     		ldr	r3, .L87+24
 1771 013e 1B68     		ldr	r3, [r3]
 1772 0140 FB61     		str	r3, [r7, #28]
1460:Generated_Source\PSoC4/CapSense.c ****     newRegValue &= ~(CapSense_PRECHARGE_CONFIG_MASK);
 1773              		.loc 1 1460 0
 1774 0142 FB69     		ldr	r3, [r7, #28]
 1775 0144 1E4A     		ldr	r2, .L87+44
 1776 0146 1340     		ands	r3, r2
ARM GAS  C:\Users\PC\AppData\Local\Temp\cc3ehIEg.s 			page 58


 1777 0148 FB61     		str	r3, [r7, #28]
1461:Generated_Source\PSoC4/CapSense.c ****     newRegValue |= CapSense_CTANK_PRECHARGE_CONFIG;
 1778              		.loc 1 1461 0
 1779 014a FB69     		ldr	r3, [r7, #28]
 1780 014c 1D4A     		ldr	r2, .L87+48
 1781 014e 1343     		orrs	r3, r2
 1782 0150 FB61     		str	r3, [r7, #28]
1462:Generated_Source\PSoC4/CapSense.c **** 
1463:Generated_Source\PSoC4/CapSense.c ****     CyIntEnable(CapSense_ISR_NUMBER);
 1783              		.loc 1 1463 0
 1784 0152 1020     		movs	r0, #16
 1785 0154 FFF7FEFF 		bl	CyIntEnable
1464:Generated_Source\PSoC4/CapSense.c **** 
1465:Generated_Source\PSoC4/CapSense.c ****     /* Enable Sensor */
1466:Generated_Source\PSoC4/CapSense.c ****     CapSense_EnableScanSlot(sensor);
 1786              		.loc 1 1466 0
 1787 0158 7B68     		ldr	r3, [r7, #4]
 1788 015a 1800     		movs	r0, r3
 1789 015c FFF7FEFF 		bl	CapSense_EnableSensor
1467:Generated_Source\PSoC4/CapSense.c **** 
1468:Generated_Source\PSoC4/CapSense.c ****     interruptState = CyEnterCriticalSection();
 1790              		.loc 1 1468 0
 1791 0160 0D23     		movs	r3, #13
 1792 0162 FC18     		adds	r4, r7, r3
 1793 0164 FFF7FEFF 		bl	CyEnterCriticalSection
 1794 0168 0300     		movs	r3, r0
 1795 016a 2370     		strb	r3, [r4]
1469:Generated_Source\PSoC4/CapSense.c ****     CapSense_CSD_CFG_REG = newRegValue;
 1796              		.loc 1 1469 0
 1797 016c 0F4B     		ldr	r3, .L87+24
 1798 016e FA69     		ldr	r2, [r7, #28]
 1799 0170 1A60     		str	r2, [r3]
1470:Generated_Source\PSoC4/CapSense.c **** 
1471:Generated_Source\PSoC4/CapSense.c ****     /* `#START CapSense_PreSettlingDelay_Debug` */
1472:Generated_Source\PSoC4/CapSense.c **** 
1473:Generated_Source\PSoC4/CapSense.c ****     /* `#END` */
1474:Generated_Source\PSoC4/CapSense.c **** 
1475:Generated_Source\PSoC4/CapSense.c **** #ifdef CapSense_PRE_SCAN_PRE_SETTLING_DELAY_DEBUG_CALLBACK
1476:Generated_Source\PSoC4/CapSense.c ****     CapSense_PreScan_Pre_SettlingDelay_Debug_Callback();
1477:Generated_Source\PSoC4/CapSense.c **** #endif /* CapSense_PRE_SCAN_PRE_SETTLING_DELAY_DEBUG_CALLBACK */
1478:Generated_Source\PSoC4/CapSense.c **** 
1479:Generated_Source\PSoC4/CapSense.c ****     CyDelayCycles(CapSense_GLITCH_ELIMINATION_CYCLES);
 1800              		.loc 1 1479 0
 1801 0172 0020     		movs	r0, #0
 1802 0174 FFF7FEFF 		bl	CyDelayCycles
1480:Generated_Source\PSoC4/CapSense.c **** 
1481:Generated_Source\PSoC4/CapSense.c ****     /* `#START CapSense_PreScan_Debug` */
1482:Generated_Source\PSoC4/CapSense.c **** 
1483:Generated_Source\PSoC4/CapSense.c ****     /* `#END` */
1484:Generated_Source\PSoC4/CapSense.c **** 
1485:Generated_Source\PSoC4/CapSense.c **** #ifdef CapSense_PRE_SCAN_DEBUG_CALLBACK
1486:Generated_Source\PSoC4/CapSense.c ****     CapSense_PreScan_Debug_Callback();
1487:Generated_Source\PSoC4/CapSense.c **** #endif /* CapSense_PRE_SCAN_DEBUG_CALLBACK */
1488:Generated_Source\PSoC4/CapSense.c **** 
1489:Generated_Source\PSoC4/CapSense.c ****     CapSense_CSD_CNT_REG = counterResolution;
 1803              		.loc 1 1489 0
 1804 0178 134B     		ldr	r3, .L87+52
ARM GAS  C:\Users\PC\AppData\Local\Temp\cc3ehIEg.s 			page 59


 1805 017a BA69     		ldr	r2, [r7, #24]
 1806 017c 1A60     		str	r2, [r3]
1490:Generated_Source\PSoC4/CapSense.c ****     CyExitCriticalSection(interruptState);
 1807              		.loc 1 1490 0
 1808 017e 0D23     		movs	r3, #13
 1809 0180 FB18     		adds	r3, r7, r3
 1810 0182 1B78     		ldrb	r3, [r3]
 1811 0184 1800     		movs	r0, r3
 1812 0186 FFF7FEFF 		bl	CyExitCriticalSection
1491:Generated_Source\PSoC4/CapSense.c **** }
 1813              		.loc 1 1491 0
 1814 018a C046     		nop
 1815 018c BD46     		mov	sp, r7
 1816 018e 09B0     		add	sp, sp, #36
 1817              		@ sp needed
 1818 0190 90BD     		pop	{r4, r7, pc}
 1819              	.L88:
 1820 0192 C046     		.align	2
 1821              	.L87:
 1822 0194 00000000 		.word	CapSense_widgetResolution
 1823 0198 00000000 		.word	CapSense_scanSpeedTbl
 1824 019c FFFFFEFF 		.word	-65537
 1825 01a0 00000000 		.word	CapSense_sampleClkDividerVal
 1826 01a4 00000000 		.word	CapSense_senseClkDividerVal
 1827 01a8 00000000 		.word	CapSense_prescalersTuningDone
 1828 01ac 04002840 		.word	1076363268
 1829 01b0 08002840 		.word	1076363272
 1830 01b4 00FF80FF 		.word	-8323328
 1831 01b8 00000000 		.word	CapSense_modulationIDAC
 1832 01bc 00000000 		.word	CapSense_compensationIDAC
 1833 01c0 FF1FDFFF 		.word	-2154497
 1834 01c4 20002000 		.word	2097184
 1835 01c8 0C002840 		.word	1076363276
 1836              		.cfi_endproc
 1837              	.LFE56:
 1838              		.size	CapSense_PreScan, .-CapSense_PreScan
 1839              		.section	.text.CapSense_PostScan,"ax",%progbits
 1840              		.align	2
 1841              		.global	CapSense_PostScan
 1842              		.code	16
 1843              		.thumb_func
 1844              		.type	CapSense_PostScan, %function
 1845              	CapSense_PostScan:
 1846              	.LFB57:
1492:Generated_Source\PSoC4/CapSense.c **** 
1493:Generated_Source\PSoC4/CapSense.c **** 
1494:Generated_Source\PSoC4/CapSense.c **** /*******************************************************************************
1495:Generated_Source\PSoC4/CapSense.c **** * Function Name: CapSense_PostScan
1496:Generated_Source\PSoC4/CapSense.c **** ********************************************************************************
1497:Generated_Source\PSoC4/CapSense.c **** *
1498:Generated_Source\PSoC4/CapSense.c **** * Summary:
1499:Generated_Source\PSoC4/CapSense.c **** *  Stores the results of measurement in the CapSense_sensorRaw[] array,
1500:Generated_Source\PSoC4/CapSense.c **** *  sets the scanning sensor in the non-sampling state, turns off Idac(Current Source IDAC),
1501:Generated_Source\PSoC4/CapSense.c **** *  disconnects the IDAC(Sink mode), and applies Vref on AMUX.
1502:Generated_Source\PSoC4/CapSense.c **** *
1503:Generated_Source\PSoC4/CapSense.c **** * Parameters:
1504:Generated_Source\PSoC4/CapSense.c **** *  sensor:  Sensor number.
ARM GAS  C:\Users\PC\AppData\Local\Temp\cc3ehIEg.s 			page 60


1505:Generated_Source\PSoC4/CapSense.c **** *
1506:Generated_Source\PSoC4/CapSense.c **** * Return:
1507:Generated_Source\PSoC4/CapSense.c **** *  None
1508:Generated_Source\PSoC4/CapSense.c **** *
1509:Generated_Source\PSoC4/CapSense.c **** * Global Variables:
1510:Generated_Source\PSoC4/CapSense.c **** *  CapSense_sensorRaw[] - used to store sensors raw data.
1511:Generated_Source\PSoC4/CapSense.c **** *
1512:Generated_Source\PSoC4/CapSense.c **** * Side Effects:
1513:Generated_Source\PSoC4/CapSense.c **** *  None
1514:Generated_Source\PSoC4/CapSense.c **** *
1515:Generated_Source\PSoC4/CapSense.c **** *******************************************************************************/
1516:Generated_Source\PSoC4/CapSense.c **** void CapSense_PostScan(uint32 sensor)
1517:Generated_Source\PSoC4/CapSense.c **** {
 1847              		.loc 1 1517 0
 1848              		.cfi_startproc
 1849              		@ args = 0, pretend = 0, frame = 24
 1850              		@ frame_needed = 1, uses_anonymous_args = 0
 1851 0000 80B5     		push	{r7, lr}
 1852              		.cfi_def_cfa_offset 8
 1853              		.cfi_offset 7, -8
 1854              		.cfi_offset 14, -4
 1855 0002 86B0     		sub	sp, sp, #24
 1856              		.cfi_def_cfa_offset 32
 1857 0004 00AF     		add	r7, sp, #0
 1858              		.cfi_def_cfa_register 7
 1859 0006 7860     		str	r0, [r7, #4]
1518:Generated_Source\PSoC4/CapSense.c ****     uint32 newRegValue;
1519:Generated_Source\PSoC4/CapSense.c **** #if ((CapSense_TUNING_METHOD == CapSense__TUNING_AUTO) &&\
1520:Generated_Source\PSoC4/CapSense.c ****      (0 != CapSense_IS_OVERSAMPLING_EN))
1521:Generated_Source\PSoC4/CapSense.c ****     uint32 oversamplingFactor;
1522:Generated_Source\PSoC4/CapSense.c ****     uint32 widget;
1523:Generated_Source\PSoC4/CapSense.c **** #endif /* ((CapSense_TUNING_METHOD == CapSense__TUNING_AUTO) &&\
1524:Generated_Source\PSoC4/CapSense.c ****            (0 != CapSense_IS_OVERSAMPLING_EN)) */
1525:Generated_Source\PSoC4/CapSense.c **** 
1526:Generated_Source\PSoC4/CapSense.c ****     /* `#START CapSense_PostScan_Debug` */
1527:Generated_Source\PSoC4/CapSense.c **** 
1528:Generated_Source\PSoC4/CapSense.c ****     /* `#END` */
1529:Generated_Source\PSoC4/CapSense.c **** 
1530:Generated_Source\PSoC4/CapSense.c **** #ifdef CapSense_POST_SCAN_DEBUG_CALLBACK
1531:Generated_Source\PSoC4/CapSense.c ****     CapSense_PostScan_Debug_Callback();
1532:Generated_Source\PSoC4/CapSense.c **** #endif /* CapSense_POST_SCAN_DEBUG_Callback */
1533:Generated_Source\PSoC4/CapSense.c **** 
1534:Generated_Source\PSoC4/CapSense.c ****     /* Read SlotResult from Raw Counter */
1535:Generated_Source\PSoC4/CapSense.c ****     CapSense_sensorRaw[sensor]  = (uint16)CapSense_CSD_CNT_REG;
 1860              		.loc 1 1535 0
 1861 0008 234B     		ldr	r3, .L91
 1862 000a 1B68     		ldr	r3, [r3]
 1863 000c 99B2     		uxth	r1, r3
 1864 000e 234B     		ldr	r3, .L91+4
 1865 0010 7A68     		ldr	r2, [r7, #4]
 1866 0012 5200     		lsls	r2, r2, #1
 1867 0014 D152     		strh	r1, [r2, r3]
1536:Generated_Source\PSoC4/CapSense.c **** 
1537:Generated_Source\PSoC4/CapSense.c **** #if ((CapSense_TUNING_METHOD == CapSense__TUNING_AUTO) &&\
1538:Generated_Source\PSoC4/CapSense.c ****      (0 != CapSense_IS_OVERSAMPLING_EN))
1539:Generated_Source\PSoC4/CapSense.c ****     widget = CapSense_widgetNumber[sensor];
 1868              		.loc 1 1539 0
ARM GAS  C:\Users\PC\AppData\Local\Temp\cc3ehIEg.s 			page 61


 1869 0016 0023     		movs	r3, #0
 1870 0018 7B61     		str	r3, [r7, #20]
1540:Generated_Source\PSoC4/CapSense.c ****     if(CapSense_widgetResolution[widget] < CapSense_RESOLUTION_16_BITS)
 1871              		.loc 1 1540 0
 1872 001a 214B     		ldr	r3, .L91+8
 1873 001c 7A69     		ldr	r2, [r7, #20]
 1874 001e 9200     		lsls	r2, r2, #2
 1875 0020 D358     		ldr	r3, [r2, r3]
 1876 0022 204A     		ldr	r2, .L91+12
 1877 0024 9342     		cmp	r3, r2
 1878 0026 14D8     		bhi	.L90
1541:Generated_Source\PSoC4/CapSense.c ****     {
1542:Generated_Source\PSoC4/CapSense.c ****         oversamplingFactor = CapSense_GetBitValue(CapSense_scanSpeedTbl, sensor);
 1879              		.loc 1 1542 0
 1880 0028 7A68     		ldr	r2, [r7, #4]
 1881 002a 1F4B     		ldr	r3, .L91+16
 1882 002c 1100     		movs	r1, r2
 1883 002e 1800     		movs	r0, r3
 1884 0030 FFF7FEFF 		bl	CapSense_GetBitValue
 1885 0034 0300     		movs	r3, r0
 1886 0036 3B61     		str	r3, [r7, #16]
1543:Generated_Source\PSoC4/CapSense.c ****         CapSense_sensorRaw[sensor] >>= oversamplingFactor;
 1887              		.loc 1 1543 0
 1888 0038 184B     		ldr	r3, .L91+4
 1889 003a 7A68     		ldr	r2, [r7, #4]
 1890 003c 5200     		lsls	r2, r2, #1
 1891 003e D35A     		ldrh	r3, [r2, r3]
 1892 0040 1A00     		movs	r2, r3
 1893 0042 3B69     		ldr	r3, [r7, #16]
 1894 0044 1A41     		asrs	r2, r2, r3
 1895 0046 1300     		movs	r3, r2
 1896 0048 99B2     		uxth	r1, r3
 1897 004a 144B     		ldr	r3, .L91+4
 1898 004c 7A68     		ldr	r2, [r7, #4]
 1899 004e 5200     		lsls	r2, r2, #1
 1900 0050 D152     		strh	r1, [r2, r3]
 1901              	.L90:
1544:Generated_Source\PSoC4/CapSense.c ****     }
1545:Generated_Source\PSoC4/CapSense.c **** #endif /* ((CapSense_TUNING_METHOD == CapSense__TUNING_AUTO) &&\
1546:Generated_Source\PSoC4/CapSense.c ****            (0 != CapSense_IS_OVERSAMPLING_EN)) */
1547:Generated_Source\PSoC4/CapSense.c **** 
1548:Generated_Source\PSoC4/CapSense.c ****     /* Disable Sensor */
1549:Generated_Source\PSoC4/CapSense.c ****     CapSense_DisableScanSlot(sensor);
 1902              		.loc 1 1549 0
 1903 0052 7B68     		ldr	r3, [r7, #4]
 1904 0054 1800     		movs	r0, r3
 1905 0056 FFF7FEFF 		bl	CapSense_DisableSensor
1550:Generated_Source\PSoC4/CapSense.c **** 
1551:Generated_Source\PSoC4/CapSense.c ****     CyIntDisable(CapSense_ISR_NUMBER);
 1906              		.loc 1 1551 0
 1907 005a 1020     		movs	r0, #16
 1908 005c FFF7FEFF 		bl	CyIntDisable
1552:Generated_Source\PSoC4/CapSense.c **** 
1553:Generated_Source\PSoC4/CapSense.c **** #if(CapSense_CMOD_PREGARGE_OPTION == CapSense__CAPPRIOBUF)
1554:Generated_Source\PSoC4/CapSense.c ****     newRegValue = CapSense_CMOD_CONNECTION_REG;
1555:Generated_Source\PSoC4/CapSense.c ****     newRegValue &= ~(CapSense_CSD_CMOD_CONNECTION_MASK);
1556:Generated_Source\PSoC4/CapSense.c ****     newRegValue |= CapSense_CSD_CMOD_TO_AMUXBUS_B;
ARM GAS  C:\Users\PC\AppData\Local\Temp\cc3ehIEg.s 			page 62


1557:Generated_Source\PSoC4/CapSense.c ****     CapSense_CMOD_CONNECTION_REG = newRegValue;
1558:Generated_Source\PSoC4/CapSense.c **** 
1559:Generated_Source\PSoC4/CapSense.c ****     newRegValue = CapSense_CMOD_PORT_PC_REG;
1560:Generated_Source\PSoC4/CapSense.c ****     newRegValue &= ~(CapSense_CSD_CMOD_PC_MASK);
1561:Generated_Source\PSoC4/CapSense.c ****     newRegValue |= CapSense_CMOD_PC_STRONG_MODE;
1562:Generated_Source\PSoC4/CapSense.c ****     CapSense_CMOD_PORT_PC_REG = newRegValue;
1563:Generated_Source\PSoC4/CapSense.c **** 
1564:Generated_Source\PSoC4/CapSense.c ****     newRegValue = CapSense_CMOD_PORT_DR_REG;
1565:Generated_Source\PSoC4/CapSense.c ****     newRegValue &= ~(CapSense_CMOD_DR_MASK);
1566:Generated_Source\PSoC4/CapSense.c ****     newRegValue |= CapSense_CMOD_DR_CONFIG;
1567:Generated_Source\PSoC4/CapSense.c ****     CapSense_CMOD_PORT_DR_REG = newRegValue;
1568:Generated_Source\PSoC4/CapSense.c **** #endif /* (CapSense_CMOD_PREGARGE_OPTION == CapSense__CAPPRIOBUF) */
1569:Generated_Source\PSoC4/CapSense.c **** 
1570:Generated_Source\PSoC4/CapSense.c ****     /* Connect Vref Buffer to AMUX bus  */
1571:Generated_Source\PSoC4/CapSense.c ****     newRegValue = CapSense_CSD_CFG_REG;
 1909              		.loc 1 1571 0
 1910 0060 124B     		ldr	r3, .L91+20
 1911 0062 1B68     		ldr	r3, [r3]
 1912 0064 FB60     		str	r3, [r7, #12]
1572:Generated_Source\PSoC4/CapSense.c ****     newRegValue &= ~(CapSense_PRECHARGE_CONFIG_MASK);
 1913              		.loc 1 1572 0
 1914 0066 FB68     		ldr	r3, [r7, #12]
 1915 0068 114A     		ldr	r2, .L91+24
 1916 006a 1340     		ands	r3, r2
 1917 006c FB60     		str	r3, [r7, #12]
1573:Generated_Source\PSoC4/CapSense.c ****     newRegValue |= CapSense_CMOD_PRECHARGE_CONFIG;
 1918              		.loc 1 1573 0
 1919 006e FB68     		ldr	r3, [r7, #12]
 1920 0070 A022     		movs	r2, #160
 1921 0072 1202     		lsls	r2, r2, #8
 1922 0074 1343     		orrs	r3, r2
 1923 0076 FB60     		str	r3, [r7, #12]
1574:Generated_Source\PSoC4/CapSense.c ****     CapSense_CSD_CFG_REG = newRegValue;
 1924              		.loc 1 1574 0
 1925 0078 0C4B     		ldr	r3, .L91+20
 1926 007a FA68     		ldr	r2, [r7, #12]
 1927 007c 1A60     		str	r2, [r3]
1575:Generated_Source\PSoC4/CapSense.c **** 
1576:Generated_Source\PSoC4/CapSense.c ****     /* Set Idac Value = 0 */
1577:Generated_Source\PSoC4/CapSense.c **** #if (CapSense_IDAC_CNT == 1u)
1578:Generated_Source\PSoC4/CapSense.c ****     CapSense_CSD_IDAC_REG &= ~(CapSense_CSD_IDAC1_DATA_MASK);
1579:Generated_Source\PSoC4/CapSense.c **** #else
1580:Generated_Source\PSoC4/CapSense.c ****     CapSense_CSD_IDAC_REG &= ~(CapSense_CSD_IDAC1_DATA_MASK | CapSense_CSD_IDAC2_DATA_MASK);
 1928              		.loc 1 1580 0
 1929 007e 0D4B     		ldr	r3, .L91+28
 1930 0080 0C4A     		ldr	r2, .L91+28
 1931 0082 1268     		ldr	r2, [r2]
 1932 0084 0C49     		ldr	r1, .L91+32
 1933 0086 0A40     		ands	r2, r1
 1934 0088 1A60     		str	r2, [r3]
1581:Generated_Source\PSoC4/CapSense.c **** #endif /* (CapSense_IDAC_CNT == 1u) */
1582:Generated_Source\PSoC4/CapSense.c **** 
1583:Generated_Source\PSoC4/CapSense.c ****     CyIntEnable(CapSense_ISR_NUMBER);
 1935              		.loc 1 1583 0
 1936 008a 1020     		movs	r0, #16
 1937 008c FFF7FEFF 		bl	CyIntEnable
1584:Generated_Source\PSoC4/CapSense.c **** }
ARM GAS  C:\Users\PC\AppData\Local\Temp\cc3ehIEg.s 			page 63


 1938              		.loc 1 1584 0
 1939 0090 C046     		nop
 1940 0092 BD46     		mov	sp, r7
 1941 0094 06B0     		add	sp, sp, #24
 1942              		@ sp needed
 1943 0096 80BD     		pop	{r7, pc}
 1944              	.L92:
 1945              		.align	2
 1946              	.L91:
 1947 0098 0C002840 		.word	1076363276
 1948 009c 00000000 		.word	CapSense_sensorRaw
 1949 00a0 00000000 		.word	CapSense_widgetResolution
 1950 00a4 FFFFFEFF 		.word	-65537
 1951 00a8 00000000 		.word	CapSense_scanSpeedTbl
 1952 00ac 04002840 		.word	1076363268
 1953 00b0 FF1FDFFF 		.word	-2154497
 1954 00b4 08002840 		.word	1076363272
 1955 00b8 00FF80FF 		.word	-8323328
 1956              		.cfi_endproc
 1957              	.LFE57:
 1958              		.size	CapSense_PostScan, .-CapSense_PostScan
 1959              		.section	.text.CapSense_EnableShieldElectrode,"ax",%progbits
 1960              		.align	2
 1961              		.global	CapSense_EnableShieldElectrode
 1962              		.code	16
 1963              		.thumb_func
 1964              		.type	CapSense_EnableShieldElectrode, %function
 1965              	CapSense_EnableShieldElectrode:
 1966              	.LFB58:
1585:Generated_Source\PSoC4/CapSense.c **** 
1586:Generated_Source\PSoC4/CapSense.c **** 
1587:Generated_Source\PSoC4/CapSense.c **** /*******************************************************************************
1588:Generated_Source\PSoC4/CapSense.c **** * Function Name: CapSense_EnableShieldElectrode
1589:Generated_Source\PSoC4/CapSense.c **** ********************************************************************************
1590:Generated_Source\PSoC4/CapSense.c **** *
1591:Generated_Source\PSoC4/CapSense.c **** * Summary:
1592:Generated_Source\PSoC4/CapSense.c **** *  This API enables or disables the shield electrode on a specified port pin.
1593:Generated_Source\PSoC4/CapSense.c **** *
1594:Generated_Source\PSoC4/CapSense.c **** * Parameters:
1595:Generated_Source\PSoC4/CapSense.c **** *  portNumber: contains the shield electrode port number (0, 1, 2).
1596:Generated_Source\PSoC4/CapSense.c **** *  pinNumber: contains the shield electrode pin number (0, 1, 2, ... , 7).
1597:Generated_Source\PSoC4/CapSense.c **** *
1598:Generated_Source\PSoC4/CapSense.c **** * Return:
1599:Generated_Source\PSoC4/CapSense.c **** *  None
1600:Generated_Source\PSoC4/CapSense.c **** *
1601:Generated_Source\PSoC4/CapSense.c **** * Global Variables:
1602:Generated_Source\PSoC4/CapSense.c **** *  CapSense_prtCfgTbl[] - Contains pointers to the port config registers for each port.
1603:Generated_Source\PSoC4/CapSense.c **** *  CapSense_prtSelTbl[] - Contains pointers to the HSIOM registers for each port.
1604:Generated_Source\PSoC4/CapSense.c **** *
1605:Generated_Source\PSoC4/CapSense.c **** * Side Effects:
1606:Generated_Source\PSoC4/CapSense.c **** *  None
1607:Generated_Source\PSoC4/CapSense.c **** *
1608:Generated_Source\PSoC4/CapSense.c **** *******************************************************************************/
1609:Generated_Source\PSoC4/CapSense.c **** void CapSense_EnableShieldElectrode(uint32 pinNumber, uint32 portNumber)
1610:Generated_Source\PSoC4/CapSense.c **** {
 1967              		.loc 1 1610 0
 1968              		.cfi_startproc
ARM GAS  C:\Users\PC\AppData\Local\Temp\cc3ehIEg.s 			page 64


 1969              		@ args = 0, pretend = 0, frame = 16
 1970              		@ frame_needed = 1, uses_anonymous_args = 0
 1971 0000 80B5     		push	{r7, lr}
 1972              		.cfi_def_cfa_offset 8
 1973              		.cfi_offset 7, -8
 1974              		.cfi_offset 14, -4
 1975 0002 84B0     		sub	sp, sp, #16
 1976              		.cfi_def_cfa_offset 24
 1977 0004 00AF     		add	r7, sp, #0
 1978              		.cfi_def_cfa_register 7
 1979 0006 7860     		str	r0, [r7, #4]
 1980 0008 3960     		str	r1, [r7]
1611:Generated_Source\PSoC4/CapSense.c ****     uint32 newRegValue;
1612:Generated_Source\PSoC4/CapSense.c **** 
1613:Generated_Source\PSoC4/CapSense.c ****     *CapSense_prtCfgTbl[portNumber] &= ~(CapSense_CSD_PIN_MODE_MASK << (pinNumber * CapSense_PC_PIN
 1981              		.loc 1 1613 0
 1982 000a 1A4B     		ldr	r3, .L94
 1983 000c 3A68     		ldr	r2, [r7]
 1984 000e 9200     		lsls	r2, r2, #2
 1985 0010 D258     		ldr	r2, [r2, r3]
 1986 0012 184B     		ldr	r3, .L94
 1987 0014 3968     		ldr	r1, [r7]
 1988 0016 8900     		lsls	r1, r1, #2
 1989 0018 CB58     		ldr	r3, [r1, r3]
 1990 001a 1868     		ldr	r0, [r3]
 1991 001c 7968     		ldr	r1, [r7, #4]
 1992 001e 0B00     		movs	r3, r1
 1993 0020 5B00     		lsls	r3, r3, #1
 1994 0022 5B18     		adds	r3, r3, r1
 1995 0024 0721     		movs	r1, #7
 1996 0026 9940     		lsls	r1, r1, r3
 1997 0028 0B00     		movs	r3, r1
 1998 002a DB43     		mvns	r3, r3
 1999 002c 0340     		ands	r3, r0
 2000 002e 1360     		str	r3, [r2]
1614:Generated_Source\PSoC4/CapSense.c ****     newRegValue = *CapSense_prtSelTbl[portNumber];
 2001              		.loc 1 1614 0
 2002 0030 114B     		ldr	r3, .L94+4
 2003 0032 3A68     		ldr	r2, [r7]
 2004 0034 9200     		lsls	r2, r2, #2
 2005 0036 D358     		ldr	r3, [r2, r3]
 2006 0038 1B68     		ldr	r3, [r3]
 2007 003a FB60     		str	r3, [r7, #12]
1615:Generated_Source\PSoC4/CapSense.c ****     newRegValue &= ~(CapSense_CSD_HSIOM_MASK << (pinNumber * CapSense_HSIOM_PIN_CFG_SIZE));
 2008              		.loc 1 1615 0
 2009 003c 7B68     		ldr	r3, [r7, #4]
 2010 003e 9B00     		lsls	r3, r3, #2
 2011 0040 0F22     		movs	r2, #15
 2012 0042 9A40     		lsls	r2, r2, r3
 2013 0044 1300     		movs	r3, r2
 2014 0046 DA43     		mvns	r2, r3
 2015 0048 FB68     		ldr	r3, [r7, #12]
 2016 004a 1340     		ands	r3, r2
 2017 004c FB60     		str	r3, [r7, #12]
1616:Generated_Source\PSoC4/CapSense.c ****     newRegValue |= (CapSense_CSD_SHIELD_PORT_MODE << (pinNumber * CapSense_HSIOM_PIN_CFG_SIZE));
 2018              		.loc 1 1616 0
 2019 004e 7B68     		ldr	r3, [r7, #4]
ARM GAS  C:\Users\PC\AppData\Local\Temp\cc3ehIEg.s 			page 65


 2020 0050 9B00     		lsls	r3, r3, #2
 2021 0052 0522     		movs	r2, #5
 2022 0054 9A40     		lsls	r2, r2, r3
 2023 0056 1300     		movs	r3, r2
 2024 0058 FA68     		ldr	r2, [r7, #12]
 2025 005a 1343     		orrs	r3, r2
 2026 005c FB60     		str	r3, [r7, #12]
1617:Generated_Source\PSoC4/CapSense.c ****     *CapSense_prtSelTbl[portNumber] = newRegValue;
 2027              		.loc 1 1617 0
 2028 005e 064B     		ldr	r3, .L94+4
 2029 0060 3A68     		ldr	r2, [r7]
 2030 0062 9200     		lsls	r2, r2, #2
 2031 0064 D358     		ldr	r3, [r2, r3]
 2032 0066 FA68     		ldr	r2, [r7, #12]
 2033 0068 1A60     		str	r2, [r3]
1618:Generated_Source\PSoC4/CapSense.c **** }
 2034              		.loc 1 1618 0
 2035 006a C046     		nop
 2036 006c BD46     		mov	sp, r7
 2037 006e 04B0     		add	sp, sp, #16
 2038              		@ sp needed
 2039 0070 80BD     		pop	{r7, pc}
 2040              	.L95:
 2041 0072 C046     		.align	2
 2042              	.L94:
 2043 0074 00000000 		.word	CapSense_prtCfgTbl
 2044 0078 00000000 		.word	CapSense_prtSelTbl
 2045              		.cfi_endproc
 2046              	.LFE58:
 2047              		.size	CapSense_EnableShieldElectrode, .-CapSense_EnableShieldElectrode
 2048              		.section	.text.CapSense_SetShieldDelay,"ax",%progbits
 2049              		.align	2
 2050              		.global	CapSense_SetShieldDelay
 2051              		.code	16
 2052              		.thumb_func
 2053              		.type	CapSense_SetShieldDelay, %function
 2054              	CapSense_SetShieldDelay:
 2055              	.LFB59:
1619:Generated_Source\PSoC4/CapSense.c **** 
1620:Generated_Source\PSoC4/CapSense.c **** 
1621:Generated_Source\PSoC4/CapSense.c **** /*******************************************************************************
1622:Generated_Source\PSoC4/CapSense.c **** * Function Name: CapSense_SetShieldDelay
1623:Generated_Source\PSoC4/CapSense.c **** ********************************************************************************
1624:Generated_Source\PSoC4/CapSense.c **** *
1625:Generated_Source\PSoC4/CapSense.c **** * Summary:
1626:Generated_Source\PSoC4/CapSense.c **** *  This API sets a shield delay.
1627:Generated_Source\PSoC4/CapSense.c **** *
1628:Generated_Source\PSoC4/CapSense.c **** * Parameters:
1629:Generated_Source\PSoC4/CapSense.c **** *  delay:  shield delay value:
1630:Generated_Source\PSoC4/CapSense.c **** *                               0 - no delay
1631:Generated_Source\PSoC4/CapSense.c **** *                               1 - 1 cycle delay
1632:Generated_Source\PSoC4/CapSense.c **** *                               2 - 2 cycles delay
1633:Generated_Source\PSoC4/CapSense.c **** *
1634:Generated_Source\PSoC4/CapSense.c **** * Return:
1635:Generated_Source\PSoC4/CapSense.c **** *  None
1636:Generated_Source\PSoC4/CapSense.c **** *
1637:Generated_Source\PSoC4/CapSense.c **** * Global Variables:
ARM GAS  C:\Users\PC\AppData\Local\Temp\cc3ehIEg.s 			page 66


1638:Generated_Source\PSoC4/CapSense.c **** *  None
1639:Generated_Source\PSoC4/CapSense.c **** *
1640:Generated_Source\PSoC4/CapSense.c **** * Side Effects:
1641:Generated_Source\PSoC4/CapSense.c **** *  None
1642:Generated_Source\PSoC4/CapSense.c **** *
1643:Generated_Source\PSoC4/CapSense.c **** *******************************************************************************/
1644:Generated_Source\PSoC4/CapSense.c **** void CapSense_SetShieldDelay(uint32 delay)
1645:Generated_Source\PSoC4/CapSense.c **** {
 2056              		.loc 1 1645 0
 2057              		.cfi_startproc
 2058              		@ args = 0, pretend = 0, frame = 16
 2059              		@ frame_needed = 1, uses_anonymous_args = 0
 2060 0000 80B5     		push	{r7, lr}
 2061              		.cfi_def_cfa_offset 8
 2062              		.cfi_offset 7, -8
 2063              		.cfi_offset 14, -4
 2064 0002 84B0     		sub	sp, sp, #16
 2065              		.cfi_def_cfa_offset 24
 2066 0004 00AF     		add	r7, sp, #0
 2067              		.cfi_def_cfa_register 7
 2068 0006 7860     		str	r0, [r7, #4]
1646:Generated_Source\PSoC4/CapSense.c ****     uint32 newRegValue;
1647:Generated_Source\PSoC4/CapSense.c **** 
1648:Generated_Source\PSoC4/CapSense.c ****     delay &= 0x03u;
 2069              		.loc 1 1648 0
 2070 0008 7B68     		ldr	r3, [r7, #4]
 2071 000a 0322     		movs	r2, #3
 2072 000c 1340     		ands	r3, r2
 2073 000e 7B60     		str	r3, [r7, #4]
1649:Generated_Source\PSoC4/CapSense.c **** 
1650:Generated_Source\PSoC4/CapSense.c ****     newRegValue = CapSense_CSD_CFG_REG;
 2074              		.loc 1 1650 0
 2075 0010 074B     		ldr	r3, .L97
 2076 0012 1B68     		ldr	r3, [r3]
 2077 0014 FB60     		str	r3, [r7, #12]
1651:Generated_Source\PSoC4/CapSense.c ****     newRegValue &= (uint32)(~(uint32)CapSense_SHIELD_DELAY);
1652:Generated_Source\PSoC4/CapSense.c ****     newRegValue |= (delay << CapSense_CSD_CFG_SHIELD_DELAY_POS);
 2078              		.loc 1 1652 0
 2079 0016 7B68     		ldr	r3, [r7, #4]
 2080 0018 5B02     		lsls	r3, r3, #9
 2081 001a FA68     		ldr	r2, [r7, #12]
 2082 001c 1343     		orrs	r3, r2
 2083 001e FB60     		str	r3, [r7, #12]
1653:Generated_Source\PSoC4/CapSense.c ****     CapSense_CSD_CFG_REG = newRegValue;
 2084              		.loc 1 1653 0
 2085 0020 034B     		ldr	r3, .L97
 2086 0022 FA68     		ldr	r2, [r7, #12]
 2087 0024 1A60     		str	r2, [r3]
1654:Generated_Source\PSoC4/CapSense.c **** }
 2088              		.loc 1 1654 0
 2089 0026 C046     		nop
 2090 0028 BD46     		mov	sp, r7
 2091 002a 04B0     		add	sp, sp, #16
 2092              		@ sp needed
 2093 002c 80BD     		pop	{r7, pc}
 2094              	.L98:
 2095 002e C046     		.align	2
ARM GAS  C:\Users\PC\AppData\Local\Temp\cc3ehIEg.s 			page 67


 2096              	.L97:
 2097 0030 04002840 		.word	1076363268
 2098              		.cfi_endproc
 2099              	.LFE59:
 2100              		.size	CapSense_SetShieldDelay, .-CapSense_SetShieldDelay
 2101              		.section	.text.CapSense_ReadCurrentScanningSensor,"ax",%progbits
 2102              		.align	2
 2103              		.global	CapSense_ReadCurrentScanningSensor
 2104              		.code	16
 2105              		.thumb_func
 2106              		.type	CapSense_ReadCurrentScanningSensor, %function
 2107              	CapSense_ReadCurrentScanningSensor:
 2108              	.LFB60:
1655:Generated_Source\PSoC4/CapSense.c **** 
1656:Generated_Source\PSoC4/CapSense.c **** 
1657:Generated_Source\PSoC4/CapSense.c **** /*******************************************************************************
1658:Generated_Source\PSoC4/CapSense.c **** * Function Name: CapSense_ReadCurrentScanningSensor
1659:Generated_Source\PSoC4/CapSense.c **** ********************************************************************************
1660:Generated_Source\PSoC4/CapSense.c **** *
1661:Generated_Source\PSoC4/CapSense.c **** * Summary:
1662:Generated_Source\PSoC4/CapSense.c **** *  This API returns scanning sensor number when sensor scan is in progress.
1663:Generated_Source\PSoC4/CapSense.c **** *  When sensor scan is completed the API returns
1664:Generated_Source\PSoC4/CapSense.c **** *  $INSTANCE_NAME`_NOT_SENSOR (0xFFFFFFFF) (when no sensor is scanned).
1665:Generated_Source\PSoC4/CapSense.c **** *
1666:Generated_Source\PSoC4/CapSense.c **** * Parameters:
1667:Generated_Source\PSoC4/CapSense.c **** *   None.
1668:Generated_Source\PSoC4/CapSense.c **** *
1669:Generated_Source\PSoC4/CapSense.c **** * Return:
1670:Generated_Source\PSoC4/CapSense.c **** *  Returns Sensor number if sensor is being scanned and
1671:Generated_Source\PSoC4/CapSense.c **** *  $INSTANCE_NAME`_NOT_SENSOR (0xFFFFFFFF) if scanning is complete.
1672:Generated_Source\PSoC4/CapSense.c **** *
1673:Generated_Source\PSoC4/CapSense.c **** * Global Variables:
1674:Generated_Source\PSoC4/CapSense.c **** *  CapSense_sensorIndex - the sensor number is being scanned.
1675:Generated_Source\PSoC4/CapSense.c **** *
1676:Generated_Source\PSoC4/CapSense.c **** * Side Effects:
1677:Generated_Source\PSoC4/CapSense.c **** *  None
1678:Generated_Source\PSoC4/CapSense.c **** *
1679:Generated_Source\PSoC4/CapSense.c **** *******************************************************************************/
1680:Generated_Source\PSoC4/CapSense.c **** uint32 CapSense_ReadCurrentScanningSensor(void)
1681:Generated_Source\PSoC4/CapSense.c **** {
 2109              		.loc 1 1681 0
 2110              		.cfi_startproc
 2111              		@ args = 0, pretend = 0, frame = 0
 2112              		@ frame_needed = 1, uses_anonymous_args = 0
 2113 0000 80B5     		push	{r7, lr}
 2114              		.cfi_def_cfa_offset 8
 2115              		.cfi_offset 7, -8
 2116              		.cfi_offset 14, -4
 2117 0002 00AF     		add	r7, sp, #0
 2118              		.cfi_def_cfa_register 7
1682:Generated_Source\PSoC4/CapSense.c ****     return ((uint32)(( 0u != (CapSense_csdStatusVar & CapSense_SW_STS_BUSY)) ?
 2119              		.loc 1 1682 0
 2120 0004 074B     		ldr	r3, .L103
 2121 0006 1B78     		ldrb	r3, [r3]
 2122 0008 DBB2     		uxtb	r3, r3
 2123 000a 1A00     		movs	r2, r3
 2124 000c 0123     		movs	r3, #1
ARM GAS  C:\Users\PC\AppData\Local\Temp\cc3ehIEg.s 			page 68


 2125 000e 1340     		ands	r3, r2
 2126 0010 03D0     		beq	.L100
 2127              		.loc 1 1682 0 is_stmt 0 discriminator 1
 2128 0012 054B     		ldr	r3, .L103+4
 2129 0014 1B78     		ldrb	r3, [r3]
 2130 0016 DBB2     		uxtb	r3, r3
 2131 0018 01E0     		b	.L102
 2132              	.L100:
 2133              		.loc 1 1682 0 discriminator 2
 2134 001a 0123     		movs	r3, #1
 2135 001c 5B42     		rsbs	r3, r3, #0
 2136              	.L102:
1683:Generated_Source\PSoC4/CapSense.c ****                      CapSense_sensorIndex : CapSense_NOT_SENSOR));
1684:Generated_Source\PSoC4/CapSense.c **** }
 2137              		.loc 1 1684 0 is_stmt 1 discriminator 5
 2138 001e 1800     		movs	r0, r3
 2139 0020 BD46     		mov	sp, r7
 2140              		@ sp needed
 2141 0022 80BD     		pop	{r7, pc}
 2142              	.L104:
 2143              		.align	2
 2144              	.L103:
 2145 0024 00000000 		.word	CapSense_csdStatusVar
 2146 0028 00000000 		.word	CapSense_sensorIndex
 2147              		.cfi_endproc
 2148              	.LFE60:
 2149              		.size	CapSense_ReadCurrentScanningSensor, .-CapSense_ReadCurrentScanningSensor
 2150              		.section	.text.CapSense_GetBitValue,"ax",%progbits
 2151              		.align	2
 2152              		.global	CapSense_GetBitValue
 2153              		.code	16
 2154              		.thumb_func
 2155              		.type	CapSense_GetBitValue, %function
 2156              	CapSense_GetBitValue:
 2157              	.LFB61:
1685:Generated_Source\PSoC4/CapSense.c **** 
1686:Generated_Source\PSoC4/CapSense.c **** 
1687:Generated_Source\PSoC4/CapSense.c **** /*******************************************************************************
1688:Generated_Source\PSoC4/CapSense.c **** * Function Name: CapSense_GetBitValue
1689:Generated_Source\PSoC4/CapSense.c **** ********************************************************************************
1690:Generated_Source\PSoC4/CapSense.c **** *
1691:Generated_Source\PSoC4/CapSense.c **** * Summary:
1692:Generated_Source\PSoC4/CapSense.c **** *  The API returns a bit status of the bit in the table array which contains the masks.
1693:Generated_Source\PSoC4/CapSense.c **** *
1694:Generated_Source\PSoC4/CapSense.c **** * Parameters:
1695:Generated_Source\PSoC4/CapSense.c **** *  table[] - array with bit masks.
1696:Generated_Source\PSoC4/CapSense.c **** *  position - position of bit in the table[] array.
1697:Generated_Source\PSoC4/CapSense.c **** *
1698:Generated_Source\PSoC4/CapSense.c **** * Return:
1699:Generated_Source\PSoC4/CapSense.c **** *  0 - bit is not set; 1 - bit is set.
1700:Generated_Source\PSoC4/CapSense.c **** *
1701:Generated_Source\PSoC4/CapSense.c **** * Global Variables:
1702:Generated_Source\PSoC4/CapSense.c **** *  None
1703:Generated_Source\PSoC4/CapSense.c **** *
1704:Generated_Source\PSoC4/CapSense.c **** * Side Effects:
1705:Generated_Source\PSoC4/CapSense.c **** *  None
1706:Generated_Source\PSoC4/CapSense.c **** *
ARM GAS  C:\Users\PC\AppData\Local\Temp\cc3ehIEg.s 			page 69


1707:Generated_Source\PSoC4/CapSense.c **** *******************************************************************************/
1708:Generated_Source\PSoC4/CapSense.c **** uint32 CapSense_GetBitValue(const uint8 table[], uint32 position)
1709:Generated_Source\PSoC4/CapSense.c **** {
 2158              		.loc 1 1709 0
 2159              		.cfi_startproc
 2160              		@ args = 0, pretend = 0, frame = 16
 2161              		@ frame_needed = 1, uses_anonymous_args = 0
 2162 0000 80B5     		push	{r7, lr}
 2163              		.cfi_def_cfa_offset 8
 2164              		.cfi_offset 7, -8
 2165              		.cfi_offset 14, -4
 2166 0002 84B0     		sub	sp, sp, #16
 2167              		.cfi_def_cfa_offset 24
 2168 0004 00AF     		add	r7, sp, #0
 2169              		.cfi_def_cfa_register 7
 2170 0006 7860     		str	r0, [r7, #4]
 2171 0008 3960     		str	r1, [r7]
1710:Generated_Source\PSoC4/CapSense.c ****     uint32 offset;
1711:Generated_Source\PSoC4/CapSense.c ****     uint8 enMask;
1712:Generated_Source\PSoC4/CapSense.c **** 
1713:Generated_Source\PSoC4/CapSense.c ****     /* position is divided by 8 to calculate the element of the
1714:Generated_Source\PSoC4/CapSense.c ****        table[] array that contains the enable bit
1715:Generated_Source\PSoC4/CapSense.c ****        for an appropriate sensor.
1716:Generated_Source\PSoC4/CapSense.c ****     */
1717:Generated_Source\PSoC4/CapSense.c ****     offset = (position >> 3u);
 2172              		.loc 1 1717 0
 2173 000a 3B68     		ldr	r3, [r7]
 2174 000c DB08     		lsrs	r3, r3, #3
 2175 000e FB60     		str	r3, [r7, #12]
1718:Generated_Source\PSoC4/CapSense.c **** 
1719:Generated_Source\PSoC4/CapSense.c ****     /* The enMask calculation for the appropriate sensor. Operation (position & 0x07u)
1720:Generated_Source\PSoC4/CapSense.c ****        intends to calculate the enable bit offset for the 8-bit element of the
1721:Generated_Source\PSoC4/CapSense.c ****        table[] array.
1722:Generated_Source\PSoC4/CapSense.c ****     */
1723:Generated_Source\PSoC4/CapSense.c ****     enMask = 0x01u << (position & 0x07u);
 2176              		.loc 1 1723 0
 2177 0010 3B68     		ldr	r3, [r7]
 2178 0012 0722     		movs	r2, #7
 2179 0014 1340     		ands	r3, r2
 2180 0016 0122     		movs	r2, #1
 2181 0018 9A40     		lsls	r2, r2, r3
 2182 001a 0B23     		movs	r3, #11
 2183 001c FB18     		adds	r3, r7, r3
 2184 001e 1A70     		strb	r2, [r3]
1724:Generated_Source\PSoC4/CapSense.c **** 
1725:Generated_Source\PSoC4/CapSense.c ****     return ((0u !=(table[offset] & enMask)) ? 1Lu : 0Lu);
 2185              		.loc 1 1725 0
 2186 0020 7A68     		ldr	r2, [r7, #4]
 2187 0022 FB68     		ldr	r3, [r7, #12]
 2188 0024 D318     		adds	r3, r2, r3
 2189 0026 1B78     		ldrb	r3, [r3]
 2190 0028 0B22     		movs	r2, #11
 2191 002a BA18     		adds	r2, r7, r2
 2192 002c 1278     		ldrb	r2, [r2]
 2193 002e 1340     		ands	r3, r2
 2194 0030 DBB2     		uxtb	r3, r3
 2195 0032 002B     		cmp	r3, #0
ARM GAS  C:\Users\PC\AppData\Local\Temp\cc3ehIEg.s 			page 70


 2196 0034 01D0     		beq	.L106
 2197              		.loc 1 1725 0 is_stmt 0 discriminator 1
 2198 0036 0123     		movs	r3, #1
 2199 0038 00E0     		b	.L108
 2200              	.L106:
 2201              		.loc 1 1725 0 discriminator 2
 2202 003a 0023     		movs	r3, #0
 2203              	.L108:
1726:Generated_Source\PSoC4/CapSense.c **** }
 2204              		.loc 1 1726 0 is_stmt 1 discriminator 5
 2205 003c 1800     		movs	r0, r3
 2206 003e BD46     		mov	sp, r7
 2207 0040 04B0     		add	sp, sp, #16
 2208              		@ sp needed
 2209 0042 80BD     		pop	{r7, pc}
 2210              		.cfi_endproc
 2211              	.LFE61:
 2212              		.size	CapSense_GetBitValue, .-CapSense_GetBitValue
 2213              		.section	.text.CapSense_SetBitValue,"ax",%progbits
 2214              		.align	2
 2215              		.global	CapSense_SetBitValue
 2216              		.code	16
 2217              		.thumb_func
 2218              		.type	CapSense_SetBitValue, %function
 2219              	CapSense_SetBitValue:
 2220              	.LFB62:
1727:Generated_Source\PSoC4/CapSense.c **** 
1728:Generated_Source\PSoC4/CapSense.c **** 
1729:Generated_Source\PSoC4/CapSense.c **** /*******************************************************************************
1730:Generated_Source\PSoC4/CapSense.c **** * Function Name: CapSense_SetBitValue
1731:Generated_Source\PSoC4/CapSense.c **** ********************************************************************************
1732:Generated_Source\PSoC4/CapSense.c **** *
1733:Generated_Source\PSoC4/CapSense.c **** * Summary:
1734:Generated_Source\PSoC4/CapSense.c **** *  The API sets a bit status of the bit in the table array which contains masks.
1735:Generated_Source\PSoC4/CapSense.c **** *
1736:Generated_Source\PSoC4/CapSense.c **** * Parameters:
1737:Generated_Source\PSoC4/CapSense.c **** *  table[] - array with bit masks.
1738:Generated_Source\PSoC4/CapSense.c **** *  position - position of bit in the table[] array.
1739:Generated_Source\PSoC4/CapSense.c **** *  value: 0 - bit is not set; 1 - bit is set.
1740:Generated_Source\PSoC4/CapSense.c **** *
1741:Generated_Source\PSoC4/CapSense.c **** * Return:
1742:Generated_Source\PSoC4/CapSense.c **** *  None
1743:Generated_Source\PSoC4/CapSense.c **** *
1744:Generated_Source\PSoC4/CapSense.c **** * Global Variables:
1745:Generated_Source\PSoC4/CapSense.c **** *  None
1746:Generated_Source\PSoC4/CapSense.c **** *
1747:Generated_Source\PSoC4/CapSense.c **** * Side Effects:
1748:Generated_Source\PSoC4/CapSense.c **** *  None
1749:Generated_Source\PSoC4/CapSense.c **** *
1750:Generated_Source\PSoC4/CapSense.c **** *******************************************************************************/
1751:Generated_Source\PSoC4/CapSense.c **** void CapSense_SetBitValue(uint8 table[], uint32 position, uint32 value)
1752:Generated_Source\PSoC4/CapSense.c **** {
 2221              		.loc 1 1752 0
 2222              		.cfi_startproc
 2223              		@ args = 0, pretend = 0, frame = 24
 2224              		@ frame_needed = 1, uses_anonymous_args = 0
 2225 0000 80B5     		push	{r7, lr}
ARM GAS  C:\Users\PC\AppData\Local\Temp\cc3ehIEg.s 			page 71


 2226              		.cfi_def_cfa_offset 8
 2227              		.cfi_offset 7, -8
 2228              		.cfi_offset 14, -4
 2229 0002 86B0     		sub	sp, sp, #24
 2230              		.cfi_def_cfa_offset 32
 2231 0004 00AF     		add	r7, sp, #0
 2232              		.cfi_def_cfa_register 7
 2233 0006 F860     		str	r0, [r7, #12]
 2234 0008 B960     		str	r1, [r7, #8]
 2235 000a 7A60     		str	r2, [r7, #4]
1753:Generated_Source\PSoC4/CapSense.c ****     uint32 offset;
1754:Generated_Source\PSoC4/CapSense.c ****     uint8 enMask;
1755:Generated_Source\PSoC4/CapSense.c **** 
1756:Generated_Source\PSoC4/CapSense.c ****     /* position is divided by 8 to calculate the element of the
1757:Generated_Source\PSoC4/CapSense.c ****        table[] array that contains the enable bit
1758:Generated_Source\PSoC4/CapSense.c ****        for an appropriate sensor.
1759:Generated_Source\PSoC4/CapSense.c ****     */
1760:Generated_Source\PSoC4/CapSense.c ****     offset = (position >> 3u);
 2236              		.loc 1 1760 0
 2237 000c BB68     		ldr	r3, [r7, #8]
 2238 000e DB08     		lsrs	r3, r3, #3
 2239 0010 7B61     		str	r3, [r7, #20]
1761:Generated_Source\PSoC4/CapSense.c **** 
1762:Generated_Source\PSoC4/CapSense.c ****     /* The enMask calculation for the appropriate sensor. Operation (position & 0x07u)
1763:Generated_Source\PSoC4/CapSense.c ****        intends to calculate the enable bit offset for the 8-bit element of the
1764:Generated_Source\PSoC4/CapSense.c ****        table[] array.
1765:Generated_Source\PSoC4/CapSense.c ****     */
1766:Generated_Source\PSoC4/CapSense.c ****     enMask = 0x01u << (position & 0x07u);
 2240              		.loc 1 1766 0
 2241 0012 BB68     		ldr	r3, [r7, #8]
 2242 0014 0722     		movs	r2, #7
 2243 0016 1340     		ands	r3, r2
 2244 0018 0122     		movs	r2, #1
 2245 001a 9A40     		lsls	r2, r2, r3
 2246 001c 1323     		movs	r3, #19
 2247 001e FB18     		adds	r3, r7, r3
 2248 0020 1A70     		strb	r2, [r3]
1767:Generated_Source\PSoC4/CapSense.c **** 
1768:Generated_Source\PSoC4/CapSense.c ****     if(0u != value)
 2249              		.loc 1 1768 0
 2250 0022 7B68     		ldr	r3, [r7, #4]
 2251 0024 002B     		cmp	r3, #0
 2252 0026 0DD0     		beq	.L110
1769:Generated_Source\PSoC4/CapSense.c ****     {
1770:Generated_Source\PSoC4/CapSense.c ****         table[offset] |= enMask;
 2253              		.loc 1 1770 0
 2254 0028 FA68     		ldr	r2, [r7, #12]
 2255 002a 7B69     		ldr	r3, [r7, #20]
 2256 002c D318     		adds	r3, r2, r3
 2257 002e F968     		ldr	r1, [r7, #12]
 2258 0030 7A69     		ldr	r2, [r7, #20]
 2259 0032 8A18     		adds	r2, r1, r2
 2260 0034 1178     		ldrb	r1, [r2]
 2261 0036 1322     		movs	r2, #19
 2262 0038 BA18     		adds	r2, r7, r2
 2263 003a 1278     		ldrb	r2, [r2]
 2264 003c 0A43     		orrs	r2, r1
ARM GAS  C:\Users\PC\AppData\Local\Temp\cc3ehIEg.s 			page 72


 2265 003e D2B2     		uxtb	r2, r2
 2266 0040 1A70     		strb	r2, [r3]
1771:Generated_Source\PSoC4/CapSense.c ****     }
1772:Generated_Source\PSoC4/CapSense.c ****     else
1773:Generated_Source\PSoC4/CapSense.c ****     {
1774:Generated_Source\PSoC4/CapSense.c ****         table[offset] &= (uint8)~(enMask);
1775:Generated_Source\PSoC4/CapSense.c ****     }
1776:Generated_Source\PSoC4/CapSense.c **** }
 2267              		.loc 1 1776 0
 2268 0042 0EE0     		b	.L112
 2269              	.L110:
1774:Generated_Source\PSoC4/CapSense.c ****     }
 2270              		.loc 1 1774 0
 2271 0044 FA68     		ldr	r2, [r7, #12]
 2272 0046 7B69     		ldr	r3, [r7, #20]
 2273 0048 D318     		adds	r3, r2, r3
 2274 004a F968     		ldr	r1, [r7, #12]
 2275 004c 7A69     		ldr	r2, [r7, #20]
 2276 004e 8A18     		adds	r2, r1, r2
 2277 0050 1278     		ldrb	r2, [r2]
 2278 0052 1321     		movs	r1, #19
 2279 0054 7918     		adds	r1, r7, r1
 2280 0056 0978     		ldrb	r1, [r1]
 2281 0058 C943     		mvns	r1, r1
 2282 005a C9B2     		uxtb	r1, r1
 2283 005c 0A40     		ands	r2, r1
 2284 005e D2B2     		uxtb	r2, r2
 2285 0060 1A70     		strb	r2, [r3]
 2286              	.L112:
 2287              		.loc 1 1776 0
 2288 0062 C046     		nop
 2289 0064 BD46     		mov	sp, r7
 2290 0066 06B0     		add	sp, sp, #24
 2291              		@ sp needed
 2292 0068 80BD     		pop	{r7, pc}
 2293              		.cfi_endproc
 2294              	.LFE62:
 2295              		.size	CapSense_SetBitValue, .-CapSense_SetBitValue
 2296 006a C046     		.section	.text.CapSense_GetSenseClkDivider,"ax",%progbits
 2297              		.align	2
 2298              		.global	CapSense_GetSenseClkDivider
 2299              		.code	16
 2300              		.thumb_func
 2301              		.type	CapSense_GetSenseClkDivider, %function
 2302              	CapSense_GetSenseClkDivider:
 2303              	.LFB63:
1777:Generated_Source\PSoC4/CapSense.c **** 
1778:Generated_Source\PSoC4/CapSense.c **** 
1779:Generated_Source\PSoC4/CapSense.c **** 
1780:Generated_Source\PSoC4/CapSense.c **** /*******************************************************************************
1781:Generated_Source\PSoC4/CapSense.c **** * Function Name: CapSense_GetSenseClkDivider
1782:Generated_Source\PSoC4/CapSense.c **** ********************************************************************************
1783:Generated_Source\PSoC4/CapSense.c **** *
1784:Generated_Source\PSoC4/CapSense.c **** * Summary:
1785:Generated_Source\PSoC4/CapSense.c **** *  This API returns a value of the sense clock divider for the  sensor.
1786:Generated_Source\PSoC4/CapSense.c **** *
1787:Generated_Source\PSoC4/CapSense.c **** * Parameters:
ARM GAS  C:\Users\PC\AppData\Local\Temp\cc3ehIEg.s 			page 73


1788:Generated_Source\PSoC4/CapSense.c **** *  sensor: sensor index. The index value can be
1789:Generated_Source\PSoC4/CapSense.c **** *  from 0 to (CapSense_TOTAL_SENSOR_COUNT-1).
1790:Generated_Source\PSoC4/CapSense.c **** *
1791:Generated_Source\PSoC4/CapSense.c **** * Return:
1792:Generated_Source\PSoC4/CapSense.c **** *  This API returns the sense clock divider of the sensor.
1793:Generated_Source\PSoC4/CapSense.c **** *
1794:Generated_Source\PSoC4/CapSense.c **** * Global Variables:
1795:Generated_Source\PSoC4/CapSense.c **** *  CapSense_senseClkDividerVal[] - stores the sense clock divider values.
1796:Generated_Source\PSoC4/CapSense.c **** *
1797:Generated_Source\PSoC4/CapSense.c **** * Side Effects:
1798:Generated_Source\PSoC4/CapSense.c **** *  None
1799:Generated_Source\PSoC4/CapSense.c **** *
1800:Generated_Source\PSoC4/CapSense.c **** *******************************************************************************/
1801:Generated_Source\PSoC4/CapSense.c **** uint32 CapSense_GetSenseClkDivider(uint32 sensor)
1802:Generated_Source\PSoC4/CapSense.c **** {
 2304              		.loc 1 1802 0
 2305              		.cfi_startproc
 2306              		@ args = 0, pretend = 0, frame = 8
 2307              		@ frame_needed = 1, uses_anonymous_args = 0
 2308 0000 80B5     		push	{r7, lr}
 2309              		.cfi_def_cfa_offset 8
 2310              		.cfi_offset 7, -8
 2311              		.cfi_offset 14, -4
 2312 0002 82B0     		sub	sp, sp, #8
 2313              		.cfi_def_cfa_offset 16
 2314 0004 00AF     		add	r7, sp, #0
 2315              		.cfi_def_cfa_register 7
 2316 0006 7860     		str	r0, [r7, #4]
1803:Generated_Source\PSoC4/CapSense.c ****     #if(0u != CapSense_MULTIPLE_FREQUENCY_SET)
1804:Generated_Source\PSoC4/CapSense.c ****         return((uint32)CapSense_senseClkDividerVal[sensor]);
 2317              		.loc 1 1804 0
 2318 0008 034A     		ldr	r2, .L115
 2319 000a 7B68     		ldr	r3, [r7, #4]
 2320 000c D318     		adds	r3, r2, r3
 2321 000e 1B78     		ldrb	r3, [r3]
1805:Generated_Source\PSoC4/CapSense.c ****     #else
1806:Generated_Source\PSoC4/CapSense.c ****         return((uint32)CapSense_senseClkDividerVal);
1807:Generated_Source\PSoC4/CapSense.c ****     #endif /* (0u != CapSense_MULTIPLE_FREQUENCY_SET) */
1808:Generated_Source\PSoC4/CapSense.c **** }
 2322              		.loc 1 1808 0
 2323 0010 1800     		movs	r0, r3
 2324 0012 BD46     		mov	sp, r7
 2325 0014 02B0     		add	sp, sp, #8
 2326              		@ sp needed
 2327 0016 80BD     		pop	{r7, pc}
 2328              	.L116:
 2329              		.align	2
 2330              	.L115:
 2331 0018 00000000 		.word	CapSense_senseClkDividerVal
 2332              		.cfi_endproc
 2333              	.LFE63:
 2334              		.size	CapSense_GetSenseClkDivider, .-CapSense_GetSenseClkDivider
 2335              		.section	.text.CapSense_SetSenseClkDivider,"ax",%progbits
 2336              		.align	2
 2337              		.global	CapSense_SetSenseClkDivider
 2338              		.code	16
 2339              		.thumb_func
ARM GAS  C:\Users\PC\AppData\Local\Temp\cc3ehIEg.s 			page 74


 2340              		.type	CapSense_SetSenseClkDivider, %function
 2341              	CapSense_SetSenseClkDivider:
 2342              	.LFB64:
1809:Generated_Source\PSoC4/CapSense.c **** 
1810:Generated_Source\PSoC4/CapSense.c **** #if (CapSense_TUNING_METHOD != CapSense__TUNING_NONE)
1811:Generated_Source\PSoC4/CapSense.c ****     /*******************************************************************************
1812:Generated_Source\PSoC4/CapSense.c ****     * Function Name: CapSense_SetSenseClkDivider
1813:Generated_Source\PSoC4/CapSense.c ****     ********************************************************************************
1814:Generated_Source\PSoC4/CapSense.c ****     *
1815:Generated_Source\PSoC4/CapSense.c ****     * Summary:
1816:Generated_Source\PSoC4/CapSense.c ****     *  This API sets a value of the sense clock divider for the  sensor.
1817:Generated_Source\PSoC4/CapSense.c ****     *
1818:Generated_Source\PSoC4/CapSense.c ****     * Parameters:
1819:Generated_Source\PSoC4/CapSense.c ****     *  sensor:  Sensor index.
1820:Generated_Source\PSoC4/CapSense.c ****     *  senseClk: represents the sense clock value.
1821:Generated_Source\PSoC4/CapSense.c ****     *
1822:Generated_Source\PSoC4/CapSense.c ****     * Return:
1823:Generated_Source\PSoC4/CapSense.c ****     *  None.
1824:Generated_Source\PSoC4/CapSense.c ****     *
1825:Generated_Source\PSoC4/CapSense.c ****     * Global Variables:
1826:Generated_Source\PSoC4/CapSense.c ****     *  CapSense_senseClkDividerVal[] - stores the sense clock divider values.
1827:Generated_Source\PSoC4/CapSense.c ****     *
1828:Generated_Source\PSoC4/CapSense.c ****     * Side Effects:
1829:Generated_Source\PSoC4/CapSense.c ****     *  None
1830:Generated_Source\PSoC4/CapSense.c ****     *
1831:Generated_Source\PSoC4/CapSense.c ****     *******************************************************************************/
1832:Generated_Source\PSoC4/CapSense.c ****     void CapSense_SetSenseClkDivider(uint32 sensor, uint32 senseClk)
1833:Generated_Source\PSoC4/CapSense.c ****     {
 2343              		.loc 1 1833 0
 2344              		.cfi_startproc
 2345              		@ args = 0, pretend = 0, frame = 8
 2346              		@ frame_needed = 1, uses_anonymous_args = 0
 2347 0000 80B5     		push	{r7, lr}
 2348              		.cfi_def_cfa_offset 8
 2349              		.cfi_offset 7, -8
 2350              		.cfi_offset 14, -4
 2351 0002 82B0     		sub	sp, sp, #8
 2352              		.cfi_def_cfa_offset 16
 2353 0004 00AF     		add	r7, sp, #0
 2354              		.cfi_def_cfa_register 7
 2355 0006 7860     		str	r0, [r7, #4]
 2356 0008 3960     		str	r1, [r7]
1834:Generated_Source\PSoC4/CapSense.c ****         #if(0u != CapSense_MULTIPLE_FREQUENCY_SET)
1835:Generated_Source\PSoC4/CapSense.c ****             CapSense_senseClkDividerVal[sensor] = (uint8)senseClk;
 2357              		.loc 1 1835 0
 2358 000a 3B68     		ldr	r3, [r7]
 2359 000c D9B2     		uxtb	r1, r3
 2360 000e 044A     		ldr	r2, .L118
 2361 0010 7B68     		ldr	r3, [r7, #4]
 2362 0012 D318     		adds	r3, r2, r3
 2363 0014 0A1C     		adds	r2, r1, #0
 2364 0016 1A70     		strb	r2, [r3]
1836:Generated_Source\PSoC4/CapSense.c ****         #else
1837:Generated_Source\PSoC4/CapSense.c ****             CapSense_senseClkDividerVal = (uint8)senseClk;
1838:Generated_Source\PSoC4/CapSense.c ****         #endif /* (0u != CapSense_MULTIPLE_FREQUENCY_SET) */
1839:Generated_Source\PSoC4/CapSense.c ****     }
 2365              		.loc 1 1839 0
ARM GAS  C:\Users\PC\AppData\Local\Temp\cc3ehIEg.s 			page 75


 2366 0018 C046     		nop
 2367 001a BD46     		mov	sp, r7
 2368 001c 02B0     		add	sp, sp, #8
 2369              		@ sp needed
 2370 001e 80BD     		pop	{r7, pc}
 2371              	.L119:
 2372              		.align	2
 2373              	.L118:
 2374 0020 00000000 		.word	CapSense_senseClkDividerVal
 2375              		.cfi_endproc
 2376              	.LFE64:
 2377              		.size	CapSense_SetSenseClkDivider, .-CapSense_SetSenseClkDivider
 2378              		.section	.text.CapSense_GetModulatorClkDivider,"ax",%progbits
 2379              		.align	2
 2380              		.global	CapSense_GetModulatorClkDivider
 2381              		.code	16
 2382              		.thumb_func
 2383              		.type	CapSense_GetModulatorClkDivider, %function
 2384              	CapSense_GetModulatorClkDivider:
 2385              	.LFB65:
1840:Generated_Source\PSoC4/CapSense.c **** #endif /* (CapSense_TUNING_METHOD != CapSense__TUNING_NONE) */
1841:Generated_Source\PSoC4/CapSense.c **** 
1842:Generated_Source\PSoC4/CapSense.c **** 
1843:Generated_Source\PSoC4/CapSense.c **** /*******************************************************************************
1844:Generated_Source\PSoC4/CapSense.c **** * Function Name: CapSense_GetModulatorClkDivider
1845:Generated_Source\PSoC4/CapSense.c **** ********************************************************************************
1846:Generated_Source\PSoC4/CapSense.c **** *
1847:Generated_Source\PSoC4/CapSense.c **** * Summary:
1848:Generated_Source\PSoC4/CapSense.c **** *  This API returns a value of the modulator sample clock divider for the  sensor.
1849:Generated_Source\PSoC4/CapSense.c **** *
1850:Generated_Source\PSoC4/CapSense.c **** * Parameters:
1851:Generated_Source\PSoC4/CapSense.c **** *  sensor: sensor index. The value of index can be
1852:Generated_Source\PSoC4/CapSense.c **** *  from 0 to (CapSense_TOTAL_SENSOR_COUNT-1).
1853:Generated_Source\PSoC4/CapSense.c **** *
1854:Generated_Source\PSoC4/CapSense.c **** * Return:
1855:Generated_Source\PSoC4/CapSense.c **** *  This API returns the modulator sample clock divider for the  sensor.
1856:Generated_Source\PSoC4/CapSense.c **** *
1857:Generated_Source\PSoC4/CapSense.c **** * Global Variables:
1858:Generated_Source\PSoC4/CapSense.c **** *  CapSense_sampleClkDividerVal[] - stores the modulator sample divider values.
1859:Generated_Source\PSoC4/CapSense.c **** *
1860:Generated_Source\PSoC4/CapSense.c **** * Side Effects:
1861:Generated_Source\PSoC4/CapSense.c **** *  None
1862:Generated_Source\PSoC4/CapSense.c **** *
1863:Generated_Source\PSoC4/CapSense.c **** *******************************************************************************/
1864:Generated_Source\PSoC4/CapSense.c **** uint32 CapSense_GetModulatorClkDivider(uint32 sensor)
1865:Generated_Source\PSoC4/CapSense.c **** {
 2386              		.loc 1 1865 0
 2387              		.cfi_startproc
 2388              		@ args = 0, pretend = 0, frame = 8
 2389              		@ frame_needed = 1, uses_anonymous_args = 0
 2390 0000 80B5     		push	{r7, lr}
 2391              		.cfi_def_cfa_offset 8
 2392              		.cfi_offset 7, -8
 2393              		.cfi_offset 14, -4
 2394 0002 82B0     		sub	sp, sp, #8
 2395              		.cfi_def_cfa_offset 16
 2396 0004 00AF     		add	r7, sp, #0
ARM GAS  C:\Users\PC\AppData\Local\Temp\cc3ehIEg.s 			page 76


 2397              		.cfi_def_cfa_register 7
 2398 0006 7860     		str	r0, [r7, #4]
1866:Generated_Source\PSoC4/CapSense.c ****     #if(0u != CapSense_MULTIPLE_FREQUENCY_SET)
1867:Generated_Source\PSoC4/CapSense.c ****         return((uint32)CapSense_sampleClkDividerVal[sensor]);
 2399              		.loc 1 1867 0
 2400 0008 034A     		ldr	r2, .L122
 2401 000a 7B68     		ldr	r3, [r7, #4]
 2402 000c D318     		adds	r3, r2, r3
 2403 000e 1B78     		ldrb	r3, [r3]
1868:Generated_Source\PSoC4/CapSense.c ****     #else
1869:Generated_Source\PSoC4/CapSense.c ****         return((uint32)CapSense_sampleClkDividerVal);
1870:Generated_Source\PSoC4/CapSense.c ****     #endif /* (0u != CapSense_MULTIPLE_FREQUENCY_SET) */
1871:Generated_Source\PSoC4/CapSense.c **** }
 2404              		.loc 1 1871 0
 2405 0010 1800     		movs	r0, r3
 2406 0012 BD46     		mov	sp, r7
 2407 0014 02B0     		add	sp, sp, #8
 2408              		@ sp needed
 2409 0016 80BD     		pop	{r7, pc}
 2410              	.L123:
 2411              		.align	2
 2412              	.L122:
 2413 0018 00000000 		.word	CapSense_sampleClkDividerVal
 2414              		.cfi_endproc
 2415              	.LFE65:
 2416              		.size	CapSense_GetModulatorClkDivider, .-CapSense_GetModulatorClkDivider
 2417              		.section	.text.CapSense_SetModulatorClkDivider,"ax",%progbits
 2418              		.align	2
 2419              		.global	CapSense_SetModulatorClkDivider
 2420              		.code	16
 2421              		.thumb_func
 2422              		.type	CapSense_SetModulatorClkDivider, %function
 2423              	CapSense_SetModulatorClkDivider:
 2424              	.LFB66:
1872:Generated_Source\PSoC4/CapSense.c **** 
1873:Generated_Source\PSoC4/CapSense.c **** #if (CapSense_TUNING_METHOD != CapSense__TUNING_NONE)
1874:Generated_Source\PSoC4/CapSense.c ****     /*******************************************************************************
1875:Generated_Source\PSoC4/CapSense.c ****     * Function Name: CapSense_SetModulatorClkDivider
1876:Generated_Source\PSoC4/CapSense.c ****     ********************************************************************************
1877:Generated_Source\PSoC4/CapSense.c ****     *
1878:Generated_Source\PSoC4/CapSense.c ****     * Summary:
1879:Generated_Source\PSoC4/CapSense.c ****     *  This API sets a value of the modulator sample clock divider for the  sensor.
1880:Generated_Source\PSoC4/CapSense.c ****     *
1881:Generated_Source\PSoC4/CapSense.c ****     * Parameters:
1882:Generated_Source\PSoC4/CapSense.c ****     *  sensor:  Sensor index.
1883:Generated_Source\PSoC4/CapSense.c ****     *  modulatorClk: represents the modulator sample clock value.
1884:Generated_Source\PSoC4/CapSense.c ****     *
1885:Generated_Source\PSoC4/CapSense.c ****     * Return:
1886:Generated_Source\PSoC4/CapSense.c ****     *  None.
1887:Generated_Source\PSoC4/CapSense.c ****     *
1888:Generated_Source\PSoC4/CapSense.c ****     * Global Variables:
1889:Generated_Source\PSoC4/CapSense.c ****     *  CapSense_sampleClkDividerVal[] - stores the modulator sample divider values.
1890:Generated_Source\PSoC4/CapSense.c ****     *
1891:Generated_Source\PSoC4/CapSense.c ****     * Side Effects:
1892:Generated_Source\PSoC4/CapSense.c ****     *  None
1893:Generated_Source\PSoC4/CapSense.c ****     *
1894:Generated_Source\PSoC4/CapSense.c ****     *******************************************************************************/
ARM GAS  C:\Users\PC\AppData\Local\Temp\cc3ehIEg.s 			page 77


1895:Generated_Source\PSoC4/CapSense.c ****     void CapSense_SetModulatorClkDivider(uint32 sensor, uint32 modulatorClk)
1896:Generated_Source\PSoC4/CapSense.c ****     {
 2425              		.loc 1 1896 0
 2426              		.cfi_startproc
 2427              		@ args = 0, pretend = 0, frame = 8
 2428              		@ frame_needed = 1, uses_anonymous_args = 0
 2429 0000 80B5     		push	{r7, lr}
 2430              		.cfi_def_cfa_offset 8
 2431              		.cfi_offset 7, -8
 2432              		.cfi_offset 14, -4
 2433 0002 82B0     		sub	sp, sp, #8
 2434              		.cfi_def_cfa_offset 16
 2435 0004 00AF     		add	r7, sp, #0
 2436              		.cfi_def_cfa_register 7
 2437 0006 7860     		str	r0, [r7, #4]
 2438 0008 3960     		str	r1, [r7]
1897:Generated_Source\PSoC4/CapSense.c ****         #if(0u != CapSense_MULTIPLE_FREQUENCY_SET)
1898:Generated_Source\PSoC4/CapSense.c ****             CapSense_sampleClkDividerVal[sensor] = (uint8)modulatorClk;
 2439              		.loc 1 1898 0
 2440 000a 3B68     		ldr	r3, [r7]
 2441 000c D9B2     		uxtb	r1, r3
 2442 000e 044A     		ldr	r2, .L125
 2443 0010 7B68     		ldr	r3, [r7, #4]
 2444 0012 D318     		adds	r3, r2, r3
 2445 0014 0A1C     		adds	r2, r1, #0
 2446 0016 1A70     		strb	r2, [r3]
1899:Generated_Source\PSoC4/CapSense.c ****         #else
1900:Generated_Source\PSoC4/CapSense.c ****             CapSense_sampleClkDividerVal = (uint8)modulatorClk;
1901:Generated_Source\PSoC4/CapSense.c ****         #endif /* (0u != CapSense_MULTIPLE_FREQUENCY_SET) */
1902:Generated_Source\PSoC4/CapSense.c ****     }
 2447              		.loc 1 1902 0
 2448 0018 C046     		nop
 2449 001a BD46     		mov	sp, r7
 2450 001c 02B0     		add	sp, sp, #8
 2451              		@ sp needed
 2452 001e 80BD     		pop	{r7, pc}
 2453              	.L126:
 2454              		.align	2
 2455              	.L125:
 2456 0020 00000000 		.word	CapSense_sampleClkDividerVal
 2457              		.cfi_endproc
 2458              	.LFE66:
 2459              		.size	CapSense_SetModulatorClkDivider, .-CapSense_SetModulatorClkDivider
 2460              		.section	.text.CapSense_GetModulationIDAC,"ax",%progbits
 2461              		.align	2
 2462              		.global	CapSense_GetModulationIDAC
 2463              		.code	16
 2464              		.thumb_func
 2465              		.type	CapSense_GetModulationIDAC, %function
 2466              	CapSense_GetModulationIDAC:
 2467              	.LFB67:
1903:Generated_Source\PSoC4/CapSense.c **** #endif /* (CapSense_TUNING_METHOD != CapSense__TUNING_NONE) */
1904:Generated_Source\PSoC4/CapSense.c **** 
1905:Generated_Source\PSoC4/CapSense.c **** /*******************************************************************************
1906:Generated_Source\PSoC4/CapSense.c **** * Function Name: CapSense_GetModulationIDAC
1907:Generated_Source\PSoC4/CapSense.c **** ********************************************************************************
1908:Generated_Source\PSoC4/CapSense.c **** *
ARM GAS  C:\Users\PC\AppData\Local\Temp\cc3ehIEg.s 			page 78


1909:Generated_Source\PSoC4/CapSense.c **** * Summary:
1910:Generated_Source\PSoC4/CapSense.c **** *  This API returns a value of the modulation IDAC for the  sensor.
1911:Generated_Source\PSoC4/CapSense.c **** *
1912:Generated_Source\PSoC4/CapSense.c **** * Parameters:
1913:Generated_Source\PSoC4/CapSense.c **** *  sensor: sensor index. The index value can be
1914:Generated_Source\PSoC4/CapSense.c **** *  from 0 to (CapSense_TOTAL_SENSOR_COUNT-1).
1915:Generated_Source\PSoC4/CapSense.c **** *
1916:Generated_Source\PSoC4/CapSense.c **** * Return:
1917:Generated_Source\PSoC4/CapSense.c **** *  This API returns the modulation IDAC of the sensor.
1918:Generated_Source\PSoC4/CapSense.c **** *
1919:Generated_Source\PSoC4/CapSense.c **** * Global Variables:
1920:Generated_Source\PSoC4/CapSense.c **** *  CapSense_modulationIDAC[] - stores modulation IDAC values.
1921:Generated_Source\PSoC4/CapSense.c **** *
1922:Generated_Source\PSoC4/CapSense.c **** * Side Effects:
1923:Generated_Source\PSoC4/CapSense.c **** *  None
