ARM GAS  C:\Users\PC\AppData\Local\Temp\ccBgQfEQ.s 			page 1


   1              		.syntax unified
   2              		.cpu cortex-m0
   3              		.fpu softvfp
   4              		.eabi_attribute 20, 1
   5              		.eabi_attribute 21, 1
   6              		.eabi_attribute 23, 3
   7              		.eabi_attribute 24, 1
   8              		.eabi_attribute 25, 1
   9              		.eabi_attribute 26, 1
  10              		.eabi_attribute 30, 6
  11              		.eabi_attribute 34, 0
  12              		.eabi_attribute 18, 4
  13              		.thumb
  14              		.syntax unified
  15              		.file	"CapSense_CSHL.c"
  16              		.text
  17              	.Ltext0:
  18              		.cfi_sections	.debug_frame
  19              		.comm	CapSense_rawFilterData1,2,4
  20              		.global	CapSense_sensorBaseline
  21              		.bss
  22              		.align	2
  23              		.type	CapSense_sensorBaseline, %object
  24              		.size	CapSense_sensorBaseline, 2
  25              	CapSense_sensorBaseline:
  26 0000 0000     		.space	2
  27              		.global	CapSense_sensorBaselineLow
  28 0002 0000     		.align	2
  29              		.type	CapSense_sensorBaselineLow, %object
  30              		.size	CapSense_sensorBaselineLow, 1
  31              	CapSense_sensorBaselineLow:
  32 0004 00       		.space	1
  33              		.global	CapSense_sensorSignal
  34 0005 000000   		.align	2
  35              		.type	CapSense_sensorSignal, %object
  36              		.size	CapSense_sensorSignal, 1
  37              	CapSense_sensorSignal:
  38 0008 00       		.space	1
  39              		.global	CapSense_sensorOnMask
  40 0009 000000   		.align	2
  41              		.type	CapSense_sensorOnMask, %object
  42              		.size	CapSense_sensorOnMask, 1
  43              	CapSense_sensorOnMask:
  44 000c 00       		.space	1
  45              		.comm	CapSense_lowBaselineResetCnt,1,4
  46              		.global	CapSense_lowBaselineReset
  47              		.data
  48              		.align	2
  49              		.type	CapSense_lowBaselineReset, %object
  50              		.size	CapSense_lowBaselineReset, 1
  51              	CapSense_lowBaselineReset:
  52 0000 1E       		.byte	30
  53              		.global	CapSense_enableRawFilters
  54              		.type	CapSense_enableRawFilters, %object
  55              		.size	CapSense_enableRawFilters, 1
  56              	CapSense_enableRawFilters:
  57 0001 01       		.byte	1
ARM GAS  C:\Users\PC\AppData\Local\Temp\ccBgQfEQ.s 			page 2


  58              		.global	CapSense_fingerThreshold
  59 0002 0000     		.align	2
  60              		.type	CapSense_fingerThreshold, %object
  61              		.size	CapSense_fingerThreshold, 1
  62              	CapSense_fingerThreshold:
  63 0004 50       		.byte	80
  64              		.comm	CapSense_noiseThreshold,1,4
  65              		.comm	CapSense_negativeNoiseThreshold,1,4
  66              		.comm	CapSense_hysteresis,1,4
  67              		.global	CapSense_debounce
  68 0005 000000   		.align	2
  69              		.type	CapSense_debounce, %object
  70              		.size	CapSense_debounce, 1
  71              	CapSense_debounce:
  72 0008 05       		.byte	5
  73              		.bss
  74 000d 000000   		.align	2
  75              	CapSense_debounceCounter:
  76 0010 0000     		.space	2
  77              		.global	CapSense_rawDataIndex
  78              		.section	.rodata
  79              		.align	2
  80              		.type	CapSense_rawDataIndex, %object
  81              		.size	CapSense_rawDataIndex, 1
  82              	CapSense_rawDataIndex:
  83 0000 00       		.space	1
  84              		.global	CapSense_numberOfSensors
  85 0001 000000   		.align	2
  86              		.type	CapSense_numberOfSensors, %object
  87              		.size	CapSense_numberOfSensors, 1
  88              	CapSense_numberOfSensors:
  89 0004 01       		.byte	1
  90              		.section	.text.CapSense_BaseInit,"ax",%progbits
  91              		.align	2
  92              		.global	CapSense_BaseInit
  93              		.code	16
  94              		.thumb_func
  95              		.type	CapSense_BaseInit, %function
  96              	CapSense_BaseInit:
  97              	.LFB36:
  98              		.file 1 "Generated_Source\\PSoC4\\CapSense_CSHL.c"
   1:Generated_Source\PSoC4/CapSense_CSHL.c **** /*******************************************************************************
   2:Generated_Source\PSoC4/CapSense_CSHL.c **** * File Name: CapSense_CSHL.c
   3:Generated_Source\PSoC4/CapSense_CSHL.c **** * Version 2.60
   4:Generated_Source\PSoC4/CapSense_CSHL.c **** *
   5:Generated_Source\PSoC4/CapSense_CSHL.c **** * Description:
   6:Generated_Source\PSoC4/CapSense_CSHL.c **** *  This file provides the source code to the High Level APIs for the CapSesne
   7:Generated_Source\PSoC4/CapSense_CSHL.c **** *  CSD component.
   8:Generated_Source\PSoC4/CapSense_CSHL.c **** *
   9:Generated_Source\PSoC4/CapSense_CSHL.c **** * Note:
  10:Generated_Source\PSoC4/CapSense_CSHL.c **** *
  11:Generated_Source\PSoC4/CapSense_CSHL.c **** ********************************************************************************
  12:Generated_Source\PSoC4/CapSense_CSHL.c **** * Copyright 2013-2016, Cypress Semiconductor Corporation.  All rights reserved.
  13:Generated_Source\PSoC4/CapSense_CSHL.c **** * You may use this file only in accordance with the license, terms, conditions,
  14:Generated_Source\PSoC4/CapSense_CSHL.c **** * disclaimers, and limitations in the end user license agreement accompanying
  15:Generated_Source\PSoC4/CapSense_CSHL.c **** * the software package with which this file was provided.
  16:Generated_Source\PSoC4/CapSense_CSHL.c **** *******************************************************************************/
ARM GAS  C:\Users\PC\AppData\Local\Temp\ccBgQfEQ.s 			page 3


  17:Generated_Source\PSoC4/CapSense_CSHL.c **** 
  18:Generated_Source\PSoC4/CapSense_CSHL.c **** #include "CapSense_CSHL.h"
  19:Generated_Source\PSoC4/CapSense_CSHL.c **** #include "CapSense_PVT.h"
  20:Generated_Source\PSoC4/CapSense_CSHL.c **** 
  21:Generated_Source\PSoC4/CapSense_CSHL.c **** /* SmartSense functions */
  22:Generated_Source\PSoC4/CapSense_CSHL.c **** #if (CapSense_TUNING_METHOD == CapSense__TUNING_AUTO)
  23:Generated_Source\PSoC4/CapSense_CSHL.c ****     extern void CapSense_UpdateThresholds(uint32 sensor);
  24:Generated_Source\PSoC4/CapSense_CSHL.c **** #endif /* (CapSense_TUNING_METHOD == CapSense__TUNING_AUTO) */
  25:Generated_Source\PSoC4/CapSense_CSHL.c **** 
  26:Generated_Source\PSoC4/CapSense_CSHL.c **** /* Storage of filters data */
  27:Generated_Source\PSoC4/CapSense_CSHL.c **** #if ( (0u != (CapSense_RAW_FILTER_MASK & CapSense_MEDIAN_FILTER)) || \
  28:Generated_Source\PSoC4/CapSense_CSHL.c ****       (0u != (CapSense_RAW_FILTER_MASK & CapSense_AVERAGING_FILTER)) )
  29:Generated_Source\PSoC4/CapSense_CSHL.c **** 
  30:Generated_Source\PSoC4/CapSense_CSHL.c ****     uint16 CapSense_rawFilterData1[CapSense_TOTAL_SENSOR_COUNT];
  31:Generated_Source\PSoC4/CapSense_CSHL.c ****     uint16 CapSense_rawFilterData2[CapSense_TOTAL_SENSOR_COUNT];
  32:Generated_Source\PSoC4/CapSense_CSHL.c **** 
  33:Generated_Source\PSoC4/CapSense_CSHL.c **** #elif ( (0u != (CapSense_RAW_FILTER_MASK & CapSense_IIR2_FILTER))   || \
  34:Generated_Source\PSoC4/CapSense_CSHL.c ****         (0u != (CapSense_RAW_FILTER_MASK & CapSense_IIR4_FILTER))   || \
  35:Generated_Source\PSoC4/CapSense_CSHL.c ****         (0u != (CapSense_RAW_FILTER_MASK & CapSense_JITTER_FILTER)) || \
  36:Generated_Source\PSoC4/CapSense_CSHL.c ****         (0u != (CapSense_RAW_FILTER_MASK & CapSense_IIR8_FILTER))   || \
  37:Generated_Source\PSoC4/CapSense_CSHL.c ****         (0u != (CapSense_RAW_FILTER_MASK & CapSense_IIR16_FILTER)) )
  38:Generated_Source\PSoC4/CapSense_CSHL.c **** 
  39:Generated_Source\PSoC4/CapSense_CSHL.c ****     uint16 CapSense_rawFilterData1[CapSense_TOTAL_SENSOR_COUNT];
  40:Generated_Source\PSoC4/CapSense_CSHL.c **** #endif  /* ( (CapSense_RAW_FILTER_MASK & CapSense_MEDIAN_FILTER) || \
  41:Generated_Source\PSoC4/CapSense_CSHL.c ****         *    (CapSense_RAW_FILTER_MASK & CapSense_AVERAGING_FILTER) )
  42:Generated_Source\PSoC4/CapSense_CSHL.c ****         */
  43:Generated_Source\PSoC4/CapSense_CSHL.c **** 
  44:Generated_Source\PSoC4/CapSense_CSHL.c **** extern uint16 CapSense_sensorRaw[CapSense_TOTAL_SENSOR_COUNT];
  45:Generated_Source\PSoC4/CapSense_CSHL.c **** extern uint8 CapSense_sensorEnableMask[CapSense_TOTAL_SENSOR_MASK];
  46:Generated_Source\PSoC4/CapSense_CSHL.c **** extern const uint8 CapSense_widgetNumber[CapSense_TOTAL_SENSOR_COUNT];
  47:Generated_Source\PSoC4/CapSense_CSHL.c **** 
  48:Generated_Source\PSoC4/CapSense_CSHL.c **** #if (CapSense_TUNING_METHOD != CapSense__TUNING_NONE)
  49:Generated_Source\PSoC4/CapSense_CSHL.c ****     extern uint32 CapSense_widgetResolution[CapSense_RESOLUTIONS_TBL_SIZE];
  50:Generated_Source\PSoC4/CapSense_CSHL.c **** #endif /* (CapSense_TUNING_METHOD != CapSense__TUNING_NONE) */
  51:Generated_Source\PSoC4/CapSense_CSHL.c **** 
  52:Generated_Source\PSoC4/CapSense_CSHL.c **** uint16 CapSense_sensorBaseline[CapSense_TOTAL_SENSOR_COUNT] = {0u};
  53:Generated_Source\PSoC4/CapSense_CSHL.c **** uint8 CapSense_sensorBaselineLow[CapSense_TOTAL_SENSOR_COUNT] = {0u};
  54:Generated_Source\PSoC4/CapSense_CSHL.c **** uint8 CapSense_sensorSignal[CapSense_TOTAL_SENSOR_COUNT] = {0u};
  55:Generated_Source\PSoC4/CapSense_CSHL.c **** uint8 CapSense_sensorOnMask[CapSense_TOTAL_SENSOR_MASK] = {0u};
  56:Generated_Source\PSoC4/CapSense_CSHL.c **** 
  57:Generated_Source\PSoC4/CapSense_CSHL.c **** uint8 CapSense_lowBaselineResetCnt[CapSense_TOTAL_SENSOR_COUNT];
  58:Generated_Source\PSoC4/CapSense_CSHL.c **** uint8 CapSense_lowBaselineReset[CapSense_TOTAL_SENSOR_COUNT] = {
  59:Generated_Source\PSoC4/CapSense_CSHL.c ****     30u, 
  60:Generated_Source\PSoC4/CapSense_CSHL.c **** };
  61:Generated_Source\PSoC4/CapSense_CSHL.c **** 
  62:Generated_Source\PSoC4/CapSense_CSHL.c **** 
  63:Generated_Source\PSoC4/CapSense_CSHL.c **** 
  64:Generated_Source\PSoC4/CapSense_CSHL.c **** #if (CapSense_TUNING_METHOD == CapSense__TUNING_AUTO)
  65:Generated_Source\PSoC4/CapSense_CSHL.c ****     extern CapSense_CONFIG_TYPE_P4_v2_60 CapSense_config;
  66:Generated_Source\PSoC4/CapSense_CSHL.c **** #endif  /* (CapSense_TUNING_METHOD == CapSense__TUNING_AUTO) */
  67:Generated_Source\PSoC4/CapSense_CSHL.c **** 
  68:Generated_Source\PSoC4/CapSense_CSHL.c **** #if (CapSense_RAW_FILTER_MASK != 0u)
  69:Generated_Source\PSoC4/CapSense_CSHL.c **** uint8 CapSense_enableRawFilters = CapSense_RAW_FILTERS_ENABLED;
  70:Generated_Source\PSoC4/CapSense_CSHL.c **** #endif  /* (CapSense_RAW_FILTER_MASK != 0u) */
  71:Generated_Source\PSoC4/CapSense_CSHL.c **** 
  72:Generated_Source\PSoC4/CapSense_CSHL.c **** /* Generated by Customizer */
  73:Generated_Source\PSoC4/CapSense_CSHL.c **** uint8 CapSense_fingerThreshold[] = {
ARM GAS  C:\Users\PC\AppData\Local\Temp\ccBgQfEQ.s 			page 4


  74:Generated_Source\PSoC4/CapSense_CSHL.c ****     80u, 
  75:Generated_Source\PSoC4/CapSense_CSHL.c **** };
  76:Generated_Source\PSoC4/CapSense_CSHL.c **** 
  77:Generated_Source\PSoC4/CapSense_CSHL.c **** uint8 CapSense_noiseThreshold[CapSense_THRESHOLD_TBL_SIZE];
  78:Generated_Source\PSoC4/CapSense_CSHL.c **** 
  79:Generated_Source\PSoC4/CapSense_CSHL.c **** uint8 CapSense_negativeNoiseThreshold[CapSense_THRESHOLD_TBL_SIZE];
  80:Generated_Source\PSoC4/CapSense_CSHL.c **** 
  81:Generated_Source\PSoC4/CapSense_CSHL.c **** uint8 CapSense_hysteresis[CapSense_WIDGET_PARAM_TBL_SIZE];
  82:Generated_Source\PSoC4/CapSense_CSHL.c **** 
  83:Generated_Source\PSoC4/CapSense_CSHL.c **** uint8 CapSense_debounce[] = {
  84:Generated_Source\PSoC4/CapSense_CSHL.c ****     5u, 
  85:Generated_Source\PSoC4/CapSense_CSHL.c **** };
  86:Generated_Source\PSoC4/CapSense_CSHL.c **** 
  87:Generated_Source\PSoC4/CapSense_CSHL.c **** static uint8 CapSense_debounceCounter[] = {
  88:Generated_Source\PSoC4/CapSense_CSHL.c ****     0u, 0u, 
  89:Generated_Source\PSoC4/CapSense_CSHL.c **** };
  90:Generated_Source\PSoC4/CapSense_CSHL.c **** 
  91:Generated_Source\PSoC4/CapSense_CSHL.c **** const uint8 CapSense_rawDataIndex[] = {
  92:Generated_Source\PSoC4/CapSense_CSHL.c ****     0u, /* ProximitySensor0__PROX */
  93:Generated_Source\PSoC4/CapSense_CSHL.c **** };
  94:Generated_Source\PSoC4/CapSense_CSHL.c **** 
  95:Generated_Source\PSoC4/CapSense_CSHL.c **** const uint8 CapSense_numberOfSensors[] = {
  96:Generated_Source\PSoC4/CapSense_CSHL.c ****     1u, /* ProximitySensor0__PROX */
  97:Generated_Source\PSoC4/CapSense_CSHL.c **** };
  98:Generated_Source\PSoC4/CapSense_CSHL.c **** 
  99:Generated_Source\PSoC4/CapSense_CSHL.c **** 
 100:Generated_Source\PSoC4/CapSense_CSHL.c **** 
 101:Generated_Source\PSoC4/CapSense_CSHL.c **** 
 102:Generated_Source\PSoC4/CapSense_CSHL.c **** /*******************************************************************************
 103:Generated_Source\PSoC4/CapSense_CSHL.c **** * Function Name: CapSense_BaseInit
 104:Generated_Source\PSoC4/CapSense_CSHL.c **** ********************************************************************************
 105:Generated_Source\PSoC4/CapSense_CSHL.c **** *
 106:Generated_Source\PSoC4/CapSense_CSHL.c **** * Summary:
 107:Generated_Source\PSoC4/CapSense_CSHL.c **** *  Loads the CapSense_sensorBaseline[sensor] array element with an
 108:Generated_Source\PSoC4/CapSense_CSHL.c **** *  initial value which is equal to the raw count value.
 109:Generated_Source\PSoC4/CapSense_CSHL.c **** *  Resets to zero CapSense_sensorBaselineLow[sensor] and
 110:Generated_Source\PSoC4/CapSense_CSHL.c **** *  CapSense_sensorSignal[sensor] array element.
 111:Generated_Source\PSoC4/CapSense_CSHL.c **** *  Loads the CapSense_rawFilterData2[sensor] and
 112:Generated_Source\PSoC4/CapSense_CSHL.c **** *  CapSense_rawFilterData2[sensor] array element with an
 113:Generated_Source\PSoC4/CapSense_CSHL.c **** *  initial value which is equal to the raw count value if the raw data filter is enabled.
 114:Generated_Source\PSoC4/CapSense_CSHL.c **** *
 115:Generated_Source\PSoC4/CapSense_CSHL.c **** * Parameters:
 116:Generated_Source\PSoC4/CapSense_CSHL.c **** *  sensor:  Sensor number.
 117:Generated_Source\PSoC4/CapSense_CSHL.c **** *
 118:Generated_Source\PSoC4/CapSense_CSHL.c **** * Return:
 119:Generated_Source\PSoC4/CapSense_CSHL.c **** *  None
 120:Generated_Source\PSoC4/CapSense_CSHL.c **** *
 121:Generated_Source\PSoC4/CapSense_CSHL.c **** * Global Variables:
 122:Generated_Source\PSoC4/CapSense_CSHL.c **** *  CapSense_sensorBaseline[]    - used to store the baseline value.
 123:Generated_Source\PSoC4/CapSense_CSHL.c **** *  CapSense_sensorBaselineLow[] - used to store the fraction byte of
 124:Generated_Source\PSoC4/CapSense_CSHL.c **** *  the baseline value.
 125:Generated_Source\PSoC4/CapSense_CSHL.c **** *  CapSense_sensorSignal[]      - used to store a difference between
 126:Generated_Source\PSoC4/CapSense_CSHL.c **** *  the current value of raw data and the previous value of the baseline.
 127:Generated_Source\PSoC4/CapSense_CSHL.c **** *  CapSense_rawFilterData1[]    - used to store a previous sample of
 128:Generated_Source\PSoC4/CapSense_CSHL.c **** *  any enabled raw data filter.
 129:Generated_Source\PSoC4/CapSense_CSHL.c **** *  CapSense_rawFilterData2[]    - used to store before a previous sample
 130:Generated_Source\PSoC4/CapSense_CSHL.c **** *  of the enabled raw data filter. Required only for median or average filters.
ARM GAS  C:\Users\PC\AppData\Local\Temp\ccBgQfEQ.s 			page 5


 131:Generated_Source\PSoC4/CapSense_CSHL.c **** *
 132:Generated_Source\PSoC4/CapSense_CSHL.c **** * Side Effects:
 133:Generated_Source\PSoC4/CapSense_CSHL.c **** *  None
 134:Generated_Source\PSoC4/CapSense_CSHL.c **** *
 135:Generated_Source\PSoC4/CapSense_CSHL.c **** *******************************************************************************/
 136:Generated_Source\PSoC4/CapSense_CSHL.c **** void CapSense_BaseInit(uint32 sensor)
 137:Generated_Source\PSoC4/CapSense_CSHL.c **** {
  99              		.loc 1 137 0
 100              		.cfi_startproc
 101              		@ args = 0, pretend = 0, frame = 16
 102              		@ frame_needed = 1, uses_anonymous_args = 0
 103 0000 80B5     		push	{r7, lr}
 104              		.cfi_def_cfa_offset 8
 105              		.cfi_offset 7, -8
 106              		.cfi_offset 14, -4
 107 0002 84B0     		sub	sp, sp, #16
 108              		.cfi_def_cfa_offset 24
 109 0004 00AF     		add	r7, sp, #0
 110              		.cfi_def_cfa_register 7
 111 0006 7860     		str	r0, [r7, #4]
 138:Generated_Source\PSoC4/CapSense_CSHL.c ****     #if ((CapSense_TOTAL_BUTTONS_COUNT) || (CapSense_TOTAL_MATRIX_BUTTONS_COUNT) || \
 139:Generated_Source\PSoC4/CapSense_CSHL.c ****          (CapSense_TOTAL_GENERICS_COUNT))
 140:Generated_Source\PSoC4/CapSense_CSHL.c ****         uint8 widget = CapSense_widgetNumber[sensor];
 112              		.loc 1 140 0
 113 0008 0F23     		movs	r3, #15
 114 000a FB18     		adds	r3, r7, r3
 115 000c 1649     		ldr	r1, .L2
 116 000e 7A68     		ldr	r2, [r7, #4]
 117 0010 8A18     		adds	r2, r1, r2
 118 0012 1278     		ldrb	r2, [r2]
 119 0014 1A70     		strb	r2, [r3]
 141:Generated_Source\PSoC4/CapSense_CSHL.c ****     #endif /* ((CapSense_TOTAL_MATRIX_BUTTONS_COUNT) || (CapSense_TOTAL_MATRIX_BUTTONS_COUNT)) */
 142:Generated_Source\PSoC4/CapSense_CSHL.c **** 
 143:Generated_Source\PSoC4/CapSense_CSHL.c ****     #if (CapSense_TOTAL_MATRIX_BUTTONS_COUNT)
 144:Generated_Source\PSoC4/CapSense_CSHL.c ****         uint8 debounceIndex;
 145:Generated_Source\PSoC4/CapSense_CSHL.c ****     #endif  /* (CapSense_TOTAL_MATRIX_BUTTONS_COUNT) */
 146:Generated_Source\PSoC4/CapSense_CSHL.c **** 
 147:Generated_Source\PSoC4/CapSense_CSHL.c ****     #if (CapSense_TOTAL_GENERICS_COUNT)
 148:Generated_Source\PSoC4/CapSense_CSHL.c ****         /* Exclude generic widget */
 149:Generated_Source\PSoC4/CapSense_CSHL.c ****         if(widget < CapSense_END_OF_WIDGETS_INDEX)
 150:Generated_Source\PSoC4/CapSense_CSHL.c ****         {
 151:Generated_Source\PSoC4/CapSense_CSHL.c ****     #endif  /* CapSense_TOTAL_GENERICS_COUNT */
 152:Generated_Source\PSoC4/CapSense_CSHL.c **** 
 153:Generated_Source\PSoC4/CapSense_CSHL.c ****     /* Initialize Baseline */
 154:Generated_Source\PSoC4/CapSense_CSHL.c ****     CapSense_sensorBaseline[sensor] = CapSense_sensorRaw[sensor];
 120              		.loc 1 154 0
 121 0016 154B     		ldr	r3, .L2+4
 122 0018 7A68     		ldr	r2, [r7, #4]
 123 001a 5200     		lsls	r2, r2, #1
 124 001c D15A     		ldrh	r1, [r2, r3]
 125 001e 144B     		ldr	r3, .L2+8
 126 0020 7A68     		ldr	r2, [r7, #4]
 127 0022 5200     		lsls	r2, r2, #1
 128 0024 D152     		strh	r1, [r2, r3]
 155:Generated_Source\PSoC4/CapSense_CSHL.c ****     CapSense_sensorBaselineLow[sensor] = 0u;
 129              		.loc 1 155 0
 130 0026 134A     		ldr	r2, .L2+12
ARM GAS  C:\Users\PC\AppData\Local\Temp\ccBgQfEQ.s 			page 6


 131 0028 7B68     		ldr	r3, [r7, #4]
 132 002a D318     		adds	r3, r2, r3
 133 002c 0022     		movs	r2, #0
 134 002e 1A70     		strb	r2, [r3]
 156:Generated_Source\PSoC4/CapSense_CSHL.c ****     CapSense_sensorSignal[sensor] = 0u;
 135              		.loc 1 156 0
 136 0030 114A     		ldr	r2, .L2+16
 137 0032 7B68     		ldr	r3, [r7, #4]
 138 0034 D318     		adds	r3, r2, r3
 139 0036 0022     		movs	r2, #0
 140 0038 1A70     		strb	r2, [r3]
 157:Generated_Source\PSoC4/CapSense_CSHL.c **** 
 158:Generated_Source\PSoC4/CapSense_CSHL.c ****     CapSense_debounceCounter[widget] =  CapSense_debounce[widget];
 141              		.loc 1 158 0
 142 003a 0F23     		movs	r3, #15
 143 003c FB18     		adds	r3, r7, r3
 144 003e 1B78     		ldrb	r3, [r3]
 145 0040 0F22     		movs	r2, #15
 146 0042 BA18     		adds	r2, r7, r2
 147 0044 1278     		ldrb	r2, [r2]
 148 0046 0D49     		ldr	r1, .L2+20
 149 0048 895C     		ldrb	r1, [r1, r2]
 150 004a 0D4A     		ldr	r2, .L2+24
 151 004c D154     		strb	r1, [r2, r3]
 159:Generated_Source\PSoC4/CapSense_CSHL.c **** 
 160:Generated_Source\PSoC4/CapSense_CSHL.c **** 
 161:Generated_Source\PSoC4/CapSense_CSHL.c ****     #if ((0u != (CapSense_RAW_FILTER_MASK & CapSense_MEDIAN_FILTER)) ||\
 162:Generated_Source\PSoC4/CapSense_CSHL.c ****          (0u != (CapSense_RAW_FILTER_MASK & CapSense_AVERAGING_FILTER)))
 163:Generated_Source\PSoC4/CapSense_CSHL.c **** 
 164:Generated_Source\PSoC4/CapSense_CSHL.c ****         CapSense_rawFilterData1[sensor] = CapSense_sensorRaw[sensor];
 165:Generated_Source\PSoC4/CapSense_CSHL.c ****         CapSense_rawFilterData2[sensor] = CapSense_sensorRaw[sensor];
 166:Generated_Source\PSoC4/CapSense_CSHL.c **** 
 167:Generated_Source\PSoC4/CapSense_CSHL.c ****     #elif ((CapSense_RAW_FILTER_MASK & CapSense_IIR2_FILTER) ||\
 168:Generated_Source\PSoC4/CapSense_CSHL.c ****            (CapSense_RAW_FILTER_MASK & CapSense_IIR4_FILTER) ||\
 169:Generated_Source\PSoC4/CapSense_CSHL.c ****            (CapSense_RAW_FILTER_MASK & CapSense_JITTER_FILTER) ||\
 170:Generated_Source\PSoC4/CapSense_CSHL.c ****            (CapSense_RAW_FILTER_MASK & CapSense_IIR8_FILTER) ||\
 171:Generated_Source\PSoC4/CapSense_CSHL.c ****            (CapSense_RAW_FILTER_MASK & CapSense_IIR16_FILTER))
 172:Generated_Source\PSoC4/CapSense_CSHL.c **** 
 173:Generated_Source\PSoC4/CapSense_CSHL.c ****         CapSense_rawFilterData1[sensor] = CapSense_sensorRaw[sensor];
 152              		.loc 1 173 0
 153 004e 074B     		ldr	r3, .L2+4
 154 0050 7A68     		ldr	r2, [r7, #4]
 155 0052 5200     		lsls	r2, r2, #1
 156 0054 D15A     		ldrh	r1, [r2, r3]
 157 0056 0B4B     		ldr	r3, .L2+28
 158 0058 7A68     		ldr	r2, [r7, #4]
 159 005a 5200     		lsls	r2, r2, #1
 160 005c D152     		strh	r1, [r2, r3]
 174:Generated_Source\PSoC4/CapSense_CSHL.c **** 
 175:Generated_Source\PSoC4/CapSense_CSHL.c ****     #else
 176:Generated_Source\PSoC4/CapSense_CSHL.c ****         /* No Raw filters */
 177:Generated_Source\PSoC4/CapSense_CSHL.c ****     #endif  /* ((CapSense_RAW_FILTER_MASK & CapSense_MEDIAN_FILTER) || \
 178:Generated_Source\PSoC4/CapSense_CSHL.c ****             *   (CapSense_RAW_FILTER_MASK & CapSense_AVERAGING_FILTER))
 179:Generated_Source\PSoC4/CapSense_CSHL.c ****             */
 180:Generated_Source\PSoC4/CapSense_CSHL.c **** 
 181:Generated_Source\PSoC4/CapSense_CSHL.c ****     #if (CapSense_TOTAL_GENERICS_COUNT)
 182:Generated_Source\PSoC4/CapSense_CSHL.c ****         /* Exclude generic widget */
ARM GAS  C:\Users\PC\AppData\Local\Temp\ccBgQfEQ.s 			page 7


 183:Generated_Source\PSoC4/CapSense_CSHL.c ****         }
 184:Generated_Source\PSoC4/CapSense_CSHL.c ****     #endif  /* CapSense_TOTAL_GENERICS_COUNT */
 185:Generated_Source\PSoC4/CapSense_CSHL.c **** }
 161              		.loc 1 185 0
 162 005e C046     		nop
 163 0060 BD46     		mov	sp, r7
 164 0062 04B0     		add	sp, sp, #16
 165              		@ sp needed
 166 0064 80BD     		pop	{r7, pc}
 167              	.L3:
 168 0066 C046     		.align	2
 169              	.L2:
 170 0068 00000000 		.word	CapSense_widgetNumber
 171 006c 00000000 		.word	CapSense_sensorRaw
 172 0070 00000000 		.word	CapSense_sensorBaseline
 173 0074 00000000 		.word	CapSense_sensorBaselineLow
 174 0078 00000000 		.word	CapSense_sensorSignal
 175 007c 00000000 		.word	CapSense_debounce
 176 0080 10000000 		.word	CapSense_debounceCounter
 177 0084 00000000 		.word	CapSense_rawFilterData1
 178              		.cfi_endproc
 179              	.LFE36:
 180              		.size	CapSense_BaseInit, .-CapSense_BaseInit
 181              		.section	.text.CapSense_InitializeSensorBaseline,"ax",%progbits
 182              		.align	2
 183              		.global	CapSense_InitializeSensorBaseline
 184              		.code	16
 185              		.thumb_func
 186              		.type	CapSense_InitializeSensorBaseline, %function
 187              	CapSense_InitializeSensorBaseline:
 188              	.LFB37:
 186:Generated_Source\PSoC4/CapSense_CSHL.c **** 
 187:Generated_Source\PSoC4/CapSense_CSHL.c **** 
 188:Generated_Source\PSoC4/CapSense_CSHL.c **** /*******************************************************************************
 189:Generated_Source\PSoC4/CapSense_CSHL.c **** * Function Name: CapSense_InitializeSensorBaseline
 190:Generated_Source\PSoC4/CapSense_CSHL.c **** ********************************************************************************
 191:Generated_Source\PSoC4/CapSense_CSHL.c **** *
 192:Generated_Source\PSoC4/CapSense_CSHL.c **** * Summary:
 193:Generated_Source\PSoC4/CapSense_CSHL.c **** *  Loads the CapSense_sensorBaseline[sensor] array element with an
 194:Generated_Source\PSoC4/CapSense_CSHL.c **** *  initial value by scanning the selected sensor (one channel design) or a pair
 195:Generated_Source\PSoC4/CapSense_CSHL.c **** *  of sensors (two channels designs). The raw count value is copied into the
 196:Generated_Source\PSoC4/CapSense_CSHL.c **** *  baseline array for each sensor. The raw data filters are initialized if
 197:Generated_Source\PSoC4/CapSense_CSHL.c **** *  enabled.
 198:Generated_Source\PSoC4/CapSense_CSHL.c **** *
 199:Generated_Source\PSoC4/CapSense_CSHL.c **** * Parameters:
 200:Generated_Source\PSoC4/CapSense_CSHL.c **** *  sensor:  Sensor number.
 201:Generated_Source\PSoC4/CapSense_CSHL.c **** *
 202:Generated_Source\PSoC4/CapSense_CSHL.c **** * Return:
 203:Generated_Source\PSoC4/CapSense_CSHL.c **** *  None
 204:Generated_Source\PSoC4/CapSense_CSHL.c **** *
 205:Generated_Source\PSoC4/CapSense_CSHL.c **** * Global Variables:
 206:Generated_Source\PSoC4/CapSense_CSHL.c **** *  None
 207:Generated_Source\PSoC4/CapSense_CSHL.c **** *
 208:Generated_Source\PSoC4/CapSense_CSHL.c **** * Side Effects:
 209:Generated_Source\PSoC4/CapSense_CSHL.c **** *  None
 210:Generated_Source\PSoC4/CapSense_CSHL.c **** *
 211:Generated_Source\PSoC4/CapSense_CSHL.c **** *******************************************************************************/
ARM GAS  C:\Users\PC\AppData\Local\Temp\ccBgQfEQ.s 			page 8


 212:Generated_Source\PSoC4/CapSense_CSHL.c **** void CapSense_InitializeSensorBaseline(uint32 sensor)
 213:Generated_Source\PSoC4/CapSense_CSHL.c **** {
 189              		.loc 1 213 0
 190              		.cfi_startproc
 191              		@ args = 0, pretend = 0, frame = 8
 192              		@ frame_needed = 1, uses_anonymous_args = 0
 193 0000 80B5     		push	{r7, lr}
 194              		.cfi_def_cfa_offset 8
 195              		.cfi_offset 7, -8
 196              		.cfi_offset 14, -4
 197 0002 82B0     		sub	sp, sp, #8
 198              		.cfi_def_cfa_offset 16
 199 0004 00AF     		add	r7, sp, #0
 200              		.cfi_def_cfa_register 7
 201 0006 7860     		str	r0, [r7, #4]
 214:Generated_Source\PSoC4/CapSense_CSHL.c ****     /* Scan sensor */
 215:Generated_Source\PSoC4/CapSense_CSHL.c ****     CapSense_ScanSensor(sensor);
 202              		.loc 1 215 0
 203 0008 7B68     		ldr	r3, [r7, #4]
 204 000a 1800     		movs	r0, r3
 205 000c FFF7FEFF 		bl	CapSense_ScanSensor
 216:Generated_Source\PSoC4/CapSense_CSHL.c ****     while(CapSense_IsBusy() != 0u)
 206              		.loc 1 216 0
 207 0010 C046     		nop
 208              	.L5:
 209              		.loc 1 216 0 is_stmt 0 discriminator 1
 210 0012 FFF7FEFF 		bl	CapSense_IsBusy
 211 0016 031E     		subs	r3, r0, #0
 212 0018 FBD1     		bne	.L5
 217:Generated_Source\PSoC4/CapSense_CSHL.c ****     {
 218:Generated_Source\PSoC4/CapSense_CSHL.c ****         /* Wait while sensor is busy */
 219:Generated_Source\PSoC4/CapSense_CSHL.c ****     }
 220:Generated_Source\PSoC4/CapSense_CSHL.c **** 
 221:Generated_Source\PSoC4/CapSense_CSHL.c ****     /* Initialize Baseline, Signal and debounce counters */
 222:Generated_Source\PSoC4/CapSense_CSHL.c ****     CapSense_BaseInit(sensor);
 213              		.loc 1 222 0 is_stmt 1
 214 001a 7B68     		ldr	r3, [r7, #4]
 215 001c 1800     		movs	r0, r3
 216 001e FFF7FEFF 		bl	CapSense_BaseInit
 223:Generated_Source\PSoC4/CapSense_CSHL.c **** }
 217              		.loc 1 223 0
 218 0022 C046     		nop
 219 0024 BD46     		mov	sp, r7
 220 0026 02B0     		add	sp, sp, #8
 221              		@ sp needed
 222 0028 80BD     		pop	{r7, pc}
 223              		.cfi_endproc
 224              	.LFE37:
 225              		.size	CapSense_InitializeSensorBaseline, .-CapSense_InitializeSensorBaseline
 226 002a C046     		.section	.text.CapSense_InitializeAllBaselines,"ax",%progbits
 227              		.align	2
 228              		.global	CapSense_InitializeAllBaselines
 229              		.code	16
 230              		.thumb_func
 231              		.type	CapSense_InitializeAllBaselines, %function
 232              	CapSense_InitializeAllBaselines:
 233              	.LFB38:
ARM GAS  C:\Users\PC\AppData\Local\Temp\ccBgQfEQ.s 			page 9


 224:Generated_Source\PSoC4/CapSense_CSHL.c **** 
 225:Generated_Source\PSoC4/CapSense_CSHL.c **** 
 226:Generated_Source\PSoC4/CapSense_CSHL.c **** /*******************************************************************************
 227:Generated_Source\PSoC4/CapSense_CSHL.c **** * Function Name: CapSense_InitializeAllBaselines
 228:Generated_Source\PSoC4/CapSense_CSHL.c **** ********************************************************************************
 229:Generated_Source\PSoC4/CapSense_CSHL.c **** *
 230:Generated_Source\PSoC4/CapSense_CSHL.c **** * Summary:
 231:Generated_Source\PSoC4/CapSense_CSHL.c **** *  Uses the CapSense_InitializeSensorBaseline function to load the
 232:Generated_Source\PSoC4/CapSense_CSHL.c **** *  CapSense_sensorBaseline[] array with an initial values by scanning
 233:Generated_Source\PSoC4/CapSense_CSHL.c **** *  all the sensors. The raw count values are copied into the baseline array for
 234:Generated_Source\PSoC4/CapSense_CSHL.c **** *  all the sensors. The raw data filters are initialized if enabled.
 235:Generated_Source\PSoC4/CapSense_CSHL.c **** *
 236:Generated_Source\PSoC4/CapSense_CSHL.c **** * Parameters:
 237:Generated_Source\PSoC4/CapSense_CSHL.c **** *  None
 238:Generated_Source\PSoC4/CapSense_CSHL.c **** *
 239:Generated_Source\PSoC4/CapSense_CSHL.c **** * Return:
 240:Generated_Source\PSoC4/CapSense_CSHL.c **** *  None
 241:Generated_Source\PSoC4/CapSense_CSHL.c **** *
 242:Generated_Source\PSoC4/CapSense_CSHL.c **** * Global Variables:
 243:Generated_Source\PSoC4/CapSense_CSHL.c **** *  None
 244:Generated_Source\PSoC4/CapSense_CSHL.c **** *
 245:Generated_Source\PSoC4/CapSense_CSHL.c **** * Side Effects:
 246:Generated_Source\PSoC4/CapSense_CSHL.c **** *  None
 247:Generated_Source\PSoC4/CapSense_CSHL.c **** *
 248:Generated_Source\PSoC4/CapSense_CSHL.c **** *******************************************************************************/
 249:Generated_Source\PSoC4/CapSense_CSHL.c **** void CapSense_InitializeAllBaselines(void)
 250:Generated_Source\PSoC4/CapSense_CSHL.c **** {
 234              		.loc 1 250 0
 235              		.cfi_startproc
 236              		@ args = 0, pretend = 0, frame = 8
 237              		@ frame_needed = 1, uses_anonymous_args = 0
 238 0000 80B5     		push	{r7, lr}
 239              		.cfi_def_cfa_offset 8
 240              		.cfi_offset 7, -8
 241              		.cfi_offset 14, -4
 242 0002 82B0     		sub	sp, sp, #8
 243              		.cfi_def_cfa_offset 16
 244 0004 00AF     		add	r7, sp, #0
 245              		.cfi_def_cfa_register 7
 251:Generated_Source\PSoC4/CapSense_CSHL.c ****     uint32 i;
 252:Generated_Source\PSoC4/CapSense_CSHL.c **** 
 253:Generated_Source\PSoC4/CapSense_CSHL.c ****     for(i = 0u; i < CapSense_TOTAL_SCANSLOT_COUNT; i++)
 246              		.loc 1 253 0
 247 0006 0023     		movs	r3, #0
 248 0008 7B60     		str	r3, [r7, #4]
 249 000a 06E0     		b	.L7
 250              	.L8:
 254:Generated_Source\PSoC4/CapSense_CSHL.c ****     {
 255:Generated_Source\PSoC4/CapSense_CSHL.c ****         CapSense_InitializeSensorBaseline(i);
 251              		.loc 1 255 0 discriminator 3
 252 000c 7B68     		ldr	r3, [r7, #4]
 253 000e 1800     		movs	r0, r3
 254 0010 FFF7FEFF 		bl	CapSense_InitializeSensorBaseline
 253:Generated_Source\PSoC4/CapSense_CSHL.c ****     {
 255              		.loc 1 253 0 discriminator 3
 256 0014 7B68     		ldr	r3, [r7, #4]
 257 0016 0133     		adds	r3, r3, #1
ARM GAS  C:\Users\PC\AppData\Local\Temp\ccBgQfEQ.s 			page 10


 258 0018 7B60     		str	r3, [r7, #4]
 259              	.L7:
 253:Generated_Source\PSoC4/CapSense_CSHL.c ****     {
 260              		.loc 1 253 0 is_stmt 0 discriminator 1
 261 001a 7B68     		ldr	r3, [r7, #4]
 262 001c 002B     		cmp	r3, #0
 263 001e F5D0     		beq	.L8
 256:Generated_Source\PSoC4/CapSense_CSHL.c ****     }
 257:Generated_Source\PSoC4/CapSense_CSHL.c **** }
 264              		.loc 1 257 0 is_stmt 1
 265 0020 C046     		nop
 266 0022 BD46     		mov	sp, r7
 267 0024 02B0     		add	sp, sp, #8
 268              		@ sp needed
 269 0026 80BD     		pop	{r7, pc}
 270              		.cfi_endproc
 271              	.LFE38:
 272              		.size	CapSense_InitializeAllBaselines, .-CapSense_InitializeAllBaselines
 273              		.section	.text.CapSense_InitializeEnabledBaselines,"ax",%progbits
 274              		.align	2
 275              		.global	CapSense_InitializeEnabledBaselines
 276              		.code	16
 277              		.thumb_func
 278              		.type	CapSense_InitializeEnabledBaselines, %function
 279              	CapSense_InitializeEnabledBaselines:
 280              	.LFB39:
 258:Generated_Source\PSoC4/CapSense_CSHL.c **** 
 259:Generated_Source\PSoC4/CapSense_CSHL.c **** 
 260:Generated_Source\PSoC4/CapSense_CSHL.c **** /*******************************************************************************
 261:Generated_Source\PSoC4/CapSense_CSHL.c **** * Function Name: CapSense_InitializeEnabledBaselines
 262:Generated_Source\PSoC4/CapSense_CSHL.c **** ********************************************************************************
 263:Generated_Source\PSoC4/CapSense_CSHL.c **** *
 264:Generated_Source\PSoC4/CapSense_CSHL.c **** * Summary:
 265:Generated_Source\PSoC4/CapSense_CSHL.c **** *  Scans all the enabled widgets and the raw count values are copied into the
 266:Generated_Source\PSoC4/CapSense_CSHL.c **** *  baseline array for all the sensors enabled in the scanning process. The baselines
 267:Generated_Source\PSoC4/CapSense_CSHL.c **** *  are initialized with zero values for sensors disabled from the scanning process.
 268:Generated_Source\PSoC4/CapSense_CSHL.c **** *  The raw data filters are initialized if enabled.
 269:Generated_Source\PSoC4/CapSense_CSHL.c **** *
 270:Generated_Source\PSoC4/CapSense_CSHL.c **** * Parameters:
 271:Generated_Source\PSoC4/CapSense_CSHL.c **** *  None
 272:Generated_Source\PSoC4/CapSense_CSHL.c **** *
 273:Generated_Source\PSoC4/CapSense_CSHL.c **** * Return:
 274:Generated_Source\PSoC4/CapSense_CSHL.c **** *  None
 275:Generated_Source\PSoC4/CapSense_CSHL.c **** *
 276:Generated_Source\PSoC4/CapSense_CSHL.c **** * Global Variables:
 277:Generated_Source\PSoC4/CapSense_CSHL.c **** *  CapSense_sensorRaw[] - used to store the sensors raw data.
 278:Generated_Source\PSoC4/CapSense_CSHL.c **** *  CapSense_sensorEnableMask[ ] - used to store bit masks of the enabled sensors.
 279:Generated_Source\PSoC4/CapSense_CSHL.c **** *
 280:Generated_Source\PSoC4/CapSense_CSHL.c **** * Side Effects:
 281:Generated_Source\PSoC4/CapSense_CSHL.c **** *  None
 282:Generated_Source\PSoC4/CapSense_CSHL.c **** *
 283:Generated_Source\PSoC4/CapSense_CSHL.c **** *******************************************************************************/
 284:Generated_Source\PSoC4/CapSense_CSHL.c **** void CapSense_InitializeEnabledBaselines(void)
 285:Generated_Source\PSoC4/CapSense_CSHL.c **** {
 281              		.loc 1 285 0
 282              		.cfi_startproc
 283              		@ args = 0, pretend = 0, frame = 8
ARM GAS  C:\Users\PC\AppData\Local\Temp\ccBgQfEQ.s 			page 11


 284              		@ frame_needed = 1, uses_anonymous_args = 0
 285 0000 80B5     		push	{r7, lr}
 286              		.cfi_def_cfa_offset 8
 287              		.cfi_offset 7, -8
 288              		.cfi_offset 14, -4
 289 0002 82B0     		sub	sp, sp, #8
 290              		.cfi_def_cfa_offset 16
 291 0004 00AF     		add	r7, sp, #0
 292              		.cfi_def_cfa_register 7
 286:Generated_Source\PSoC4/CapSense_CSHL.c ****     uint32 i;
 287:Generated_Source\PSoC4/CapSense_CSHL.c ****     uint32 isSensorEnabled;
 288:Generated_Source\PSoC4/CapSense_CSHL.c **** 
 289:Generated_Source\PSoC4/CapSense_CSHL.c ****     CapSense_ScanEnabledWidgets();
 293              		.loc 1 289 0
 294 0006 FFF7FEFF 		bl	CapSense_ScanEnabledWidgets
 290:Generated_Source\PSoC4/CapSense_CSHL.c ****     while(CapSense_IsBusy() != 0u)
 295              		.loc 1 290 0
 296 000a C046     		nop
 297              	.L10:
 298              		.loc 1 290 0 is_stmt 0 discriminator 1
 299 000c FFF7FEFF 		bl	CapSense_IsBusy
 300 0010 031E     		subs	r3, r0, #0
 301 0012 FBD1     		bne	.L10
 291:Generated_Source\PSoC4/CapSense_CSHL.c ****     {
 292:Generated_Source\PSoC4/CapSense_CSHL.c ****         /* Wait while sensor is busy */
 293:Generated_Source\PSoC4/CapSense_CSHL.c ****     }
 294:Generated_Source\PSoC4/CapSense_CSHL.c **** 
 295:Generated_Source\PSoC4/CapSense_CSHL.c ****     for(i = 0u; i < CapSense_TOTAL_SENSOR_COUNT; i++)
 302              		.loc 1 295 0 is_stmt 1
 303 0014 0023     		movs	r3, #0
 304 0016 7B60     		str	r3, [r7, #4]
 305 0018 11E0     		b	.L11
 306              	.L13:
 296:Generated_Source\PSoC4/CapSense_CSHL.c ****     {
 297:Generated_Source\PSoC4/CapSense_CSHL.c ****         isSensorEnabled = CapSense_GetBitValue(CapSense_sensorEnableMask, i);
 307              		.loc 1 297 0
 308 001a 7A68     		ldr	r2, [r7, #4]
 309 001c 0B4B     		ldr	r3, .L14
 310 001e 1100     		movs	r1, r2
 311 0020 1800     		movs	r0, r3
 312 0022 FFF7FEFF 		bl	CapSense_GetBitValue
 313 0026 0300     		movs	r3, r0
 314 0028 3B60     		str	r3, [r7]
 298:Generated_Source\PSoC4/CapSense_CSHL.c **** 
 299:Generated_Source\PSoC4/CapSense_CSHL.c ****         /* Clear raw data if sensor is disabled from scanning process */
 300:Generated_Source\PSoC4/CapSense_CSHL.c ****         if(isSensorEnabled != 0u)
 315              		.loc 1 300 0
 316 002a 3B68     		ldr	r3, [r7]
 317 002c 002B     		cmp	r3, #0
 318 002e 03D0     		beq	.L12
 301:Generated_Source\PSoC4/CapSense_CSHL.c ****         {
 302:Generated_Source\PSoC4/CapSense_CSHL.c ****             /* Initialize baselines */
 303:Generated_Source\PSoC4/CapSense_CSHL.c ****             CapSense_BaseInit(i);
 319              		.loc 1 303 0
 320 0030 7B68     		ldr	r3, [r7, #4]
 321 0032 1800     		movs	r0, r3
 322 0034 FFF7FEFF 		bl	CapSense_BaseInit
ARM GAS  C:\Users\PC\AppData\Local\Temp\ccBgQfEQ.s 			page 12


 323              	.L12:
 295:Generated_Source\PSoC4/CapSense_CSHL.c ****     {
 324              		.loc 1 295 0 discriminator 2
 325 0038 7B68     		ldr	r3, [r7, #4]
 326 003a 0133     		adds	r3, r3, #1
 327 003c 7B60     		str	r3, [r7, #4]
 328              	.L11:
 295:Generated_Source\PSoC4/CapSense_CSHL.c ****     {
 329              		.loc 1 295 0 is_stmt 0 discriminator 1
 330 003e 7B68     		ldr	r3, [r7, #4]
 331 0040 002B     		cmp	r3, #0
 332 0042 EAD0     		beq	.L13
 304:Generated_Source\PSoC4/CapSense_CSHL.c ****         }
 305:Generated_Source\PSoC4/CapSense_CSHL.c ****     }
 306:Generated_Source\PSoC4/CapSense_CSHL.c **** }
 333              		.loc 1 306 0 is_stmt 1
 334 0044 C046     		nop
 335 0046 BD46     		mov	sp, r7
 336 0048 02B0     		add	sp, sp, #8
 337              		@ sp needed
 338 004a 80BD     		pop	{r7, pc}
 339              	.L15:
 340              		.align	2
 341              	.L14:
 342 004c 00000000 		.word	CapSense_sensorEnableMask
 343              		.cfi_endproc
 344              	.LFE39:
 345              		.size	CapSense_InitializeEnabledBaselines, .-CapSense_InitializeEnabledBaselines
 346              		.section	.text.CapSense_UpdateBaselineNoThreshold,"ax",%progbits
 347              		.align	2
 348              		.global	CapSense_UpdateBaselineNoThreshold
 349              		.code	16
 350              		.thumb_func
 351              		.type	CapSense_UpdateBaselineNoThreshold, %function
 352              	CapSense_UpdateBaselineNoThreshold:
 353              	.LFB40:
 307:Generated_Source\PSoC4/CapSense_CSHL.c **** 
 308:Generated_Source\PSoC4/CapSense_CSHL.c **** 
 309:Generated_Source\PSoC4/CapSense_CSHL.c **** /*******************************************************************************
 310:Generated_Source\PSoC4/CapSense_CSHL.c **** * Function Name: CapSense_UpdateBaselineNoThreshold
 311:Generated_Source\PSoC4/CapSense_CSHL.c **** ********************************************************************************
 312:Generated_Source\PSoC4/CapSense_CSHL.c **** *
 313:Generated_Source\PSoC4/CapSense_CSHL.c **** * Summary:
 314:Generated_Source\PSoC4/CapSense_CSHL.c **** *  Updates the CapSense_sensorBaseline[sensor] array element using the
 315:Generated_Source\PSoC4/CapSense_CSHL.c **** *  LP filter with k = 256. The signal calculates the difference of count by
 316:Generated_Source\PSoC4/CapSense_CSHL.c **** *  subtracting the previous baseline from the current raw count value and stores
 317:Generated_Source\PSoC4/CapSense_CSHL.c **** *  it in CapSense_sensorSignal[sensor].
 318:Generated_Source\PSoC4/CapSense_CSHL.c **** *  If the auto reset option is enabled, the baseline updated regards the noise threshold.
 319:Generated_Source\PSoC4/CapSense_CSHL.c **** *  If the auto reset option is disabled, the baseline stops updating; baseline is loaded
 320:Generated_Source\PSoC4/CapSense_CSHL.c **** *  with a raw count value if a signal is greater than zero and if signal is less
 321:Generated_Source\PSoC4/CapSense_CSHL.c **** *  than noise threshold.
 322:Generated_Source\PSoC4/CapSense_CSHL.c **** *  Raw data filters are applied to the values if enabled before baseline
 323:Generated_Source\PSoC4/CapSense_CSHL.c **** *  calculation.
 324:Generated_Source\PSoC4/CapSense_CSHL.c **** *
 325:Generated_Source\PSoC4/CapSense_CSHL.c **** *  This API does not update the thresholds in the Smartsense Mode.
 326:Generated_Source\PSoC4/CapSense_CSHL.c **** *
 327:Generated_Source\PSoC4/CapSense_CSHL.c **** * Parameters:
ARM GAS  C:\Users\PC\AppData\Local\Temp\ccBgQfEQ.s 			page 13


 328:Generated_Source\PSoC4/CapSense_CSHL.c **** *  sensor:  Sensor number.
 329:Generated_Source\PSoC4/CapSense_CSHL.c **** *
 330:Generated_Source\PSoC4/CapSense_CSHL.c **** * Return:
 331:Generated_Source\PSoC4/CapSense_CSHL.c **** *  None
 332:Generated_Source\PSoC4/CapSense_CSHL.c **** *
 333:Generated_Source\PSoC4/CapSense_CSHL.c **** * Global Variables:
 334:Generated_Source\PSoC4/CapSense_CSHL.c **** *  CapSense_widgetNumber[]  - stores widget numbers.
 335:Generated_Source\PSoC4/CapSense_CSHL.c **** *  CapSense_sensorBaseline[]    - used to store baseline value.
 336:Generated_Source\PSoC4/CapSense_CSHL.c **** *  CapSense_sensorBaselineLow[] - used to store fraction byte of
 337:Generated_Source\PSoC4/CapSense_CSHL.c **** *  baseline value.
 338:Generated_Source\PSoC4/CapSense_CSHL.c **** *  CapSense_sensorSignal[]      - used to store difference between
 339:Generated_Source\PSoC4/CapSense_CSHL.c **** *  current value of raw data and previous value of baseline.
 340:Generated_Source\PSoC4/CapSense_CSHL.c **** *  CapSense_rawFilterData1[]    - used to store previous sample of
 341:Generated_Source\PSoC4/CapSense_CSHL.c **** *  any enabled raw data filter.
 342:Generated_Source\PSoC4/CapSense_CSHL.c **** *  CapSense_rawFilterData2[]    - used to store before previous sample
 343:Generated_Source\PSoC4/CapSense_CSHL.c **** *  of enabled raw data filter. Only required for median or average filters.
 344:Generated_Source\PSoC4/CapSense_CSHL.c **** *
 345:Generated_Source\PSoC4/CapSense_CSHL.c **** * Side Effects:
 346:Generated_Source\PSoC4/CapSense_CSHL.c **** *  None
 347:Generated_Source\PSoC4/CapSense_CSHL.c **** *
 348:Generated_Source\PSoC4/CapSense_CSHL.c **** *******************************************************************************/
 349:Generated_Source\PSoC4/CapSense_CSHL.c **** void CapSense_UpdateBaselineNoThreshold(uint32 sensor)
 350:Generated_Source\PSoC4/CapSense_CSHL.c **** {
 354              		.loc 1 350 0
 355              		.cfi_startproc
 356              		@ args = 0, pretend = 0, frame = 24
 357              		@ frame_needed = 1, uses_anonymous_args = 0
 358 0000 90B5     		push	{r4, r7, lr}
 359              		.cfi_def_cfa_offset 12
 360              		.cfi_offset 4, -12
 361              		.cfi_offset 7, -8
 362              		.cfi_offset 14, -4
 363 0002 87B0     		sub	sp, sp, #28
 364              		.cfi_def_cfa_offset 40
 365 0004 00AF     		add	r7, sp, #0
 366              		.cfi_def_cfa_register 7
 367 0006 7860     		str	r0, [r7, #4]
 351:Generated_Source\PSoC4/CapSense_CSHL.c ****     uint32 calc;
 352:Generated_Source\PSoC4/CapSense_CSHL.c ****     uint32 sign;
 353:Generated_Source\PSoC4/CapSense_CSHL.c ****     uint16 tempRaw;
 354:Generated_Source\PSoC4/CapSense_CSHL.c ****     uint16 filteredRawData;
 355:Generated_Source\PSoC4/CapSense_CSHL.c ****     uint8 widget = CapSense_widgetNumber[sensor];
 368              		.loc 1 355 0
 369 0008 0F23     		movs	r3, #15
 370 000a FB18     		adds	r3, r7, r3
 371 000c 7D49     		ldr	r1, .L29
 372 000e 7A68     		ldr	r2, [r7, #4]
 373 0010 8A18     		adds	r2, r1, r2
 374 0012 1278     		ldrb	r2, [r2]
 375 0014 1A70     		strb	r2, [r3]
 356:Generated_Source\PSoC4/CapSense_CSHL.c ****     uint8 noiseThreshold;
 357:Generated_Source\PSoC4/CapSense_CSHL.c **** 
 358:Generated_Source\PSoC4/CapSense_CSHL.c ****     #if (CapSense_TOTAL_GENERICS_COUNT)
 359:Generated_Source\PSoC4/CapSense_CSHL.c ****         /* Exclude generic widget */
 360:Generated_Source\PSoC4/CapSense_CSHL.c ****         if(widget < CapSense_END_OF_WIDGETS_INDEX)
 361:Generated_Source\PSoC4/CapSense_CSHL.c ****         {
 362:Generated_Source\PSoC4/CapSense_CSHL.c ****     #endif  /* CapSense_TOTAL_GENERICS_COUNT */
ARM GAS  C:\Users\PC\AppData\Local\Temp\ccBgQfEQ.s 			page 14


 363:Generated_Source\PSoC4/CapSense_CSHL.c **** 
 364:Generated_Source\PSoC4/CapSense_CSHL.c ****     noiseThreshold = CapSense_noiseThreshold[widget];
 376              		.loc 1 364 0
 377 0016 0F23     		movs	r3, #15
 378 0018 FB18     		adds	r3, r7, r3
 379 001a 1A78     		ldrb	r2, [r3]
 380 001c 0E23     		movs	r3, #14
 381 001e FB18     		adds	r3, r7, r3
 382 0020 7949     		ldr	r1, .L29+4
 383 0022 8A5C     		ldrb	r2, [r1, r2]
 384 0024 1A70     		strb	r2, [r3]
 365:Generated_Source\PSoC4/CapSense_CSHL.c ****     filteredRawData = CapSense_sensorRaw[sensor];
 385              		.loc 1 365 0
 386 0026 1023     		movs	r3, #16
 387 0028 FB18     		adds	r3, r7, r3
 388 002a 784A     		ldr	r2, .L29+8
 389 002c 7968     		ldr	r1, [r7, #4]
 390 002e 4900     		lsls	r1, r1, #1
 391 0030 8A5A     		ldrh	r2, [r1, r2]
 392 0032 1A80     		strh	r2, [r3]
 366:Generated_Source\PSoC4/CapSense_CSHL.c **** 
 367:Generated_Source\PSoC4/CapSense_CSHL.c ****     #if (CapSense_RAW_FILTER_MASK != 0u)
 368:Generated_Source\PSoC4/CapSense_CSHL.c ****     if(CapSense_enableRawFilters != 0u)
 393              		.loc 1 368 0
 394 0034 764B     		ldr	r3, .L29+12
 395 0036 1B78     		ldrb	r3, [r3]
 396 0038 002B     		cmp	r3, #0
 397 003a 15D0     		beq	.L17
 369:Generated_Source\PSoC4/CapSense_CSHL.c ****     {
 370:Generated_Source\PSoC4/CapSense_CSHL.c ****         #if (CapSense_RAW_FILTER_MASK & CapSense_MEDIAN_FILTER)
 371:Generated_Source\PSoC4/CapSense_CSHL.c ****             tempRaw = filteredRawData;
 372:Generated_Source\PSoC4/CapSense_CSHL.c ****             filteredRawData = CapSense_MedianFilter(filteredRawData, CapSense_rawFilterData1[sensor
 373:Generated_Source\PSoC4/CapSense_CSHL.c ****                                                             CapSense_rawFilterData2[sensor]);
 374:Generated_Source\PSoC4/CapSense_CSHL.c ****             CapSense_rawFilterData2[sensor] = CapSense_rawFilterData1[sensor];
 375:Generated_Source\PSoC4/CapSense_CSHL.c ****             CapSense_rawFilterData1[sensor] = tempRaw;
 376:Generated_Source\PSoC4/CapSense_CSHL.c **** 
 377:Generated_Source\PSoC4/CapSense_CSHL.c ****         #elif (CapSense_RAW_FILTER_MASK & CapSense_AVERAGING_FILTER)
 378:Generated_Source\PSoC4/CapSense_CSHL.c ****             tempRaw = filteredRawData;
 379:Generated_Source\PSoC4/CapSense_CSHL.c ****             filteredRawData = CapSense_AveragingFilter(filteredRawData, CapSense_rawFilterData1[sen
 380:Generated_Source\PSoC4/CapSense_CSHL.c ****                                                                CapSense_rawFilterData2[sensor]);
 381:Generated_Source\PSoC4/CapSense_CSHL.c ****             CapSense_rawFilterData2[sensor] = CapSense_rawFilterData1[sensor];
 382:Generated_Source\PSoC4/CapSense_CSHL.c ****             CapSense_rawFilterData1[sensor] = tempRaw;
 383:Generated_Source\PSoC4/CapSense_CSHL.c **** 
 384:Generated_Source\PSoC4/CapSense_CSHL.c ****         #elif (CapSense_RAW_FILTER_MASK & CapSense_IIR2_FILTER)
 385:Generated_Source\PSoC4/CapSense_CSHL.c ****             filteredRawData = CapSense_IIR2Filter(filteredRawData, CapSense_rawFilterData1[sensor])
 386:Generated_Source\PSoC4/CapSense_CSHL.c ****             CapSense_rawFilterData1[sensor] = filteredRawData;
 387:Generated_Source\PSoC4/CapSense_CSHL.c **** 
 388:Generated_Source\PSoC4/CapSense_CSHL.c ****         #elif (CapSense_RAW_FILTER_MASK & CapSense_IIR4_FILTER)
 389:Generated_Source\PSoC4/CapSense_CSHL.c ****             filteredRawData = CapSense_IIR4Filter(filteredRawData, CapSense_rawFilterData1[sensor])
 398              		.loc 1 389 0
 399 003c 754B     		ldr	r3, .L29+16
 400 003e 7A68     		ldr	r2, [r7, #4]
 401 0040 5200     		lsls	r2, r2, #1
 402 0042 D25A     		ldrh	r2, [r2, r3]
 403 0044 1023     		movs	r3, #16
 404 0046 FC18     		adds	r4, r7, r3
 405 0048 1023     		movs	r3, #16
ARM GAS  C:\Users\PC\AppData\Local\Temp\ccBgQfEQ.s 			page 15


 406 004a FB18     		adds	r3, r7, r3
 407 004c 1B88     		ldrh	r3, [r3]
 408 004e 1100     		movs	r1, r2
 409 0050 1800     		movs	r0, r3
 410 0052 FFF7FEFF 		bl	CapSense_IIR4Filter
 411 0056 0300     		movs	r3, r0
 412 0058 2380     		strh	r3, [r4]
 390:Generated_Source\PSoC4/CapSense_CSHL.c ****             CapSense_rawFilterData1[sensor] = filteredRawData;
 413              		.loc 1 390 0
 414 005a 6E4B     		ldr	r3, .L29+16
 415 005c 7A68     		ldr	r2, [r7, #4]
 416 005e 5200     		lsls	r2, r2, #1
 417 0060 1021     		movs	r1, #16
 418 0062 7918     		adds	r1, r7, r1
 419 0064 0988     		ldrh	r1, [r1]
 420 0066 D152     		strh	r1, [r2, r3]
 421              	.L17:
 391:Generated_Source\PSoC4/CapSense_CSHL.c **** 
 392:Generated_Source\PSoC4/CapSense_CSHL.c ****         #elif (CapSense_RAW_FILTER_MASK & CapSense_JITTER_FILTER)
 393:Generated_Source\PSoC4/CapSense_CSHL.c ****             filteredRawData = CapSense_JitterFilter(filteredRawData, CapSense_rawFilterData1[sensor
 394:Generated_Source\PSoC4/CapSense_CSHL.c ****             CapSense_rawFilterData1[sensor] = filteredRawData;
 395:Generated_Source\PSoC4/CapSense_CSHL.c **** 
 396:Generated_Source\PSoC4/CapSense_CSHL.c ****         #elif (CapSense_RAW_FILTER_MASK & CapSense_IIR8_FILTER)
 397:Generated_Source\PSoC4/CapSense_CSHL.c ****             filteredRawData = CapSense_IIR8Filter(filteredRawData, CapSense_rawFilterData1[sensor])
 398:Generated_Source\PSoC4/CapSense_CSHL.c ****             CapSense_rawFilterData1[sensor] = filteredRawData;
 399:Generated_Source\PSoC4/CapSense_CSHL.c **** 
 400:Generated_Source\PSoC4/CapSense_CSHL.c ****         #elif (CapSense_RAW_FILTER_MASK & CapSense_IIR16_FILTER)
 401:Generated_Source\PSoC4/CapSense_CSHL.c ****             filteredRawData = CapSense_IIR16Filter(filteredRawData, CapSense_rawFilterData1[sensor]
 402:Generated_Source\PSoC4/CapSense_CSHL.c ****             CapSense_rawFilterData1[sensor] = filteredRawData;
 403:Generated_Source\PSoC4/CapSense_CSHL.c **** 
 404:Generated_Source\PSoC4/CapSense_CSHL.c ****         #else
 405:Generated_Source\PSoC4/CapSense_CSHL.c ****             /* No Raw filters */
 406:Generated_Source\PSoC4/CapSense_CSHL.c ****         #endif  /* (CapSense_RAW_FILTER_MASK & CapSense_MEDIAN_FILTER) */
 407:Generated_Source\PSoC4/CapSense_CSHL.c ****     }
 408:Generated_Source\PSoC4/CapSense_CSHL.c ****     #endif  /* (CapSense_RAW_FILTER_MASK != 0u) */
 409:Generated_Source\PSoC4/CapSense_CSHL.c **** 
 410:Generated_Source\PSoC4/CapSense_CSHL.c ****     #if (CapSense_TUNING_METHOD == CapSense__TUNING_AUTO)
 411:Generated_Source\PSoC4/CapSense_CSHL.c ****         MeasureNoiseEnvelope_P4_v2_60(&CapSense_config, (uint8)sensor, CapSense_sensorRaw);
 422              		.loc 1 411 0
 423 0068 7B68     		ldr	r3, [r7, #4]
 424 006a D9B2     		uxtb	r1, r3
 425 006c 674A     		ldr	r2, .L29+8
 426 006e 6A4B     		ldr	r3, .L29+20
 427 0070 1800     		movs	r0, r3
 428 0072 FFF7FEFF 		bl	MeasureNoiseEnvelope_P4_v2_60
 412:Generated_Source\PSoC4/CapSense_CSHL.c ****     #endif /* (CapSense_TUNING_METHOD == CapSense__TUNING_AUTO) */
 413:Generated_Source\PSoC4/CapSense_CSHL.c **** 
 414:Generated_Source\PSoC4/CapSense_CSHL.c ****     /* Baseline calculation */
 415:Generated_Source\PSoC4/CapSense_CSHL.c ****     /* Calculate difference RawData[cur] - Baseline[prev] */
 416:Generated_Source\PSoC4/CapSense_CSHL.c ****     if(filteredRawData >= CapSense_sensorBaseline[sensor])
 429              		.loc 1 416 0
 430 0076 694B     		ldr	r3, .L29+24
 431 0078 7A68     		ldr	r2, [r7, #4]
 432 007a 5200     		lsls	r2, r2, #1
 433 007c D35A     		ldrh	r3, [r2, r3]
 434 007e 1022     		movs	r2, #16
 435 0080 BA18     		adds	r2, r7, r2
ARM GAS  C:\Users\PC\AppData\Local\Temp\ccBgQfEQ.s 			page 16


 436 0082 1288     		ldrh	r2, [r2]
 437 0084 9A42     		cmp	r2, r3
 438 0086 12D3     		bcc	.L18
 417:Generated_Source\PSoC4/CapSense_CSHL.c ****     {
 418:Generated_Source\PSoC4/CapSense_CSHL.c ****         CapSense_lowBaselineResetCnt[sensor] = 0u;
 439              		.loc 1 418 0
 440 0088 654A     		ldr	r2, .L29+28
 441 008a 7B68     		ldr	r3, [r7, #4]
 442 008c D318     		adds	r3, r2, r3
 443 008e 0022     		movs	r2, #0
 444 0090 1A70     		strb	r2, [r3]
 419:Generated_Source\PSoC4/CapSense_CSHL.c ****         tempRaw = filteredRawData - CapSense_sensorBaseline[sensor];
 445              		.loc 1 419 0
 446 0092 624B     		ldr	r3, .L29+24
 447 0094 7A68     		ldr	r2, [r7, #4]
 448 0096 5200     		lsls	r2, r2, #1
 449 0098 D25A     		ldrh	r2, [r2, r3]
 450 009a 1223     		movs	r3, #18
 451 009c FB18     		adds	r3, r7, r3
 452 009e 1021     		movs	r1, #16
 453 00a0 7918     		adds	r1, r7, r1
 454 00a2 0988     		ldrh	r1, [r1]
 455 00a4 8A1A     		subs	r2, r1, r2
 456 00a6 1A80     		strh	r2, [r3]
 420:Generated_Source\PSoC4/CapSense_CSHL.c ****         sign = 1u;    /* Positive difference - Calculate the Signal */
 457              		.loc 1 420 0
 458 00a8 0123     		movs	r3, #1
 459 00aa 7B61     		str	r3, [r7, #20]
 460 00ac 0CE0     		b	.L19
 461              	.L18:
 421:Generated_Source\PSoC4/CapSense_CSHL.c ****     }
 422:Generated_Source\PSoC4/CapSense_CSHL.c ****     else
 423:Generated_Source\PSoC4/CapSense_CSHL.c ****     {
 424:Generated_Source\PSoC4/CapSense_CSHL.c ****         tempRaw = CapSense_sensorBaseline[sensor] - filteredRawData;
 462              		.loc 1 424 0
 463 00ae 5B4B     		ldr	r3, .L29+24
 464 00b0 7A68     		ldr	r2, [r7, #4]
 465 00b2 5200     		lsls	r2, r2, #1
 466 00b4 D15A     		ldrh	r1, [r2, r3]
 467 00b6 1223     		movs	r3, #18
 468 00b8 FB18     		adds	r3, r7, r3
 469 00ba 1022     		movs	r2, #16
 470 00bc BA18     		adds	r2, r7, r2
 471 00be 1288     		ldrh	r2, [r2]
 472 00c0 8A1A     		subs	r2, r1, r2
 473 00c2 1A80     		strh	r2, [r3]
 425:Generated_Source\PSoC4/CapSense_CSHL.c ****         sign = 0u;    /* Negative difference - Do NOT calculate the Signal */
 474              		.loc 1 425 0
 475 00c4 0023     		movs	r3, #0
 476 00c6 7B61     		str	r3, [r7, #20]
 477              	.L19:
 426:Generated_Source\PSoC4/CapSense_CSHL.c ****     }
 427:Generated_Source\PSoC4/CapSense_CSHL.c **** 
 428:Generated_Source\PSoC4/CapSense_CSHL.c ****     #if (CapSense_TUNING_METHOD != CapSense__TUNING_NONE)
 429:Generated_Source\PSoC4/CapSense_CSHL.c ****     if((sign == 0u) && (tempRaw > (uint16) CapSense_negativeNoiseThreshold[widget]))
 478              		.loc 1 429 0
 479 00c8 7B69     		ldr	r3, [r7, #20]
ARM GAS  C:\Users\PC\AppData\Local\Temp\ccBgQfEQ.s 			page 17


 480 00ca 002B     		cmp	r3, #0
 481 00cc 2AD1     		bne	.L20
 482              		.loc 1 429 0 is_stmt 0 discriminator 1
 483 00ce 0F23     		movs	r3, #15
 484 00d0 FB18     		adds	r3, r7, r3
 485 00d2 1B78     		ldrb	r3, [r3]
 486 00d4 534A     		ldr	r2, .L29+32
 487 00d6 D35C     		ldrb	r3, [r2, r3]
 488 00d8 9BB2     		uxth	r3, r3
 489 00da 1222     		movs	r2, #18
 490 00dc BA18     		adds	r2, r7, r2
 491 00de 1288     		ldrh	r2, [r2]
 492 00e0 9A42     		cmp	r2, r3
 493 00e2 1FD9     		bls	.L20
 430:Generated_Source\PSoC4/CapSense_CSHL.c ****     #else
 431:Generated_Source\PSoC4/CapSense_CSHL.c ****     if((sign == 0u) && (tempRaw > (uint16) CapSense_NEGATIVE_NOISE_THRESHOLD))
 432:Generated_Source\PSoC4/CapSense_CSHL.c ****     #endif /* (CapSense_TUNING_METHOD != CapSense__TUNING_NONE) */
 433:Generated_Source\PSoC4/CapSense_CSHL.c ****     {
 434:Generated_Source\PSoC4/CapSense_CSHL.c ****         if(CapSense_lowBaselineResetCnt[sensor] >= CapSense_lowBaselineReset[sensor])
 494              		.loc 1 434 0 is_stmt 1
 495 00e4 4E4A     		ldr	r2, .L29+28
 496 00e6 7B68     		ldr	r3, [r7, #4]
 497 00e8 D318     		adds	r3, r2, r3
 498 00ea 1A78     		ldrb	r2, [r3]
 499 00ec 4E49     		ldr	r1, .L29+36
 500 00ee 7B68     		ldr	r3, [r7, #4]
 501 00f0 CB18     		adds	r3, r1, r3
 502 00f2 1B78     		ldrb	r3, [r3]
 503 00f4 9A42     		cmp	r2, r3
 504 00f6 09D3     		bcc	.L21
 435:Generated_Source\PSoC4/CapSense_CSHL.c ****         {
 436:Generated_Source\PSoC4/CapSense_CSHL.c ****             CapSense_BaseInit(sensor);
 505              		.loc 1 436 0
 506 00f8 7B68     		ldr	r3, [r7, #4]
 507 00fa 1800     		movs	r0, r3
 508 00fc FFF7FEFF 		bl	CapSense_BaseInit
 437:Generated_Source\PSoC4/CapSense_CSHL.c ****             CapSense_lowBaselineResetCnt[sensor] = 0u;
 509              		.loc 1 437 0
 510 0100 474A     		ldr	r2, .L29+28
 511 0102 7B68     		ldr	r3, [r7, #4]
 512 0104 D318     		adds	r3, r2, r3
 513 0106 0022     		movs	r2, #0
 514 0108 1A70     		strb	r2, [r3]
 434:Generated_Source\PSoC4/CapSense_CSHL.c ****         {
 515              		.loc 1 434 0
 516 010a 51E0     		b	.L23
 517              	.L21:
 438:Generated_Source\PSoC4/CapSense_CSHL.c ****         }
 439:Generated_Source\PSoC4/CapSense_CSHL.c ****         else
 440:Generated_Source\PSoC4/CapSense_CSHL.c ****         {
 441:Generated_Source\PSoC4/CapSense_CSHL.c ****             CapSense_lowBaselineResetCnt[sensor]++;
 518              		.loc 1 441 0
 519 010c 444A     		ldr	r2, .L29+28
 520 010e 7B68     		ldr	r3, [r7, #4]
 521 0110 D318     		adds	r3, r2, r3
 522 0112 1B78     		ldrb	r3, [r3]
 523 0114 0133     		adds	r3, r3, #1
ARM GAS  C:\Users\PC\AppData\Local\Temp\ccBgQfEQ.s 			page 18


 524 0116 D9B2     		uxtb	r1, r3
 525 0118 414A     		ldr	r2, .L29+28
 526 011a 7B68     		ldr	r3, [r7, #4]
 527 011c D318     		adds	r3, r2, r3
 528 011e 0A1C     		adds	r2, r1, #0
 529 0120 1A70     		strb	r2, [r3]
 434:Generated_Source\PSoC4/CapSense_CSHL.c ****         {
 530              		.loc 1 434 0
 531 0122 45E0     		b	.L23
 532              	.L20:
 442:Generated_Source\PSoC4/CapSense_CSHL.c ****         }
 443:Generated_Source\PSoC4/CapSense_CSHL.c ****     }
 444:Generated_Source\PSoC4/CapSense_CSHL.c ****     else
 445:Generated_Source\PSoC4/CapSense_CSHL.c ****     {
 446:Generated_Source\PSoC4/CapSense_CSHL.c ****         #if (CapSense_AUTO_RESET == CapSense_AUTO_RESET_DISABLE)
 447:Generated_Source\PSoC4/CapSense_CSHL.c ****         #if (CapSense_TUNING_METHOD != CapSense__TUNING_NONE)
 448:Generated_Source\PSoC4/CapSense_CSHL.c ****             /* Update Baseline if lower than noiseThreshold */
 449:Generated_Source\PSoC4/CapSense_CSHL.c ****             if ( (tempRaw <= noiseThreshold) ||
 533              		.loc 1 449 0
 534 0124 0E23     		movs	r3, #14
 535 0126 FB18     		adds	r3, r7, r3
 536 0128 1B78     		ldrb	r3, [r3]
 537 012a 9BB2     		uxth	r3, r3
 538 012c 1222     		movs	r2, #18
 539 012e BA18     		adds	r2, r7, r2
 540 0130 1288     		ldrh	r2, [r2]
 541 0132 9A42     		cmp	r2, r3
 542 0134 0DD9     		bls	.L24
 450:Generated_Source\PSoC4/CapSense_CSHL.c ****              ((tempRaw < (uint16) CapSense_negativeNoiseThreshold[widget])
 543              		.loc 1 450 0 discriminator 1
 544 0136 0F23     		movs	r3, #15
 545 0138 FB18     		adds	r3, r7, r3
 546 013a 1B78     		ldrb	r3, [r3]
 547 013c 394A     		ldr	r2, .L29+32
 548 013e D35C     		ldrb	r3, [r2, r3]
 549 0140 9BB2     		uxth	r3, r3
 449:Generated_Source\PSoC4/CapSense_CSHL.c ****              ((tempRaw < (uint16) CapSense_negativeNoiseThreshold[widget])
 550              		.loc 1 449 0 discriminator 1
 551 0142 1222     		movs	r2, #18
 552 0144 BA18     		adds	r2, r7, r2
 553 0146 1288     		ldrh	r2, [r2]
 554 0148 9A42     		cmp	r2, r3
 555 014a 31D2     		bcs	.L23
 451:Generated_Source\PSoC4/CapSense_CSHL.c ****                && (sign == 0u)))
 556              		.loc 1 451 0
 557 014c 7B69     		ldr	r3, [r7, #20]
 558 014e 002B     		cmp	r3, #0
 559 0150 2ED1     		bne	.L23
 560              	.L24:
 452:Generated_Source\PSoC4/CapSense_CSHL.c ****             {
 453:Generated_Source\PSoC4/CapSense_CSHL.c ****         #else
 454:Generated_Source\PSoC4/CapSense_CSHL.c ****             /* Update Baseline if lower than noiseThreshold */
 455:Generated_Source\PSoC4/CapSense_CSHL.c ****             if ( (tempRaw <= noiseThreshold) ||
 456:Generated_Source\PSoC4/CapSense_CSHL.c ****                  ((tempRaw < (uint16) CapSense_NEGATIVE_NOISE_THRESHOLD)
 457:Generated_Source\PSoC4/CapSense_CSHL.c ****                    && (sign == 0u)))
 458:Generated_Source\PSoC4/CapSense_CSHL.c ****             {
 459:Generated_Source\PSoC4/CapSense_CSHL.c ****         #endif /* (CapSense_TUNING_METHOD != CapSense__TUNING_NONE) */
ARM GAS  C:\Users\PC\AppData\Local\Temp\ccBgQfEQ.s 			page 19


 460:Generated_Source\PSoC4/CapSense_CSHL.c ****         #endif /* (CapSense_AUTO_RESET == CapSense_AUTO_RESET_DISABLE) */
 461:Generated_Source\PSoC4/CapSense_CSHL.c ****                 /* Make full Baseline 23 bits */
 462:Generated_Source\PSoC4/CapSense_CSHL.c ****                 calc = (uint32) CapSense_sensorBaseline[sensor] << 8u;
 561              		.loc 1 462 0
 562 0152 324B     		ldr	r3, .L29+24
 563 0154 7A68     		ldr	r2, [r7, #4]
 564 0156 5200     		lsls	r2, r2, #1
 565 0158 D35A     		ldrh	r3, [r2, r3]
 566 015a 1B02     		lsls	r3, r3, #8
 567 015c BB60     		str	r3, [r7, #8]
 463:Generated_Source\PSoC4/CapSense_CSHL.c ****                 calc |= (uint32) CapSense_sensorBaselineLow[sensor];
 568              		.loc 1 463 0
 569 015e 334A     		ldr	r2, .L29+40
 570 0160 7B68     		ldr	r3, [r7, #4]
 571 0162 D318     		adds	r3, r2, r3
 572 0164 1B78     		ldrb	r3, [r3]
 573 0166 1A00     		movs	r2, r3
 574 0168 BB68     		ldr	r3, [r7, #8]
 575 016a 1343     		orrs	r3, r2
 576 016c BB60     		str	r3, [r7, #8]
 464:Generated_Source\PSoC4/CapSense_CSHL.c **** 
 465:Generated_Source\PSoC4/CapSense_CSHL.c ****                 /* Add Raw Data to Baseline */
 466:Generated_Source\PSoC4/CapSense_CSHL.c ****                 calc += filteredRawData;
 577              		.loc 1 466 0
 578 016e 1023     		movs	r3, #16
 579 0170 FB18     		adds	r3, r7, r3
 580 0172 1B88     		ldrh	r3, [r3]
 581 0174 BA68     		ldr	r2, [r7, #8]
 582 0176 D318     		adds	r3, r2, r3
 583 0178 BB60     		str	r3, [r7, #8]
 467:Generated_Source\PSoC4/CapSense_CSHL.c **** 
 468:Generated_Source\PSoC4/CapSense_CSHL.c ****                 /* Sub the high Baseline */
 469:Generated_Source\PSoC4/CapSense_CSHL.c ****                 calc -= CapSense_sensorBaseline[sensor];
 584              		.loc 1 469 0
 585 017a 284B     		ldr	r3, .L29+24
 586 017c 7A68     		ldr	r2, [r7, #4]
 587 017e 5200     		lsls	r2, r2, #1
 588 0180 D35A     		ldrh	r3, [r2, r3]
 589 0182 1A00     		movs	r2, r3
 590 0184 BB68     		ldr	r3, [r7, #8]
 591 0186 9B1A     		subs	r3, r3, r2
 592 0188 BB60     		str	r3, [r7, #8]
 470:Generated_Source\PSoC4/CapSense_CSHL.c **** 
 471:Generated_Source\PSoC4/CapSense_CSHL.c ****                 /* Put Baseline and BaselineLow */
 472:Generated_Source\PSoC4/CapSense_CSHL.c ****                 CapSense_sensorBaseline[sensor] = ((uint16) (calc >> 8u));
 593              		.loc 1 472 0
 594 018a BB68     		ldr	r3, [r7, #8]
 595 018c 1B0A     		lsrs	r3, r3, #8
 596 018e 99B2     		uxth	r1, r3
 597 0190 224B     		ldr	r3, .L29+24
 598 0192 7A68     		ldr	r2, [r7, #4]
 599 0194 5200     		lsls	r2, r2, #1
 600 0196 D152     		strh	r1, [r2, r3]
 473:Generated_Source\PSoC4/CapSense_CSHL.c ****                 CapSense_sensorBaselineLow[sensor] = ((uint8) calc);
 601              		.loc 1 473 0
 602 0198 BB68     		ldr	r3, [r7, #8]
 603 019a D9B2     		uxtb	r1, r3
ARM GAS  C:\Users\PC\AppData\Local\Temp\ccBgQfEQ.s 			page 20


 604 019c 234A     		ldr	r2, .L29+40
 605 019e 7B68     		ldr	r3, [r7, #4]
 606 01a0 D318     		adds	r3, r2, r3
 607 01a2 0A1C     		adds	r2, r1, #0
 608 01a4 1A70     		strb	r2, [r3]
 474:Generated_Source\PSoC4/CapSense_CSHL.c **** 
 475:Generated_Source\PSoC4/CapSense_CSHL.c ****                 CapSense_lowBaselineResetCnt[sensor] = 0u;
 609              		.loc 1 475 0
 610 01a6 1E4A     		ldr	r2, .L29+28
 611 01a8 7B68     		ldr	r3, [r7, #4]
 612 01aa D318     		adds	r3, r2, r3
 613 01ac 0022     		movs	r2, #0
 614 01ae 1A70     		strb	r2, [r3]
 615              	.L23:
 476:Generated_Source\PSoC4/CapSense_CSHL.c ****         #if (CapSense_AUTO_RESET == CapSense_AUTO_RESET_DISABLE)
 477:Generated_Source\PSoC4/CapSense_CSHL.c ****             }
 478:Generated_Source\PSoC4/CapSense_CSHL.c ****         #endif /* (CapSense_AUTO_RESET == CapSense_AUTO_RESET_DISABLE) */
 479:Generated_Source\PSoC4/CapSense_CSHL.c ****     }
 480:Generated_Source\PSoC4/CapSense_CSHL.c **** 
 481:Generated_Source\PSoC4/CapSense_CSHL.c ****     /* Calculate Signal if positive difference > noiseThreshold */
 482:Generated_Source\PSoC4/CapSense_CSHL.c ****     if((tempRaw > (uint16) noiseThreshold) && (sign != 0u))
 616              		.loc 1 482 0
 617 01b0 0E23     		movs	r3, #14
 618 01b2 FB18     		adds	r3, r7, r3
 619 01b4 1B78     		ldrb	r3, [r3]
 620 01b6 9BB2     		uxth	r3, r3
 621 01b8 1222     		movs	r2, #18
 622 01ba BA18     		adds	r2, r7, r2
 623 01bc 1288     		ldrh	r2, [r2]
 624 01be 9A42     		cmp	r2, r3
 625 01c0 17D9     		bls	.L25
 626              		.loc 1 482 0 is_stmt 0 discriminator 1
 627 01c2 7B69     		ldr	r3, [r7, #20]
 628 01c4 002B     		cmp	r3, #0
 629 01c6 14D0     		beq	.L25
 483:Generated_Source\PSoC4/CapSense_CSHL.c ****     {
 484:Generated_Source\PSoC4/CapSense_CSHL.c ****         #if (CapSense_SIGNAL_SIZE == CapSense_SIGNAL_SIZE_UINT8)
 485:Generated_Source\PSoC4/CapSense_CSHL.c ****             /* Over flow defence for uint8 */
 486:Generated_Source\PSoC4/CapSense_CSHL.c ****             if (tempRaw > 0xFFu)
 630              		.loc 1 486 0 is_stmt 1
 631 01c8 1223     		movs	r3, #18
 632 01ca FB18     		adds	r3, r7, r3
 633 01cc 1B88     		ldrh	r3, [r3]
 634 01ce FF2B     		cmp	r3, #255
 635 01d0 05D9     		bls	.L26
 487:Generated_Source\PSoC4/CapSense_CSHL.c ****             {
 488:Generated_Source\PSoC4/CapSense_CSHL.c ****                 CapSense_sensorSignal[sensor] = 0xFFu;
 636              		.loc 1 488 0
 637 01d2 174A     		ldr	r2, .L29+44
 638 01d4 7B68     		ldr	r3, [r7, #4]
 639 01d6 D318     		adds	r3, r2, r3
 640 01d8 FF22     		movs	r2, #255
 641 01da 1A70     		strb	r2, [r3]
 486:Generated_Source\PSoC4/CapSense_CSHL.c ****             {
 642              		.loc 1 486 0
 643 01dc 0EE0     		b	.L28
 644              	.L26:
ARM GAS  C:\Users\PC\AppData\Local\Temp\ccBgQfEQ.s 			page 21


 489:Generated_Source\PSoC4/CapSense_CSHL.c ****             }
 490:Generated_Source\PSoC4/CapSense_CSHL.c ****             else
 491:Generated_Source\PSoC4/CapSense_CSHL.c ****             {
 492:Generated_Source\PSoC4/CapSense_CSHL.c ****                 CapSense_sensorSignal[sensor] = ((uint8) tempRaw);
 645              		.loc 1 492 0
 646 01de 1223     		movs	r3, #18
 647 01e0 FB18     		adds	r3, r7, r3
 648 01e2 1B88     		ldrh	r3, [r3]
 649 01e4 D9B2     		uxtb	r1, r3
 650 01e6 124A     		ldr	r2, .L29+44
 651 01e8 7B68     		ldr	r3, [r7, #4]
 652 01ea D318     		adds	r3, r2, r3
 653 01ec 0A1C     		adds	r2, r1, #0
 654 01ee 1A70     		strb	r2, [r3]
 486:Generated_Source\PSoC4/CapSense_CSHL.c ****             {
 655              		.loc 1 486 0
 656 01f0 04E0     		b	.L28
 657              	.L25:
 493:Generated_Source\PSoC4/CapSense_CSHL.c ****             }
 494:Generated_Source\PSoC4/CapSense_CSHL.c ****         #else
 495:Generated_Source\PSoC4/CapSense_CSHL.c ****             CapSense_sensorSignal[sensor] = ((uint16) tempRaw);
 496:Generated_Source\PSoC4/CapSense_CSHL.c ****         #endif  /* (CapSense_SIGNAL_SIZE == CapSense_SIGNAL_SIZE_UINT8) */
 497:Generated_Source\PSoC4/CapSense_CSHL.c ****     }
 498:Generated_Source\PSoC4/CapSense_CSHL.c ****     else
 499:Generated_Source\PSoC4/CapSense_CSHL.c ****     {
 500:Generated_Source\PSoC4/CapSense_CSHL.c ****         /* Signal is zero */
 501:Generated_Source\PSoC4/CapSense_CSHL.c ****         CapSense_sensorSignal[sensor] = 0u;
 658              		.loc 1 501 0
 659 01f2 0F4A     		ldr	r2, .L29+44
 660 01f4 7B68     		ldr	r3, [r7, #4]
 661 01f6 D318     		adds	r3, r2, r3
 662 01f8 0022     		movs	r2, #0
 663 01fa 1A70     		strb	r2, [r3]
 664              	.L28:
 502:Generated_Source\PSoC4/CapSense_CSHL.c ****     }
 503:Generated_Source\PSoC4/CapSense_CSHL.c **** 
 504:Generated_Source\PSoC4/CapSense_CSHL.c ****     #if (CapSense_TOTAL_GENERICS_COUNT)
 505:Generated_Source\PSoC4/CapSense_CSHL.c ****         /* Exclude generic widget */
 506:Generated_Source\PSoC4/CapSense_CSHL.c ****         }
 507:Generated_Source\PSoC4/CapSense_CSHL.c ****     #endif  /* CapSense_TOTAL_GENERICS_COUNT */
 508:Generated_Source\PSoC4/CapSense_CSHL.c **** }
 665              		.loc 1 508 0
 666 01fc C046     		nop
 667 01fe BD46     		mov	sp, r7
 668 0200 07B0     		add	sp, sp, #28
 669              		@ sp needed
 670 0202 90BD     		pop	{r4, r7, pc}
 671              	.L30:
 672              		.align	2
 673              	.L29:
 674 0204 00000000 		.word	CapSense_widgetNumber
 675 0208 00000000 		.word	CapSense_noiseThreshold
 676 020c 00000000 		.word	CapSense_sensorRaw
 677 0210 00000000 		.word	CapSense_enableRawFilters
 678 0214 00000000 		.word	CapSense_rawFilterData1
 679 0218 00000000 		.word	CapSense_config
 680 021c 00000000 		.word	CapSense_sensorBaseline
ARM GAS  C:\Users\PC\AppData\Local\Temp\ccBgQfEQ.s 			page 22


 681 0220 00000000 		.word	CapSense_lowBaselineResetCnt
 682 0224 00000000 		.word	CapSense_negativeNoiseThreshold
 683 0228 00000000 		.word	CapSense_lowBaselineReset
 684 022c 00000000 		.word	CapSense_sensorBaselineLow
 685 0230 00000000 		.word	CapSense_sensorSignal
 686              		.cfi_endproc
 687              	.LFE40:
 688              		.size	CapSense_UpdateBaselineNoThreshold, .-CapSense_UpdateBaselineNoThreshold
 689              		.section	.text.CapSense_UpdateSensorBaseline,"ax",%progbits
 690              		.align	2
 691              		.global	CapSense_UpdateSensorBaseline
 692              		.code	16
 693              		.thumb_func
 694              		.type	CapSense_UpdateSensorBaseline, %function
 695              	CapSense_UpdateSensorBaseline:
 696              	.LFB41:
 509:Generated_Source\PSoC4/CapSense_CSHL.c **** 
 510:Generated_Source\PSoC4/CapSense_CSHL.c **** 
 511:Generated_Source\PSoC4/CapSense_CSHL.c **** /*******************************************************************************
 512:Generated_Source\PSoC4/CapSense_CSHL.c **** * Function Name: CapSense_UpdateSensorBaseline
 513:Generated_Source\PSoC4/CapSense_CSHL.c **** ********************************************************************************
 514:Generated_Source\PSoC4/CapSense_CSHL.c **** *
 515:Generated_Source\PSoC4/CapSense_CSHL.c **** * Summary:
 516:Generated_Source\PSoC4/CapSense_CSHL.c **** *  Updates the CapSense_sensorBaseline[sensor] array element using the
 517:Generated_Source\PSoC4/CapSense_CSHL.c **** *  LP filter with k = 256. The signal calculates the difference of count by
 518:Generated_Source\PSoC4/CapSense_CSHL.c **** *  subtracting the previous baseline from the current raw count value and stores
 519:Generated_Source\PSoC4/CapSense_CSHL.c **** *  it in CapSense_sensorSignal[sensor].
 520:Generated_Source\PSoC4/CapSense_CSHL.c **** *  If the auto reset option is enabled, the baseline updated regards the noise threshold.
 521:Generated_Source\PSoC4/CapSense_CSHL.c **** *  If the auto reset option is disabled, the baseline stops updating.
 522:Generated_Source\PSoC4/CapSense_CSHL.c **** *  Baseline is loaded with raw count value if a signal is greater than zero and
 523:Generated_Source\PSoC4/CapSense_CSHL.c **** *  if signal is less than noise threshold.
 524:Generated_Source\PSoC4/CapSense_CSHL.c **** *  Raw data filters are applied to the values if enabled before baseline
 525:Generated_Source\PSoC4/CapSense_CSHL.c **** *  calculation.
 526:Generated_Source\PSoC4/CapSense_CSHL.c **** *  This API updates the thresholds in the Smartsense Mode.
 527:Generated_Source\PSoC4/CapSense_CSHL.c **** *
 528:Generated_Source\PSoC4/CapSense_CSHL.c **** * Parameters:
 529:Generated_Source\PSoC4/CapSense_CSHL.c **** *  sensor:  Sensor number.
 530:Generated_Source\PSoC4/CapSense_CSHL.c **** *
 531:Generated_Source\PSoC4/CapSense_CSHL.c **** * Return:
 532:Generated_Source\PSoC4/CapSense_CSHL.c **** *  None
 533:Generated_Source\PSoC4/CapSense_CSHL.c **** *
 534:Generated_Source\PSoC4/CapSense_CSHL.c **** * Global Variables:
 535:Generated_Source\PSoC4/CapSense_CSHL.c **** *  CapSense_widgetNumber[]  - stores widget numbers.
 536:Generated_Source\PSoC4/CapSense_CSHL.c **** *
 537:Generated_Source\PSoC4/CapSense_CSHL.c **** * Side Effects:
 538:Generated_Source\PSoC4/CapSense_CSHL.c **** *  None
 539:Generated_Source\PSoC4/CapSense_CSHL.c **** *
 540:Generated_Source\PSoC4/CapSense_CSHL.c **** *******************************************************************************/
 541:Generated_Source\PSoC4/CapSense_CSHL.c ****  void CapSense_UpdateSensorBaseline(uint32 sensor)
 542:Generated_Source\PSoC4/CapSense_CSHL.c **** {
 697              		.loc 1 542 0
 698              		.cfi_startproc
 699              		@ args = 0, pretend = 0, frame = 8
 700              		@ frame_needed = 1, uses_anonymous_args = 0
 701 0000 80B5     		push	{r7, lr}
 702              		.cfi_def_cfa_offset 8
 703              		.cfi_offset 7, -8
ARM GAS  C:\Users\PC\AppData\Local\Temp\ccBgQfEQ.s 			page 23


 704              		.cfi_offset 14, -4
 705 0002 82B0     		sub	sp, sp, #8
 706              		.cfi_def_cfa_offset 16
 707 0004 00AF     		add	r7, sp, #0
 708              		.cfi_def_cfa_register 7
 709 0006 7860     		str	r0, [r7, #4]
 543:Generated_Source\PSoC4/CapSense_CSHL.c ****     #if (CapSense_TOTAL_GENERICS_COUNT)
 544:Generated_Source\PSoC4/CapSense_CSHL.c ****         uint32 widget;
 545:Generated_Source\PSoC4/CapSense_CSHL.c **** 
 546:Generated_Source\PSoC4/CapSense_CSHL.c ****         widget = CapSense_widgetNumber[sensor];
 547:Generated_Source\PSoC4/CapSense_CSHL.c **** 
 548:Generated_Source\PSoC4/CapSense_CSHL.c ****         /* Exclude generic widget */
 549:Generated_Source\PSoC4/CapSense_CSHL.c ****         if(widget < CapSense_END_OF_WIDGETS_INDEX)
 550:Generated_Source\PSoC4/CapSense_CSHL.c ****         {
 551:Generated_Source\PSoC4/CapSense_CSHL.c ****     #endif  /* CapSense_TOTAL_GENERICS_COUNT */
 552:Generated_Source\PSoC4/CapSense_CSHL.c **** 
 553:Generated_Source\PSoC4/CapSense_CSHL.c ****     #if (CapSense_TUNING_METHOD == CapSense__TUNING_AUTO)
 554:Generated_Source\PSoC4/CapSense_CSHL.c ****         CapSense_UpdateThresholds(sensor);
 710              		.loc 1 554 0
 711 0008 7B68     		ldr	r3, [r7, #4]
 712 000a 1800     		movs	r0, r3
 713 000c FFF7FEFF 		bl	CapSense_UpdateThresholds
 555:Generated_Source\PSoC4/CapSense_CSHL.c ****     #endif /* (CapSense_TUNING_METHOD == CapSense__TUNING_AUTO) */
 556:Generated_Source\PSoC4/CapSense_CSHL.c **** 
 557:Generated_Source\PSoC4/CapSense_CSHL.c ****     CapSense_UpdateBaselineNoThreshold(sensor);
 714              		.loc 1 557 0
 715 0010 7B68     		ldr	r3, [r7, #4]
 716 0012 1800     		movs	r0, r3
 717 0014 FFF7FEFF 		bl	CapSense_UpdateBaselineNoThreshold
 558:Generated_Source\PSoC4/CapSense_CSHL.c **** 
 559:Generated_Source\PSoC4/CapSense_CSHL.c ****     #if (CapSense_TOTAL_GENERICS_COUNT)
 560:Generated_Source\PSoC4/CapSense_CSHL.c ****         /* Exclude generic widget */
 561:Generated_Source\PSoC4/CapSense_CSHL.c ****         }
 562:Generated_Source\PSoC4/CapSense_CSHL.c ****     #endif  /* CapSense_TOTAL_GENERICS_COUNT */
 563:Generated_Source\PSoC4/CapSense_CSHL.c **** }
 718              		.loc 1 563 0
 719 0018 C046     		nop
 720 001a BD46     		mov	sp, r7
 721 001c 02B0     		add	sp, sp, #8
 722              		@ sp needed
 723 001e 80BD     		pop	{r7, pc}
 724              		.cfi_endproc
 725              	.LFE41:
 726              		.size	CapSense_UpdateSensorBaseline, .-CapSense_UpdateSensorBaseline
 727              		.section	.text.CapSense_UpdateEnabledBaselines,"ax",%progbits
 728              		.align	2
 729              		.global	CapSense_UpdateEnabledBaselines
 730              		.code	16
 731              		.thumb_func
 732              		.type	CapSense_UpdateEnabledBaselines, %function
 733              	CapSense_UpdateEnabledBaselines:
 734              	.LFB42:
 564:Generated_Source\PSoC4/CapSense_CSHL.c **** 
 565:Generated_Source\PSoC4/CapSense_CSHL.c **** 
 566:Generated_Source\PSoC4/CapSense_CSHL.c **** /*******************************************************************************
 567:Generated_Source\PSoC4/CapSense_CSHL.c **** * Function Name: CapSense_UpdateEnabledBaselines
 568:Generated_Source\PSoC4/CapSense_CSHL.c **** ********************************************************************************
ARM GAS  C:\Users\PC\AppData\Local\Temp\ccBgQfEQ.s 			page 24


 569:Generated_Source\PSoC4/CapSense_CSHL.c **** *
 570:Generated_Source\PSoC4/CapSense_CSHL.c **** * Summary:
 571:Generated_Source\PSoC4/CapSense_CSHL.c **** *  Checks CapSense_sensorEnableMask[] array and calls the
 572:Generated_Source\PSoC4/CapSense_CSHL.c **** *  CapSense_UpdateSensorBaseline function to update the baselines
 573:Generated_Source\PSoC4/CapSense_CSHL.c **** *  for the enabled sensors.
 574:Generated_Source\PSoC4/CapSense_CSHL.c **** *
 575:Generated_Source\PSoC4/CapSense_CSHL.c **** * Parameters:
 576:Generated_Source\PSoC4/CapSense_CSHL.c **** *  None
 577:Generated_Source\PSoC4/CapSense_CSHL.c **** *
 578:Generated_Source\PSoC4/CapSense_CSHL.c **** * Return:
 579:Generated_Source\PSoC4/CapSense_CSHL.c **** *  None
 580:Generated_Source\PSoC4/CapSense_CSHL.c **** *
 581:Generated_Source\PSoC4/CapSense_CSHL.c **** * Global Variables:
 582:Generated_Source\PSoC4/CapSense_CSHL.c **** *  CapSense_sensorEnableMask[] - used to store the sensor scanning
 583:Generated_Source\PSoC4/CapSense_CSHL.c **** *  state.
 584:Generated_Source\PSoC4/CapSense_CSHL.c **** *  CapSense_sensorEnableMask[0] contains the masked bits for sensors
 585:Generated_Source\PSoC4/CapSense_CSHL.c **** *   0 through 7 (sensor 0 is bit 0, sensor 1 is bit 1).
 586:Generated_Source\PSoC4/CapSense_CSHL.c **** *  CapSense_sensorEnableMask[1] contains the masked bits for
 587:Generated_Source\PSoC4/CapSense_CSHL.c **** *  sensors 8 through 15 (if needed), and so on.
 588:Generated_Source\PSoC4/CapSense_CSHL.c **** *  0 - sensor doesn't scan by CapSense_ScanEnabledWidgets().
 589:Generated_Source\PSoC4/CapSense_CSHL.c **** *  1 - sensor scans by CapSense_ScanEnabledWidgets().
 590:Generated_Source\PSoC4/CapSense_CSHL.c **** *
 591:Generated_Source\PSoC4/CapSense_CSHL.c **** * Side Effects:
 592:Generated_Source\PSoC4/CapSense_CSHL.c **** *  None
 593:Generated_Source\PSoC4/CapSense_CSHL.c **** *
 594:Generated_Source\PSoC4/CapSense_CSHL.c **** *******************************************************************************/
 595:Generated_Source\PSoC4/CapSense_CSHL.c ****  void CapSense_UpdateEnabledBaselines(void)
 596:Generated_Source\PSoC4/CapSense_CSHL.c **** {
 735              		.loc 1 596 0
 736              		.cfi_startproc
 737              		@ args = 0, pretend = 0, frame = 8
 738              		@ frame_needed = 1, uses_anonymous_args = 0
 739 0000 80B5     		push	{r7, lr}
 740              		.cfi_def_cfa_offset 8
 741              		.cfi_offset 7, -8
 742              		.cfi_offset 14, -4
 743 0002 82B0     		sub	sp, sp, #8
 744              		.cfi_def_cfa_offset 16
 745 0004 00AF     		add	r7, sp, #0
 746              		.cfi_def_cfa_register 7
 597:Generated_Source\PSoC4/CapSense_CSHL.c ****     uint32 i;
 598:Generated_Source\PSoC4/CapSense_CSHL.c ****     uint32 isSensorEnabled;
 599:Generated_Source\PSoC4/CapSense_CSHL.c **** 
 600:Generated_Source\PSoC4/CapSense_CSHL.c ****     for(i = 0u; i < CapSense_TOTAL_SENSOR_COUNT; i++)
 747              		.loc 1 600 0
 748 0006 0023     		movs	r3, #0
 749 0008 7B60     		str	r3, [r7, #4]
 750 000a 11E0     		b	.L33
 751              	.L35:
 601:Generated_Source\PSoC4/CapSense_CSHL.c ****     {
 602:Generated_Source\PSoC4/CapSense_CSHL.c ****         isSensorEnabled = CapSense_GetBitValue(CapSense_sensorEnableMask, i);
 752              		.loc 1 602 0
 753 000c 7A68     		ldr	r2, [r7, #4]
 754 000e 0C4B     		ldr	r3, .L36
 755 0010 1100     		movs	r1, r2
 756 0012 1800     		movs	r0, r3
 757 0014 FFF7FEFF 		bl	CapSense_GetBitValue
ARM GAS  C:\Users\PC\AppData\Local\Temp\ccBgQfEQ.s 			page 25


 758 0018 0300     		movs	r3, r0
 759 001a 3B60     		str	r3, [r7]
 603:Generated_Source\PSoC4/CapSense_CSHL.c **** 
 604:Generated_Source\PSoC4/CapSense_CSHL.c ****         if(0u != isSensorEnabled)
 760              		.loc 1 604 0
 761 001c 3B68     		ldr	r3, [r7]
 762 001e 002B     		cmp	r3, #0
 763 0020 03D0     		beq	.L34
 605:Generated_Source\PSoC4/CapSense_CSHL.c ****         {
 606:Generated_Source\PSoC4/CapSense_CSHL.c ****             CapSense_UpdateSensorBaseline(i);
 764              		.loc 1 606 0
 765 0022 7B68     		ldr	r3, [r7, #4]
 766 0024 1800     		movs	r0, r3
 767 0026 FFF7FEFF 		bl	CapSense_UpdateSensorBaseline
 768              	.L34:
 600:Generated_Source\PSoC4/CapSense_CSHL.c ****     {
 769              		.loc 1 600 0 discriminator 2
 770 002a 7B68     		ldr	r3, [r7, #4]
 771 002c 0133     		adds	r3, r3, #1
 772 002e 7B60     		str	r3, [r7, #4]
 773              	.L33:
 600:Generated_Source\PSoC4/CapSense_CSHL.c ****     {
 774              		.loc 1 600 0 is_stmt 0 discriminator 1
 775 0030 7B68     		ldr	r3, [r7, #4]
 776 0032 002B     		cmp	r3, #0
 777 0034 EAD0     		beq	.L35
 607:Generated_Source\PSoC4/CapSense_CSHL.c ****         }
 608:Generated_Source\PSoC4/CapSense_CSHL.c ****     }
 609:Generated_Source\PSoC4/CapSense_CSHL.c **** }
 778              		.loc 1 609 0 is_stmt 1
 779 0036 C046     		nop
 780 0038 BD46     		mov	sp, r7
 781 003a 02B0     		add	sp, sp, #8
 782              		@ sp needed
 783 003c 80BD     		pop	{r7, pc}
 784              	.L37:
 785 003e C046     		.align	2
 786              	.L36:
 787 0040 00000000 		.word	CapSense_sensorEnableMask
 788              		.cfi_endproc
 789              	.LFE42:
 790              		.size	CapSense_UpdateEnabledBaselines, .-CapSense_UpdateEnabledBaselines
 791              		.section	.text.CapSense_UpdateWidgetBaseline,"ax",%progbits
 792              		.align	2
 793              		.global	CapSense_UpdateWidgetBaseline
 794              		.code	16
 795              		.thumb_func
 796              		.type	CapSense_UpdateWidgetBaseline, %function
 797              	CapSense_UpdateWidgetBaseline:
 798              	.LFB43:
 610:Generated_Source\PSoC4/CapSense_CSHL.c **** 
 611:Generated_Source\PSoC4/CapSense_CSHL.c **** /*******************************************************************************
 612:Generated_Source\PSoC4/CapSense_CSHL.c **** * Function Name: CapSense_UpdateWidgetBaseline
 613:Generated_Source\PSoC4/CapSense_CSHL.c **** ********************************************************************************
 614:Generated_Source\PSoC4/CapSense_CSHL.c **** *
 615:Generated_Source\PSoC4/CapSense_CSHL.c **** * Summary:
 616:Generated_Source\PSoC4/CapSense_CSHL.c **** *  Checks CapSense_sensorEnableMask[] array and calls the
ARM GAS  C:\Users\PC\AppData\Local\Temp\ccBgQfEQ.s 			page 26


 617:Generated_Source\PSoC4/CapSense_CSHL.c **** *  CapSense_UpdateSensorBaseline function to update the baselines
 618:Generated_Source\PSoC4/CapSense_CSHL.c **** *  for the enabled sensors that belong to widget.
 619:Generated_Source\PSoC4/CapSense_CSHL.c **** *
 620:Generated_Source\PSoC4/CapSense_CSHL.c **** * Parameters:
 621:Generated_Source\PSoC4/CapSense_CSHL.c **** *  widget:  Widget number.
 622:Generated_Source\PSoC4/CapSense_CSHL.c **** *
 623:Generated_Source\PSoC4/CapSense_CSHL.c **** * Return:
 624:Generated_Source\PSoC4/CapSense_CSHL.c **** *  None
 625:Generated_Source\PSoC4/CapSense_CSHL.c **** *
 626:Generated_Source\PSoC4/CapSense_CSHL.c **** * Global Variables:
 627:Generated_Source\PSoC4/CapSense_CSHL.c **** *  CapSense_sensorEnableMask[] - used to store the sensor scanning
 628:Generated_Source\PSoC4/CapSense_CSHL.c **** *  state.
 629:Generated_Source\PSoC4/CapSense_CSHL.c **** *  CapSense_sensorEnableMask[0] contains the masked bits for sensors
 630:Generated_Source\PSoC4/CapSense_CSHL.c **** *   0 through 7 (sensor 0 is bit 0, sensor 1 is bit 1).
 631:Generated_Source\PSoC4/CapSense_CSHL.c **** *  CapSense_sensorEnableMask[1] contains the masked bits for
 632:Generated_Source\PSoC4/CapSense_CSHL.c **** *  sensors 8 through 15 (if needed), and so on.
 633:Generated_Source\PSoC4/CapSense_CSHL.c **** *  0 - sensor doesn't scan by CapSense_ScanEnabledWidgets().
 634:Generated_Source\PSoC4/CapSense_CSHL.c **** *  1 - sensor scans by CapSense_ScanEnabledWidgets().
 635:Generated_Source\PSoC4/CapSense_CSHL.c **** *
 636:Generated_Source\PSoC4/CapSense_CSHL.c **** * Side Effects:
 637:Generated_Source\PSoC4/CapSense_CSHL.c **** *  None
 638:Generated_Source\PSoC4/CapSense_CSHL.c **** *
 639:Generated_Source\PSoC4/CapSense_CSHL.c **** *******************************************************************************/
 640:Generated_Source\PSoC4/CapSense_CSHL.c **** void CapSense_UpdateWidgetBaseline(uint32 widget)
 641:Generated_Source\PSoC4/CapSense_CSHL.c **** {
 799              		.loc 1 641 0
 800              		.cfi_startproc
 801              		@ args = 0, pretend = 0, frame = 32
 802              		@ frame_needed = 1, uses_anonymous_args = 0
 803 0000 80B5     		push	{r7, lr}
 804              		.cfi_def_cfa_offset 8
 805              		.cfi_offset 7, -8
 806              		.cfi_offset 14, -4
 807 0002 88B0     		sub	sp, sp, #32
 808              		.cfi_def_cfa_offset 40
 809 0004 00AF     		add	r7, sp, #0
 810              		.cfi_def_cfa_register 7
 811 0006 7860     		str	r0, [r7, #4]
 642:Generated_Source\PSoC4/CapSense_CSHL.c ****     uint32 sensorsPerWidget;
 643:Generated_Source\PSoC4/CapSense_CSHL.c ****     uint32 firstSensor;
 644:Generated_Source\PSoC4/CapSense_CSHL.c ****     uint32 lastSensor;
 645:Generated_Source\PSoC4/CapSense_CSHL.c ****     uint32 i;
 646:Generated_Source\PSoC4/CapSense_CSHL.c ****     uint32 isSensorEnabled;
 647:Generated_Source\PSoC4/CapSense_CSHL.c **** 
 648:Generated_Source\PSoC4/CapSense_CSHL.c ****     /* Get number of sensors in widget */
 649:Generated_Source\PSoC4/CapSense_CSHL.c ****     sensorsPerWidget = CapSense_numberOfSensors[widget];
 812              		.loc 1 649 0
 813 0008 0123     		movs	r3, #1
 814 000a BB61     		str	r3, [r7, #24]
 650:Generated_Source\PSoC4/CapSense_CSHL.c **** 
 651:Generated_Source\PSoC4/CapSense_CSHL.c ****     /* Get first sensor in widget */
 652:Generated_Source\PSoC4/CapSense_CSHL.c ****     firstSensor = CapSense_rawDataIndex[widget];
 815              		.loc 1 652 0
 816 000c 0023     		movs	r3, #0
 817 000e 7B61     		str	r3, [r7, #20]
 653:Generated_Source\PSoC4/CapSense_CSHL.c **** 
 654:Generated_Source\PSoC4/CapSense_CSHL.c ****     /* Get last sensor in widget */
ARM GAS  C:\Users\PC\AppData\Local\Temp\ccBgQfEQ.s 			page 27


 655:Generated_Source\PSoC4/CapSense_CSHL.c ****     lastSensor = (CapSense_rawDataIndex[widget] + sensorsPerWidget);
 818              		.loc 1 655 0
 819 0010 0023     		movs	r3, #0
 820 0012 1A00     		movs	r2, r3
 821 0014 BB69     		ldr	r3, [r7, #24]
 822 0016 D318     		adds	r3, r2, r3
 823 0018 3B61     		str	r3, [r7, #16]
 656:Generated_Source\PSoC4/CapSense_CSHL.c **** 
 657:Generated_Source\PSoC4/CapSense_CSHL.c ****     for(i = firstSensor; i < lastSensor; i++)
 824              		.loc 1 657 0
 825 001a 7B69     		ldr	r3, [r7, #20]
 826 001c FB61     		str	r3, [r7, #28]
 827 001e 11E0     		b	.L39
 828              	.L41:
 658:Generated_Source\PSoC4/CapSense_CSHL.c ****     {
 659:Generated_Source\PSoC4/CapSense_CSHL.c ****         isSensorEnabled = CapSense_GetBitValue(CapSense_sensorEnableMask, i);
 829              		.loc 1 659 0
 830 0020 FA69     		ldr	r2, [r7, #28]
 831 0022 0C4B     		ldr	r3, .L42
 832 0024 1100     		movs	r1, r2
 833 0026 1800     		movs	r0, r3
 834 0028 FFF7FEFF 		bl	CapSense_GetBitValue
 835 002c 0300     		movs	r3, r0
 836 002e FB60     		str	r3, [r7, #12]
 660:Generated_Source\PSoC4/CapSense_CSHL.c **** 
 661:Generated_Source\PSoC4/CapSense_CSHL.c ****         if(0u != isSensorEnabled)
 837              		.loc 1 661 0
 838 0030 FB68     		ldr	r3, [r7, #12]
 839 0032 002B     		cmp	r3, #0
 840 0034 03D0     		beq	.L40
 662:Generated_Source\PSoC4/CapSense_CSHL.c ****         {
 663:Generated_Source\PSoC4/CapSense_CSHL.c ****             CapSense_UpdateSensorBaseline(i);
 841              		.loc 1 663 0
 842 0036 FB69     		ldr	r3, [r7, #28]
 843 0038 1800     		movs	r0, r3
 844 003a FFF7FEFF 		bl	CapSense_UpdateSensorBaseline
 845              	.L40:
 657:Generated_Source\PSoC4/CapSense_CSHL.c ****     {
 846              		.loc 1 657 0 discriminator 2
 847 003e FB69     		ldr	r3, [r7, #28]
 848 0040 0133     		adds	r3, r3, #1
 849 0042 FB61     		str	r3, [r7, #28]
 850              	.L39:
 657:Generated_Source\PSoC4/CapSense_CSHL.c ****     {
 851              		.loc 1 657 0 is_stmt 0 discriminator 1
 852 0044 FA69     		ldr	r2, [r7, #28]
 853 0046 3B69     		ldr	r3, [r7, #16]
 854 0048 9A42     		cmp	r2, r3
 855 004a E9D3     		bcc	.L41
 664:Generated_Source\PSoC4/CapSense_CSHL.c ****         }
 665:Generated_Source\PSoC4/CapSense_CSHL.c ****     }
 666:Generated_Source\PSoC4/CapSense_CSHL.c **** }
 856              		.loc 1 666 0 is_stmt 1
 857 004c C046     		nop
 858 004e BD46     		mov	sp, r7
 859 0050 08B0     		add	sp, sp, #32
 860              		@ sp needed
ARM GAS  C:\Users\PC\AppData\Local\Temp\ccBgQfEQ.s 			page 28


 861 0052 80BD     		pop	{r7, pc}
 862              	.L43:
 863              		.align	2
 864              	.L42:
 865 0054 00000000 		.word	CapSense_sensorEnableMask
 866              		.cfi_endproc
 867              	.LFE43:
 868              		.size	CapSense_UpdateWidgetBaseline, .-CapSense_UpdateWidgetBaseline
 869              		.section	.text.CapSense_GetBaselineData,"ax",%progbits
 870              		.align	2
 871              		.global	CapSense_GetBaselineData
 872              		.code	16
 873              		.thumb_func
 874              		.type	CapSense_GetBaselineData, %function
 875              	CapSense_GetBaselineData:
 876              	.LFB44:
 667:Generated_Source\PSoC4/CapSense_CSHL.c **** 
 668:Generated_Source\PSoC4/CapSense_CSHL.c **** 
 669:Generated_Source\PSoC4/CapSense_CSHL.c **** /*******************************************************************************
 670:Generated_Source\PSoC4/CapSense_CSHL.c **** * Function Name: CapSense_GetBaselineData
 671:Generated_Source\PSoC4/CapSense_CSHL.c **** ********************************************************************************
 672:Generated_Source\PSoC4/CapSense_CSHL.c **** *
 673:Generated_Source\PSoC4/CapSense_CSHL.c **** * Summary:
 674:Generated_Source\PSoC4/CapSense_CSHL.c **** *  This function reads the sensor baseline from the component.
 675:Generated_Source\PSoC4/CapSense_CSHL.c **** *
 676:Generated_Source\PSoC4/CapSense_CSHL.c **** * Parameters:
 677:Generated_Source\PSoC4/CapSense_CSHL.c **** *  sensor:  Sensor number.
 678:Generated_Source\PSoC4/CapSense_CSHL.c **** *
 679:Generated_Source\PSoC4/CapSense_CSHL.c **** * Return:
 680:Generated_Source\PSoC4/CapSense_CSHL.c **** *  This API returns the baseline value of the sensor indicated by an argument.
 681:Generated_Source\PSoC4/CapSense_CSHL.c **** *
 682:Generated_Source\PSoC4/CapSense_CSHL.c **** * Global Variables:
 683:Generated_Source\PSoC4/CapSense_CSHL.c **** *  CapSense_sensorBaseline[] - the array with an initial values by scanning
 684:Generated_Source\PSoC4/CapSense_CSHL.c **** *
 685:Generated_Source\PSoC4/CapSense_CSHL.c **** * Side Effects:
 686:Generated_Source\PSoC4/CapSense_CSHL.c **** *  None
 687:Generated_Source\PSoC4/CapSense_CSHL.c **** *
 688:Generated_Source\PSoC4/CapSense_CSHL.c **** *******************************************************************************/
 689:Generated_Source\PSoC4/CapSense_CSHL.c **** uint16 CapSense_GetBaselineData(uint32 sensor)
 690:Generated_Source\PSoC4/CapSense_CSHL.c **** {
 877              		.loc 1 690 0
 878              		.cfi_startproc
 879              		@ args = 0, pretend = 0, frame = 8
 880              		@ frame_needed = 1, uses_anonymous_args = 0
 881 0000 80B5     		push	{r7, lr}
 882              		.cfi_def_cfa_offset 8
 883              		.cfi_offset 7, -8
 884              		.cfi_offset 14, -4
 885 0002 82B0     		sub	sp, sp, #8
 886              		.cfi_def_cfa_offset 16
 887 0004 00AF     		add	r7, sp, #0
 888              		.cfi_def_cfa_register 7
 889 0006 7860     		str	r0, [r7, #4]
 691:Generated_Source\PSoC4/CapSense_CSHL.c ****     return (CapSense_sensorBaseline[sensor]);
 890              		.loc 1 691 0
 891 0008 034B     		ldr	r3, .L46
 892 000a 7A68     		ldr	r2, [r7, #4]
ARM GAS  C:\Users\PC\AppData\Local\Temp\ccBgQfEQ.s 			page 29


 893 000c 5200     		lsls	r2, r2, #1
 894 000e D35A     		ldrh	r3, [r2, r3]
 692:Generated_Source\PSoC4/CapSense_CSHL.c **** }
 895              		.loc 1 692 0
 896 0010 1800     		movs	r0, r3
 897 0012 BD46     		mov	sp, r7
 898 0014 02B0     		add	sp, sp, #8
 899              		@ sp needed
 900 0016 80BD     		pop	{r7, pc}
 901              	.L47:
 902              		.align	2
 903              	.L46:
 904 0018 00000000 		.word	CapSense_sensorBaseline
 905              		.cfi_endproc
 906              	.LFE44:
 907              		.size	CapSense_GetBaselineData, .-CapSense_GetBaselineData
 908              		.section	.text.CapSense_SetBaselineData,"ax",%progbits
 909              		.align	2
 910              		.global	CapSense_SetBaselineData
 911              		.code	16
 912              		.thumb_func
 913              		.type	CapSense_SetBaselineData, %function
 914              	CapSense_SetBaselineData:
 915              	.LFB45:
 693:Generated_Source\PSoC4/CapSense_CSHL.c **** 
 694:Generated_Source\PSoC4/CapSense_CSHL.c **** 
 695:Generated_Source\PSoC4/CapSense_CSHL.c **** /*******************************************************************************
 696:Generated_Source\PSoC4/CapSense_CSHL.c **** * Function Name: CapSense_SetBaselineData
 697:Generated_Source\PSoC4/CapSense_CSHL.c **** ********************************************************************************
 698:Generated_Source\PSoC4/CapSense_CSHL.c **** *
 699:Generated_Source\PSoC4/CapSense_CSHL.c **** * Summary:
 700:Generated_Source\PSoC4/CapSense_CSHL.c **** *  This API writes the data value passed as an argument to the sensor baseline array.
 701:Generated_Source\PSoC4/CapSense_CSHL.c **** *
 702:Generated_Source\PSoC4/CapSense_CSHL.c **** * Parameters:
 703:Generated_Source\PSoC4/CapSense_CSHL.c **** *  sensor:  Sensor number.
 704:Generated_Source\PSoC4/CapSense_CSHL.c **** *  data:    Sensor baseline.
 705:Generated_Source\PSoC4/CapSense_CSHL.c **** *
 706:Generated_Source\PSoC4/CapSense_CSHL.c **** * Return:
 707:Generated_Source\PSoC4/CapSense_CSHL.c **** *  None.
 708:Generated_Source\PSoC4/CapSense_CSHL.c **** *
 709:Generated_Source\PSoC4/CapSense_CSHL.c **** * Global Variables:
 710:Generated_Source\PSoC4/CapSense_CSHL.c **** *  CapSense_sensorBaseline[] - the array with initial values by scanning
 711:Generated_Source\PSoC4/CapSense_CSHL.c **** *
 712:Generated_Source\PSoC4/CapSense_CSHL.c **** * Side Effects:
 713:Generated_Source\PSoC4/CapSense_CSHL.c **** *  None
 714:Generated_Source\PSoC4/CapSense_CSHL.c **** *
 715:Generated_Source\PSoC4/CapSense_CSHL.c **** *******************************************************************************/
 716:Generated_Source\PSoC4/CapSense_CSHL.c **** void CapSense_SetBaselineData(uint32 sensor, uint16 data)
 717:Generated_Source\PSoC4/CapSense_CSHL.c **** {
 916              		.loc 1 717 0
 917              		.cfi_startproc
 918              		@ args = 0, pretend = 0, frame = 8
 919              		@ frame_needed = 1, uses_anonymous_args = 0
 920 0000 80B5     		push	{r7, lr}
 921              		.cfi_def_cfa_offset 8
 922              		.cfi_offset 7, -8
 923              		.cfi_offset 14, -4
ARM GAS  C:\Users\PC\AppData\Local\Temp\ccBgQfEQ.s 			page 30


 924 0002 82B0     		sub	sp, sp, #8
 925              		.cfi_def_cfa_offset 16
 926 0004 00AF     		add	r7, sp, #0
 927              		.cfi_def_cfa_register 7
 928 0006 7860     		str	r0, [r7, #4]
 929 0008 0A00     		movs	r2, r1
 930 000a BB1C     		adds	r3, r7, #2
 931 000c 1A80     		strh	r2, [r3]
 718:Generated_Source\PSoC4/CapSense_CSHL.c ****     CapSense_sensorBaseline[sensor] = data;
 932              		.loc 1 718 0
 933 000e 054B     		ldr	r3, .L49
 934 0010 7A68     		ldr	r2, [r7, #4]
 935 0012 5200     		lsls	r2, r2, #1
 936 0014 B91C     		adds	r1, r7, #2
 937 0016 0988     		ldrh	r1, [r1]
 938 0018 D152     		strh	r1, [r2, r3]
 719:Generated_Source\PSoC4/CapSense_CSHL.c **** }
 939              		.loc 1 719 0
 940 001a C046     		nop
 941 001c BD46     		mov	sp, r7
 942 001e 02B0     		add	sp, sp, #8
 943              		@ sp needed
 944 0020 80BD     		pop	{r7, pc}
 945              	.L50:
 946 0022 C046     		.align	2
 947              	.L49:
 948 0024 00000000 		.word	CapSense_sensorBaseline
 949              		.cfi_endproc
 950              	.LFE45:
 951              		.size	CapSense_SetBaselineData, .-CapSense_SetBaselineData
 952              		.section	.text.CapSense_GetDiffCountData,"ax",%progbits
 953              		.align	2
 954              		.global	CapSense_GetDiffCountData
 955              		.code	16
 956              		.thumb_func
 957              		.type	CapSense_GetDiffCountData, %function
 958              	CapSense_GetDiffCountData:
 959              	.LFB46:
 720:Generated_Source\PSoC4/CapSense_CSHL.c **** 
 721:Generated_Source\PSoC4/CapSense_CSHL.c **** 
 722:Generated_Source\PSoC4/CapSense_CSHL.c **** /*******************************************************************************
 723:Generated_Source\PSoC4/CapSense_CSHL.c **** * Function Name: CapSense_GetDiffCountData
 724:Generated_Source\PSoC4/CapSense_CSHL.c **** ********************************************************************************
 725:Generated_Source\PSoC4/CapSense_CSHL.c **** *
 726:Generated_Source\PSoC4/CapSense_CSHL.c **** * Summary:
 727:Generated_Source\PSoC4/CapSense_CSHL.c **** *  This function returns the Sensor Signal from the component.
 728:Generated_Source\PSoC4/CapSense_CSHL.c **** *
 729:Generated_Source\PSoC4/CapSense_CSHL.c **** * Parameters:
 730:Generated_Source\PSoC4/CapSense_CSHL.c **** *  sensor:  Sensor number.
 731:Generated_Source\PSoC4/CapSense_CSHL.c **** *
 732:Generated_Source\PSoC4/CapSense_CSHL.c **** * Return:
 733:Generated_Source\PSoC4/CapSense_CSHL.c **** *  This API returns the difference count value of the sensor indicated by the
 734:Generated_Source\PSoC4/CapSense_CSHL.c **** *  argument.
 735:Generated_Source\PSoC4/CapSense_CSHL.c **** *
 736:Generated_Source\PSoC4/CapSense_CSHL.c **** * Global Variables:
 737:Generated_Source\PSoC4/CapSense_CSHL.c **** *  CapSense_sensorSignal[] - the array with difference counts for sensors
 738:Generated_Source\PSoC4/CapSense_CSHL.c **** *
ARM GAS  C:\Users\PC\AppData\Local\Temp\ccBgQfEQ.s 			page 31


 739:Generated_Source\PSoC4/CapSense_CSHL.c **** * Side Effects:
 740:Generated_Source\PSoC4/CapSense_CSHL.c **** *  None
 741:Generated_Source\PSoC4/CapSense_CSHL.c **** *
 742:Generated_Source\PSoC4/CapSense_CSHL.c **** *******************************************************************************/
 743:Generated_Source\PSoC4/CapSense_CSHL.c **** uint8 CapSense_GetDiffCountData(uint32 sensor)
 744:Generated_Source\PSoC4/CapSense_CSHL.c **** {
 960              		.loc 1 744 0
 961              		.cfi_startproc
 962              		@ args = 0, pretend = 0, frame = 8
 963              		@ frame_needed = 1, uses_anonymous_args = 0
 964 0000 80B5     		push	{r7, lr}
 965              		.cfi_def_cfa_offset 8
 966              		.cfi_offset 7, -8
 967              		.cfi_offset 14, -4
 968 0002 82B0     		sub	sp, sp, #8
 969              		.cfi_def_cfa_offset 16
 970 0004 00AF     		add	r7, sp, #0
 971              		.cfi_def_cfa_register 7
 972 0006 7860     		str	r0, [r7, #4]
 745:Generated_Source\PSoC4/CapSense_CSHL.c ****     return (CapSense_sensorSignal[sensor]);
 973              		.loc 1 745 0
 974 0008 034A     		ldr	r2, .L53
 975 000a 7B68     		ldr	r3, [r7, #4]
 976 000c D318     		adds	r3, r2, r3
 977 000e 1B78     		ldrb	r3, [r3]
 746:Generated_Source\PSoC4/CapSense_CSHL.c **** }
 978              		.loc 1 746 0
 979 0010 1800     		movs	r0, r3
 980 0012 BD46     		mov	sp, r7
 981 0014 02B0     		add	sp, sp, #8
 982              		@ sp needed
 983 0016 80BD     		pop	{r7, pc}
 984              	.L54:
 985              		.align	2
 986              	.L53:
 987 0018 00000000 		.word	CapSense_sensorSignal
 988              		.cfi_endproc
 989              	.LFE46:
 990              		.size	CapSense_GetDiffCountData, .-CapSense_GetDiffCountData
 991              		.section	.text.CapSense_SetDiffCountData,"ax",%progbits
 992              		.align	2
 993              		.global	CapSense_SetDiffCountData
 994              		.code	16
 995              		.thumb_func
 996              		.type	CapSense_SetDiffCountData, %function
 997              	CapSense_SetDiffCountData:
 998              	.LFB47:
 747:Generated_Source\PSoC4/CapSense_CSHL.c **** 
 748:Generated_Source\PSoC4/CapSense_CSHL.c **** 
 749:Generated_Source\PSoC4/CapSense_CSHL.c **** /*******************************************************************************
 750:Generated_Source\PSoC4/CapSense_CSHL.c **** * Function Name: CapSense_SetDiffCountData
 751:Generated_Source\PSoC4/CapSense_CSHL.c **** ********************************************************************************
 752:Generated_Source\PSoC4/CapSense_CSHL.c **** *
 753:Generated_Source\PSoC4/CapSense_CSHL.c **** * Summary:
 754:Generated_Source\PSoC4/CapSense_CSHL.c **** *  This API writes the data value passed as an argument to the sensor signal array.
 755:Generated_Source\PSoC4/CapSense_CSHL.c **** *
 756:Generated_Source\PSoC4/CapSense_CSHL.c **** * Parameters:
ARM GAS  C:\Users\PC\AppData\Local\Temp\ccBgQfEQ.s 			page 32


 757:Generated_Source\PSoC4/CapSense_CSHL.c **** *  sensor:  Sensor number.
 758:Generated_Source\PSoC4/CapSense_CSHL.c **** *  value:   Sensor signal.
 759:Generated_Source\PSoC4/CapSense_CSHL.c **** *
 760:Generated_Source\PSoC4/CapSense_CSHL.c **** * Return:
 761:Generated_Source\PSoC4/CapSense_CSHL.c **** *  None.
 762:Generated_Source\PSoC4/CapSense_CSHL.c **** *
 763:Generated_Source\PSoC4/CapSense_CSHL.c **** * Global Variables:
 764:Generated_Source\PSoC4/CapSense_CSHL.c **** *  CapSense_sensorSignal[] - the array with difference counts for sensors
 765:Generated_Source\PSoC4/CapSense_CSHL.c **** *
 766:Generated_Source\PSoC4/CapSense_CSHL.c **** * Side Effects:
 767:Generated_Source\PSoC4/CapSense_CSHL.c **** *  None
 768:Generated_Source\PSoC4/CapSense_CSHL.c **** *
 769:Generated_Source\PSoC4/CapSense_CSHL.c **** *******************************************************************************/
 770:Generated_Source\PSoC4/CapSense_CSHL.c **** void CapSense_SetDiffCountData(uint32 sensor, uint8 value)
 771:Generated_Source\PSoC4/CapSense_CSHL.c **** {
 999              		.loc 1 771 0
 1000              		.cfi_startproc
 1001              		@ args = 0, pretend = 0, frame = 8
 1002              		@ frame_needed = 1, uses_anonymous_args = 0
 1003 0000 80B5     		push	{r7, lr}
 1004              		.cfi_def_cfa_offset 8
 1005              		.cfi_offset 7, -8
 1006              		.cfi_offset 14, -4
 1007 0002 82B0     		sub	sp, sp, #8
 1008              		.cfi_def_cfa_offset 16
 1009 0004 00AF     		add	r7, sp, #0
 1010              		.cfi_def_cfa_register 7
 1011 0006 7860     		str	r0, [r7, #4]
 1012 0008 0A00     		movs	r2, r1
 1013 000a FB1C     		adds	r3, r7, #3
 1014 000c 1A70     		strb	r2, [r3]
 772:Generated_Source\PSoC4/CapSense_CSHL.c ****     CapSense_sensorSignal[sensor] = value;
 1015              		.loc 1 772 0
 1016 000e 054A     		ldr	r2, .L56
 1017 0010 7B68     		ldr	r3, [r7, #4]
 1018 0012 D318     		adds	r3, r2, r3
 1019 0014 FA1C     		adds	r2, r7, #3
 1020 0016 1278     		ldrb	r2, [r2]
 1021 0018 1A70     		strb	r2, [r3]
 773:Generated_Source\PSoC4/CapSense_CSHL.c **** }
 1022              		.loc 1 773 0
 1023 001a C046     		nop
 1024 001c BD46     		mov	sp, r7
 1025 001e 02B0     		add	sp, sp, #8
 1026              		@ sp needed
 1027 0020 80BD     		pop	{r7, pc}
 1028              	.L57:
 1029 0022 C046     		.align	2
 1030              	.L56:
 1031 0024 00000000 		.word	CapSense_sensorSignal
 1032              		.cfi_endproc
 1033              	.LFE47:
 1034              		.size	CapSense_SetDiffCountData, .-CapSense_SetDiffCountData
 1035              		.section	.text.CapSense_GetFingerThreshold,"ax",%progbits
 1036              		.align	2
 1037              		.global	CapSense_GetFingerThreshold
 1038              		.code	16
ARM GAS  C:\Users\PC\AppData\Local\Temp\ccBgQfEQ.s 			page 33


 1039              		.thumb_func
 1040              		.type	CapSense_GetFingerThreshold, %function
 1041              	CapSense_GetFingerThreshold:
 1042              	.LFB48:
 774:Generated_Source\PSoC4/CapSense_CSHL.c **** 
 775:Generated_Source\PSoC4/CapSense_CSHL.c **** 
 776:Generated_Source\PSoC4/CapSense_CSHL.c **** /*******************************************************************************
 777:Generated_Source\PSoC4/CapSense_CSHL.c **** * Function Name: CapSense_GetFingerThreshold
 778:Generated_Source\PSoC4/CapSense_CSHL.c **** ********************************************************************************
 779:Generated_Source\PSoC4/CapSense_CSHL.c **** *
 780:Generated_Source\PSoC4/CapSense_CSHL.c **** * Summary:
 781:Generated_Source\PSoC4/CapSense_CSHL.c **** *  This function reads the finger threshold from the component.
 782:Generated_Source\PSoC4/CapSense_CSHL.c **** *
 783:Generated_Source\PSoC4/CapSense_CSHL.c **** * Parameters:
 784:Generated_Source\PSoC4/CapSense_CSHL.c **** *  widget:  widget number.
 785:Generated_Source\PSoC4/CapSense_CSHL.c **** *
 786:Generated_Source\PSoC4/CapSense_CSHL.c **** * Return:
 787:Generated_Source\PSoC4/CapSense_CSHL.c **** *  This API returns the finger threshold of the widget indicated by the argument.
 788:Generated_Source\PSoC4/CapSense_CSHL.c **** *
 789:Generated_Source\PSoC4/CapSense_CSHL.c **** * Global Variables:
 790:Generated_Source\PSoC4/CapSense_CSHL.c **** *  CapSense_fingerThreshold[] - This array contains the level of signal
 791:Generated_Source\PSoC4/CapSense_CSHL.c **** *  for each widget that is determined if a finger is present on the widget.
 792:Generated_Source\PSoC4/CapSense_CSHL.c **** *
 793:Generated_Source\PSoC4/CapSense_CSHL.c **** * Side Effects:
 794:Generated_Source\PSoC4/CapSense_CSHL.c **** *  None
 795:Generated_Source\PSoC4/CapSense_CSHL.c **** *
 796:Generated_Source\PSoC4/CapSense_CSHL.c **** *******************************************************************************/
 797:Generated_Source\PSoC4/CapSense_CSHL.c **** uint8 CapSense_GetFingerThreshold(uint32 widget)
 798:Generated_Source\PSoC4/CapSense_CSHL.c **** {
 1043              		.loc 1 798 0
 1044              		.cfi_startproc
 1045              		@ args = 0, pretend = 0, frame = 8
 1046              		@ frame_needed = 1, uses_anonymous_args = 0
 1047 0000 80B5     		push	{r7, lr}
 1048              		.cfi_def_cfa_offset 8
 1049              		.cfi_offset 7, -8
 1050              		.cfi_offset 14, -4
 1051 0002 82B0     		sub	sp, sp, #8
 1052              		.cfi_def_cfa_offset 16
 1053 0004 00AF     		add	r7, sp, #0
 1054              		.cfi_def_cfa_register 7
 1055 0006 7860     		str	r0, [r7, #4]
 799:Generated_Source\PSoC4/CapSense_CSHL.c ****     return(CapSense_fingerThreshold[widget]);
 1056              		.loc 1 799 0
 1057 0008 034A     		ldr	r2, .L60
 1058 000a 7B68     		ldr	r3, [r7, #4]
 1059 000c D318     		adds	r3, r2, r3
 1060 000e 1B78     		ldrb	r3, [r3]
 800:Generated_Source\PSoC4/CapSense_CSHL.c **** }
 1061              		.loc 1 800 0
 1062 0010 1800     		movs	r0, r3
 1063 0012 BD46     		mov	sp, r7
 1064 0014 02B0     		add	sp, sp, #8
 1065              		@ sp needed
 1066 0016 80BD     		pop	{r7, pc}
 1067              	.L61:
 1068              		.align	2
ARM GAS  C:\Users\PC\AppData\Local\Temp\ccBgQfEQ.s 			page 34


 1069              	.L60:
 1070 0018 00000000 		.word	CapSense_fingerThreshold
 1071              		.cfi_endproc
 1072              	.LFE48:
 1073              		.size	CapSense_GetFingerThreshold, .-CapSense_GetFingerThreshold
 1074              		.section	.text.CapSense_GetNoiseThreshold,"ax",%progbits
 1075              		.align	2
 1076              		.global	CapSense_GetNoiseThreshold
 1077              		.code	16
 1078              		.thumb_func
 1079              		.type	CapSense_GetNoiseThreshold, %function
 1080              	CapSense_GetNoiseThreshold:
 1081              	.LFB49:
 801:Generated_Source\PSoC4/CapSense_CSHL.c **** 
 802:Generated_Source\PSoC4/CapSense_CSHL.c **** 
 803:Generated_Source\PSoC4/CapSense_CSHL.c **** /*******************************************************************************
 804:Generated_Source\PSoC4/CapSense_CSHL.c **** * Function Name: CapSense_GetNoiseThreshold
 805:Generated_Source\PSoC4/CapSense_CSHL.c **** ********************************************************************************
 806:Generated_Source\PSoC4/CapSense_CSHL.c **** *
 807:Generated_Source\PSoC4/CapSense_CSHL.c **** * Summary:
 808:Generated_Source\PSoC4/CapSense_CSHL.c **** *  This function reads the noise threshold from the component.
 809:Generated_Source\PSoC4/CapSense_CSHL.c **** *
 810:Generated_Source\PSoC4/CapSense_CSHL.c **** * Parameters:
 811:Generated_Source\PSoC4/CapSense_CSHL.c **** *  widget:  widget number.
 812:Generated_Source\PSoC4/CapSense_CSHL.c **** *
 813:Generated_Source\PSoC4/CapSense_CSHL.c **** * Return:
 814:Generated_Source\PSoC4/CapSense_CSHL.c **** *  This API returns the noise threshold of the widget indicated by the argument.
 815:Generated_Source\PSoC4/CapSense_CSHL.c **** *
 816:Generated_Source\PSoC4/CapSense_CSHL.c **** * Global Variables:
 817:Generated_Source\PSoC4/CapSense_CSHL.c **** *  CapSense_noiseThreshold[] - This array contains the level of signal
 818:Generated_Source\PSoC4/CapSense_CSHL.c **** *  for each widget that determines the level of noise in the capacitive scan.
 819:Generated_Source\PSoC4/CapSense_CSHL.c **** *
 820:Generated_Source\PSoC4/CapSense_CSHL.c **** * Side Effects:
 821:Generated_Source\PSoC4/CapSense_CSHL.c **** *  None
 822:Generated_Source\PSoC4/CapSense_CSHL.c **** *
 823:Generated_Source\PSoC4/CapSense_CSHL.c **** *******************************************************************************/
 824:Generated_Source\PSoC4/CapSense_CSHL.c **** uint8 CapSense_GetNoiseThreshold(uint32 widget)
 825:Generated_Source\PSoC4/CapSense_CSHL.c **** {
 1082              		.loc 1 825 0
 1083              		.cfi_startproc
 1084              		@ args = 0, pretend = 0, frame = 8
 1085              		@ frame_needed = 1, uses_anonymous_args = 0
 1086 0000 80B5     		push	{r7, lr}
 1087              		.cfi_def_cfa_offset 8
 1088              		.cfi_offset 7, -8
 1089              		.cfi_offset 14, -4
 1090 0002 82B0     		sub	sp, sp, #8
 1091              		.cfi_def_cfa_offset 16
 1092 0004 00AF     		add	r7, sp, #0
 1093              		.cfi_def_cfa_register 7
 1094 0006 7860     		str	r0, [r7, #4]
 826:Generated_Source\PSoC4/CapSense_CSHL.c ****     return (CapSense_noiseThreshold[widget]);
 1095              		.loc 1 826 0
 1096 0008 034A     		ldr	r2, .L64
 1097 000a 7B68     		ldr	r3, [r7, #4]
 1098 000c D318     		adds	r3, r2, r3
 1099 000e 1B78     		ldrb	r3, [r3]
ARM GAS  C:\Users\PC\AppData\Local\Temp\ccBgQfEQ.s 			page 35


 827:Generated_Source\PSoC4/CapSense_CSHL.c **** }
 1100              		.loc 1 827 0
 1101 0010 1800     		movs	r0, r3
 1102 0012 BD46     		mov	sp, r7
 1103 0014 02B0     		add	sp, sp, #8
 1104              		@ sp needed
 1105 0016 80BD     		pop	{r7, pc}
 1106              	.L65:
 1107              		.align	2
 1108              	.L64:
 1109 0018 00000000 		.word	CapSense_noiseThreshold
 1110              		.cfi_endproc
 1111              	.LFE49:
 1112              		.size	CapSense_GetNoiseThreshold, .-CapSense_GetNoiseThreshold
 1113              		.section	.text.CapSense_GetFingerHysteresis,"ax",%progbits
 1114              		.align	2
 1115              		.global	CapSense_GetFingerHysteresis
 1116              		.code	16
 1117              		.thumb_func
 1118              		.type	CapSense_GetFingerHysteresis, %function
 1119              	CapSense_GetFingerHysteresis:
 1120              	.LFB50:
 828:Generated_Source\PSoC4/CapSense_CSHL.c **** 
 829:Generated_Source\PSoC4/CapSense_CSHL.c **** 
 830:Generated_Source\PSoC4/CapSense_CSHL.c **** /*******************************************************************************
 831:Generated_Source\PSoC4/CapSense_CSHL.c **** * Function Name: CapSense_GetFingerHysteresis
 832:Generated_Source\PSoC4/CapSense_CSHL.c **** ********************************************************************************
 833:Generated_Source\PSoC4/CapSense_CSHL.c **** *
 834:Generated_Source\PSoC4/CapSense_CSHL.c **** * Summary:
 835:Generated_Source\PSoC4/CapSense_CSHL.c **** *  This function reads the Hysteresis value from the component.
 836:Generated_Source\PSoC4/CapSense_CSHL.c **** *
 837:Generated_Source\PSoC4/CapSense_CSHL.c **** * Parameters:
 838:Generated_Source\PSoC4/CapSense_CSHL.c **** *  widget:  widget number.
 839:Generated_Source\PSoC4/CapSense_CSHL.c **** *
 840:Generated_Source\PSoC4/CapSense_CSHL.c **** * Return:
 841:Generated_Source\PSoC4/CapSense_CSHL.c **** *  This API returns the Hysteresis of the widget indicated by the argument.
 842:Generated_Source\PSoC4/CapSense_CSHL.c **** *
 843:Generated_Source\PSoC4/CapSense_CSHL.c **** * Global Variables:
 844:Generated_Source\PSoC4/CapSense_CSHL.c **** *  CapSense_hysteresis[] - This array contains the hysteresis value
 845:Generated_Source\PSoC4/CapSense_CSHL.c **** *   for each widget.
 846:Generated_Source\PSoC4/CapSense_CSHL.c **** *  CapSense_widgetNumberSld - structure with dynamic sliders' parameters.
 847:Generated_Source\PSoC4/CapSense_CSHL.c **** *
 848:Generated_Source\PSoC4/CapSense_CSHL.c **** * Side Effects:
 849:Generated_Source\PSoC4/CapSense_CSHL.c **** *  None
 850:Generated_Source\PSoC4/CapSense_CSHL.c **** *
 851:Generated_Source\PSoC4/CapSense_CSHL.c **** *******************************************************************************/
 852:Generated_Source\PSoC4/CapSense_CSHL.c **** uint8 CapSense_GetFingerHysteresis(uint32 widget)
 853:Generated_Source\PSoC4/CapSense_CSHL.c **** {
 1121              		.loc 1 853 0
 1122              		.cfi_startproc
 1123              		@ args = 0, pretend = 0, frame = 8
 1124              		@ frame_needed = 1, uses_anonymous_args = 0
 1125 0000 80B5     		push	{r7, lr}
 1126              		.cfi_def_cfa_offset 8
 1127              		.cfi_offset 7, -8
 1128              		.cfi_offset 14, -4
 1129 0002 82B0     		sub	sp, sp, #8
ARM GAS  C:\Users\PC\AppData\Local\Temp\ccBgQfEQ.s 			page 36


 1130              		.cfi_def_cfa_offset 16
 1131 0004 00AF     		add	r7, sp, #0
 1132              		.cfi_def_cfa_register 7
 1133 0006 7860     		str	r0, [r7, #4]
 854:Generated_Source\PSoC4/CapSense_CSHL.c ****     return(CapSense_hysteresis[widget]);
 1134              		.loc 1 854 0
 1135 0008 034A     		ldr	r2, .L68
 1136 000a 7B68     		ldr	r3, [r7, #4]
 1137 000c D318     		adds	r3, r2, r3
 1138 000e 1B78     		ldrb	r3, [r3]
 855:Generated_Source\PSoC4/CapSense_CSHL.c **** }
 1139              		.loc 1 855 0
 1140 0010 1800     		movs	r0, r3
 1141 0012 BD46     		mov	sp, r7
 1142 0014 02B0     		add	sp, sp, #8
 1143              		@ sp needed
 1144 0016 80BD     		pop	{r7, pc}
 1145              	.L69:
 1146              		.align	2
 1147              	.L68:
 1148 0018 00000000 		.word	CapSense_hysteresis
 1149              		.cfi_endproc
 1150              	.LFE50:
 1151              		.size	CapSense_GetFingerHysteresis, .-CapSense_GetFingerHysteresis
 1152              		.section	.text.CapSense_GetNegativeNoiseThreshold,"ax",%progbits
 1153              		.align	2
 1154              		.global	CapSense_GetNegativeNoiseThreshold
 1155              		.code	16
 1156              		.thumb_func
 1157              		.type	CapSense_GetNegativeNoiseThreshold, %function
 1158              	CapSense_GetNegativeNoiseThreshold:
 1159              	.LFB51:
 856:Generated_Source\PSoC4/CapSense_CSHL.c **** 
 857:Generated_Source\PSoC4/CapSense_CSHL.c **** 
 858:Generated_Source\PSoC4/CapSense_CSHL.c **** /*******************************************************************************
 859:Generated_Source\PSoC4/CapSense_CSHL.c **** * Function Name: CapSense_GetNegativeNoiseThreshold
 860:Generated_Source\PSoC4/CapSense_CSHL.c **** ********************************************************************************
 861:Generated_Source\PSoC4/CapSense_CSHL.c **** *
 862:Generated_Source\PSoC4/CapSense_CSHL.c **** * Summary:
 863:Generated_Source\PSoC4/CapSense_CSHL.c **** *  This function reads the negative noise threshold from the component.
 864:Generated_Source\PSoC4/CapSense_CSHL.c **** *
 865:Generated_Source\PSoC4/CapSense_CSHL.c **** * Parameters:
 866:Generated_Source\PSoC4/CapSense_CSHL.c **** *  None.
 867:Generated_Source\PSoC4/CapSense_CSHL.c **** *
 868:Generated_Source\PSoC4/CapSense_CSHL.c **** * Return Value:
 869:Generated_Source\PSoC4/CapSense_CSHL.c **** *  This API returns the negative noise threshold
 870:Generated_Source\PSoC4/CapSense_CSHL.c **** *
 871:Generated_Source\PSoC4/CapSense_CSHL.c **** * Global Variables:
 872:Generated_Source\PSoC4/CapSense_CSHL.c **** *  CapSense_negativeNoiseThreshold - This variable specifies the negative
 873:Generated_Source\PSoC4/CapSense_CSHL.c **** *   difference between the raw count and baseline levels for Baseline resetting
 874:Generated_Source\PSoC4/CapSense_CSHL.c **** *   to the raw count level.
 875:Generated_Source\PSoC4/CapSense_CSHL.c **** *
 876:Generated_Source\PSoC4/CapSense_CSHL.c **** * Side Effects:
 877:Generated_Source\PSoC4/CapSense_CSHL.c **** *  None
 878:Generated_Source\PSoC4/CapSense_CSHL.c **** *
 879:Generated_Source\PSoC4/CapSense_CSHL.c **** *******************************************************************************/
 880:Generated_Source\PSoC4/CapSense_CSHL.c **** uint8 CapSense_GetNegativeNoiseThreshold(uint32 widget)
ARM GAS  C:\Users\PC\AppData\Local\Temp\ccBgQfEQ.s 			page 37


 881:Generated_Source\PSoC4/CapSense_CSHL.c **** {
 1160              		.loc 1 881 0
 1161              		.cfi_startproc
 1162              		@ args = 0, pretend = 0, frame = 8
 1163              		@ frame_needed = 1, uses_anonymous_args = 0
 1164 0000 80B5     		push	{r7, lr}
 1165              		.cfi_def_cfa_offset 8
 1166              		.cfi_offset 7, -8
 1167              		.cfi_offset 14, -4
 1168 0002 82B0     		sub	sp, sp, #8
 1169              		.cfi_def_cfa_offset 16
 1170 0004 00AF     		add	r7, sp, #0
 1171              		.cfi_def_cfa_register 7
 1172 0006 7860     		str	r0, [r7, #4]
 882:Generated_Source\PSoC4/CapSense_CSHL.c **** #if (CapSense_TUNING_METHOD != CapSense__TUNING_NONE)
 883:Generated_Source\PSoC4/CapSense_CSHL.c ****     return(CapSense_negativeNoiseThreshold[widget]);
 1173              		.loc 1 883 0
 1174 0008 034A     		ldr	r2, .L72
 1175 000a 7B68     		ldr	r3, [r7, #4]
 1176 000c D318     		adds	r3, r2, r3
 1177 000e 1B78     		ldrb	r3, [r3]
 884:Generated_Source\PSoC4/CapSense_CSHL.c **** #else
 885:Generated_Source\PSoC4/CapSense_CSHL.c ****     return(CapSense_NEGATIVE_NOISE_THRESHOLD);
 886:Generated_Source\PSoC4/CapSense_CSHL.c **** #endif /* (CapSense_TUNING_METHOD != CapSense__TUNING_NONE) */
 887:Generated_Source\PSoC4/CapSense_CSHL.c **** }
 1178              		.loc 1 887 0
 1179 0010 1800     		movs	r0, r3
 1180 0012 BD46     		mov	sp, r7
 1181 0014 02B0     		add	sp, sp, #8
 1182              		@ sp needed
 1183 0016 80BD     		pop	{r7, pc}
 1184              	.L73:
 1185              		.align	2
 1186              	.L72:
 1187 0018 00000000 		.word	CapSense_negativeNoiseThreshold
 1188              		.cfi_endproc
 1189              	.LFE51:
 1190              		.size	CapSense_GetNegativeNoiseThreshold, .-CapSense_GetNegativeNoiseThreshold
 1191              		.section	.text.CapSense_SetFingerThreshold,"ax",%progbits
 1192              		.align	2
 1193              		.global	CapSense_SetFingerThreshold
 1194              		.code	16
 1195              		.thumb_func
 1196              		.type	CapSense_SetFingerThreshold, %function
 1197              	CapSense_SetFingerThreshold:
 1198              	.LFB52:
 888:Generated_Source\PSoC4/CapSense_CSHL.c **** 
 889:Generated_Source\PSoC4/CapSense_CSHL.c **** 
 890:Generated_Source\PSoC4/CapSense_CSHL.c **** #if(CapSense_TUNING_METHOD != CapSense__TUNING_NONE)
 891:Generated_Source\PSoC4/CapSense_CSHL.c ****     /*******************************************************************************
 892:Generated_Source\PSoC4/CapSense_CSHL.c ****     * Function Name: CapSense_SetFingerThreshold
 893:Generated_Source\PSoC4/CapSense_CSHL.c ****     ********************************************************************************
 894:Generated_Source\PSoC4/CapSense_CSHL.c ****     *
 895:Generated_Source\PSoC4/CapSense_CSHL.c ****     * Summary:
 896:Generated_Source\PSoC4/CapSense_CSHL.c ****     *  This API sets the finger threshold value for a widget.
 897:Generated_Source\PSoC4/CapSense_CSHL.c ****     *
 898:Generated_Source\PSoC4/CapSense_CSHL.c ****     * Parameters:
ARM GAS  C:\Users\PC\AppData\Local\Temp\ccBgQfEQ.s 			page 38


 899:Generated_Source\PSoC4/CapSense_CSHL.c ****     *  sensorNumber:  widget index.
 900:Generated_Source\PSoC4/CapSense_CSHL.c ****     *  value:  Finger threshold value for the widget.
 901:Generated_Source\PSoC4/CapSense_CSHL.c ****     *
 902:Generated_Source\PSoC4/CapSense_CSHL.c ****     * Return Value:
 903:Generated_Source\PSoC4/CapSense_CSHL.c ****     *  None
 904:Generated_Source\PSoC4/CapSense_CSHL.c ****     *
 905:Generated_Source\PSoC4/CapSense_CSHL.c ****     * Global Variables:
 906:Generated_Source\PSoC4/CapSense_CSHL.c ****     *  CapSense_fingerThreshold[] - This array contains the level of signal
 907:Generated_Source\PSoC4/CapSense_CSHL.c ****     *   for each widget that determines if a finger is present on the widget.
 908:Generated_Source\PSoC4/CapSense_CSHL.c ****     *
 909:Generated_Source\PSoC4/CapSense_CSHL.c ****     * Side Effects:
 910:Generated_Source\PSoC4/CapSense_CSHL.c ****     *  None
 911:Generated_Source\PSoC4/CapSense_CSHL.c ****     *
 912:Generated_Source\PSoC4/CapSense_CSHL.c ****     *******************************************************************************/
 913:Generated_Source\PSoC4/CapSense_CSHL.c ****     void CapSense_SetFingerThreshold(uint32 widget, uint8 value)
 914:Generated_Source\PSoC4/CapSense_CSHL.c ****     {
 1199              		.loc 1 914 0
 1200              		.cfi_startproc
 1201              		@ args = 0, pretend = 0, frame = 8
 1202              		@ frame_needed = 1, uses_anonymous_args = 0
 1203 0000 80B5     		push	{r7, lr}
 1204              		.cfi_def_cfa_offset 8
 1205              		.cfi_offset 7, -8
 1206              		.cfi_offset 14, -4
 1207 0002 82B0     		sub	sp, sp, #8
 1208              		.cfi_def_cfa_offset 16
 1209 0004 00AF     		add	r7, sp, #0
 1210              		.cfi_def_cfa_register 7
 1211 0006 7860     		str	r0, [r7, #4]
 1212 0008 0A00     		movs	r2, r1
 1213 000a FB1C     		adds	r3, r7, #3
 1214 000c 1A70     		strb	r2, [r3]
 915:Generated_Source\PSoC4/CapSense_CSHL.c ****         CapSense_fingerThreshold[widget] = value;
 1215              		.loc 1 915 0
 1216 000e 054A     		ldr	r2, .L75
 1217 0010 7B68     		ldr	r3, [r7, #4]
 1218 0012 D318     		adds	r3, r2, r3
 1219 0014 FA1C     		adds	r2, r7, #3
 1220 0016 1278     		ldrb	r2, [r2]
 1221 0018 1A70     		strb	r2, [r3]
 916:Generated_Source\PSoC4/CapSense_CSHL.c ****     }
 1222              		.loc 1 916 0
 1223 001a C046     		nop
 1224 001c BD46     		mov	sp, r7
 1225 001e 02B0     		add	sp, sp, #8
 1226              		@ sp needed
 1227 0020 80BD     		pop	{r7, pc}
 1228              	.L76:
 1229 0022 C046     		.align	2
 1230              	.L75:
 1231 0024 00000000 		.word	CapSense_fingerThreshold
 1232              		.cfi_endproc
 1233              	.LFE52:
 1234              		.size	CapSense_SetFingerThreshold, .-CapSense_SetFingerThreshold
 1235              		.section	.text.CapSense_SetNoiseThreshold,"ax",%progbits
 1236              		.align	2
 1237              		.global	CapSense_SetNoiseThreshold
ARM GAS  C:\Users\PC\AppData\Local\Temp\ccBgQfEQ.s 			page 39


 1238              		.code	16
 1239              		.thumb_func
 1240              		.type	CapSense_SetNoiseThreshold, %function
 1241              	CapSense_SetNoiseThreshold:
 1242              	.LFB53:
 917:Generated_Source\PSoC4/CapSense_CSHL.c **** 
 918:Generated_Source\PSoC4/CapSense_CSHL.c **** 
 919:Generated_Source\PSoC4/CapSense_CSHL.c ****     /*******************************************************************************
 920:Generated_Source\PSoC4/CapSense_CSHL.c ****     * Function Name: CapSense_SetNoiseThreshold
 921:Generated_Source\PSoC4/CapSense_CSHL.c ****     ********************************************************************************
 922:Generated_Source\PSoC4/CapSense_CSHL.c ****     *
 923:Generated_Source\PSoC4/CapSense_CSHL.c ****     * Summary:
 924:Generated_Source\PSoC4/CapSense_CSHL.c ****     *  This API sets the Noise Threshold value for each widget.
 925:Generated_Source\PSoC4/CapSense_CSHL.c ****     *
 926:Generated_Source\PSoC4/CapSense_CSHL.c ****     * Parameters:
 927:Generated_Source\PSoC4/CapSense_CSHL.c ****     *  widget:  Sensor index number.
 928:Generated_Source\PSoC4/CapSense_CSHL.c ****     *  value:   Noise Threshold value for widget.
 929:Generated_Source\PSoC4/CapSense_CSHL.c ****     *
 930:Generated_Source\PSoC4/CapSense_CSHL.c ****     * Return Value:
 931:Generated_Source\PSoC4/CapSense_CSHL.c ****     *  None
 932:Generated_Source\PSoC4/CapSense_CSHL.c ****     *
 933:Generated_Source\PSoC4/CapSense_CSHL.c ****     * Global Variables:
 934:Generated_Source\PSoC4/CapSense_CSHL.c ****     *  CapSense_noiseThreshold[] - This array contains the level of signal
 935:Generated_Source\PSoC4/CapSense_CSHL.c ****     *   for each widget that determines the level of noise in the capacitive scan.
 936:Generated_Source\PSoC4/CapSense_CSHL.c ****     *
 937:Generated_Source\PSoC4/CapSense_CSHL.c ****     * Side Effects:
 938:Generated_Source\PSoC4/CapSense_CSHL.c ****     *  None
 939:Generated_Source\PSoC4/CapSense_CSHL.c ****     *
 940:Generated_Source\PSoC4/CapSense_CSHL.c ****     *******************************************************************************/
 941:Generated_Source\PSoC4/CapSense_CSHL.c ****     void CapSense_SetNoiseThreshold(uint32 widget, uint8 value)
 942:Generated_Source\PSoC4/CapSense_CSHL.c ****     {
 1243              		.loc 1 942 0
 1244              		.cfi_startproc
 1245              		@ args = 0, pretend = 0, frame = 8
 1246              		@ frame_needed = 1, uses_anonymous_args = 0
 1247 0000 80B5     		push	{r7, lr}
 1248              		.cfi_def_cfa_offset 8
 1249              		.cfi_offset 7, -8
 1250              		.cfi_offset 14, -4
 1251 0002 82B0     		sub	sp, sp, #8
 1252              		.cfi_def_cfa_offset 16
 1253 0004 00AF     		add	r7, sp, #0
 1254              		.cfi_def_cfa_register 7
 1255 0006 7860     		str	r0, [r7, #4]
 1256 0008 0A00     		movs	r2, r1
 1257 000a FB1C     		adds	r3, r7, #3
 1258 000c 1A70     		strb	r2, [r3]
 943:Generated_Source\PSoC4/CapSense_CSHL.c ****         CapSense_noiseThreshold[widget] = value;
 1259              		.loc 1 943 0
 1260 000e 054A     		ldr	r2, .L78
 1261 0010 7B68     		ldr	r3, [r7, #4]
 1262 0012 D318     		adds	r3, r2, r3
 1263 0014 FA1C     		adds	r2, r7, #3
 1264 0016 1278     		ldrb	r2, [r2]
 1265 0018 1A70     		strb	r2, [r3]
 944:Generated_Source\PSoC4/CapSense_CSHL.c ****     }
 1266              		.loc 1 944 0
ARM GAS  C:\Users\PC\AppData\Local\Temp\ccBgQfEQ.s 			page 40


 1267 001a C046     		nop
 1268 001c BD46     		mov	sp, r7
 1269 001e 02B0     		add	sp, sp, #8
 1270              		@ sp needed
 1271 0020 80BD     		pop	{r7, pc}
 1272              	.L79:
 1273 0022 C046     		.align	2
 1274              	.L78:
 1275 0024 00000000 		.word	CapSense_noiseThreshold
 1276              		.cfi_endproc
 1277              	.LFE53:
 1278              		.size	CapSense_SetNoiseThreshold, .-CapSense_SetNoiseThreshold
 1279              		.section	.text.CapSense_SetFingerHysteresis,"ax",%progbits
 1280              		.align	2
 1281              		.global	CapSense_SetFingerHysteresis
 1282              		.code	16
 1283              		.thumb_func
 1284              		.type	CapSense_SetFingerHysteresis, %function
 1285              	CapSense_SetFingerHysteresis:
 1286              	.LFB54:
 945:Generated_Source\PSoC4/CapSense_CSHL.c **** 
 946:Generated_Source\PSoC4/CapSense_CSHL.c **** 
 947:Generated_Source\PSoC4/CapSense_CSHL.c ****     /*******************************************************************************
 948:Generated_Source\PSoC4/CapSense_CSHL.c ****     * Function Name: CapSense_SetFingerHysteresis
 949:Generated_Source\PSoC4/CapSense_CSHL.c ****     ********************************************************************************
 950:Generated_Source\PSoC4/CapSense_CSHL.c ****     *
 951:Generated_Source\PSoC4/CapSense_CSHL.c ****     * Summary:
 952:Generated_Source\PSoC4/CapSense_CSHL.c ****     *  This API sets the Hysteresis value of a widget
 953:Generated_Source\PSoC4/CapSense_CSHL.c ****     *
 954:Generated_Source\PSoC4/CapSense_CSHL.c ****     * Parameters:
 955:Generated_Source\PSoC4/CapSense_CSHL.c ****     *  value:  Hysteresis value for widgets.
 956:Generated_Source\PSoC4/CapSense_CSHL.c ****     *  widget:  widget number
 957:Generated_Source\PSoC4/CapSense_CSHL.c ****     *
 958:Generated_Source\PSoC4/CapSense_CSHL.c ****     * Return Value:
 959:Generated_Source\PSoC4/CapSense_CSHL.c ****     *  None
 960:Generated_Source\PSoC4/CapSense_CSHL.c ****     *
 961:Generated_Source\PSoC4/CapSense_CSHL.c ****     * Global Variables:
 962:Generated_Source\PSoC4/CapSense_CSHL.c ****     *  CapSense_hysteresis[] - This array contains the hysteresis value for each widget.
 963:Generated_Source\PSoC4/CapSense_CSHL.c ****     *  CapSense_widgetNumberSld - structure with dynamic sliders' parameters.
 964:Generated_Source\PSoC4/CapSense_CSHL.c ****     *
 965:Generated_Source\PSoC4/CapSense_CSHL.c ****     * Side Effects:
 966:Generated_Source\PSoC4/CapSense_CSHL.c ****     *  None
 967:Generated_Source\PSoC4/CapSense_CSHL.c ****     *
 968:Generated_Source\PSoC4/CapSense_CSHL.c ****     *******************************************************************************/
 969:Generated_Source\PSoC4/CapSense_CSHL.c ****     void CapSense_SetFingerHysteresis(uint32 widget, uint8 value)
 970:Generated_Source\PSoC4/CapSense_CSHL.c ****     {
 1287              		.loc 1 970 0
 1288              		.cfi_startproc
 1289              		@ args = 0, pretend = 0, frame = 8
 1290              		@ frame_needed = 1, uses_anonymous_args = 0
 1291 0000 80B5     		push	{r7, lr}
 1292              		.cfi_def_cfa_offset 8
 1293              		.cfi_offset 7, -8
 1294              		.cfi_offset 14, -4
 1295 0002 82B0     		sub	sp, sp, #8
 1296              		.cfi_def_cfa_offset 16
 1297 0004 00AF     		add	r7, sp, #0
ARM GAS  C:\Users\PC\AppData\Local\Temp\ccBgQfEQ.s 			page 41


 1298              		.cfi_def_cfa_register 7
 1299 0006 7860     		str	r0, [r7, #4]
 1300 0008 0A00     		movs	r2, r1
 1301 000a FB1C     		adds	r3, r7, #3
 1302 000c 1A70     		strb	r2, [r3]
 971:Generated_Source\PSoC4/CapSense_CSHL.c ****         CapSense_hysteresis[widget] = value;
 1303              		.loc 1 971 0
 1304 000e 054A     		ldr	r2, .L81
 1305 0010 7B68     		ldr	r3, [r7, #4]
 1306 0012 D318     		adds	r3, r2, r3
 1307 0014 FA1C     		adds	r2, r7, #3
 1308 0016 1278     		ldrb	r2, [r2]
 1309 0018 1A70     		strb	r2, [r3]
 972:Generated_Source\PSoC4/CapSense_CSHL.c ****     }
 1310              		.loc 1 972 0
 1311 001a C046     		nop
 1312 001c BD46     		mov	sp, r7
 1313 001e 02B0     		add	sp, sp, #8
 1314              		@ sp needed
 1315 0020 80BD     		pop	{r7, pc}
 1316              	.L82:
 1317 0022 C046     		.align	2
 1318              	.L81:
 1319 0024 00000000 		.word	CapSense_hysteresis
 1320              		.cfi_endproc
 1321              	.LFE54:
 1322              		.size	CapSense_SetFingerHysteresis, .-CapSense_SetFingerHysteresis
 1323              		.section	.text.CapSense_SetNegativeNoiseThreshold,"ax",%progbits
 1324              		.align	2
 1325              		.global	CapSense_SetNegativeNoiseThreshold
 1326              		.code	16
 1327              		.thumb_func
 1328              		.type	CapSense_SetNegativeNoiseThreshold, %function
 1329              	CapSense_SetNegativeNoiseThreshold:
 1330              	.LFB55:
 973:Generated_Source\PSoC4/CapSense_CSHL.c **** 
 974:Generated_Source\PSoC4/CapSense_CSHL.c **** 
 975:Generated_Source\PSoC4/CapSense_CSHL.c ****     /*******************************************************************************
 976:Generated_Source\PSoC4/CapSense_CSHL.c ****     * Function Name: CapSense_SetNegativeNoiseThreshold
 977:Generated_Source\PSoC4/CapSense_CSHL.c ****     ********************************************************************************
 978:Generated_Source\PSoC4/CapSense_CSHL.c ****     *
 979:Generated_Source\PSoC4/CapSense_CSHL.c ****     * Summary:
 980:Generated_Source\PSoC4/CapSense_CSHL.c ****     *  This API sets the Negative Noise Threshold value of a widget
 981:Generated_Source\PSoC4/CapSense_CSHL.c ****     *
 982:Generated_Source\PSoC4/CapSense_CSHL.c ****     * Parameters:
 983:Generated_Source\PSoC4/CapSense_CSHL.c ****     *  value:  Negative Noise Threshold value for widgets.
 984:Generated_Source\PSoC4/CapSense_CSHL.c ****     *  widget: widget number
 985:Generated_Source\PSoC4/CapSense_CSHL.c ****     *
 986:Generated_Source\PSoC4/CapSense_CSHL.c ****     * Return Value:
 987:Generated_Source\PSoC4/CapSense_CSHL.c ****     *  None
 988:Generated_Source\PSoC4/CapSense_CSHL.c ****     *
 989:Generated_Source\PSoC4/CapSense_CSHL.c ****     * Global Variables:
 990:Generated_Source\PSoC4/CapSense_CSHL.c ****     *  CapSense_negativeNoiseThreshold  - This parameter specifies the negative
 991:Generated_Source\PSoC4/CapSense_CSHL.c ****     *   difference between the raw count and baseline levels for Baseline resetting to
 992:Generated_Source\PSoC4/CapSense_CSHL.c ****     *   the raw count level.
 993:Generated_Source\PSoC4/CapSense_CSHL.c ****     *
 994:Generated_Source\PSoC4/CapSense_CSHL.c ****     * Side Effects:
ARM GAS  C:\Users\PC\AppData\Local\Temp\ccBgQfEQ.s 			page 42


 995:Generated_Source\PSoC4/CapSense_CSHL.c ****     *  None
 996:Generated_Source\PSoC4/CapSense_CSHL.c ****     *
 997:Generated_Source\PSoC4/CapSense_CSHL.c ****     *******************************************************************************/
 998:Generated_Source\PSoC4/CapSense_CSHL.c ****     void CapSense_SetNegativeNoiseThreshold(uint32 widget, uint8 value)
 999:Generated_Source\PSoC4/CapSense_CSHL.c ****     {
 1331              		.loc 1 999 0
 1332              		.cfi_startproc
 1333              		@ args = 0, pretend = 0, frame = 8
 1334              		@ frame_needed = 1, uses_anonymous_args = 0
 1335 0000 80B5     		push	{r7, lr}
 1336              		.cfi_def_cfa_offset 8
 1337              		.cfi_offset 7, -8
 1338              		.cfi_offset 14, -4
 1339 0002 82B0     		sub	sp, sp, #8
 1340              		.cfi_def_cfa_offset 16
 1341 0004 00AF     		add	r7, sp, #0
 1342              		.cfi_def_cfa_register 7
 1343 0006 7860     		str	r0, [r7, #4]
 1344 0008 0A00     		movs	r2, r1
 1345 000a FB1C     		adds	r3, r7, #3
 1346 000c 1A70     		strb	r2, [r3]
1000:Generated_Source\PSoC4/CapSense_CSHL.c ****         CapSense_negativeNoiseThreshold[widget] = value;
 1347              		.loc 1 1000 0
 1348 000e 054A     		ldr	r2, .L84
 1349 0010 7B68     		ldr	r3, [r7, #4]
 1350 0012 D318     		adds	r3, r2, r3
 1351 0014 FA1C     		adds	r2, r7, #3
 1352 0016 1278     		ldrb	r2, [r2]
 1353 0018 1A70     		strb	r2, [r3]
1001:Generated_Source\PSoC4/CapSense_CSHL.c ****     }
 1354              		.loc 1 1001 0
 1355 001a C046     		nop
 1356 001c BD46     		mov	sp, r7
 1357 001e 02B0     		add	sp, sp, #8
 1358              		@ sp needed
 1359 0020 80BD     		pop	{r7, pc}
 1360              	.L85:
 1361 0022 C046     		.align	2
 1362              	.L84:
 1363 0024 00000000 		.word	CapSense_negativeNoiseThreshold
 1364              		.cfi_endproc
 1365              	.LFE55:
 1366              		.size	CapSense_SetNegativeNoiseThreshold, .-CapSense_SetNegativeNoiseThreshold
 1367              		.section	.text.CapSense_SetDebounce,"ax",%progbits
 1368              		.align	2
 1369              		.global	CapSense_SetDebounce
 1370              		.code	16
 1371              		.thumb_func
 1372              		.type	CapSense_SetDebounce, %function
 1373              	CapSense_SetDebounce:
 1374              	.LFB56:
1002:Generated_Source\PSoC4/CapSense_CSHL.c **** 
1003:Generated_Source\PSoC4/CapSense_CSHL.c **** 
1004:Generated_Source\PSoC4/CapSense_CSHL.c ****     /*******************************************************************************
1005:Generated_Source\PSoC4/CapSense_CSHL.c ****     * Function Name: CapSense_SetDebounce
1006:Generated_Source\PSoC4/CapSense_CSHL.c ****     ********************************************************************************
1007:Generated_Source\PSoC4/CapSense_CSHL.c ****     *
ARM GAS  C:\Users\PC\AppData\Local\Temp\ccBgQfEQ.s 			page 43


1008:Generated_Source\PSoC4/CapSense_CSHL.c ****     * Summary:
1009:Generated_Source\PSoC4/CapSense_CSHL.c ****     *  This API sets the debounce value for a widget.
1010:Generated_Source\PSoC4/CapSense_CSHL.c ****     *
1011:Generated_Source\PSoC4/CapSense_CSHL.c ****     * Parameters:
1012:Generated_Source\PSoC4/CapSense_CSHL.c ****     *  value:  Debounce value for widget.
1013:Generated_Source\PSoC4/CapSense_CSHL.c ****     *  widget: widget index.
1014:Generated_Source\PSoC4/CapSense_CSHL.c ****     *
1015:Generated_Source\PSoC4/CapSense_CSHL.c ****     * Return Value:
1016:Generated_Source\PSoC4/CapSense_CSHL.c ****     *  None
1017:Generated_Source\PSoC4/CapSense_CSHL.c ****     *
1018:Generated_Source\PSoC4/CapSense_CSHL.c ****     * Global Variables:
1019:Generated_Source\PSoC4/CapSense_CSHL.c ****     *  CapSense_debounce[] - This array contains the debounce value for each widget.
1020:Generated_Source\PSoC4/CapSense_CSHL.c ****     *  CapSense_widgetNumberSld - structure with dynamic sliders' parameters.
1021:Generated_Source\PSoC4/CapSense_CSHL.c ****     *
1022:Generated_Source\PSoC4/CapSense_CSHL.c ****     * Side Effects:
1023:Generated_Source\PSoC4/CapSense_CSHL.c ****     *  None
1024:Generated_Source\PSoC4/CapSense_CSHL.c ****     *
1025:Generated_Source\PSoC4/CapSense_CSHL.c ****     *******************************************************************************/
1026:Generated_Source\PSoC4/CapSense_CSHL.c ****     void CapSense_SetDebounce(uint32 widget, uint8 value)
1027:Generated_Source\PSoC4/CapSense_CSHL.c ****     {
 1375              		.loc 1 1027 0
 1376              		.cfi_startproc
 1377              		@ args = 0, pretend = 0, frame = 8
 1378              		@ frame_needed = 1, uses_anonymous_args = 0
 1379 0000 80B5     		push	{r7, lr}
 1380              		.cfi_def_cfa_offset 8
 1381              		.cfi_offset 7, -8
 1382              		.cfi_offset 14, -4
 1383 0002 82B0     		sub	sp, sp, #8
 1384              		.cfi_def_cfa_offset 16
 1385 0004 00AF     		add	r7, sp, #0
 1386              		.cfi_def_cfa_register 7
 1387 0006 7860     		str	r0, [r7, #4]
 1388 0008 0A00     		movs	r2, r1
 1389 000a FB1C     		adds	r3, r7, #3
 1390 000c 1A70     		strb	r2, [r3]
1028:Generated_Source\PSoC4/CapSense_CSHL.c ****         CapSense_debounce[widget] = value;
 1391              		.loc 1 1028 0
 1392 000e 054A     		ldr	r2, .L87
 1393 0010 7B68     		ldr	r3, [r7, #4]
 1394 0012 D318     		adds	r3, r2, r3
 1395 0014 FA1C     		adds	r2, r7, #3
 1396 0016 1278     		ldrb	r2, [r2]
 1397 0018 1A70     		strb	r2, [r3]
1029:Generated_Source\PSoC4/CapSense_CSHL.c ****     }
 1398              		.loc 1 1029 0
 1399 001a C046     		nop
 1400 001c BD46     		mov	sp, r7
 1401 001e 02B0     		add	sp, sp, #8
 1402              		@ sp needed
 1403 0020 80BD     		pop	{r7, pc}
 1404              	.L88:
 1405 0022 C046     		.align	2
 1406              	.L87:
 1407 0024 00000000 		.word	CapSense_debounce
 1408              		.cfi_endproc
 1409              	.LFE56:
ARM GAS  C:\Users\PC\AppData\Local\Temp\ccBgQfEQ.s 			page 44


 1410              		.size	CapSense_SetDebounce, .-CapSense_SetDebounce
 1411              		.section	.text.CapSense_SetLowBaselineReset,"ax",%progbits
 1412              		.align	2
 1413              		.global	CapSense_SetLowBaselineReset
 1414              		.code	16
 1415              		.thumb_func
 1416              		.type	CapSense_SetLowBaselineReset, %function
 1417              	CapSense_SetLowBaselineReset:
 1418              	.LFB57:
1030:Generated_Source\PSoC4/CapSense_CSHL.c **** 
1031:Generated_Source\PSoC4/CapSense_CSHL.c **** 
1032:Generated_Source\PSoC4/CapSense_CSHL.c ****     /*******************************************************************************
1033:Generated_Source\PSoC4/CapSense_CSHL.c ****     * Function Name: CapSense_SetLowBaselineReset
1034:Generated_Source\PSoC4/CapSense_CSHL.c ****     ********************************************************************************
1035:Generated_Source\PSoC4/CapSense_CSHL.c ****     *
1036:Generated_Source\PSoC4/CapSense_CSHL.c ****     * Summary:
1037:Generated_Source\PSoC4/CapSense_CSHL.c ****     *  This API sets the low baseline reset threshold value for the sensor.
1038:Generated_Source\PSoC4/CapSense_CSHL.c ****     *
1039:Generated_Source\PSoC4/CapSense_CSHL.c ****     * Parameters:
1040:Generated_Source\PSoC4/CapSense_CSHL.c ****     *  value: low baseline reset threshold value.
1041:Generated_Source\PSoC4/CapSense_CSHL.c ****     *  sensor: Sensor index.
1042:Generated_Source\PSoC4/CapSense_CSHL.c ****     *
1043:Generated_Source\PSoC4/CapSense_CSHL.c ****     * Return Value:
1044:Generated_Source\PSoC4/CapSense_CSHL.c ****     *  None
1045:Generated_Source\PSoC4/CapSense_CSHL.c ****     *
1046:Generated_Source\PSoC4/CapSense_CSHL.c ****     * Global Variables:
1047:Generated_Source\PSoC4/CapSense_CSHL.c ****     *  CapSense_lowBaselineReset[] - This array contains the Baseline update
1048:Generated_Source\PSoC4/CapSense_CSHL.c ****     *  threshold value for each sensor.
1049:Generated_Source\PSoC4/CapSense_CSHL.c ****     *
1050:Generated_Source\PSoC4/CapSense_CSHL.c ****     * Side Effects:
1051:Generated_Source\PSoC4/CapSense_CSHL.c ****     *  None
1052:Generated_Source\PSoC4/CapSense_CSHL.c ****     *
1053:Generated_Source\PSoC4/CapSense_CSHL.c ****     *******************************************************************************/
1054:Generated_Source\PSoC4/CapSense_CSHL.c ****     void CapSense_SetLowBaselineReset(uint32 sensor, uint8 value)
1055:Generated_Source\PSoC4/CapSense_CSHL.c ****     {
 1419              		.loc 1 1055 0
 1420              		.cfi_startproc
 1421              		@ args = 0, pretend = 0, frame = 8
 1422              		@ frame_needed = 1, uses_anonymous_args = 0
 1423 0000 80B5     		push	{r7, lr}
 1424              		.cfi_def_cfa_offset 8
 1425              		.cfi_offset 7, -8
 1426              		.cfi_offset 14, -4
 1427 0002 82B0     		sub	sp, sp, #8
 1428              		.cfi_def_cfa_offset 16
 1429 0004 00AF     		add	r7, sp, #0
 1430              		.cfi_def_cfa_register 7
 1431 0006 7860     		str	r0, [r7, #4]
 1432 0008 0A00     		movs	r2, r1
 1433 000a FB1C     		adds	r3, r7, #3
 1434 000c 1A70     		strb	r2, [r3]
1056:Generated_Source\PSoC4/CapSense_CSHL.c ****         CapSense_lowBaselineReset[sensor] = value;
 1435              		.loc 1 1056 0
 1436 000e 054A     		ldr	r2, .L90
 1437 0010 7B68     		ldr	r3, [r7, #4]
 1438 0012 D318     		adds	r3, r2, r3
 1439 0014 FA1C     		adds	r2, r7, #3
ARM GAS  C:\Users\PC\AppData\Local\Temp\ccBgQfEQ.s 			page 45


 1440 0016 1278     		ldrb	r2, [r2]
 1441 0018 1A70     		strb	r2, [r3]
1057:Generated_Source\PSoC4/CapSense_CSHL.c ****     }
 1442              		.loc 1 1057 0
 1443 001a C046     		nop
 1444 001c BD46     		mov	sp, r7
 1445 001e 02B0     		add	sp, sp, #8
 1446              		@ sp needed
 1447 0020 80BD     		pop	{r7, pc}
 1448              	.L91:
 1449 0022 C046     		.align	2
 1450              	.L90:
 1451 0024 00000000 		.word	CapSense_lowBaselineReset
 1452              		.cfi_endproc
 1453              	.LFE57:
 1454              		.size	CapSense_SetLowBaselineReset, .-CapSense_SetLowBaselineReset
 1455              		.section	.text.CapSense_CheckIsSensorActive,"ax",%progbits
 1456              		.align	2
 1457              		.global	CapSense_CheckIsSensorActive
 1458              		.code	16
 1459              		.thumb_func
 1460              		.type	CapSense_CheckIsSensorActive, %function
 1461              	CapSense_CheckIsSensorActive:
 1462              	.LFB58:
1058:Generated_Source\PSoC4/CapSense_CSHL.c **** #endif /* (CapSense_TUNING_METHOD != CapSense__TUNING_NONE) */
1059:Generated_Source\PSoC4/CapSense_CSHL.c **** 
1060:Generated_Source\PSoC4/CapSense_CSHL.c **** 
1061:Generated_Source\PSoC4/CapSense_CSHL.c **** /*******************************************************************************
1062:Generated_Source\PSoC4/CapSense_CSHL.c **** * Function Name: CapSense_CheckIsSensorActive
1063:Generated_Source\PSoC4/CapSense_CSHL.c **** ********************************************************************************
1064:Generated_Source\PSoC4/CapSense_CSHL.c **** *
1065:Generated_Source\PSoC4/CapSense_CSHL.c **** * Summary:
1066:Generated_Source\PSoC4/CapSense_CSHL.c **** *  Compares the CapSense_sensorSignal[sensor] array element to the finger
1067:Generated_Source\PSoC4/CapSense_CSHL.c **** *  threshold of the widget it belongs to. The hysteresis and debounce are taken into
1068:Generated_Source\PSoC4/CapSense_CSHL.c **** *  account. The hysteresis is added or subtracted from the finger threshold
1069:Generated_Source\PSoC4/CapSense_CSHL.c **** *  based on whether the sensor is currently active.
1070:Generated_Source\PSoC4/CapSense_CSHL.c **** *  If the sensor is active, the threshold is lowered by the hysteresis amount.
1071:Generated_Source\PSoC4/CapSense_CSHL.c **** *  If the sensor is inactive, the threshold is raised by the hysteresis amount.
1072:Generated_Source\PSoC4/CapSense_CSHL.c **** *  The debounce counter is added to the sensor active transition.
1073:Generated_Source\PSoC4/CapSense_CSHL.c **** *  This function updates the CapSense_sensorOnMask[] array element.
1074:Generated_Source\PSoC4/CapSense_CSHL.c **** *
1075:Generated_Source\PSoC4/CapSense_CSHL.c **** * Parameters:
1076:Generated_Source\PSoC4/CapSense_CSHL.c **** *  sensor:  Sensor number.
1077:Generated_Source\PSoC4/CapSense_CSHL.c **** *
1078:Generated_Source\PSoC4/CapSense_CSHL.c **** * Return:
1079:Generated_Source\PSoC4/CapSense_CSHL.c **** *  Returns sensor state 1 if active, 0 if not active.
1080:Generated_Source\PSoC4/CapSense_CSHL.c **** *
1081:Generated_Source\PSoC4/CapSense_CSHL.c **** * Global Variables:
1082:Generated_Source\PSoC4/CapSense_CSHL.c **** *  CapSense_sensorSignal[] - used to store the difference between
1083:Generated_Source\PSoC4/CapSense_CSHL.c **** *  the current value of raw data and a previous value of the baseline.
1084:Generated_Source\PSoC4/CapSense_CSHL.c **** *  CapSense_debounceCounter[]   - used to store the current debounce
1085:Generated_Source\PSoC4/CapSense_CSHL.c **** *  counter of the sensor. the widget which have this parameter are buttons, matrix
1086:Generated_Source\PSoC4/CapSense_CSHL.c **** *  buttons, proximity, and guard. All other widgets don't have the  debounce parameter
1087:Generated_Source\PSoC4/CapSense_CSHL.c **** *  and use the last element of this array with value 0 (it means no debounce).
1088:Generated_Source\PSoC4/CapSense_CSHL.c **** *  CapSense_sensorOnMask[] - used to store the sensors on/off state.
1089:Generated_Source\PSoC4/CapSense_CSHL.c **** *  CapSense_sensorOnMask[0] contains the masked bits for sensors
1090:Generated_Source\PSoC4/CapSense_CSHL.c **** *   0 through 7 (sensor 0 is bit 0, sensor 1 is bit 1).
ARM GAS  C:\Users\PC\AppData\Local\Temp\ccBgQfEQ.s 			page 46


1091:Generated_Source\PSoC4/CapSense_CSHL.c **** *  CapSense_sensorEnableMask[1] contains the masked bits for
1092:Generated_Source\PSoC4/CapSense_CSHL.c **** *  sensors 8 through 15 (if needed), and so on.
1093:Generated_Source\PSoC4/CapSense_CSHL.c **** *  0 - sensor is inactive.
1094:Generated_Source\PSoC4/CapSense_CSHL.c **** *  1 - sensor is active.
1095:Generated_Source\PSoC4/CapSense_CSHL.c **** *
1096:Generated_Source\PSoC4/CapSense_CSHL.c **** * Side Effects:
1097:Generated_Source\PSoC4/CapSense_CSHL.c **** *  None
1098:Generated_Source\PSoC4/CapSense_CSHL.c **** *
1099:Generated_Source\PSoC4/CapSense_CSHL.c **** *******************************************************************************/
1100:Generated_Source\PSoC4/CapSense_CSHL.c **** uint32 CapSense_CheckIsSensorActive(uint32 sensor)
1101:Generated_Source\PSoC4/CapSense_CSHL.c **** {
 1463              		.loc 1 1101 0
 1464              		.cfi_startproc
 1465              		@ args = 0, pretend = 0, frame = 16
 1466              		@ frame_needed = 1, uses_anonymous_args = 0
 1467 0000 80B5     		push	{r7, lr}
 1468              		.cfi_def_cfa_offset 8
 1469              		.cfi_offset 7, -8
 1470              		.cfi_offset 14, -4
 1471 0002 84B0     		sub	sp, sp, #16
 1472              		.cfi_def_cfa_offset 24
 1473 0004 00AF     		add	r7, sp, #0
 1474              		.cfi_def_cfa_register 7
 1475 0006 7860     		str	r0, [r7, #4]
1102:Generated_Source\PSoC4/CapSense_CSHL.c ****     uint8 widget;
1103:Generated_Source\PSoC4/CapSense_CSHL.c ****     uint8 debounce;
1104:Generated_Source\PSoC4/CapSense_CSHL.c ****     uint8 debounceIndex;
1105:Generated_Source\PSoC4/CapSense_CSHL.c **** 
1106:Generated_Source\PSoC4/CapSense_CSHL.c ****     uint8 fingerThreshold;
1107:Generated_Source\PSoC4/CapSense_CSHL.c ****     uint8 hysteresis;
1108:Generated_Source\PSoC4/CapSense_CSHL.c ****     
1109:Generated_Source\PSoC4/CapSense_CSHL.c **** 
1110:Generated_Source\PSoC4/CapSense_CSHL.c ****     /* Prepare to find debounce counter index */
1111:Generated_Source\PSoC4/CapSense_CSHL.c ****     widget = CapSense_widgetNumber[sensor];
 1476              		.loc 1 1111 0
 1477 0008 0F23     		movs	r3, #15
 1478 000a FB18     		adds	r3, r7, r3
 1479 000c 4149     		ldr	r1, .L101
 1480 000e 7A68     		ldr	r2, [r7, #4]
 1481 0010 8A18     		adds	r2, r1, r2
 1482 0012 1278     		ldrb	r2, [r2]
 1483 0014 1A70     		strb	r2, [r3]
1112:Generated_Source\PSoC4/CapSense_CSHL.c **** 
1113:Generated_Source\PSoC4/CapSense_CSHL.c ****     fingerThreshold = CapSense_fingerThreshold[widget];
 1484              		.loc 1 1113 0
 1485 0016 0F23     		movs	r3, #15
 1486 0018 FB18     		adds	r3, r7, r3
 1487 001a 1A78     		ldrb	r2, [r3]
 1488 001c 0E23     		movs	r3, #14
 1489 001e FB18     		adds	r3, r7, r3
 1490 0020 3D49     		ldr	r1, .L101+4
 1491 0022 8A5C     		ldrb	r2, [r1, r2]
 1492 0024 1A70     		strb	r2, [r3]
1114:Generated_Source\PSoC4/CapSense_CSHL.c ****     hysteresis = CapSense_hysteresis[widget];
 1493              		.loc 1 1114 0
 1494 0026 0F23     		movs	r3, #15
 1495 0028 FB18     		adds	r3, r7, r3
ARM GAS  C:\Users\PC\AppData\Local\Temp\ccBgQfEQ.s 			page 47


 1496 002a 1A78     		ldrb	r2, [r3]
 1497 002c 0D23     		movs	r3, #13
 1498 002e FB18     		adds	r3, r7, r3
 1499 0030 3A49     		ldr	r1, .L101+8
 1500 0032 8A5C     		ldrb	r2, [r1, r2]
 1501 0034 1A70     		strb	r2, [r3]
1115:Generated_Source\PSoC4/CapSense_CSHL.c ****     debounce = CapSense_debounce[widget];
 1502              		.loc 1 1115 0
 1503 0036 0F23     		movs	r3, #15
 1504 0038 FB18     		adds	r3, r7, r3
 1505 003a 1A78     		ldrb	r2, [r3]
 1506 003c 0C23     		movs	r3, #12
 1507 003e FB18     		adds	r3, r7, r3
 1508 0040 3749     		ldr	r1, .L101+12
 1509 0042 8A5C     		ldrb	r2, [r1, r2]
 1510 0044 1A70     		strb	r2, [r3]
1116:Generated_Source\PSoC4/CapSense_CSHL.c **** 
1117:Generated_Source\PSoC4/CapSense_CSHL.c ****         debounceIndex = widget;
 1511              		.loc 1 1117 0
 1512 0046 0B23     		movs	r3, #11
 1513 0048 FB18     		adds	r3, r7, r3
 1514 004a 0F22     		movs	r2, #15
 1515 004c BA18     		adds	r2, r7, r2
 1516 004e 1278     		ldrb	r2, [r2]
 1517 0050 1A70     		strb	r2, [r3]
1118:Generated_Source\PSoC4/CapSense_CSHL.c **** 
1119:Generated_Source\PSoC4/CapSense_CSHL.c **** 
1120:Generated_Source\PSoC4/CapSense_CSHL.c ****     /* Was on */
1121:Generated_Source\PSoC4/CapSense_CSHL.c ****     if (0u != CapSense_GetBitValue(CapSense_sensorOnMask, sensor))
 1518              		.loc 1 1121 0
 1519 0052 7A68     		ldr	r2, [r7, #4]
 1520 0054 334B     		ldr	r3, .L101+16
 1521 0056 1100     		movs	r1, r2
 1522 0058 1800     		movs	r0, r3
 1523 005a FFF7FEFF 		bl	CapSense_GetBitValue
 1524 005e 031E     		subs	r3, r0, #0
 1525 0060 1CD0     		beq	.L93
1122:Generated_Source\PSoC4/CapSense_CSHL.c ****     {
1123:Generated_Source\PSoC4/CapSense_CSHL.c ****         /* Hysteresis minus */
1124:Generated_Source\PSoC4/CapSense_CSHL.c ****         if (CapSense_sensorSignal[sensor] < (fingerThreshold - hysteresis))
 1526              		.loc 1 1124 0
 1527 0062 314A     		ldr	r2, .L101+20
 1528 0064 7B68     		ldr	r3, [r7, #4]
 1529 0066 D318     		adds	r3, r2, r3
 1530 0068 1B78     		ldrb	r3, [r3]
 1531 006a 1900     		movs	r1, r3
 1532 006c 0E23     		movs	r3, #14
 1533 006e FB18     		adds	r3, r7, r3
 1534 0070 1A78     		ldrb	r2, [r3]
 1535 0072 0D23     		movs	r3, #13
 1536 0074 FB18     		adds	r3, r7, r3
 1537 0076 1B78     		ldrb	r3, [r3]
 1538 0078 D31A     		subs	r3, r2, r3
 1539 007a 9942     		cmp	r1, r3
 1540 007c 3BDA     		bge	.L95
1125:Generated_Source\PSoC4/CapSense_CSHL.c ****         {
1126:Generated_Source\PSoC4/CapSense_CSHL.c ****             CapSense_SetBitValue(CapSense_sensorOnMask, sensor, 0u);
ARM GAS  C:\Users\PC\AppData\Local\Temp\ccBgQfEQ.s 			page 48


 1541              		.loc 1 1126 0
 1542 007e 7968     		ldr	r1, [r7, #4]
 1543 0080 284B     		ldr	r3, .L101+16
 1544 0082 0022     		movs	r2, #0
 1545 0084 1800     		movs	r0, r3
 1546 0086 FFF7FEFF 		bl	CapSense_SetBitValue
1127:Generated_Source\PSoC4/CapSense_CSHL.c ****             /* Sensor inactive - reset Debounce counter */
1128:Generated_Source\PSoC4/CapSense_CSHL.c ****             CapSense_debounceCounter[debounceIndex] = debounce;
 1547              		.loc 1 1128 0
 1548 008a 0B23     		movs	r3, #11
 1549 008c FB18     		adds	r3, r7, r3
 1550 008e 1B78     		ldrb	r3, [r3]
 1551 0090 264A     		ldr	r2, .L101+24
 1552 0092 0C21     		movs	r1, #12
 1553 0094 7918     		adds	r1, r7, r1
 1554 0096 0978     		ldrb	r1, [r1]
 1555 0098 D154     		strb	r1, [r2, r3]
 1556 009a 2CE0     		b	.L95
 1557              	.L93:
1129:Generated_Source\PSoC4/CapSense_CSHL.c ****         }
1130:Generated_Source\PSoC4/CapSense_CSHL.c ****     }
1131:Generated_Source\PSoC4/CapSense_CSHL.c ****     else    /* Was off */
1132:Generated_Source\PSoC4/CapSense_CSHL.c ****     {
1133:Generated_Source\PSoC4/CapSense_CSHL.c ****         /* Hysteresis plus */
1134:Generated_Source\PSoC4/CapSense_CSHL.c ****         if (CapSense_sensorSignal[sensor] >= (fingerThreshold + hysteresis))
 1558              		.loc 1 1134 0
 1559 009c 224A     		ldr	r2, .L101+20
 1560 009e 7B68     		ldr	r3, [r7, #4]
 1561 00a0 D318     		adds	r3, r2, r3
 1562 00a2 1B78     		ldrb	r3, [r3]
 1563 00a4 1900     		movs	r1, r3
 1564 00a6 0E23     		movs	r3, #14
 1565 00a8 FB18     		adds	r3, r7, r3
 1566 00aa 1A78     		ldrb	r2, [r3]
 1567 00ac 0D23     		movs	r3, #13
 1568 00ae FB18     		adds	r3, r7, r3
 1569 00b0 1B78     		ldrb	r3, [r3]
 1570 00b2 D318     		adds	r3, r2, r3
 1571 00b4 9942     		cmp	r1, r3
 1572 00b6 16DB     		blt	.L96
1135:Generated_Source\PSoC4/CapSense_CSHL.c ****         {
1136:Generated_Source\PSoC4/CapSense_CSHL.c ****             CapSense_debounceCounter[debounceIndex]--;
 1573              		.loc 1 1136 0
 1574 00b8 0B23     		movs	r3, #11
 1575 00ba FB18     		adds	r3, r7, r3
 1576 00bc 1B78     		ldrb	r3, [r3]
 1577 00be 1B4A     		ldr	r2, .L101+24
 1578 00c0 D25C     		ldrb	r2, [r2, r3]
 1579 00c2 013A     		subs	r2, r2, #1
 1580 00c4 D1B2     		uxtb	r1, r2
 1581 00c6 194A     		ldr	r2, .L101+24
 1582 00c8 D154     		strb	r1, [r2, r3]
1137:Generated_Source\PSoC4/CapSense_CSHL.c ****             /* Sensor active, decrement debounce counter */
1138:Generated_Source\PSoC4/CapSense_CSHL.c ****             if(CapSense_debounceCounter[debounceIndex] == 0u)
 1583              		.loc 1 1138 0
 1584 00ca 0B23     		movs	r3, #11
 1585 00cc FB18     		adds	r3, r7, r3
ARM GAS  C:\Users\PC\AppData\Local\Temp\ccBgQfEQ.s 			page 49


 1586 00ce 1B78     		ldrb	r3, [r3]
 1587 00d0 164A     		ldr	r2, .L101+24
 1588 00d2 D35C     		ldrb	r3, [r2, r3]
 1589 00d4 002B     		cmp	r3, #0
 1590 00d6 0ED1     		bne	.L95
1139:Generated_Source\PSoC4/CapSense_CSHL.c ****             {
1140:Generated_Source\PSoC4/CapSense_CSHL.c ****                 CapSense_SetBitValue(CapSense_sensorOnMask, sensor, 1u);
 1591              		.loc 1 1140 0
 1592 00d8 7968     		ldr	r1, [r7, #4]
 1593 00da 124B     		ldr	r3, .L101+16
 1594 00dc 0122     		movs	r2, #1
 1595 00de 1800     		movs	r0, r3
 1596 00e0 FFF7FEFF 		bl	CapSense_SetBitValue
 1597 00e4 07E0     		b	.L95
 1598              	.L96:
1141:Generated_Source\PSoC4/CapSense_CSHL.c ****             }
1142:Generated_Source\PSoC4/CapSense_CSHL.c ****         }
1143:Generated_Source\PSoC4/CapSense_CSHL.c ****         else
1144:Generated_Source\PSoC4/CapSense_CSHL.c ****         {
1145:Generated_Source\PSoC4/CapSense_CSHL.c ****             /* Sensor inactive - reset Debounce counter */
1146:Generated_Source\PSoC4/CapSense_CSHL.c ****             CapSense_debounceCounter[debounceIndex] = debounce;
 1599              		.loc 1 1146 0
 1600 00e6 0B23     		movs	r3, #11
 1601 00e8 FB18     		adds	r3, r7, r3
 1602 00ea 1B78     		ldrb	r3, [r3]
 1603 00ec 0F4A     		ldr	r2, .L101+24
 1604 00ee 0C21     		movs	r1, #12
 1605 00f0 7918     		adds	r1, r7, r1
 1606 00f2 0978     		ldrb	r1, [r1]
 1607 00f4 D154     		strb	r1, [r2, r3]
 1608              	.L95:
1147:Generated_Source\PSoC4/CapSense_CSHL.c ****         }
1148:Generated_Source\PSoC4/CapSense_CSHL.c ****     }
1149:Generated_Source\PSoC4/CapSense_CSHL.c **** 
1150:Generated_Source\PSoC4/CapSense_CSHL.c ****     return ((uint32)((0u != CapSense_GetBitValue(CapSense_sensorOnMask, sensor)) ? 1u : 0u));
 1609              		.loc 1 1150 0
 1610 00f6 7A68     		ldr	r2, [r7, #4]
 1611 00f8 0A4B     		ldr	r3, .L101+16
 1612 00fa 1100     		movs	r1, r2
 1613 00fc 1800     		movs	r0, r3
 1614 00fe FFF7FEFF 		bl	CapSense_GetBitValue
 1615 0102 031E     		subs	r3, r0, #0
 1616 0104 01D0     		beq	.L98
 1617              		.loc 1 1150 0 is_stmt 0 discriminator 1
 1618 0106 0123     		movs	r3, #1
 1619 0108 00E0     		b	.L100
 1620              	.L98:
 1621              		.loc 1 1150 0 discriminator 2
 1622 010a 0023     		movs	r3, #0
 1623              	.L100:
1151:Generated_Source\PSoC4/CapSense_CSHL.c **** }
 1624              		.loc 1 1151 0 is_stmt 1 discriminator 5
 1625 010c 1800     		movs	r0, r3
 1626 010e BD46     		mov	sp, r7
 1627 0110 04B0     		add	sp, sp, #16
 1628              		@ sp needed
 1629 0112 80BD     		pop	{r7, pc}
ARM GAS  C:\Users\PC\AppData\Local\Temp\ccBgQfEQ.s 			page 50


 1630              	.L102:
 1631              		.align	2
 1632              	.L101:
 1633 0114 00000000 		.word	CapSense_widgetNumber
 1634 0118 00000000 		.word	CapSense_fingerThreshold
 1635 011c 00000000 		.word	CapSense_hysteresis
 1636 0120 00000000 		.word	CapSense_debounce
 1637 0124 00000000 		.word	CapSense_sensorOnMask
 1638 0128 00000000 		.word	CapSense_sensorSignal
 1639 012c 10000000 		.word	CapSense_debounceCounter
 1640              		.cfi_endproc
 1641              	.LFE58:
 1642              		.size	CapSense_CheckIsSensorActive, .-CapSense_CheckIsSensorActive
 1643              		.section	.text.CapSense_CheckIsWidgetActive,"ax",%progbits
 1644              		.align	2
 1645              		.global	CapSense_CheckIsWidgetActive
 1646              		.code	16
 1647              		.thumb_func
 1648              		.type	CapSense_CheckIsWidgetActive, %function
 1649              	CapSense_CheckIsWidgetActive:
 1650              	.LFB59:
1152:Generated_Source\PSoC4/CapSense_CSHL.c **** 
1153:Generated_Source\PSoC4/CapSense_CSHL.c **** 
1154:Generated_Source\PSoC4/CapSense_CSHL.c **** /*******************************************************************************
1155:Generated_Source\PSoC4/CapSense_CSHL.c **** * Function Name: CapSense_CheckIsWidgetActive
1156:Generated_Source\PSoC4/CapSense_CSHL.c **** ********************************************************************************
1157:Generated_Source\PSoC4/CapSense_CSHL.c **** *
1158:Generated_Source\PSoC4/CapSense_CSHL.c **** * Summary:
1159:Generated_Source\PSoC4/CapSense_CSHL.c **** *  Compares the CapSense_sensorSignal[] array element to the finger threshold of
1160:Generated_Source\PSoC4/CapSense_CSHL.c **** * the widget it belongs to. The hysteresis and debounce are taken into account.
1161:Generated_Source\PSoC4/CapSense_CSHL.c **** * The hysteresis is added or subtracted from the finger threshold based on whether
1162:Generated_Source\PSoC4/CapSense_CSHL.c **** *  the sensor is currently active. If the sensor is active, the threshold is
1163:Generated_Source\PSoC4/CapSense_CSHL.c **** *  lowered by the hysteresis amount. If the sensor is inactive, the threshold
1164:Generated_Source\PSoC4/CapSense_CSHL.c **** *  is raised by the hysteresis amount.
1165:Generated_Source\PSoC4/CapSense_CSHL.c **** * The debounce counter added to the sensor active transition.
1166:Generated_Source\PSoC4/CapSense_CSHL.c **** * This function updates CapSense_sensorOnMask[] array element
1167:Generated_Source\PSoC4/CapSense_CSHL.c **** *
1168:Generated_Source\PSoC4/CapSense_CSHL.c **** * Parameters:
1169:Generated_Source\PSoC4/CapSense_CSHL.c **** *  widget:  widget number.
1170:Generated_Source\PSoC4/CapSense_CSHL.c **** *
1171:Generated_Source\PSoC4/CapSense_CSHL.c **** * Return:
1172:Generated_Source\PSoC4/CapSense_CSHL.c **** *  Returns widget sensor state 1 if one or more sensors within widget is/are
1173:Generated_Source\PSoC4/CapSense_CSHL.c **** *  active, 0 if all sensors within widget are inactive.
1174:Generated_Source\PSoC4/CapSense_CSHL.c **** *
1175:Generated_Source\PSoC4/CapSense_CSHL.c **** * Global Variables:
1176:Generated_Source\PSoC4/CapSense_CSHL.c **** *  rawDataIndex[]: Contains the  1st sensor position in the widget
1177:Generated_Source\PSoC4/CapSense_CSHL.c **** *
1178:Generated_Source\PSoC4/CapSense_CSHL.c **** * Side Effects:
1179:Generated_Source\PSoC4/CapSense_CSHL.c **** *  None
1180:Generated_Source\PSoC4/CapSense_CSHL.c **** *
1181:Generated_Source\PSoC4/CapSense_CSHL.c **** *******************************************************************************/
1182:Generated_Source\PSoC4/CapSense_CSHL.c **** uint32 CapSense_CheckIsWidgetActive(uint32 widget)
1183:Generated_Source\PSoC4/CapSense_CSHL.c **** {
 1651              		.loc 1 1183 0
 1652              		.cfi_startproc
 1653              		@ args = 0, pretend = 0, frame = 24
 1654              		@ frame_needed = 1, uses_anonymous_args = 0
ARM GAS  C:\Users\PC\AppData\Local\Temp\ccBgQfEQ.s 			page 51


 1655 0000 80B5     		push	{r7, lr}
 1656              		.cfi_def_cfa_offset 8
 1657              		.cfi_offset 7, -8
 1658              		.cfi_offset 14, -4
 1659 0002 86B0     		sub	sp, sp, #24
 1660              		.cfi_def_cfa_offset 32
 1661 0004 00AF     		add	r7, sp, #0
 1662              		.cfi_def_cfa_register 7
 1663 0006 7860     		str	r0, [r7, #4]
1184:Generated_Source\PSoC4/CapSense_CSHL.c ****     uint32 rawIndex = (uint32)CapSense_rawDataIndex[widget];
 1664              		.loc 1 1184 0
 1665 0008 0023     		movs	r3, #0
 1666 000a 7B61     		str	r3, [r7, #20]
1185:Generated_Source\PSoC4/CapSense_CSHL.c ****     uint32 numOfSensors = (uint32)CapSense_numberOfSensors[widget] + rawIndex;
 1667              		.loc 1 1185 0
 1668 000c 0123     		movs	r3, #1
 1669 000e 1A00     		movs	r2, r3
 1670 0010 7B69     		ldr	r3, [r7, #20]
 1671 0012 D318     		adds	r3, r2, r3
 1672 0014 FB60     		str	r3, [r7, #12]
1186:Generated_Source\PSoC4/CapSense_CSHL.c ****     uint32 state = 0u;
 1673              		.loc 1 1186 0
 1674 0016 0023     		movs	r3, #0
 1675 0018 3B61     		str	r3, [r7, #16]
 1676              	.L105:
1187:Generated_Source\PSoC4/CapSense_CSHL.c **** 
1188:Generated_Source\PSoC4/CapSense_CSHL.c ****     /* Check all sensors of widget */
1189:Generated_Source\PSoC4/CapSense_CSHL.c ****     do
1190:Generated_Source\PSoC4/CapSense_CSHL.c ****     {
1191:Generated_Source\PSoC4/CapSense_CSHL.c ****         if(CapSense_CheckIsSensorActive((uint32)rawIndex) != 0u)
 1677              		.loc 1 1191 0
 1678 001a 7B69     		ldr	r3, [r7, #20]
 1679 001c 1800     		movs	r0, r3
 1680 001e FFF7FEFF 		bl	CapSense_CheckIsSensorActive
 1681 0022 031E     		subs	r3, r0, #0
 1682 0024 01D0     		beq	.L104
1192:Generated_Source\PSoC4/CapSense_CSHL.c ****         {
1193:Generated_Source\PSoC4/CapSense_CSHL.c ****             state = CapSense_SENSOR_IS_ACTIVE;
 1683              		.loc 1 1193 0
 1684 0026 0123     		movs	r3, #1
 1685 0028 3B61     		str	r3, [r7, #16]
 1686              	.L104:
1194:Generated_Source\PSoC4/CapSense_CSHL.c ****         }
1195:Generated_Source\PSoC4/CapSense_CSHL.c ****         rawIndex++;
 1687              		.loc 1 1195 0
 1688 002a 7B69     		ldr	r3, [r7, #20]
 1689 002c 0133     		adds	r3, r3, #1
 1690 002e 7B61     		str	r3, [r7, #20]
1196:Generated_Source\PSoC4/CapSense_CSHL.c ****     }
1197:Generated_Source\PSoC4/CapSense_CSHL.c ****     while(rawIndex < numOfSensors);
 1691              		.loc 1 1197 0
 1692 0030 7A69     		ldr	r2, [r7, #20]
 1693 0032 FB68     		ldr	r3, [r7, #12]
 1694 0034 9A42     		cmp	r2, r3
 1695 0036 F0D3     		bcc	.L105
1198:Generated_Source\PSoC4/CapSense_CSHL.c **** 
1199:Generated_Source\PSoC4/CapSense_CSHL.c **** 
ARM GAS  C:\Users\PC\AppData\Local\Temp\ccBgQfEQ.s 			page 52


1200:Generated_Source\PSoC4/CapSense_CSHL.c **** 
1201:Generated_Source\PSoC4/CapSense_CSHL.c ****     return state;
 1696              		.loc 1 1201 0
 1697 0038 3B69     		ldr	r3, [r7, #16]
1202:Generated_Source\PSoC4/CapSense_CSHL.c **** }
 1698              		.loc 1 1202 0
 1699 003a 1800     		movs	r0, r3
 1700 003c BD46     		mov	sp, r7
 1701 003e 06B0     		add	sp, sp, #24
 1702              		@ sp needed
 1703 0040 80BD     		pop	{r7, pc}
 1704              		.cfi_endproc
 1705              	.LFE59:
 1706              		.size	CapSense_CheckIsWidgetActive, .-CapSense_CheckIsWidgetActive
 1707 0042 C046     		.section	.text.CapSense_CheckIsAnyWidgetActive,"ax",%progbits
 1708              		.align	2
 1709              		.global	CapSense_CheckIsAnyWidgetActive
 1710              		.code	16
 1711              		.thumb_func
 1712              		.type	CapSense_CheckIsAnyWidgetActive, %function
 1713              	CapSense_CheckIsAnyWidgetActive:
 1714              	.LFB60:
1203:Generated_Source\PSoC4/CapSense_CSHL.c **** 
1204:Generated_Source\PSoC4/CapSense_CSHL.c **** 
1205:Generated_Source\PSoC4/CapSense_CSHL.c **** /*******************************************************************************
1206:Generated_Source\PSoC4/CapSense_CSHL.c **** * Function Name: CapSense_CheckIsAnyWidgetActive
1207:Generated_Source\PSoC4/CapSense_CSHL.c **** ********************************************************************************
1208:Generated_Source\PSoC4/CapSense_CSHL.c **** *
1209:Generated_Source\PSoC4/CapSense_CSHL.c **** * Summary:
1210:Generated_Source\PSoC4/CapSense_CSHL.c **** *  Compares all the sensors of the CapSense_Signal[] array to their finger
1211:Generated_Source\PSoC4/CapSense_CSHL.c **** *  threshold. Calls CapSense_CheckIsWidgetActive() for each widget so
1212:Generated_Source\PSoC4/CapSense_CSHL.c **** *  the CapSense_sensorOnMask[] array is up to date after calling this
1213:Generated_Source\PSoC4/CapSense_CSHL.c **** *  function.
1214:Generated_Source\PSoC4/CapSense_CSHL.c **** *
1215:Generated_Source\PSoC4/CapSense_CSHL.c **** * Parameters:
1216:Generated_Source\PSoC4/CapSense_CSHL.c **** *  widget:  widget number.
1217:Generated_Source\PSoC4/CapSense_CSHL.c **** *
1218:Generated_Source\PSoC4/CapSense_CSHL.c **** * Return:
1219:Generated_Source\PSoC4/CapSense_CSHL.c **** *  Returns 1 if any widget is active, 0 none of widgets are active.
1220:Generated_Source\PSoC4/CapSense_CSHL.c **** *
1221:Generated_Source\PSoC4/CapSense_CSHL.c **** * Global Variables:
1222:Generated_Source\PSoC4/CapSense_CSHL.c **** *  None
1223:Generated_Source\PSoC4/CapSense_CSHL.c **** *
1224:Generated_Source\PSoC4/CapSense_CSHL.c **** * Side Effects:
1225:Generated_Source\PSoC4/CapSense_CSHL.c **** *  None
1226:Generated_Source\PSoC4/CapSense_CSHL.c **** *
1227:Generated_Source\PSoC4/CapSense_CSHL.c **** *******************************************************************************/
1228:Generated_Source\PSoC4/CapSense_CSHL.c **** uint32 CapSense_CheckIsAnyWidgetActive(void)
1229:Generated_Source\PSoC4/CapSense_CSHL.c **** {
 1715              		.loc 1 1229 0
 1716              		.cfi_startproc
 1717              		@ args = 0, pretend = 0, frame = 8
 1718              		@ frame_needed = 1, uses_anonymous_args = 0
 1719 0000 80B5     		push	{r7, lr}
 1720              		.cfi_def_cfa_offset 8
 1721              		.cfi_offset 7, -8
 1722              		.cfi_offset 14, -4
ARM GAS  C:\Users\PC\AppData\Local\Temp\ccBgQfEQ.s 			page 53


 1723 0002 82B0     		sub	sp, sp, #8
 1724              		.cfi_def_cfa_offset 16
 1725 0004 00AF     		add	r7, sp, #0
 1726              		.cfi_def_cfa_register 7
1230:Generated_Source\PSoC4/CapSense_CSHL.c **** 
1231:Generated_Source\PSoC4/CapSense_CSHL.c ****         uint32 i;
1232:Generated_Source\PSoC4/CapSense_CSHL.c ****     uint32 state = 0u;
 1727              		.loc 1 1232 0
 1728 0006 0023     		movs	r3, #0
 1729 0008 3B60     		str	r3, [r7]
1233:Generated_Source\PSoC4/CapSense_CSHL.c ****     
1234:Generated_Source\PSoC4/CapSense_CSHL.c ****     for(i = 0u; i < CapSense_TOTAL_WIDGET_COUNT; i++)
 1730              		.loc 1 1234 0
 1731 000a 0023     		movs	r3, #0
 1732 000c 7B60     		str	r3, [r7, #4]
 1733 000e 0AE0     		b	.L108
 1734              	.L110:
1235:Generated_Source\PSoC4/CapSense_CSHL.c ****     {
1236:Generated_Source\PSoC4/CapSense_CSHL.c ****         if (CapSense_CheckIsWidgetActive(i) != 0u)
 1735              		.loc 1 1236 0
 1736 0010 7B68     		ldr	r3, [r7, #4]
 1737 0012 1800     		movs	r0, r3
 1738 0014 FFF7FEFF 		bl	CapSense_CheckIsWidgetActive
 1739 0018 031E     		subs	r3, r0, #0
 1740 001a 01D0     		beq	.L109
1237:Generated_Source\PSoC4/CapSense_CSHL.c ****         {
1238:Generated_Source\PSoC4/CapSense_CSHL.c ****             state = CapSense_WIDGET_IS_ACTIVE;
 1741              		.loc 1 1238 0
 1742 001c 0123     		movs	r3, #1
 1743 001e 3B60     		str	r3, [r7]
 1744              	.L109:
1234:Generated_Source\PSoC4/CapSense_CSHL.c ****     {
 1745              		.loc 1 1234 0 discriminator 2
 1746 0020 7B68     		ldr	r3, [r7, #4]
 1747 0022 0133     		adds	r3, r3, #1
 1748 0024 7B60     		str	r3, [r7, #4]
 1749              	.L108:
1234:Generated_Source\PSoC4/CapSense_CSHL.c ****     {
 1750              		.loc 1 1234 0 is_stmt 0 discriminator 1
 1751 0026 7B68     		ldr	r3, [r7, #4]
 1752 0028 002B     		cmp	r3, #0
 1753 002a F1D0     		beq	.L110
1239:Generated_Source\PSoC4/CapSense_CSHL.c ****         }
1240:Generated_Source\PSoC4/CapSense_CSHL.c ****     }
1241:Generated_Source\PSoC4/CapSense_CSHL.c ****     
1242:Generated_Source\PSoC4/CapSense_CSHL.c **** 
1243:Generated_Source\PSoC4/CapSense_CSHL.c **** 
1244:Generated_Source\PSoC4/CapSense_CSHL.c ****     return state;
 1754              		.loc 1 1244 0 is_stmt 1
 1755 002c 3B68     		ldr	r3, [r7]
1245:Generated_Source\PSoC4/CapSense_CSHL.c **** }
 1756              		.loc 1 1245 0
 1757 002e 1800     		movs	r0, r3
 1758 0030 BD46     		mov	sp, r7
 1759 0032 02B0     		add	sp, sp, #8
 1760              		@ sp needed
 1761 0034 80BD     		pop	{r7, pc}
ARM GAS  C:\Users\PC\AppData\Local\Temp\ccBgQfEQ.s 			page 54


 1762              		.cfi_endproc
 1763              	.LFE60:
 1764              		.size	CapSense_CheckIsAnyWidgetActive, .-CapSense_CheckIsAnyWidgetActive
 1765 0036 C046     		.section	.text.CapSense_EnableWidget,"ax",%progbits
 1766              		.align	2
 1767              		.global	CapSense_EnableWidget
 1768              		.code	16
 1769              		.thumb_func
 1770              		.type	CapSense_EnableWidget, %function
 1771              	CapSense_EnableWidget:
 1772              	.LFB61:
1246:Generated_Source\PSoC4/CapSense_CSHL.c **** 
1247:Generated_Source\PSoC4/CapSense_CSHL.c **** 
1248:Generated_Source\PSoC4/CapSense_CSHL.c **** /*******************************************************************************
1249:Generated_Source\PSoC4/CapSense_CSHL.c **** * Function Name: CapSense_EnableWidget
1250:Generated_Source\PSoC4/CapSense_CSHL.c **** ********************************************************************************
1251:Generated_Source\PSoC4/CapSense_CSHL.c **** *
1252:Generated_Source\PSoC4/CapSense_CSHL.c **** * Summary:
1253:Generated_Source\PSoC4/CapSense_CSHL.c **** *  Enables all the widget elements (sensors) to the scanning process.
1254:Generated_Source\PSoC4/CapSense_CSHL.c **** *
1255:Generated_Source\PSoC4/CapSense_CSHL.c **** * Parameters:
1256:Generated_Source\PSoC4/CapSense_CSHL.c **** *  widget:  widget number.
1257:Generated_Source\PSoC4/CapSense_CSHL.c **** *
1258:Generated_Source\PSoC4/CapSense_CSHL.c **** * Return:
1259:Generated_Source\PSoC4/CapSense_CSHL.c **** *  None
1260:Generated_Source\PSoC4/CapSense_CSHL.c **** *
1261:Generated_Source\PSoC4/CapSense_CSHL.c **** * Global Variables:
1262:Generated_Source\PSoC4/CapSense_CSHL.c **** *  CapSense_sensorEnableMask[] - used to store the sensor scanning
1263:Generated_Source\PSoC4/CapSense_CSHL.c **** *  state.
1264:Generated_Source\PSoC4/CapSense_CSHL.c **** *  CapSense_sensorEnableMask[0] contains the masked bits for sensors
1265:Generated_Source\PSoC4/CapSense_CSHL.c **** *  0 through 7 (sensor 0 is bit 0, sensor 1 is bit 1).
1266:Generated_Source\PSoC4/CapSense_CSHL.c **** *  CapSense_sensorEnableMask[1] contains the masked bits for
1267:Generated_Source\PSoC4/CapSense_CSHL.c **** *  sensors 8 through 15 (if needed), and so on.
1268:Generated_Source\PSoC4/CapSense_CSHL.c **** *  0 - sensor doesn't scan by CapSense_ScanEnabledWidgets().
1269:Generated_Source\PSoC4/CapSense_CSHL.c **** *  1 - sensor scans by CapSense_ScanEnabledWidgets().
1270:Generated_Source\PSoC4/CapSense_CSHL.c **** *
1271:Generated_Source\PSoC4/CapSense_CSHL.c **** * Side Effects:
1272:Generated_Source\PSoC4/CapSense_CSHL.c **** *  None
1273:Generated_Source\PSoC4/CapSense_CSHL.c **** *
1274:Generated_Source\PSoC4/CapSense_CSHL.c **** *******************************************************************************/
1275:Generated_Source\PSoC4/CapSense_CSHL.c **** void CapSense_EnableWidget(uint32 widget)
1276:Generated_Source\PSoC4/CapSense_CSHL.c **** {
 1773              		.loc 1 1276 0
 1774              		.cfi_startproc
 1775              		@ args = 0, pretend = 0, frame = 16
 1776              		@ frame_needed = 1, uses_anonymous_args = 0
 1777 0000 80B5     		push	{r7, lr}
 1778              		.cfi_def_cfa_offset 8
 1779              		.cfi_offset 7, -8
 1780              		.cfi_offset 14, -4
 1781 0002 84B0     		sub	sp, sp, #16
 1782              		.cfi_def_cfa_offset 24
 1783 0004 00AF     		add	r7, sp, #0
 1784              		.cfi_def_cfa_register 7
 1785 0006 7860     		str	r0, [r7, #4]
1277:Generated_Source\PSoC4/CapSense_CSHL.c **** 
1278:Generated_Source\PSoC4/CapSense_CSHL.c ****     uint8 rawIndex = CapSense_rawDataIndex[widget];
ARM GAS  C:\Users\PC\AppData\Local\Temp\ccBgQfEQ.s 			page 55


 1786              		.loc 1 1278 0
 1787 0008 0F23     		movs	r3, #15
 1788 000a FB18     		adds	r3, r7, r3
 1789 000c 0022     		movs	r2, #0
 1790 000e 1A70     		strb	r2, [r3]
1279:Generated_Source\PSoC4/CapSense_CSHL.c ****     uint8 numOfSensors = CapSense_numberOfSensors[widget] + rawIndex;
 1791              		.loc 1 1279 0
 1792 0010 0121     		movs	r1, #1
 1793 0012 0E23     		movs	r3, #14
 1794 0014 FB18     		adds	r3, r7, r3
 1795 0016 0F22     		movs	r2, #15
 1796 0018 BA18     		adds	r2, r7, r2
 1797 001a 1278     		ldrb	r2, [r2]
 1798 001c 8A18     		adds	r2, r1, r2
 1799 001e 1A70     		strb	r2, [r3]
 1800              	.L113:
1280:Generated_Source\PSoC4/CapSense_CSHL.c **** 
1281:Generated_Source\PSoC4/CapSense_CSHL.c ****     /* Enable all sensors of widget */
1282:Generated_Source\PSoC4/CapSense_CSHL.c ****     do
1283:Generated_Source\PSoC4/CapSense_CSHL.c ****     {
1284:Generated_Source\PSoC4/CapSense_CSHL.c ****         CapSense_SetBitValue(CapSense_sensorEnableMask, (uint32)rawIndex, 1u);
 1801              		.loc 1 1284 0 discriminator 1
 1802 0020 0F23     		movs	r3, #15
 1803 0022 FB18     		adds	r3, r7, r3
 1804 0024 1978     		ldrb	r1, [r3]
 1805 0026 0C4B     		ldr	r3, .L114
 1806 0028 0122     		movs	r2, #1
 1807 002a 1800     		movs	r0, r3
 1808 002c FFF7FEFF 		bl	CapSense_SetBitValue
1285:Generated_Source\PSoC4/CapSense_CSHL.c ****         rawIndex++;
 1809              		.loc 1 1285 0 discriminator 1
 1810 0030 0F23     		movs	r3, #15
 1811 0032 FB18     		adds	r3, r7, r3
 1812 0034 1A78     		ldrb	r2, [r3]
 1813 0036 0F23     		movs	r3, #15
 1814 0038 FB18     		adds	r3, r7, r3
 1815 003a 0132     		adds	r2, r2, #1
 1816 003c 1A70     		strb	r2, [r3]
1286:Generated_Source\PSoC4/CapSense_CSHL.c ****     }
1287:Generated_Source\PSoC4/CapSense_CSHL.c ****     while(rawIndex < numOfSensors);
 1817              		.loc 1 1287 0 discriminator 1
 1818 003e 0F23     		movs	r3, #15
 1819 0040 FA18     		adds	r2, r7, r3
 1820 0042 0E23     		movs	r3, #14
 1821 0044 FB18     		adds	r3, r7, r3
 1822 0046 1278     		ldrb	r2, [r2]
 1823 0048 1B78     		ldrb	r3, [r3]
 1824 004a 9A42     		cmp	r2, r3
 1825 004c E8D3     		bcc	.L113
1288:Generated_Source\PSoC4/CapSense_CSHL.c **** }
 1826              		.loc 1 1288 0
 1827 004e C046     		nop
 1828 0050 BD46     		mov	sp, r7
 1829 0052 04B0     		add	sp, sp, #16
 1830              		@ sp needed
 1831 0054 80BD     		pop	{r7, pc}
 1832              	.L115:
ARM GAS  C:\Users\PC\AppData\Local\Temp\ccBgQfEQ.s 			page 56


 1833 0056 C046     		.align	2
 1834              	.L114:
 1835 0058 00000000 		.word	CapSense_sensorEnableMask
 1836              		.cfi_endproc
 1837              	.LFE61:
 1838              		.size	CapSense_EnableWidget, .-CapSense_EnableWidget
 1839              		.section	.text.CapSense_DisableWidget,"ax",%progbits
 1840              		.align	2
 1841              		.global	CapSense_DisableWidget
 1842              		.code	16
 1843              		.thumb_func
 1844              		.type	CapSense_DisableWidget, %function
 1845              	CapSense_DisableWidget:
 1846              	.LFB62:
1289:Generated_Source\PSoC4/CapSense_CSHL.c **** 
1290:Generated_Source\PSoC4/CapSense_CSHL.c **** 
1291:Generated_Source\PSoC4/CapSense_CSHL.c **** /*******************************************************************************
1292:Generated_Source\PSoC4/CapSense_CSHL.c **** * Function Name: CapSense_DisableWidget
1293:Generated_Source\PSoC4/CapSense_CSHL.c **** ********************************************************************************
1294:Generated_Source\PSoC4/CapSense_CSHL.c **** *
1295:Generated_Source\PSoC4/CapSense_CSHL.c **** * Summary:
1296:Generated_Source\PSoC4/CapSense_CSHL.c **** *  Disables all the widget elements (sensors) from the scanning process.
1297:Generated_Source\PSoC4/CapSense_CSHL.c **** *
1298:Generated_Source\PSoC4/CapSense_CSHL.c **** * Parameters:
1299:Generated_Source\PSoC4/CapSense_CSHL.c **** *  widget:  widget number.
1300:Generated_Source\PSoC4/CapSense_CSHL.c **** *
1301:Generated_Source\PSoC4/CapSense_CSHL.c **** * Return:
1302:Generated_Source\PSoC4/CapSense_CSHL.c **** *  None
1303:Generated_Source\PSoC4/CapSense_CSHL.c **** *
1304:Generated_Source\PSoC4/CapSense_CSHL.c **** * Global Variables:
1305:Generated_Source\PSoC4/CapSense_CSHL.c **** *  CapSense_sensorEnableMask[] - used to store the sensor scanning
1306:Generated_Source\PSoC4/CapSense_CSHL.c **** *  state.
1307:Generated_Source\PSoC4/CapSense_CSHL.c **** *  CapSense_sensorEnableMask[0] contains the masked bits for sensors
1308:Generated_Source\PSoC4/CapSense_CSHL.c **** *  0 through 7 (sensor 0 is bit 0, sensor 1 is bit 1).
1309:Generated_Source\PSoC4/CapSense_CSHL.c **** *  CapSense_sensorEnableMask[1] contains the masked bits for
1310:Generated_Source\PSoC4/CapSense_CSHL.c **** *  sensors 8 through 15 (if needed), and so on.
1311:Generated_Source\PSoC4/CapSense_CSHL.c **** *  0 - sensor isn't scanned by CapSense_ScanEnabledWidgets().
1312:Generated_Source\PSoC4/CapSense_CSHL.c **** *  1 - sensor is scanned by CapSense_ScanEnabledWidgets().
1313:Generated_Source\PSoC4/CapSense_CSHL.c **** *
1314:Generated_Source\PSoC4/CapSense_CSHL.c **** * Side Effects:
1315:Generated_Source\PSoC4/CapSense_CSHL.c **** *  None
1316:Generated_Source\PSoC4/CapSense_CSHL.c **** *
1317:Generated_Source\PSoC4/CapSense_CSHL.c **** *******************************************************************************/
1318:Generated_Source\PSoC4/CapSense_CSHL.c **** void CapSense_DisableWidget(uint32 widget)
1319:Generated_Source\PSoC4/CapSense_CSHL.c **** {
 1847              		.loc 1 1319 0
 1848              		.cfi_startproc
 1849              		@ args = 0, pretend = 0, frame = 16
 1850              		@ frame_needed = 1, uses_anonymous_args = 0
 1851 0000 80B5     		push	{r7, lr}
 1852              		.cfi_def_cfa_offset 8
 1853              		.cfi_offset 7, -8
 1854              		.cfi_offset 14, -4
 1855 0002 84B0     		sub	sp, sp, #16
 1856              		.cfi_def_cfa_offset 24
 1857 0004 00AF     		add	r7, sp, #0
 1858              		.cfi_def_cfa_register 7
ARM GAS  C:\Users\PC\AppData\Local\Temp\ccBgQfEQ.s 			page 57


 1859 0006 7860     		str	r0, [r7, #4]
1320:Generated_Source\PSoC4/CapSense_CSHL.c ****     uint8 rawIndex = CapSense_rawDataIndex[widget];
 1860              		.loc 1 1320 0
 1861 0008 0F23     		movs	r3, #15
 1862 000a FB18     		adds	r3, r7, r3
 1863 000c 0022     		movs	r2, #0
 1864 000e 1A70     		strb	r2, [r3]
1321:Generated_Source\PSoC4/CapSense_CSHL.c ****     uint8 numOfSensors = CapSense_numberOfSensors[widget] + rawIndex;
 1865              		.loc 1 1321 0
 1866 0010 0121     		movs	r1, #1
 1867 0012 0E23     		movs	r3, #14
 1868 0014 FB18     		adds	r3, r7, r3
 1869 0016 0F22     		movs	r2, #15
 1870 0018 BA18     		adds	r2, r7, r2
 1871 001a 1278     		ldrb	r2, [r2]
 1872 001c 8A18     		adds	r2, r1, r2
 1873 001e 1A70     		strb	r2, [r3]
 1874              	.L117:
1322:Generated_Source\PSoC4/CapSense_CSHL.c **** 
1323:Generated_Source\PSoC4/CapSense_CSHL.c ****     /* Disable all sensors of widget */
1324:Generated_Source\PSoC4/CapSense_CSHL.c ****     do
1325:Generated_Source\PSoC4/CapSense_CSHL.c ****     {
1326:Generated_Source\PSoC4/CapSense_CSHL.c **** 
1327:Generated_Source\PSoC4/CapSense_CSHL.c ****         CapSense_SetBitValue(CapSense_sensorEnableMask, (uint32)rawIndex, 0u);
 1875              		.loc 1 1327 0 discriminator 1
 1876 0020 0F23     		movs	r3, #15
 1877 0022 FB18     		adds	r3, r7, r3
 1878 0024 1978     		ldrb	r1, [r3]
 1879 0026 0C4B     		ldr	r3, .L118
 1880 0028 0022     		movs	r2, #0
 1881 002a 1800     		movs	r0, r3
 1882 002c FFF7FEFF 		bl	CapSense_SetBitValue
1328:Generated_Source\PSoC4/CapSense_CSHL.c ****         rawIndex++;
 1883              		.loc 1 1328 0 discriminator 1
 1884 0030 0F23     		movs	r3, #15
 1885 0032 FB18     		adds	r3, r7, r3
 1886 0034 1A78     		ldrb	r2, [r3]
 1887 0036 0F23     		movs	r3, #15
 1888 0038 FB18     		adds	r3, r7, r3
 1889 003a 0132     		adds	r2, r2, #1
 1890 003c 1A70     		strb	r2, [r3]
1329:Generated_Source\PSoC4/CapSense_CSHL.c ****     }
1330:Generated_Source\PSoC4/CapSense_CSHL.c ****     while(rawIndex < numOfSensors);
 1891              		.loc 1 1330 0 discriminator 1
 1892 003e 0F23     		movs	r3, #15
 1893 0040 FA18     		adds	r2, r7, r3
 1894 0042 0E23     		movs	r3, #14
 1895 0044 FB18     		adds	r3, r7, r3
 1896 0046 1278     		ldrb	r2, [r2]
 1897 0048 1B78     		ldrb	r3, [r3]
 1898 004a 9A42     		cmp	r2, r3
 1899 004c E8D3     		bcc	.L117
1331:Generated_Source\PSoC4/CapSense_CSHL.c **** }
 1900              		.loc 1 1331 0
 1901 004e C046     		nop
 1902 0050 BD46     		mov	sp, r7
 1903 0052 04B0     		add	sp, sp, #16
ARM GAS  C:\Users\PC\AppData\Local\Temp\ccBgQfEQ.s 			page 58


 1904              		@ sp needed
 1905 0054 80BD     		pop	{r7, pc}
 1906              	.L119:
 1907 0056 C046     		.align	2
 1908              	.L118:
 1909 0058 00000000 		.word	CapSense_sensorEnableMask
 1910              		.cfi_endproc
 1911              	.LFE62:
 1912              		.size	CapSense_DisableWidget, .-CapSense_DisableWidget
 1913              		.section	.text.CapSense_MedianFilter,"ax",%progbits
 1914              		.align	2
 1915              		.global	CapSense_MedianFilter
 1916              		.code	16
 1917              		.thumb_func
 1918              		.type	CapSense_MedianFilter, %function
 1919              	CapSense_MedianFilter:
 1920              	.LFB63:
1332:Generated_Source\PSoC4/CapSense_CSHL.c **** 
1333:Generated_Source\PSoC4/CapSense_CSHL.c **** 
1334:Generated_Source\PSoC4/CapSense_CSHL.c **** #if(CapSense_TOTAL_CENTROIDS_BASIC_COUNT)
1335:Generated_Source\PSoC4/CapSense_CSHL.c ****     /*******************************************************************************
1336:Generated_Source\PSoC4/CapSense_CSHL.c ****     * Function Name: CapSense_FindMaximum
1337:Generated_Source\PSoC4/CapSense_CSHL.c ****     ********************************************************************************
1338:Generated_Source\PSoC4/CapSense_CSHL.c ****     *
1339:Generated_Source\PSoC4/CapSense_CSHL.c ****     * Summary:
1340:Generated_Source\PSoC4/CapSense_CSHL.c ****     *  Finds the index of the maximum element within a defined centroid. Checks
1341:Generated_Source\PSoC4/CapSense_CSHL.c ****     *  CapSense_sensorSignal[] within a defined centroid and
1342:Generated_Source\PSoC4/CapSense_CSHL.c ****     *  returns the index of the maximum element. The values below the finger threshold are
1343:Generated_Source\PSoC4/CapSense_CSHL.c ****     *  ignored.
1344:Generated_Source\PSoC4/CapSense_CSHL.c ****     *  The centroid is defined by offset of the first element and a number of elements - count.
1345:Generated_Source\PSoC4/CapSense_CSHL.c ****     *  The diplexed centroid requires at least two consecutive elements above
1346:Generated_Source\PSoC4/CapSense_CSHL.c ****     *  FingerThreshold to find the index of the maximum element.
1347:Generated_Source\PSoC4/CapSense_CSHL.c ****     *
1348:Generated_Source\PSoC4/CapSense_CSHL.c ****     * Parameters:
1349:Generated_Source\PSoC4/CapSense_CSHL.c ****     *  offset:  Start index of centroid in CapSense_sensorSignal[] array.
1350:Generated_Source\PSoC4/CapSense_CSHL.c ****     *  count:   number of elements within centroid.
1351:Generated_Source\PSoC4/CapSense_CSHL.c ****     *  fingerThreshold:  Finger threshold.
1352:Generated_Source\PSoC4/CapSense_CSHL.c ****     *  diplex:   pointer to diplex table.
1353:Generated_Source\PSoC4/CapSense_CSHL.c ****     *
1354:Generated_Source\PSoC4/CapSense_CSHL.c ****     * Return:
1355:Generated_Source\PSoC4/CapSense_CSHL.c ****     *  Returns the index of the maximum element within a defined centroid.
1356:Generated_Source\PSoC4/CapSense_CSHL.c ****     *  If the index of the maximum element isn't found it returns 0xFF.
1357:Generated_Source\PSoC4/CapSense_CSHL.c ****     *
1358:Generated_Source\PSoC4/CapSense_CSHL.c ****     * Global Variables:
1359:Generated_Source\PSoC4/CapSense_CSHL.c ****     *  CapSense_startOfSlider[] - contains the index of the first slider element
1360:Generated_Source\PSoC4/CapSense_CSHL.c ****     *
1361:Generated_Source\PSoC4/CapSense_CSHL.c ****     * Side Effects:
1362:Generated_Source\PSoC4/CapSense_CSHL.c ****     *  None
1363:Generated_Source\PSoC4/CapSense_CSHL.c ****     *
1364:Generated_Source\PSoC4/CapSense_CSHL.c ****     *******************************************************************************/
1365:Generated_Source\PSoC4/CapSense_CSHL.c ****     #if (CapSense_IS_DIPLEX_SLIDER)
1366:Generated_Source\PSoC4/CapSense_CSHL.c ****         uint8 CapSense_FindMaximum(uint8 offset, uint8 count, uint8 fingerThreshold, const uint8 *d
1367:Generated_Source\PSoC4/CapSense_CSHL.c ****     #else
1368:Generated_Source\PSoC4/CapSense_CSHL.c ****         uint8 CapSense_FindMaximum(uint8 offset, uint8 count, uint8 fingerThreshold)
1369:Generated_Source\PSoC4/CapSense_CSHL.c ****     #endif /* (CapSense_IS_DIPLEX_SLIDER) */
1370:Generated_Source\PSoC4/CapSense_CSHL.c ****     {
1371:Generated_Source\PSoC4/CapSense_CSHL.c ****         uint8 i;
ARM GAS  C:\Users\PC\AppData\Local\Temp\ccBgQfEQ.s 			page 59


1372:Generated_Source\PSoC4/CapSense_CSHL.c ****         #if (CapSense_IS_DIPLEX_SLIDER)
1373:Generated_Source\PSoC4/CapSense_CSHL.c ****             uint8 curPos = 0u;
1374:Generated_Source\PSoC4/CapSense_CSHL.c ****             /* No centroid at Start */
1375:Generated_Source\PSoC4/CapSense_CSHL.c ****             uint8 curCntrdSize = 0u;
1376:Generated_Source\PSoC4/CapSense_CSHL.c ****             uint8 curCtrdStartPos = CapSense_MAXIMUM_CENTROID;
1377:Generated_Source\PSoC4/CapSense_CSHL.c ****             /* Biggest centroid is zero */
1378:Generated_Source\PSoC4/CapSense_CSHL.c ****             uint8 biggestCtrdSize = 0u;
1379:Generated_Source\PSoC4/CapSense_CSHL.c ****             uint8 biggestCtrdStartPos = 0u;
1380:Generated_Source\PSoC4/CapSense_CSHL.c ****         #endif /* (CapSense_IS_DIPLEX_SLIDER) */
1381:Generated_Source\PSoC4/CapSense_CSHL.c ****         uint8 maximum = CapSense_MAXIMUM_CENTROID;
1382:Generated_Source\PSoC4/CapSense_CSHL.c **** 
1383:Generated_Source\PSoC4/CapSense_CSHL.c ****         uint8 temp = 0u;
1384:Generated_Source\PSoC4/CapSense_CSHL.c ****         uint8 *startOfSlider = &CapSense_sensorSignal[offset];
1385:Generated_Source\PSoC4/CapSense_CSHL.c **** 
1386:Generated_Source\PSoC4/CapSense_CSHL.c ****         #if (CapSense_IS_DIPLEX_SLIDER)
1387:Generated_Source\PSoC4/CapSense_CSHL.c ****             if(diplex != 0u)
1388:Generated_Source\PSoC4/CapSense_CSHL.c ****             {
1389:Generated_Source\PSoC4/CapSense_CSHL.c ****                 /* Initialize */
1390:Generated_Source\PSoC4/CapSense_CSHL.c ****                 i = 0u;
1391:Generated_Source\PSoC4/CapSense_CSHL.c **** 
1392:Generated_Source\PSoC4/CapSense_CSHL.c ****                 /* Make slider x2 as Diplexed */
1393:Generated_Source\PSoC4/CapSense_CSHL.c ****                 count <<= 1u;
1394:Generated_Source\PSoC4/CapSense_CSHL.c ****                 while(1u)
1395:Generated_Source\PSoC4/CapSense_CSHL.c ****                 {
1396:Generated_Source\PSoC4/CapSense_CSHL.c ****                     if (startOfSlider[curPos] > 0u)    /* Looking for centroids */
1397:Generated_Source\PSoC4/CapSense_CSHL.c ****                     {
1398:Generated_Source\PSoC4/CapSense_CSHL.c ****                         if (curCtrdStartPos == CapSense_MAXIMUM_CENTROID)
1399:Generated_Source\PSoC4/CapSense_CSHL.c ****                         {
1400:Generated_Source\PSoC4/CapSense_CSHL.c ****                             /* Start of centroid */
1401:Generated_Source\PSoC4/CapSense_CSHL.c ****                             curCtrdStartPos = i;
1402:Generated_Source\PSoC4/CapSense_CSHL.c ****                             curCntrdSize++;
1403:Generated_Source\PSoC4/CapSense_CSHL.c ****                         }
1404:Generated_Source\PSoC4/CapSense_CSHL.c ****                         else
1405:Generated_Source\PSoC4/CapSense_CSHL.c ****                         {
1406:Generated_Source\PSoC4/CapSense_CSHL.c ****                             curCntrdSize++;
1407:Generated_Source\PSoC4/CapSense_CSHL.c ****                         }
1408:Generated_Source\PSoC4/CapSense_CSHL.c ****                     }
1409:Generated_Source\PSoC4/CapSense_CSHL.c ****                     else   /* Select biggest and indicate zero start */
1410:Generated_Source\PSoC4/CapSense_CSHL.c ****                     {
1411:Generated_Source\PSoC4/CapSense_CSHL.c ****                         if(curCntrdSize > 0u)
1412:Generated_Source\PSoC4/CapSense_CSHL.c ****                         {
1413:Generated_Source\PSoC4/CapSense_CSHL.c ****                             /* We are at the end of current */
1414:Generated_Source\PSoC4/CapSense_CSHL.c ****                             if(curCntrdSize > biggestCtrdSize)
1415:Generated_Source\PSoC4/CapSense_CSHL.c ****                             {
1416:Generated_Source\PSoC4/CapSense_CSHL.c ****                                 biggestCtrdSize = curCntrdSize;
1417:Generated_Source\PSoC4/CapSense_CSHL.c ****                                 biggestCtrdStartPos = curCtrdStartPos;
1418:Generated_Source\PSoC4/CapSense_CSHL.c ****                             }
1419:Generated_Source\PSoC4/CapSense_CSHL.c **** 
1420:Generated_Source\PSoC4/CapSense_CSHL.c ****                             curCntrdSize = 0u;
1421:Generated_Source\PSoC4/CapSense_CSHL.c ****                             curCtrdStartPos = CapSense_MAXIMUM_CENTROID;
1422:Generated_Source\PSoC4/CapSense_CSHL.c ****                         }
1423:Generated_Source\PSoC4/CapSense_CSHL.c ****                     }
1424:Generated_Source\PSoC4/CapSense_CSHL.c **** 
1425:Generated_Source\PSoC4/CapSense_CSHL.c ****                     i++;
1426:Generated_Source\PSoC4/CapSense_CSHL.c ****                     curPos = diplex[i];
1427:Generated_Source\PSoC4/CapSense_CSHL.c ****                     if(i == count)
1428:Generated_Source\PSoC4/CapSense_CSHL.c ****                     {
ARM GAS  C:\Users\PC\AppData\Local\Temp\ccBgQfEQ.s 			page 60


1429:Generated_Source\PSoC4/CapSense_CSHL.c ****                         break;
1430:Generated_Source\PSoC4/CapSense_CSHL.c ****                     }
1431:Generated_Source\PSoC4/CapSense_CSHL.c ****                 }
1432:Generated_Source\PSoC4/CapSense_CSHL.c **** 
1433:Generated_Source\PSoC4/CapSense_CSHL.c ****                     /* Find biggest centroid if two are same size, last one wins
1434:Generated_Source\PSoC4/CapSense_CSHL.c ****                        We are at the end of current */
1435:Generated_Source\PSoC4/CapSense_CSHL.c ****                 if (curCntrdSize >= biggestCtrdSize)
1436:Generated_Source\PSoC4/CapSense_CSHL.c ****                 {
1437:Generated_Source\PSoC4/CapSense_CSHL.c ****                     biggestCtrdSize = curCntrdSize;
1438:Generated_Source\PSoC4/CapSense_CSHL.c ****                     biggestCtrdStartPos = curCtrdStartPos;
1439:Generated_Source\PSoC4/CapSense_CSHL.c ****                 }
1440:Generated_Source\PSoC4/CapSense_CSHL.c ****             }
1441:Generated_Source\PSoC4/CapSense_CSHL.c ****             else
1442:Generated_Source\PSoC4/CapSense_CSHL.c ****             {
1443:Generated_Source\PSoC4/CapSense_CSHL.c ****                 /* Without diplexing */
1444:Generated_Source\PSoC4/CapSense_CSHL.c ****                 biggestCtrdSize = count;
1445:Generated_Source\PSoC4/CapSense_CSHL.c ****             }
1446:Generated_Source\PSoC4/CapSense_CSHL.c **** 
1447:Generated_Source\PSoC4/CapSense_CSHL.c **** 
1448:Generated_Source\PSoC4/CapSense_CSHL.c ****             /* Check centroid size */
1449:Generated_Source\PSoC4/CapSense_CSHL.c ****             #if (CapSense_IS_NON_DIPLEX_SLIDER)
1450:Generated_Source\PSoC4/CapSense_CSHL.c ****                 if((biggestCtrdSize >= 2u) || ((biggestCtrdSize == 1u) && (diplex == 0u)))
1451:Generated_Source\PSoC4/CapSense_CSHL.c ****             #else
1452:Generated_Source\PSoC4/CapSense_CSHL.c ****                 if(biggestCtrdSize >= 2u)
1453:Generated_Source\PSoC4/CapSense_CSHL.c ****             #endif /* (CapSense_IS_NON_DIPLEX_SLIDER) */
1454:Generated_Source\PSoC4/CapSense_CSHL.c ****                 {
1455:Generated_Source\PSoC4/CapSense_CSHL.c ****                     for (i = biggestCtrdStartPos; i < (biggestCtrdStartPos + biggestCtrdSize); i++)
1456:Generated_Source\PSoC4/CapSense_CSHL.c ****                     {
1457:Generated_Source\PSoC4/CapSense_CSHL.c ****                         #if (CapSense_IS_DIPLEX_SLIDER && CapSense_IS_NON_DIPLEX_SLIDER)
1458:Generated_Source\PSoC4/CapSense_CSHL.c ****                             if (diplex == 0u)
1459:Generated_Source\PSoC4/CapSense_CSHL.c ****                             {
1460:Generated_Source\PSoC4/CapSense_CSHL.c ****                                 curPos = i;
1461:Generated_Source\PSoC4/CapSense_CSHL.c ****                             }
1462:Generated_Source\PSoC4/CapSense_CSHL.c ****                             else
1463:Generated_Source\PSoC4/CapSense_CSHL.c ****                             {
1464:Generated_Source\PSoC4/CapSense_CSHL.c ****                                 curPos = diplex[i];
1465:Generated_Source\PSoC4/CapSense_CSHL.c ****                             }
1466:Generated_Source\PSoC4/CapSense_CSHL.c ****                         #elif (CapSense_IS_DIPLEX_SLIDER)
1467:Generated_Source\PSoC4/CapSense_CSHL.c ****                             curPos = diplex[i];
1468:Generated_Source\PSoC4/CapSense_CSHL.c ****                         #endif /* (CapSense_IS_DIPLEX_SLIDER && CapSense_IS_NON_DIPLEX_SLIDER) */
1469:Generated_Source\PSoC4/CapSense_CSHL.c ****                         /* Looking for greater element within centroid */
1470:Generated_Source\PSoC4/CapSense_CSHL.c ****                         if(startOfSlider[curPos] > fingerThreshold)
1471:Generated_Source\PSoC4/CapSense_CSHL.c ****                         {
1472:Generated_Source\PSoC4/CapSense_CSHL.c ****                             if(startOfSlider[curPos] > temp)
1473:Generated_Source\PSoC4/CapSense_CSHL.c ****                             {
1474:Generated_Source\PSoC4/CapSense_CSHL.c ****                                 maximum = i;
1475:Generated_Source\PSoC4/CapSense_CSHL.c ****                                 temp = startOfSlider[curPos];
1476:Generated_Source\PSoC4/CapSense_CSHL.c ****                             }
1477:Generated_Source\PSoC4/CapSense_CSHL.c ****                         }
1478:Generated_Source\PSoC4/CapSense_CSHL.c ****                     }
1479:Generated_Source\PSoC4/CapSense_CSHL.c ****                 }
1480:Generated_Source\PSoC4/CapSense_CSHL.c ****         #else
1481:Generated_Source\PSoC4/CapSense_CSHL.c ****             for (i = 0u; i < count; i++)
1482:Generated_Source\PSoC4/CapSense_CSHL.c ****             {
1483:Generated_Source\PSoC4/CapSense_CSHL.c ****                 /* Looking for greater element within centroid */
1484:Generated_Source\PSoC4/CapSense_CSHL.c ****                 if(startOfSlider[i] > fingerThreshold)
1485:Generated_Source\PSoC4/CapSense_CSHL.c ****                 {
ARM GAS  C:\Users\PC\AppData\Local\Temp\ccBgQfEQ.s 			page 61


1486:Generated_Source\PSoC4/CapSense_CSHL.c ****                     if(startOfSlider[i] > temp)
1487:Generated_Source\PSoC4/CapSense_CSHL.c ****                     {
1488:Generated_Source\PSoC4/CapSense_CSHL.c ****                         maximum = i;
1489:Generated_Source\PSoC4/CapSense_CSHL.c ****                         temp = startOfSlider[i];
1490:Generated_Source\PSoC4/CapSense_CSHL.c ****                     }
1491:Generated_Source\PSoC4/CapSense_CSHL.c ****                 }
1492:Generated_Source\PSoC4/CapSense_CSHL.c ****             }
1493:Generated_Source\PSoC4/CapSense_CSHL.c ****         #endif /* (CapSense_IS_DIPLEX_SLIDER) */
1494:Generated_Source\PSoC4/CapSense_CSHL.c ****         return (maximum);
1495:Generated_Source\PSoC4/CapSense_CSHL.c ****     }
1496:Generated_Source\PSoC4/CapSense_CSHL.c **** 
1497:Generated_Source\PSoC4/CapSense_CSHL.c **** 
1498:Generated_Source\PSoC4/CapSense_CSHL.c ****     /*******************************************************************************
1499:Generated_Source\PSoC4/CapSense_CSHL.c ****     * Function Name: CapSense_CalcCentroid
1500:Generated_Source\PSoC4/CapSense_CSHL.c ****     ********************************************************************************
1501:Generated_Source\PSoC4/CapSense_CSHL.c ****     *
1502:Generated_Source\PSoC4/CapSense_CSHL.c ****     * Summary:
1503:Generated_Source\PSoC4/CapSense_CSHL.c ****     *  Returns a position value calculated according to the index of the maximum element and API
1504:Generated_Source\PSoC4/CapSense_CSHL.c ****     *  resolution.
1505:Generated_Source\PSoC4/CapSense_CSHL.c ****     *
1506:Generated_Source\PSoC4/CapSense_CSHL.c ****     * Parameters:
1507:Generated_Source\PSoC4/CapSense_CSHL.c ****     *  type:  widget type.
1508:Generated_Source\PSoC4/CapSense_CSHL.c ****     *  diplex:  pointer to diplex table.
1509:Generated_Source\PSoC4/CapSense_CSHL.c ****     *  maximum:  Index of maximum element within centroid.
1510:Generated_Source\PSoC4/CapSense_CSHL.c ****     *  offset:   Start index of centroid in CapSense_sensorSignal[] array.
1511:Generated_Source\PSoC4/CapSense_CSHL.c ****     *  count:    Number of elements within centroid.
1512:Generated_Source\PSoC4/CapSense_CSHL.c ****     *  resolution:  multiplicator calculated according to centroid type and
1513:Generated_Source\PSoC4/CapSense_CSHL.c ****     *  API resolution.
1514:Generated_Source\PSoC4/CapSense_CSHL.c ****     *  noiseThreshold:  Noise threshold.
1515:Generated_Source\PSoC4/CapSense_CSHL.c ****     *
1516:Generated_Source\PSoC4/CapSense_CSHL.c ****     * Return:
1517:Generated_Source\PSoC4/CapSense_CSHL.c ****     *  Returns a position value of the slider.
1518:Generated_Source\PSoC4/CapSense_CSHL.c ****     *
1519:Generated_Source\PSoC4/CapSense_CSHL.c ****     * Side Effects:
1520:Generated_Source\PSoC4/CapSense_CSHL.c ****     *  None
1521:Generated_Source\PSoC4/CapSense_CSHL.c ****     *
1522:Generated_Source\PSoC4/CapSense_CSHL.c ****     *******************************************************************************/
1523:Generated_Source\PSoC4/CapSense_CSHL.c **** #if (CapSense_TOTAL_TRACKPAD_GESTURES_COUNT > 0u)
1524:Generated_Source\PSoC4/CapSense_CSHL.c ****     uint8 CapSense_CalcCentroid(uint8 maximum, uint8 offset,
1525:Generated_Source\PSoC4/CapSense_CSHL.c ****                                         uint8 count, uint32 resolution, uint8 noiseThreshold)
1526:Generated_Source\PSoC4/CapSense_CSHL.c **** #else
1527:Generated_Source\PSoC4/CapSense_CSHL.c ****     uint8 CapSense_CalcCentroid(uint8 maximum, uint8 offset,
1528:Generated_Source\PSoC4/CapSense_CSHL.c ****                                         uint8 count, uint16 resolution, uint8 noiseThreshold)
1529:Generated_Source\PSoC4/CapSense_CSHL.c **** #endif /* (CapSense_TOTAL_TRACKPAD_GESTURES_COUNT > 0u) */
1530:Generated_Source\PSoC4/CapSense_CSHL.c ****     {
1531:Generated_Source\PSoC4/CapSense_CSHL.c ****         #if ((CapSense_TOTAL_LINEAR_SLIDERS_COUNT > 0u) || (CapSense_TOTAL_TOUCH_PADS_BASIC_COUNT >
1532:Generated_Source\PSoC4/CapSense_CSHL.c ****             uint8 posPrev;
1533:Generated_Source\PSoC4/CapSense_CSHL.c ****             uint8 posNext;
1534:Generated_Source\PSoC4/CapSense_CSHL.c ****         #endif /* ((CapSense_TOTAL_LINEAR_SLIDERS_COUNT>0u) || (CapSense_TOTAL_TOUCH_PADS_BASIC_COU
1535:Generated_Source\PSoC4/CapSense_CSHL.c **** 
1536:Generated_Source\PSoC4/CapSense_CSHL.c ****         /* Helps during centroid calculation */
1537:Generated_Source\PSoC4/CapSense_CSHL.c ****         #if (CapSense_TOTAL_CENTROIDS_BASIC_COUNT)
1538:Generated_Source\PSoC4/CapSense_CSHL.c ****             static uint8 CapSense_centroid[3u];
1539:Generated_Source\PSoC4/CapSense_CSHL.c ****         #endif  /* (CapSense_TOTAL_CENTROIDS_BASIC_COUNT) */
1540:Generated_Source\PSoC4/CapSense_CSHL.c **** 
1541:Generated_Source\PSoC4/CapSense_CSHL.c ****         #if (CapSense_IS_DIPLEX_SLIDER)
1542:Generated_Source\PSoC4/CapSense_CSHL.c ****             uint8 pos;
ARM GAS  C:\Users\PC\AppData\Local\Temp\ccBgQfEQ.s 			page 62


1543:Generated_Source\PSoC4/CapSense_CSHL.c ****         #endif /* (CapSense_IS_DIPLEX_SLIDER) */
1544:Generated_Source\PSoC4/CapSense_CSHL.c **** 
1545:Generated_Source\PSoC4/CapSense_CSHL.c ****         uint8 position;
1546:Generated_Source\PSoC4/CapSense_CSHL.c ****         uint32 numerator;
1547:Generated_Source\PSoC4/CapSense_CSHL.c ****         int32 denominator;
1548:Generated_Source\PSoC4/CapSense_CSHL.c **** 
1549:Generated_Source\PSoC4/CapSense_CSHL.c ****         uint8  *startOfSlider = &CapSense_sensorSignal[offset];
1550:Generated_Source\PSoC4/CapSense_CSHL.c **** 
1551:Generated_Source\PSoC4/CapSense_CSHL.c ****         #if ((CapSense_TOTAL_LINEAR_SLIDERS_COUNT > 0u) || (CapSense_TOTAL_TOUCH_PADS_BASIC_COUNT >
1552:Generated_Source\PSoC4/CapSense_CSHL.c ****             posPrev = 0u;
1553:Generated_Source\PSoC4/CapSense_CSHL.c ****         #endif /* ((CapSense_TOTAL_LINEAR_SLIDERS_COUNT>0u) || (CapSense_TOTAL_TOUCH_PADS_BASIC_COU
1554:Generated_Source\PSoC4/CapSense_CSHL.c **** 
1555:Generated_Source\PSoC4/CapSense_CSHL.c ****         #if (CapSense_ADD_SLIDER_TYPE)
1556:Generated_Source\PSoC4/CapSense_CSHL.c ****             if(type == CapSense_TYPE_RADIAL_SLIDER)
1557:Generated_Source\PSoC4/CapSense_CSHL.c ****             {
1558:Generated_Source\PSoC4/CapSense_CSHL.c ****         #endif /* (CapSense_ADD_SLIDER_TYPE) */
1559:Generated_Source\PSoC4/CapSense_CSHL.c **** 
1560:Generated_Source\PSoC4/CapSense_CSHL.c ****             #if (CapSense_TOTAL_RADIAL_SLIDERS_COUNT > 0u)
1561:Generated_Source\PSoC4/CapSense_CSHL.c ****                 /* Copy Signal to the centroid array */
1562:Generated_Source\PSoC4/CapSense_CSHL.c ****                 CapSense_centroid[CapSense_POS] = startOfSlider[maximum];
1563:Generated_Source\PSoC4/CapSense_CSHL.c **** 
1564:Generated_Source\PSoC4/CapSense_CSHL.c ****                 /* Check borders for ROTARY Slider */
1565:Generated_Source\PSoC4/CapSense_CSHL.c ****                 if (maximum == 0u)                   /* Start of centroid */
1566:Generated_Source\PSoC4/CapSense_CSHL.c ****                 {
1567:Generated_Source\PSoC4/CapSense_CSHL.c ****                     CapSense_centroid[CapSense_POS_PREV] = startOfSlider[count - 1u];
1568:Generated_Source\PSoC4/CapSense_CSHL.c ****                     CapSense_centroid[CapSense_POS_NEXT] = startOfSlider[1u];
1569:Generated_Source\PSoC4/CapSense_CSHL.c ****                 }
1570:Generated_Source\PSoC4/CapSense_CSHL.c ****                 else if (maximum == (count - 1u))    /* End of centroid */
1571:Generated_Source\PSoC4/CapSense_CSHL.c ****                 {
1572:Generated_Source\PSoC4/CapSense_CSHL.c ****                     CapSense_centroid[CapSense_POS_PREV] = startOfSlider[maximum - 1u];
1573:Generated_Source\PSoC4/CapSense_CSHL.c ****                     CapSense_centroid[CapSense_POS_NEXT] = startOfSlider[0u];
1574:Generated_Source\PSoC4/CapSense_CSHL.c ****                 }
1575:Generated_Source\PSoC4/CapSense_CSHL.c ****                 else                                /* Not first Not last */
1576:Generated_Source\PSoC4/CapSense_CSHL.c ****                 {
1577:Generated_Source\PSoC4/CapSense_CSHL.c ****                     CapSense_centroid[CapSense_POS_PREV] = startOfSlider[maximum - 1u];
1578:Generated_Source\PSoC4/CapSense_CSHL.c ****                     CapSense_centroid[CapSense_POS_NEXT] = startOfSlider[maximum + 1u];
1579:Generated_Source\PSoC4/CapSense_CSHL.c ****                 }
1580:Generated_Source\PSoC4/CapSense_CSHL.c ****             #endif /* (CapSense_TOTAL_RADIAL_SLIDERS_COUNT > 0u) */
1581:Generated_Source\PSoC4/CapSense_CSHL.c **** 
1582:Generated_Source\PSoC4/CapSense_CSHL.c ****         #if (CapSense_ADD_SLIDER_TYPE)
1583:Generated_Source\PSoC4/CapSense_CSHL.c ****             }
1584:Generated_Source\PSoC4/CapSense_CSHL.c ****             else
1585:Generated_Source\PSoC4/CapSense_CSHL.c ****             {
1586:Generated_Source\PSoC4/CapSense_CSHL.c ****         #endif /* (CapSense_ADD_SLIDER_TYPE) */
1587:Generated_Source\PSoC4/CapSense_CSHL.c **** 
1588:Generated_Source\PSoC4/CapSense_CSHL.c ****             #if ((CapSense_TOTAL_LINEAR_SLIDERS_COUNT > 0u) || (CapSense_TOTAL_TOUCH_PADS_BASIC_COU
1589:Generated_Source\PSoC4/CapSense_CSHL.c ****                 #if (CapSense_IS_DIPLEX_SLIDER && CapSense_IS_NON_DIPLEX_SLIDER)
1590:Generated_Source\PSoC4/CapSense_CSHL.c ****                     /* Calculate next and previous near to maximum */
1591:Generated_Source\PSoC4/CapSense_CSHL.c ****                     if(diplex == 0u)
1592:Generated_Source\PSoC4/CapSense_CSHL.c ****                     {
1593:Generated_Source\PSoC4/CapSense_CSHL.c ****                         pos     = maximum;
1594:Generated_Source\PSoC4/CapSense_CSHL.c ****                         posPrev = maximum - 1u;
1595:Generated_Source\PSoC4/CapSense_CSHL.c ****                         posNext = maximum + 1u;
1596:Generated_Source\PSoC4/CapSense_CSHL.c ****                     }
1597:Generated_Source\PSoC4/CapSense_CSHL.c ****                     else
1598:Generated_Source\PSoC4/CapSense_CSHL.c ****                     {
1599:Generated_Source\PSoC4/CapSense_CSHL.c ****                         pos     = diplex[maximum];
ARM GAS  C:\Users\PC\AppData\Local\Temp\ccBgQfEQ.s 			page 63


1600:Generated_Source\PSoC4/CapSense_CSHL.c ****                         posPrev = diplex[maximum - 1u];
1601:Generated_Source\PSoC4/CapSense_CSHL.c ****                         posNext = diplex[maximum + 1u];
1602:Generated_Source\PSoC4/CapSense_CSHL.c ****                         count <<= 1u;
1603:Generated_Source\PSoC4/CapSense_CSHL.c ****                     }
1604:Generated_Source\PSoC4/CapSense_CSHL.c ****                 #elif (CapSense_IS_DIPLEX_SLIDER)
1605:Generated_Source\PSoC4/CapSense_CSHL.c ****                     /* Calculate next and previous near to maximum */
1606:Generated_Source\PSoC4/CapSense_CSHL.c ****                     pos     = diplex[maximum];
1607:Generated_Source\PSoC4/CapSense_CSHL.c ****                     posPrev = diplex[maximum - 1u];
1608:Generated_Source\PSoC4/CapSense_CSHL.c ****                     posNext = diplex[maximum + 1u];
1609:Generated_Source\PSoC4/CapSense_CSHL.c ****                     count <<= 1u;
1610:Generated_Source\PSoC4/CapSense_CSHL.c ****                 #else
1611:Generated_Source\PSoC4/CapSense_CSHL.c ****                     /* Calculate next and previous near to maximum */
1612:Generated_Source\PSoC4/CapSense_CSHL.c ****                     if (maximum >= 1u)
1613:Generated_Source\PSoC4/CapSense_CSHL.c ****                     {
1614:Generated_Source\PSoC4/CapSense_CSHL.c ****                         posPrev = maximum - 1u;
1615:Generated_Source\PSoC4/CapSense_CSHL.c ****                     }
1616:Generated_Source\PSoC4/CapSense_CSHL.c ****                     posNext = maximum + 1u;
1617:Generated_Source\PSoC4/CapSense_CSHL.c ****                 #endif /* (CapSense_IS_DIPLEX_SLIDER && CapSense_IS_NON_DIPLEX_SLIDER) */
1618:Generated_Source\PSoC4/CapSense_CSHL.c **** 
1619:Generated_Source\PSoC4/CapSense_CSHL.c ****                 /* Copy Signal to the centroid array */
1620:Generated_Source\PSoC4/CapSense_CSHL.c ****                 #if (CapSense_IS_DIPLEX_SLIDER)
1621:Generated_Source\PSoC4/CapSense_CSHL.c ****                     CapSense_centroid[CapSense_POS] = startOfSlider[pos];
1622:Generated_Source\PSoC4/CapSense_CSHL.c ****                 #else
1623:Generated_Source\PSoC4/CapSense_CSHL.c ****                     CapSense_centroid[CapSense_POS] = startOfSlider[maximum];
1624:Generated_Source\PSoC4/CapSense_CSHL.c ****                 #endif /* (CapSense_IS_DIPLEX_SLIDER) */
1625:Generated_Source\PSoC4/CapSense_CSHL.c **** 
1626:Generated_Source\PSoC4/CapSense_CSHL.c ****                 /* Check borders for LINEAR Slider */
1627:Generated_Source\PSoC4/CapSense_CSHL.c ****                 if (maximum == 0u)                   /* Start of centroid */
1628:Generated_Source\PSoC4/CapSense_CSHL.c ****                 {
1629:Generated_Source\PSoC4/CapSense_CSHL.c ****                     CapSense_centroid[CapSense_POS_PREV] = 0u;
1630:Generated_Source\PSoC4/CapSense_CSHL.c ****                     CapSense_centroid[CapSense_POS_NEXT] = startOfSlider[posNext];
1631:Generated_Source\PSoC4/CapSense_CSHL.c ****                 }
1632:Generated_Source\PSoC4/CapSense_CSHL.c ****                 else if (maximum == ((count) - 1u)) /* End of centroid */
1633:Generated_Source\PSoC4/CapSense_CSHL.c ****                 {
1634:Generated_Source\PSoC4/CapSense_CSHL.c ****                     CapSense_centroid[CapSense_POS_PREV] = startOfSlider[posPrev];
1635:Generated_Source\PSoC4/CapSense_CSHL.c ****                     CapSense_centroid[CapSense_POS_NEXT] = 0u;
1636:Generated_Source\PSoC4/CapSense_CSHL.c ****                 }
1637:Generated_Source\PSoC4/CapSense_CSHL.c ****                 else                                /* Not first Not last */
1638:Generated_Source\PSoC4/CapSense_CSHL.c ****                 {
1639:Generated_Source\PSoC4/CapSense_CSHL.c ****                     CapSense_centroid[CapSense_POS_PREV] = startOfSlider[posPrev];
1640:Generated_Source\PSoC4/CapSense_CSHL.c ****                     CapSense_centroid[CapSense_POS_NEXT] = startOfSlider[posNext];
1641:Generated_Source\PSoC4/CapSense_CSHL.c ****                 }
1642:Generated_Source\PSoC4/CapSense_CSHL.c ****             #endif /* ((CapSense_TOTAL_LINEAR_SLIDERS_COUNT>0u)||(CapSense_TOTAL_TOUCH_PADS_BASIC_C
1643:Generated_Source\PSoC4/CapSense_CSHL.c **** 
1644:Generated_Source\PSoC4/CapSense_CSHL.c ****         #if (CapSense_ADD_SLIDER_TYPE)
1645:Generated_Source\PSoC4/CapSense_CSHL.c ****             }
1646:Generated_Source\PSoC4/CapSense_CSHL.c ****         #endif /* (CapSense_ADD_SLIDER_TYPE) */
1647:Generated_Source\PSoC4/CapSense_CSHL.c **** 
1648:Generated_Source\PSoC4/CapSense_CSHL.c ****         /* Subtract noiseThreshold */
1649:Generated_Source\PSoC4/CapSense_CSHL.c ****         if(CapSense_centroid[CapSense_POS_PREV] > noiseThreshold)
1650:Generated_Source\PSoC4/CapSense_CSHL.c ****         {
1651:Generated_Source\PSoC4/CapSense_CSHL.c ****             CapSense_centroid[CapSense_POS_PREV] -= noiseThreshold;
1652:Generated_Source\PSoC4/CapSense_CSHL.c ****         }
1653:Generated_Source\PSoC4/CapSense_CSHL.c ****         else
1654:Generated_Source\PSoC4/CapSense_CSHL.c ****         {
1655:Generated_Source\PSoC4/CapSense_CSHL.c ****             CapSense_centroid[CapSense_POS_PREV] = 0u;
1656:Generated_Source\PSoC4/CapSense_CSHL.c ****         }
ARM GAS  C:\Users\PC\AppData\Local\Temp\ccBgQfEQ.s 			page 64


1657:Generated_Source\PSoC4/CapSense_CSHL.c **** 
1658:Generated_Source\PSoC4/CapSense_CSHL.c ****         /* Maximum always greater than fingerThreshold, so greater than noiseThreshold */
1659:Generated_Source\PSoC4/CapSense_CSHL.c ****         CapSense_centroid[CapSense_POS] -= noiseThreshold;
1660:Generated_Source\PSoC4/CapSense_CSHL.c **** 
1661:Generated_Source\PSoC4/CapSense_CSHL.c ****         /* Subtract noiseThreshold */
1662:Generated_Source\PSoC4/CapSense_CSHL.c ****         if(CapSense_centroid[CapSense_POS_NEXT] > noiseThreshold)
1663:Generated_Source\PSoC4/CapSense_CSHL.c ****         {
1664:Generated_Source\PSoC4/CapSense_CSHL.c ****             CapSense_centroid[CapSense_POS_NEXT] -= noiseThreshold;
1665:Generated_Source\PSoC4/CapSense_CSHL.c ****         }
1666:Generated_Source\PSoC4/CapSense_CSHL.c ****         else
1667:Generated_Source\PSoC4/CapSense_CSHL.c ****         {
1668:Generated_Source\PSoC4/CapSense_CSHL.c ****             CapSense_centroid[CapSense_POS_NEXT] = 0u;
1669:Generated_Source\PSoC4/CapSense_CSHL.c ****         }
1670:Generated_Source\PSoC4/CapSense_CSHL.c **** 
1671:Generated_Source\PSoC4/CapSense_CSHL.c **** 
1672:Generated_Source\PSoC4/CapSense_CSHL.c ****         /* Si+1 - Si-1 */
1673:Generated_Source\PSoC4/CapSense_CSHL.c ****         numerator = (uint32) CapSense_centroid[CapSense_POS_NEXT] -
1674:Generated_Source\PSoC4/CapSense_CSHL.c ****                     (uint32) CapSense_centroid[CapSense_POS_PREV];
1675:Generated_Source\PSoC4/CapSense_CSHL.c **** 
1676:Generated_Source\PSoC4/CapSense_CSHL.c ****         /* Si+1 + Si + Si-1 */
1677:Generated_Source\PSoC4/CapSense_CSHL.c ****         denominator = (int32) CapSense_centroid[CapSense_POS_PREV] +
1678:Generated_Source\PSoC4/CapSense_CSHL.c ****                       (int32) CapSense_centroid[CapSense_POS] +
1679:Generated_Source\PSoC4/CapSense_CSHL.c ****                       (int32) CapSense_centroid[CapSense_POS_NEXT];
1680:Generated_Source\PSoC4/CapSense_CSHL.c **** 
1681:Generated_Source\PSoC4/CapSense_CSHL.c ****         /* (numerator/denominator) + maximum */
1682:Generated_Source\PSoC4/CapSense_CSHL.c ****         denominator = (((int32)(uint32)((uint32)numerator << 8u)/denominator) + (int32)(uint32)((ui
1683:Generated_Source\PSoC4/CapSense_CSHL.c **** 
1684:Generated_Source\PSoC4/CapSense_CSHL.c ****         #if(CapSense_TOTAL_RADIAL_SLIDERS_COUNT > 0u)
1685:Generated_Source\PSoC4/CapSense_CSHL.c ****             /* Only required for RADIAL Slider */
1686:Generated_Source\PSoC4/CapSense_CSHL.c ****             if(denominator < 0)
1687:Generated_Source\PSoC4/CapSense_CSHL.c ****             {
1688:Generated_Source\PSoC4/CapSense_CSHL.c ****                 denominator += (int32)((uint16)((uint16) count << 8u));
1689:Generated_Source\PSoC4/CapSense_CSHL.c ****             }
1690:Generated_Source\PSoC4/CapSense_CSHL.c ****         #endif /* (CapSense_TOTAL_RADIAL_SLIDERS_COUNT > 0u) */
1691:Generated_Source\PSoC4/CapSense_CSHL.c **** 
1692:Generated_Source\PSoC4/CapSense_CSHL.c ****         denominator *= (int16)resolution;
1693:Generated_Source\PSoC4/CapSense_CSHL.c **** 
1694:Generated_Source\PSoC4/CapSense_CSHL.c ****         /* Round result and put it to uint8 */
1695:Generated_Source\PSoC4/CapSense_CSHL.c ****         position = ((uint8) HI16((uint32)denominator + CapSense_CENTROID_ROUND_VALUE));
1696:Generated_Source\PSoC4/CapSense_CSHL.c **** 
1697:Generated_Source\PSoC4/CapSense_CSHL.c ****         return (position);
1698:Generated_Source\PSoC4/CapSense_CSHL.c ****     }
1699:Generated_Source\PSoC4/CapSense_CSHL.c **** #endif /* (CapSense_TOTAL_CENTROIDS_BASIC_COUNT) */
1700:Generated_Source\PSoC4/CapSense_CSHL.c **** 
1701:Generated_Source\PSoC4/CapSense_CSHL.c **** 
1702:Generated_Source\PSoC4/CapSense_CSHL.c **** #if((CapSense_TOTAL_RADIAL_SLIDERS_COUNT > 0u) || (CapSense_TOTAL_LINEAR_SLIDERS_COUNT > 0u))
1703:Generated_Source\PSoC4/CapSense_CSHL.c ****     /*******************************************************************************
1704:Generated_Source\PSoC4/CapSense_CSHL.c ****     * Function Name: CapSense_GetCentroidPos
1705:Generated_Source\PSoC4/CapSense_CSHL.c ****     ********************************************************************************
1706:Generated_Source\PSoC4/CapSense_CSHL.c ****     *
1707:Generated_Source\PSoC4/CapSense_CSHL.c ****     * Summary:
1708:Generated_Source\PSoC4/CapSense_CSHL.c ****     *  Checks the CapSense_Signal[ ] array for a centroid within
1709:Generated_Source\PSoC4/CapSense_CSHL.c ****     *  a slider specified range. The centroid position is calculated according to the resolution
1710:Generated_Source\PSoC4/CapSense_CSHL.c ****     *  specified in the CapSense customizer. The position filters are applied to the
1711:Generated_Source\PSoC4/CapSense_CSHL.c ****     *  result if enabled.
1712:Generated_Source\PSoC4/CapSense_CSHL.c ****     *
1713:Generated_Source\PSoC4/CapSense_CSHL.c ****     * Parameters:
ARM GAS  C:\Users\PC\AppData\Local\Temp\ccBgQfEQ.s 			page 65


1714:Generated_Source\PSoC4/CapSense_CSHL.c ****     *  widget:  Widget number.
1715:Generated_Source\PSoC4/CapSense_CSHL.c ****     *  For every linear slider widget there are defines in this format:
1716:Generated_Source\PSoC4/CapSense_CSHL.c ****     *  #define CapSense_"widget_name"__LS           5
1717:Generated_Source\PSoC4/CapSense_CSHL.c ****     *
1718:Generated_Source\PSoC4/CapSense_CSHL.c ****     * Return:
1719:Generated_Source\PSoC4/CapSense_CSHL.c ****     *  Returns a position value of the linear slider.
1720:Generated_Source\PSoC4/CapSense_CSHL.c ****     *
1721:Generated_Source\PSoC4/CapSense_CSHL.c ****     * Global Variables:
1722:Generated_Source\PSoC4/CapSense_CSHL.c ****     *  None
1723:Generated_Source\PSoC4/CapSense_CSHL.c ****     *
1724:Generated_Source\PSoC4/CapSense_CSHL.c ****     * Side Effects:
1725:Generated_Source\PSoC4/CapSense_CSHL.c ****     *  If any sensor within the slider widget is active, the function returns values
1726:Generated_Source\PSoC4/CapSense_CSHL.c ****     *  from zero to the API resolution value set in the CapSense customizer. If no
1727:Generated_Source\PSoC4/CapSense_CSHL.c ****     *  sensors are active, the function returns 0xFFFF. If an error occurs during
1728:Generated_Source\PSoC4/CapSense_CSHL.c ****     *  execution of the centroid/diplexing algorithm, the function returns 0xFFFF.
1729:Generated_Source\PSoC4/CapSense_CSHL.c ****     *  There are no checks of the widget type argument provided to this function.
1730:Generated_Source\PSoC4/CapSense_CSHL.c ****     *  The unproper widget type provided will cause unexpected position calculations.
1731:Generated_Source\PSoC4/CapSense_CSHL.c ****     *
1732:Generated_Source\PSoC4/CapSense_CSHL.c ****     * Note:
1733:Generated_Source\PSoC4/CapSense_CSHL.c ****     *  If noise counts on the slider segments are greater than the noise
1734:Generated_Source\PSoC4/CapSense_CSHL.c ****     *  threshold, this subroutine may generate a false centroid result. The noise
1735:Generated_Source\PSoC4/CapSense_CSHL.c ****     *  threshold should be set carefully (high enough above the noise level) so
1736:Generated_Source\PSoC4/CapSense_CSHL.c ****     *  that noise will not generate a false centroid.
1737:Generated_Source\PSoC4/CapSense_CSHL.c ****     *******************************************************************************/
1738:Generated_Source\PSoC4/CapSense_CSHL.c ****     uint16 CapSense_GetCentroidPos(uint32 widget)
1739:Generated_Source\PSoC4/CapSense_CSHL.c ****     {
1740:Generated_Source\PSoC4/CapSense_CSHL.c ****         #if (CapSense_IS_DIPLEX_SLIDER)
1741:Generated_Source\PSoC4/CapSense_CSHL.c ****             const uint8 *diplex;
1742:Generated_Source\PSoC4/CapSense_CSHL.c ****         #endif /* (CapSense_IS_DIPLEX_SLIDER) */
1743:Generated_Source\PSoC4/CapSense_CSHL.c **** 
1744:Generated_Source\PSoC4/CapSense_CSHL.c ****         #if (0u != CapSense_LINEAR_SLIDERS_POS_FILTERS_MASK)
1745:Generated_Source\PSoC4/CapSense_CSHL.c ****             uint8 posIndex;
1746:Generated_Source\PSoC4/CapSense_CSHL.c ****             uint8 firstTimeIndex = CapSense_posFiltersData[widget];
1747:Generated_Source\PSoC4/CapSense_CSHL.c ****             uint8 posFiltersMask = CapSense_posFiltersMask[widget];
1748:Generated_Source\PSoC4/CapSense_CSHL.c ****         #endif /* (0u != CapSense_LINEAR_SLIDERS_POS_FILTERS_MASK) */
1749:Generated_Source\PSoC4/CapSense_CSHL.c **** 
1750:Generated_Source\PSoC4/CapSense_CSHL.c ****         #if ((0u != (CapSense_MEDIAN_FILTER & CapSense_LINEAR_SLIDERS_POS_FILTERS_MASK)) || \
1751:Generated_Source\PSoC4/CapSense_CSHL.c ****              (0u != (CapSense_AVERAGING_FILTER & CapSense_LINEAR_SLIDERS_POS_FILTERS_MASK)))
1752:Generated_Source\PSoC4/CapSense_CSHL.c ****             uint8 tempPos;
1753:Generated_Source\PSoC4/CapSense_CSHL.c ****         #endif /* ((0u != (CapSense_MEDIAN_FILTER & CapSense_LINEAR_SLIDERS_POS_FILTERS_MASK)) || \
1754:Generated_Source\PSoC4/CapSense_CSHL.c ****                *   (0u != (CapSense_AVERAGING_FILTER & CapSense_LINEAR_SLIDERS_POS_FILTERS_MASK)))
1755:Generated_Source\PSoC4/CapSense_CSHL.c ****                */
1756:Generated_Source\PSoC4/CapSense_CSHL.c **** 
1757:Generated_Source\PSoC4/CapSense_CSHL.c ****         uint8 maximum;
1758:Generated_Source\PSoC4/CapSense_CSHL.c ****         uint16 position;
1759:Generated_Source\PSoC4/CapSense_CSHL.c ****         uint8 offset = CapSense_rawDataIndex[widget];
1760:Generated_Source\PSoC4/CapSense_CSHL.c ****         uint8 count = CapSense_numberOfSensors[widget];
1761:Generated_Source\PSoC4/CapSense_CSHL.c **** 
1762:Generated_Source\PSoC4/CapSense_CSHL.c ****         #if (CapSense_IS_DIPLEX_SLIDER)
1763:Generated_Source\PSoC4/CapSense_CSHL.c ****             if(widget < CapSense_TOTAL_DIPLEXED_SLIDERS_COUNT)
1764:Generated_Source\PSoC4/CapSense_CSHL.c ****             {
1765:Generated_Source\PSoC4/CapSense_CSHL.c ****                 maximum = CapSense_diplexTable[widget];
1766:Generated_Source\PSoC4/CapSense_CSHL.c ****                 diplex = &CapSense_diplexTable[maximum];
1767:Generated_Source\PSoC4/CapSense_CSHL.c ****             }
1768:Generated_Source\PSoC4/CapSense_CSHL.c ****             else
1769:Generated_Source\PSoC4/CapSense_CSHL.c ****             {
1770:Generated_Source\PSoC4/CapSense_CSHL.c ****                 diplex = 0u;
ARM GAS  C:\Users\PC\AppData\Local\Temp\ccBgQfEQ.s 			page 66


1771:Generated_Source\PSoC4/CapSense_CSHL.c ****             }
1772:Generated_Source\PSoC4/CapSense_CSHL.c ****         #endif /* (CapSense_IS_DIPLEX_SLIDER) */
1773:Generated_Source\PSoC4/CapSense_CSHL.c **** 
1774:Generated_Source\PSoC4/CapSense_CSHL.c ****         /* Find Maximum within centroid */
1775:Generated_Source\PSoC4/CapSense_CSHL.c ****         #if (CapSense_IS_DIPLEX_SLIDER)
1776:Generated_Source\PSoC4/CapSense_CSHL.c ****             maximum = CapSense_FindMaximum(offset, count, (uint8)CapSense_fingerThreshold[widget], 
1777:Generated_Source\PSoC4/CapSense_CSHL.c ****         #else
1778:Generated_Source\PSoC4/CapSense_CSHL.c ****             maximum = CapSense_FindMaximum(offset, count, (uint8)CapSense_fingerThreshold[widget]);
1779:Generated_Source\PSoC4/CapSense_CSHL.c ****         #endif /* (CapSense_IS_DIPLEX_SLIDER) */
1780:Generated_Source\PSoC4/CapSense_CSHL.c **** 
1781:Generated_Source\PSoC4/CapSense_CSHL.c ****         if (maximum != 0xFFu)
1782:Generated_Source\PSoC4/CapSense_CSHL.c ****         {
1783:Generated_Source\PSoC4/CapSense_CSHL.c ****             /* Calculate centroid */
1784:Generated_Source\PSoC4/CapSense_CSHL.c ****             position = (uint16) CapSense_CalcCentroid(maximum,
1785:Generated_Source\PSoC4/CapSense_CSHL.c ****                          offset, count, CapSense_centroidMult[widget], CapSense_noiseThreshold[widg
1786:Generated_Source\PSoC4/CapSense_CSHL.c **** 
1787:Generated_Source\PSoC4/CapSense_CSHL.c ****             #if (0u != CapSense_LINEAR_SLIDERS_POS_FILTERS_MASK)
1788:Generated_Source\PSoC4/CapSense_CSHL.c ****                 /* Check if this linear slider has enabled filters */
1789:Generated_Source\PSoC4/CapSense_CSHL.c ****                 if (0u != (posFiltersMask & CapSense_ANY_POS_FILTER))
1790:Generated_Source\PSoC4/CapSense_CSHL.c ****                 {
1791:Generated_Source\PSoC4/CapSense_CSHL.c ****                     /* Calculate position to store filters data */
1792:Generated_Source\PSoC4/CapSense_CSHL.c ****                     posIndex  = firstTimeIndex + 1u;
1793:Generated_Source\PSoC4/CapSense_CSHL.c **** 
1794:Generated_Source\PSoC4/CapSense_CSHL.c ****                     if (0u == CapSense_posFiltersData[firstTimeIndex])
1795:Generated_Source\PSoC4/CapSense_CSHL.c ****                     {
1796:Generated_Source\PSoC4/CapSense_CSHL.c ****                         /* Init filters */
1797:Generated_Source\PSoC4/CapSense_CSHL.c ****                         CapSense_posFiltersData[posIndex] = (uint8) position;
1798:Generated_Source\PSoC4/CapSense_CSHL.c ****                         #if ((0u != (CapSense_MEDIAN_FILTER & \
1799:Generated_Source\PSoC4/CapSense_CSHL.c ****                                      CapSense_LINEAR_SLIDERS_POS_FILTERS_MASK)) || \
1800:Generated_Source\PSoC4/CapSense_CSHL.c ****                              (0u != (CapSense_AVERAGING_FILTER & \
1801:Generated_Source\PSoC4/CapSense_CSHL.c ****                                      CapSense_LINEAR_SLIDERS_POS_FILTERS_MASK)))
1802:Generated_Source\PSoC4/CapSense_CSHL.c **** 
1803:Generated_Source\PSoC4/CapSense_CSHL.c ****                             if ( (0u != (posFiltersMask & CapSense_MEDIAN_FILTER)) ||
1804:Generated_Source\PSoC4/CapSense_CSHL.c ****                                  (0u != (posFiltersMask & CapSense_AVERAGING_FILTER)) )
1805:Generated_Source\PSoC4/CapSense_CSHL.c ****                             {
1806:Generated_Source\PSoC4/CapSense_CSHL.c ****                                 CapSense_posFiltersData[posIndex + 1u] = (uint8) position;
1807:Generated_Source\PSoC4/CapSense_CSHL.c ****                             }
1808:Generated_Source\PSoC4/CapSense_CSHL.c ****                         #endif /* ((0u != (CapSense_MEDIAN_FILTER & \
1809:Generated_Source\PSoC4/CapSense_CSHL.c ****                                *           CapSense_LINEAR_SLIDERS_POS_FILTERS_MASK)) || \
1810:Generated_Source\PSoC4/CapSense_CSHL.c ****                                *   (0u != (CapSense_AVERAGING_FILTER & \
1811:Generated_Source\PSoC4/CapSense_CSHL.c ****                                *           CapSense_LINEAR_SLIDERS_POS_FILTERS_MASK)))
1812:Generated_Source\PSoC4/CapSense_CSHL.c ****                                */
1813:Generated_Source\PSoC4/CapSense_CSHL.c **** 
1814:Generated_Source\PSoC4/CapSense_CSHL.c ****                         CapSense_posFiltersData[firstTimeIndex] = 1u;
1815:Generated_Source\PSoC4/CapSense_CSHL.c ****                     }
1816:Generated_Source\PSoC4/CapSense_CSHL.c ****                     else
1817:Generated_Source\PSoC4/CapSense_CSHL.c ****                     {
1818:Generated_Source\PSoC4/CapSense_CSHL.c ****                         /* Do filtering */
1819:Generated_Source\PSoC4/CapSense_CSHL.c ****                         #if (0u != (CapSense_MEDIAN_FILTER & CapSense_LINEAR_SLIDERS_POS_FILTERS_MA
1820:Generated_Source\PSoC4/CapSense_CSHL.c ****                             if (0u != (posFiltersMask & CapSense_MEDIAN_FILTER))
1821:Generated_Source\PSoC4/CapSense_CSHL.c ****                             {
1822:Generated_Source\PSoC4/CapSense_CSHL.c ****                                 tempPos = (uint8) position;
1823:Generated_Source\PSoC4/CapSense_CSHL.c ****                                 position = CapSense_MedianFilter(position,
1824:Generated_Source\PSoC4/CapSense_CSHL.c ****                                                                 (uint16)CapSense_posFiltersData[pos
1825:Generated_Source\PSoC4/CapSense_CSHL.c ****                                                                 (uint16)CapSense_posFiltersData[pos
1826:Generated_Source\PSoC4/CapSense_CSHL.c ****                                 CapSense_posFiltersData[posIndex + 1u] =
1827:Generated_Source\PSoC4/CapSense_CSHL.c ****                                                                              CapSense_posFiltersDat
ARM GAS  C:\Users\PC\AppData\Local\Temp\ccBgQfEQ.s 			page 67


1828:Generated_Source\PSoC4/CapSense_CSHL.c ****                                 CapSense_posFiltersData[posIndex] = tempPos;
1829:Generated_Source\PSoC4/CapSense_CSHL.c ****                             }
1830:Generated_Source\PSoC4/CapSense_CSHL.c ****                         #endif /*(0u != (CapSense_MEDIAN_FILTER &
1831:Generated_Source\PSoC4/CapSense_CSHL.c ****                                *         CapSense_LINEAR_SLIDERS_POS_FILTERS_MASK))
1832:Generated_Source\PSoC4/CapSense_CSHL.c ****                                */
1833:Generated_Source\PSoC4/CapSense_CSHL.c **** 
1834:Generated_Source\PSoC4/CapSense_CSHL.c ****                         #if(0u!=(CapSense_AVERAGING_FILTER & CapSense_LINEAR_SLIDERS_POS_FILTERS_MA
1835:Generated_Source\PSoC4/CapSense_CSHL.c ****                             if (0u != (posFiltersMask & CapSense_AVERAGING_FILTER))
1836:Generated_Source\PSoC4/CapSense_CSHL.c ****                             {
1837:Generated_Source\PSoC4/CapSense_CSHL.c ****                                 tempPos = (uint8) position;
1838:Generated_Source\PSoC4/CapSense_CSHL.c ****                                 position = CapSense_AveragingFilter(position,
1839:Generated_Source\PSoC4/CapSense_CSHL.c ****                                                                 (uint16)CapSense_posFiltersData[pos
1840:Generated_Source\PSoC4/CapSense_CSHL.c ****                                                                 (uint16)CapSense_posFiltersData[pos
1841:Generated_Source\PSoC4/CapSense_CSHL.c ****                                 CapSense_posFiltersData[posIndex+1u]=CapSense_posFiltersData[posInd
1842:Generated_Source\PSoC4/CapSense_CSHL.c ****                                 CapSense_posFiltersData[posIndex] = tempPos;
1843:Generated_Source\PSoC4/CapSense_CSHL.c ****                             }
1844:Generated_Source\PSoC4/CapSense_CSHL.c ****                         #endif /* (0u != (CapSense_AVERAGING_FILTER & \
1845:Generated_Source\PSoC4/CapSense_CSHL.c ****                                *           CapSense_LINEAR_SLIDERS_POS_FILTERS_MASK))
1846:Generated_Source\PSoC4/CapSense_CSHL.c ****                                */
1847:Generated_Source\PSoC4/CapSense_CSHL.c **** 
1848:Generated_Source\PSoC4/CapSense_CSHL.c ****                         #if (0u != (CapSense_IIR2_FILTER & CapSense_LINEAR_SLIDERS_POS_FILTERS_MASK
1849:Generated_Source\PSoC4/CapSense_CSHL.c ****                             if (0u != (posFiltersMask & CapSense_IIR2_FILTER))
1850:Generated_Source\PSoC4/CapSense_CSHL.c ****                             {
1851:Generated_Source\PSoC4/CapSense_CSHL.c ****                                 position = CapSense_IIR2Filter(position,
1852:Generated_Source\PSoC4/CapSense_CSHL.c ****                                                                     (uint16)CapSense_posFiltersData
1853:Generated_Source\PSoC4/CapSense_CSHL.c ****                                 CapSense_posFiltersData[posIndex] = (uint8) position;
1854:Generated_Source\PSoC4/CapSense_CSHL.c ****                             }
1855:Generated_Source\PSoC4/CapSense_CSHL.c ****                         #endif /* (0u != (CapSense_IIR2_FILTER & \
1856:Generated_Source\PSoC4/CapSense_CSHL.c ****                                *          CapSense_LINEAR_SLIDERS_POS_FILTERS_MASK))
1857:Generated_Source\PSoC4/CapSense_CSHL.c ****                                */
1858:Generated_Source\PSoC4/CapSense_CSHL.c **** 
1859:Generated_Source\PSoC4/CapSense_CSHL.c ****                         #if (0u != (CapSense_IIR4_FILTER & CapSense_LINEAR_SLIDERS_POS_FILTERS_MASK
1860:Generated_Source\PSoC4/CapSense_CSHL.c ****                             if (0u != (posFiltersMask & CapSense_IIR4_FILTER))
1861:Generated_Source\PSoC4/CapSense_CSHL.c ****                             {
1862:Generated_Source\PSoC4/CapSense_CSHL.c ****                                 position = CapSense_IIR4Filter(position,
1863:Generated_Source\PSoC4/CapSense_CSHL.c ****                                                                     (uint16)CapSense_posFiltersData
1864:Generated_Source\PSoC4/CapSense_CSHL.c ****                                 CapSense_posFiltersData[posIndex] = (uint8) position;
1865:Generated_Source\PSoC4/CapSense_CSHL.c ****                             }
1866:Generated_Source\PSoC4/CapSense_CSHL.c ****                         #endif /* (0u != (CapSense_IIR4_FILTER & \
1867:Generated_Source\PSoC4/CapSense_CSHL.c ****                                *          CapSense_LINEAR_SLIDERS_POS_FILTERS_MASK))
1868:Generated_Source\PSoC4/CapSense_CSHL.c ****                                */
1869:Generated_Source\PSoC4/CapSense_CSHL.c **** 
1870:Generated_Source\PSoC4/CapSense_CSHL.c ****                         #if (0u != (CapSense_JITTER_FILTER & CapSense_LINEAR_SLIDERS_POS_FILTERS_MA
1871:Generated_Source\PSoC4/CapSense_CSHL.c ****                             if (0u != (posFiltersMask & CapSense_JITTER_FILTER))
1872:Generated_Source\PSoC4/CapSense_CSHL.c ****                             {
1873:Generated_Source\PSoC4/CapSense_CSHL.c ****                                 position = CapSense_JitterFilter(position,
1874:Generated_Source\PSoC4/CapSense_CSHL.c ****                                                                     (uint16)CapSense_posFiltersData
1875:Generated_Source\PSoC4/CapSense_CSHL.c ****                                 CapSense_posFiltersData[posIndex] = (uint8) position;
1876:Generated_Source\PSoC4/CapSense_CSHL.c ****                             }
1877:Generated_Source\PSoC4/CapSense_CSHL.c ****                         #endif /* (0u != (CapSense_JITTER_FILTER & \
1878:Generated_Source\PSoC4/CapSense_CSHL.c ****                                *           CapSense_LINEAR_SLIDERS_POS_FILTERS_MASK))
1879:Generated_Source\PSoC4/CapSense_CSHL.c ****                                */
1880:Generated_Source\PSoC4/CapSense_CSHL.c ****                     }
1881:Generated_Source\PSoC4/CapSense_CSHL.c ****                 }
1882:Generated_Source\PSoC4/CapSense_CSHL.c ****             #endif /* (0u != CapSense_LINEAR_SLIDERS_POS_FILTERS_MASK) */
1883:Generated_Source\PSoC4/CapSense_CSHL.c **** 
1884:Generated_Source\PSoC4/CapSense_CSHL.c ****         }
ARM GAS  C:\Users\PC\AppData\Local\Temp\ccBgQfEQ.s 			page 68


1885:Generated_Source\PSoC4/CapSense_CSHL.c ****         else
1886:Generated_Source\PSoC4/CapSense_CSHL.c ****         {
1887:Generated_Source\PSoC4/CapSense_CSHL.c ****             /* Maximum wasn't found */
1888:Generated_Source\PSoC4/CapSense_CSHL.c ****             position = 0xFFFFu;
1889:Generated_Source\PSoC4/CapSense_CSHL.c **** 
1890:Generated_Source\PSoC4/CapSense_CSHL.c ****             #if(0u != CapSense_LINEAR_SLIDERS_POS_FILTERS_MASK)
1891:Generated_Source\PSoC4/CapSense_CSHL.c ****                 /* Reset filters */
1892:Generated_Source\PSoC4/CapSense_CSHL.c ****                 if(0u != (posFiltersMask & CapSense_ANY_POS_FILTER))
1893:Generated_Source\PSoC4/CapSense_CSHL.c ****                 {
1894:Generated_Source\PSoC4/CapSense_CSHL.c ****                     CapSense_posFiltersData[firstTimeIndex] = 0u;
1895:Generated_Source\PSoC4/CapSense_CSHL.c ****                 }
1896:Generated_Source\PSoC4/CapSense_CSHL.c ****             #endif /* (0u != CapSense_LINEAR_SLIDERS_POS_FILTERS_MASK) */
1897:Generated_Source\PSoC4/CapSense_CSHL.c ****         }
1898:Generated_Source\PSoC4/CapSense_CSHL.c **** 
1899:Generated_Source\PSoC4/CapSense_CSHL.c **** 
1900:Generated_Source\PSoC4/CapSense_CSHL.c ****         return (position);
1901:Generated_Source\PSoC4/CapSense_CSHL.c ****     }
1902:Generated_Source\PSoC4/CapSense_CSHL.c **** #endif /* ((CapSense_TOTAL_RADIAL_SLIDERS_COUNT > 0u) || (CapSense_TOTAL_LINEAR_SLIDERS_COUNT > 0u)
1903:Generated_Source\PSoC4/CapSense_CSHL.c **** 
1904:Generated_Source\PSoC4/CapSense_CSHL.c **** 
1905:Generated_Source\PSoC4/CapSense_CSHL.c **** #if((CapSense_TOTAL_RADIAL_SLIDERS_COUNT > 0u) || (CapSense_TOTAL_LINEAR_SLIDERS_COUNT > 0u))
1906:Generated_Source\PSoC4/CapSense_CSHL.c ****     /*******************************************************************************
1907:Generated_Source\PSoC4/CapSense_CSHL.c ****     * Function Name: CapSense_GetRadialCentroidPos
1908:Generated_Source\PSoC4/CapSense_CSHL.c ****     ********************************************************************************
1909:Generated_Source\PSoC4/CapSense_CSHL.c ****     *
1910:Generated_Source\PSoC4/CapSense_CSHL.c ****     * Summary:
1911:Generated_Source\PSoC4/CapSense_CSHL.c ****     *  Checks the CapSense_Signal[ ] array for a centroid within
1912:Generated_Source\PSoC4/CapSense_CSHL.c ****     *  a slider specified range. The centroid position is calculated according to the resolution
1913:Generated_Source\PSoC4/CapSense_CSHL.c ****     *  specified in the CapSense customizer. The position filters are applied to the
1914:Generated_Source\PSoC4/CapSense_CSHL.c ****     *  result if enabled.
1915:Generated_Source\PSoC4/CapSense_CSHL.c ****     *
1916:Generated_Source\PSoC4/CapSense_CSHL.c ****     * Parameters:
1917:Generated_Source\PSoC4/CapSense_CSHL.c ****     *  widget:  Widget number.
1918:Generated_Source\PSoC4/CapSense_CSHL.c ****     *  For every radial slider widget there are defines in this format:
1919:Generated_Source\PSoC4/CapSense_CSHL.c ****     *  #define CapSense_"widget_name"__RS           5
1920:Generated_Source\PSoC4/CapSense_CSHL.c ****     *
1921:Generated_Source\PSoC4/CapSense_CSHL.c ****     * Return:
1922:Generated_Source\PSoC4/CapSense_CSHL.c ****     *  Returns a position value of the radial slider.
1923:Generated_Source\PSoC4/CapSense_CSHL.c ****     *
1924:Generated_Source\PSoC4/CapSense_CSHL.c ****     * Global Variables:
1925:Generated_Source\PSoC4/CapSense_CSHL.c ****     *  None.
1926:Generated_Source\PSoC4/CapSense_CSHL.c ****     *
1927:Generated_Source\PSoC4/CapSense_CSHL.c ****     * Side Effects:
1928:Generated_Source\PSoC4/CapSense_CSHL.c ****     *  If any sensor within the slider widget is active, the function returns values
1929:Generated_Source\PSoC4/CapSense_CSHL.c ****     *  from zero to the API resolution value set in the CapSense customizer. If no
1930:Generated_Source\PSoC4/CapSense_CSHL.c ****     *  sensors are active, the function returns 0xFFFF.
1931:Generated_Source\PSoC4/CapSense_CSHL.c ****     *  There are no checks of the widget type argument provided to this function.
1932:Generated_Source\PSoC4/CapSense_CSHL.c ****     *  The unproper widget type provided will cause unexpected position calculations.
1933:Generated_Source\PSoC4/CapSense_CSHL.c ****     *
1934:Generated_Source\PSoC4/CapSense_CSHL.c ****     * Note:
1935:Generated_Source\PSoC4/CapSense_CSHL.c ****     *  If noise counts on the slider segments are greater than the noise
1936:Generated_Source\PSoC4/CapSense_CSHL.c ****     *  threshold, this subroutine may generate a false centroid result. The noise
1937:Generated_Source\PSoC4/CapSense_CSHL.c ****     *  threshold should be set carefully (high enough above the noise level) so
1938:Generated_Source\PSoC4/CapSense_CSHL.c ****     *  that noise will not generate a false centroid.
1939:Generated_Source\PSoC4/CapSense_CSHL.c ****     *
1940:Generated_Source\PSoC4/CapSense_CSHL.c ****     *******************************************************************************/
1941:Generated_Source\PSoC4/CapSense_CSHL.c ****      uint16 CapSense_GetRadialCentroidPos(uint32 widget)
ARM GAS  C:\Users\PC\AppData\Local\Temp\ccBgQfEQ.s 			page 69


1942:Generated_Source\PSoC4/CapSense_CSHL.c ****     {
1943:Generated_Source\PSoC4/CapSense_CSHL.c ****         #if (0u != CapSense_RADIAL_SLIDERS_POS_FILTERS_MASK)
1944:Generated_Source\PSoC4/CapSense_CSHL.c ****             uint8 posIndex;
1945:Generated_Source\PSoC4/CapSense_CSHL.c ****             uint8 firstTimeIndex = CapSense_posFiltersData[widget];
1946:Generated_Source\PSoC4/CapSense_CSHL.c ****             uint8 posFiltersMask = CapSense_posFiltersMask[widget];
1947:Generated_Source\PSoC4/CapSense_CSHL.c ****         #endif /* (0u != CapSense_RADIAL_SLIDERS_POS_FILTERS_MASK) */
1948:Generated_Source\PSoC4/CapSense_CSHL.c **** 
1949:Generated_Source\PSoC4/CapSense_CSHL.c ****         #if ((0u != (CapSense_MEDIAN_FILTER & CapSense_RADIAL_SLIDERS_POS_FILTERS_MASK)) || \
1950:Generated_Source\PSoC4/CapSense_CSHL.c ****              (0u != (CapSense_AVERAGING_FILTER & CapSense_RADIAL_SLIDERS_POS_FILTERS_MASK)))
1951:Generated_Source\PSoC4/CapSense_CSHL.c ****             uint8 tempPos;
1952:Generated_Source\PSoC4/CapSense_CSHL.c ****         #endif /* ((0u != (CapSense_MEDIAN_FILTER & CapSense_RADIAL_SLIDERS_POS_FILTERS_MASK)) || \
1953:Generated_Source\PSoC4/CapSense_CSHL.c ****                *   (0u != (CapSense_AVERAGING_FILTER & CapSense_RADIAL_SLIDERS_POS_FILTERS_MASK)))
1954:Generated_Source\PSoC4/CapSense_CSHL.c ****                */
1955:Generated_Source\PSoC4/CapSense_CSHL.c **** 
1956:Generated_Source\PSoC4/CapSense_CSHL.c ****         uint8 maximum;
1957:Generated_Source\PSoC4/CapSense_CSHL.c ****         uint16 position;
1958:Generated_Source\PSoC4/CapSense_CSHL.c ****         uint8 offset = CapSense_rawDataIndex[widget];
1959:Generated_Source\PSoC4/CapSense_CSHL.c ****         uint8 count = CapSense_numberOfSensors[widget];
1960:Generated_Source\PSoC4/CapSense_CSHL.c **** 
1961:Generated_Source\PSoC4/CapSense_CSHL.c ****         /* Find Maximum within centroid */
1962:Generated_Source\PSoC4/CapSense_CSHL.c ****         #if (CapSense_IS_DIPLEX_SLIDER)
1963:Generated_Source\PSoC4/CapSense_CSHL.c ****             maximum = CapSense_FindMaximum(offset, count, (uint8)CapSense_fingerThreshold[widget], 
1964:Generated_Source\PSoC4/CapSense_CSHL.c ****         #else
1965:Generated_Source\PSoC4/CapSense_CSHL.c ****             maximum = CapSense_FindMaximum(offset, count, (uint8)CapSense_fingerThreshold[widget]);
1966:Generated_Source\PSoC4/CapSense_CSHL.c ****         #endif /* (CapSense_IS_DIPLEX_SLIDER) */
1967:Generated_Source\PSoC4/CapSense_CSHL.c **** 
1968:Generated_Source\PSoC4/CapSense_CSHL.c ****         if (maximum != CapSense_MAXIMUM_CENTROID)
1969:Generated_Source\PSoC4/CapSense_CSHL.c ****         {
1970:Generated_Source\PSoC4/CapSense_CSHL.c ****             /* Calculate centroid */
1971:Generated_Source\PSoC4/CapSense_CSHL.c ****             position = (uint16) CapSense_CalcCentroid(maximum,
1972:Generated_Source\PSoC4/CapSense_CSHL.c ****                          offset, count, CapSense_centroidMult[widget], CapSense_noiseThreshold[widg
1973:Generated_Source\PSoC4/CapSense_CSHL.c **** 
1974:Generated_Source\PSoC4/CapSense_CSHL.c ****             #if (0u != CapSense_RADIAL_SLIDERS_POS_FILTERS_MASK)
1975:Generated_Source\PSoC4/CapSense_CSHL.c ****                 /* Check if this Radial slider has enabled filters */
1976:Generated_Source\PSoC4/CapSense_CSHL.c ****                 if (0u != (posFiltersMask & CapSense_ANY_POS_FILTER))
1977:Generated_Source\PSoC4/CapSense_CSHL.c ****                 {
1978:Generated_Source\PSoC4/CapSense_CSHL.c ****                     /* Calculate position to store filters data */
1979:Generated_Source\PSoC4/CapSense_CSHL.c ****                     posIndex  = firstTimeIndex + 1u;
1980:Generated_Source\PSoC4/CapSense_CSHL.c **** 
1981:Generated_Source\PSoC4/CapSense_CSHL.c ****                     if (0u == CapSense_posFiltersData[firstTimeIndex])
1982:Generated_Source\PSoC4/CapSense_CSHL.c ****                     {
