ARM GAS  C:\Users\PC\AppData\Local\Temp\ccQA8CFM.s 			page 1


   1              		.syntax unified
   2              		.cpu cortex-m0
   3              		.fpu softvfp
   4              		.eabi_attribute 20, 1
   5              		.eabi_attribute 21, 1
   6              		.eabi_attribute 23, 3
   7              		.eabi_attribute 24, 1
   8              		.eabi_attribute 25, 1
   9              		.eabi_attribute 26, 1
  10              		.eabi_attribute 30, 6
  11              		.eabi_attribute 34, 0
  12              		.eabi_attribute 18, 4
  13              		.thumb
  14              		.syntax unified
  15              		.file	"CyFlash.c"
  16              		.text
  17              	.Ltext0:
  18              		.cfi_sections	.debug_frame
  19              		.section	.text.CySysFlashWriteRow,"ax",%progbits
  20              		.align	2
  21              		.global	CySysFlashWriteRow
  22              		.code	16
  23              		.thumb_func
  24              		.type	CySysFlashWriteRow, %function
  25              	CySysFlashWriteRow:
  26              	.LFB2:
  27              		.file 1 "Generated_Source\\PSoC4\\CyFlash.c"
   1:Generated_Source\PSoC4/CyFlash.c **** /***************************************************************************//**
   2:Generated_Source\PSoC4/CyFlash.c **** * \file CyFlash.c
   3:Generated_Source\PSoC4/CyFlash.c **** * \version 5.50
   4:Generated_Source\PSoC4/CyFlash.c **** *
   5:Generated_Source\PSoC4/CyFlash.c **** * \brief Provides an API for the FLASH.
   6:Generated_Source\PSoC4/CyFlash.c **** *
   7:Generated_Source\PSoC4/CyFlash.c **** * \note This code is endian agnostic.
   8:Generated_Source\PSoC4/CyFlash.c **** *
   9:Generated_Source\PSoC4/CyFlash.c **** * \note Documentation of the API's in this file is located in the System
  10:Generated_Source\PSoC4/CyFlash.c **** * Reference Guide provided with PSoC Creator.
  11:Generated_Source\PSoC4/CyFlash.c **** *
  12:Generated_Source\PSoC4/CyFlash.c **** ********************************************************************************
  13:Generated_Source\PSoC4/CyFlash.c **** * \copyright
  14:Generated_Source\PSoC4/CyFlash.c **** * Copyright 2010-2016, Cypress Semiconductor Corporation.  All rights reserved.
  15:Generated_Source\PSoC4/CyFlash.c **** * You may use this file only in accordance with the license, terms, conditions,
  16:Generated_Source\PSoC4/CyFlash.c **** * disclaimers, and limitations in the end user license agreement accompanying
  17:Generated_Source\PSoC4/CyFlash.c **** * the software package with which this file was provided.
  18:Generated_Source\PSoC4/CyFlash.c **** *******************************************************************************/
  19:Generated_Source\PSoC4/CyFlash.c **** 
  20:Generated_Source\PSoC4/CyFlash.c **** #include "CyFlash.h"
  21:Generated_Source\PSoC4/CyFlash.c **** 
  22:Generated_Source\PSoC4/CyFlash.c **** 
  23:Generated_Source\PSoC4/CyFlash.c **** /*******************************************************************************
  24:Generated_Source\PSoC4/CyFlash.c **** * Cypress identified a defect with the Flash write functionality of the
  25:Generated_Source\PSoC4/CyFlash.c **** * PSoC 4000, PSoC 4100, and PSoC 4200 devices. The CySysFlashWriteRow() function
  26:Generated_Source\PSoC4/CyFlash.c **** * now checks the data to be written and, if necessary, modifies it to have a
  27:Generated_Source\PSoC4/CyFlash.c **** * non-zero checksum. After writing to Flash, the modified data is replaced
  28:Generated_Source\PSoC4/CyFlash.c **** * (Flash program) with the correct (original) data.
  29:Generated_Source\PSoC4/CyFlash.c **** *******************************************************************************/
  30:Generated_Source\PSoC4/CyFlash.c **** #define CY_FLASH_CHECKSUM_WORKAROUND    (CY_PSOC4_4000 || CY_PSOC4_4100 || CY_PSOC4_4200)
ARM GAS  C:\Users\PC\AppData\Local\Temp\ccQA8CFM.s 			page 2


  31:Generated_Source\PSoC4/CyFlash.c **** 
  32:Generated_Source\PSoC4/CyFlash.c **** #if (CY_IP_FM || ((!CY_PSOC4_4000) && CY_IP_SPCIF_SYNCHRONOUS) || (!CY_IP_FM) && CY_PSOC4_4000)
  33:Generated_Source\PSoC4/CyFlash.c ****     static CY_SYS_FLASH_CLOCK_BACKUP_STRUCT cySysFlashBackup;
  34:Generated_Source\PSoC4/CyFlash.c **** #endif /* (CY_IP_FM || ((!CY_PSOC4_4000) && CY_IP_SPCIF_SYNCHRONOUS) || (!CY_IP_FM) && CY_PSOC4_400
  35:Generated_Source\PSoC4/CyFlash.c **** 
  36:Generated_Source\PSoC4/CyFlash.c **** static cystatus CySysFlashClockBackup(void);
  37:Generated_Source\PSoC4/CyFlash.c **** static cystatus CySysFlashClockRestore(void);
  38:Generated_Source\PSoC4/CyFlash.c **** #if(CY_IP_SPCIF_SYNCHRONOUS)
  39:Generated_Source\PSoC4/CyFlash.c ****     static cystatus CySysFlashClockConfig(void);
  40:Generated_Source\PSoC4/CyFlash.c **** #endif  /* (CY_IP_SPCIF_SYNCHRONOUS) */
  41:Generated_Source\PSoC4/CyFlash.c **** 
  42:Generated_Source\PSoC4/CyFlash.c **** 
  43:Generated_Source\PSoC4/CyFlash.c **** /*******************************************************************************
  44:Generated_Source\PSoC4/CyFlash.c **** * Function Name: CySysFlashWriteRow
  45:Generated_Source\PSoC4/CyFlash.c **** ****************************************************************************//**
  46:Generated_Source\PSoC4/CyFlash.c **** *
  47:Generated_Source\PSoC4/CyFlash.c **** * Erases a row of Flash and programs it with the new data.
  48:Generated_Source\PSoC4/CyFlash.c **** *
  49:Generated_Source\PSoC4/CyFlash.c **** * The IMO must be enabled before calling this function. The operation of the
  50:Generated_Source\PSoC4/CyFlash.c **** * flash writing hardware is dependent on the IMO.
  51:Generated_Source\PSoC4/CyFlash.c **** *
  52:Generated_Source\PSoC4/CyFlash.c **** * For PSoC 4000, PSoC 4100 BLE and PSoC 4200 BLE devices (PSoC 4100 BLE and
  53:Generated_Source\PSoC4/CyFlash.c **** * PSoC 4200 BLE devices with 256K of Flash memory are not affected), this API
  54:Generated_Source\PSoC4/CyFlash.c **** * will automatically modify the clock settings for the device. Writing to
  55:Generated_Source\PSoC4/CyFlash.c **** * flash requires that changes be made to the IMO and HFCLK settings. The
  56:Generated_Source\PSoC4/CyFlash.c **** * configuration is restored before returning. This will impact the operation
  57:Generated_Source\PSoC4/CyFlash.c **** * of most of the hardware in the device.
  58:Generated_Source\PSoC4/CyFlash.c **** *
  59:Generated_Source\PSoC4/CyFlash.c **** * For PSoC 4000 devices this API will automatically modify the clock settings
  60:Generated_Source\PSoC4/CyFlash.c **** * for the device. Writing to flash requires that changes be made to the IMO
  61:Generated_Source\PSoC4/CyFlash.c **** * and HFCLK settings. The configuration is restored before returning. HFCLK
  62:Generated_Source\PSoC4/CyFlash.c **** * will have several frequency changes during the operation of this API between
  63:Generated_Source\PSoC4/CyFlash.c **** * a minimum frequency of the current IMO frequency divided by 8 and a maximum
  64:Generated_Source\PSoC4/CyFlash.c **** * frequency of 12 MHz. This will impact the operation of most of the hardware
  65:Generated_Source\PSoC4/CyFlash.c **** * in the device.
  66:Generated_Source\PSoC4/CyFlash.c **** *
  67:Generated_Source\PSoC4/CyFlash.c **** * \param rowNum The flash row number. The number of the flash rows is defined by
  68:Generated_Source\PSoC4/CyFlash.c **** * the \ref CY_FLASH_NUMBER_ROWS macro for the selected device. Refer to the
  69:Generated_Source\PSoC4/CyFlash.c **** * device datasheet for the details.
  70:Generated_Source\PSoC4/CyFlash.c **** * \note The target flash array is calculated based on the specified flash row.
  71:Generated_Source\PSoC4/CyFlash.c **** *
  72:Generated_Source\PSoC4/CyFlash.c **** * \param rowData Array of bytes to write. The size of the array must be equal to
  73:Generated_Source\PSoC4/CyFlash.c **** * the flash row size. The flash row size for the selected device is defined by
  74:Generated_Source\PSoC4/CyFlash.c **** * the \ref CY_FLASH_SIZEOF_ROW macro. Refer to the device datasheet for the
  75:Generated_Source\PSoC4/CyFlash.c **** * details.
  76:Generated_Source\PSoC4/CyFlash.c **** *
  77:Generated_Source\PSoC4/CyFlash.c **** * \return \ref group_flash_status_codes
  78:Generated_Source\PSoC4/CyFlash.c **** *
  79:Generated_Source\PSoC4/CyFlash.c **** *******************************************************************************/
  80:Generated_Source\PSoC4/CyFlash.c **** uint32 CySysFlashWriteRow(uint32 rowNum, const uint8 rowData[])
  81:Generated_Source\PSoC4/CyFlash.c **** {
  28              		.loc 1 81 0
  29              		.cfi_startproc
  30              		@ args = 0, pretend = 0, frame = 288
  31              		@ frame_needed = 1, uses_anonymous_args = 0
  32 0000 90B5     		push	{r4, r7, lr}
  33              		.cfi_def_cfa_offset 12
ARM GAS  C:\Users\PC\AppData\Local\Temp\ccQA8CFM.s 			page 3


  34              		.cfi_offset 4, -12
  35              		.cfi_offset 7, -8
  36              		.cfi_offset 14, -4
  37 0002 C9B0     		sub	sp, sp, #292
  38              		.cfi_def_cfa_offset 304
  39 0004 00AF     		add	r7, sp, #0
  40              		.cfi_def_cfa_register 7
  41 0006 7860     		str	r0, [r7, #4]
  42 0008 3960     		str	r1, [r7]
  82:Generated_Source\PSoC4/CyFlash.c ****     volatile uint32 retValue = CY_SYS_FLASH_SUCCESS;
  43              		.loc 1 82 0
  44 000a 0023     		movs	r3, #0
  45 000c 8C22     		movs	r2, #140
  46 000e 5200     		lsls	r2, r2, #1
  47 0010 BA18     		adds	r2, r7, r2
  48 0012 1360     		str	r3, [r2]
  83:Generated_Source\PSoC4/CyFlash.c ****     volatile uint32 clkCnfRetValue = CY_SYS_FLASH_SUCCESS;
  49              		.loc 1 83 0
  50 0014 0023     		movs	r3, #0
  51 0016 8A22     		movs	r2, #138
  52 0018 5200     		lsls	r2, r2, #1
  53 001a BA18     		adds	r2, r7, r2
  54 001c 1360     		str	r3, [r2]
  84:Generated_Source\PSoC4/CyFlash.c ****     volatile uint32 parameters[(CY_FLASH_SIZEOF_ROW + CY_FLASH_SRAM_ROM_DATA) / sizeof(uint32)];
  85:Generated_Source\PSoC4/CyFlash.c ****     uint8  interruptState;
  86:Generated_Source\PSoC4/CyFlash.c **** 
  87:Generated_Source\PSoC4/CyFlash.c ****     #if (CY_FLASH_CHECKSUM_WORKAROUND)
  88:Generated_Source\PSoC4/CyFlash.c ****         uint32 needChecksumWorkaround = 0u;
  89:Generated_Source\PSoC4/CyFlash.c ****         uint32 savedIndex = 0u;
  90:Generated_Source\PSoC4/CyFlash.c ****         uint32 savedValue = 0u;
  91:Generated_Source\PSoC4/CyFlash.c ****         uint32 checksum = 0u;
  92:Generated_Source\PSoC4/CyFlash.c ****         uint32 bits = 0u;
  93:Generated_Source\PSoC4/CyFlash.c ****         uint32 i;
  94:Generated_Source\PSoC4/CyFlash.c ****     #endif  /* (CY_FLASH_CHECKSUM_WORKAROUND) */
  95:Generated_Source\PSoC4/CyFlash.c **** 
  96:Generated_Source\PSoC4/CyFlash.c ****     if ((rowNum < CY_FLASH_NUMBER_ROWS) && (rowData != 0u))
  55              		.loc 1 96 0
  56 001e 7B68     		ldr	r3, [r7, #4]
  57 0020 624A     		ldr	r2, .L18
  58 0022 9342     		cmp	r3, r2
  59 0024 00D9     		bls	.LCB28
  60 0026 B4E0     		b	.L2	@long jump
  61              	.LCB28:
  62              		.loc 1 96 0 is_stmt 0 discriminator 1
  63 0028 3B68     		ldr	r3, [r7]
  64 002a 002B     		cmp	r3, #0
  65 002c 00D1     		bne	.LCB31
  66 002e B0E0     		b	.L2	@long jump
  67              	.LCB31:
  97:Generated_Source\PSoC4/CyFlash.c ****     {
  98:Generated_Source\PSoC4/CyFlash.c ****         /* Copy data to be written into internal variable */
  99:Generated_Source\PSoC4/CyFlash.c ****         (void)memcpy((void *)&parameters[2u], rowData, CY_FLASH_SIZEOF_ROW);
  68              		.loc 1 99 0 is_stmt 1
  69 0030 8023     		movs	r3, #128
  70 0032 5A00     		lsls	r2, r3, #1
  71 0034 3968     		ldr	r1, [r7]
  72 0036 0C23     		movs	r3, #12
ARM GAS  C:\Users\PC\AppData\Local\Temp\ccQA8CFM.s 			page 4


  73 0038 FB18     		adds	r3, r7, r3
  74 003a 0833     		adds	r3, r3, #8
  75 003c 1800     		movs	r0, r3
  76 003e FFF7FEFF 		bl	memcpy
 100:Generated_Source\PSoC4/CyFlash.c **** 
 101:Generated_Source\PSoC4/CyFlash.c ****         #if (CY_FLASH_CHECKSUM_WORKAROUND)
 102:Generated_Source\PSoC4/CyFlash.c **** 
 103:Generated_Source\PSoC4/CyFlash.c ****             for (i = 2u; i < ((CY_FLASH_SIZEOF_ROW / sizeof(uint32)) + 2u); i++)
 104:Generated_Source\PSoC4/CyFlash.c ****             {
 105:Generated_Source\PSoC4/CyFlash.c ****                 uint32 tmp = parameters[i];
 106:Generated_Source\PSoC4/CyFlash.c ****                 if (tmp != 0u)
 107:Generated_Source\PSoC4/CyFlash.c ****                 {
 108:Generated_Source\PSoC4/CyFlash.c ****                     checksum += tmp;
 109:Generated_Source\PSoC4/CyFlash.c ****                     bits |= tmp;
 110:Generated_Source\PSoC4/CyFlash.c ****                     savedIndex = i;
 111:Generated_Source\PSoC4/CyFlash.c ****                 }
 112:Generated_Source\PSoC4/CyFlash.c ****             }
 113:Generated_Source\PSoC4/CyFlash.c **** 
 114:Generated_Source\PSoC4/CyFlash.c ****             needChecksumWorkaround = ((checksum == 0u) && (bits != 0u)) ? 1u : 0u;
 115:Generated_Source\PSoC4/CyFlash.c ****             if (needChecksumWorkaround != 0u)
 116:Generated_Source\PSoC4/CyFlash.c ****             {
 117:Generated_Source\PSoC4/CyFlash.c ****                 savedValue = parameters[savedIndex];
 118:Generated_Source\PSoC4/CyFlash.c ****                 parameters[savedIndex] = 0u;
 119:Generated_Source\PSoC4/CyFlash.c ****             }
 120:Generated_Source\PSoC4/CyFlash.c ****         #endif  /* (CY_FLASH_CHECKSUM_WORKAROUND) */
 121:Generated_Source\PSoC4/CyFlash.c **** 
 122:Generated_Source\PSoC4/CyFlash.c ****         /* Load Flash Bytes */
 123:Generated_Source\PSoC4/CyFlash.c ****         parameters[0u] = (uint32) (CY_FLASH_GET_MACRO_FROM_ROW(rowNum)        << CY_FLASH_PARAM_MAC
 124:Generated_Source\PSoC4/CyFlash.c ****                          (uint32) (CY_FLASH_PAGE_LATCH_START_ADDR             << CY_FLASH_PARAM_ADD
 125:Generated_Source\PSoC4/CyFlash.c ****                          (uint32) (CY_FLASH_KEY_TWO(CY_FLASH_API_OPCODE_LOAD) << CY_FLASH_PARAM_KEY
  77              		.loc 1 125 0
  78 0042 7B68     		ldr	r3, [r7, #4]
  79 0044 5A4A     		ldr	r2, .L18+4
  80 0046 9342     		cmp	r3, r2
  81 0048 01D9     		bls	.L3
  82              		.loc 1 125 0 is_stmt 0 discriminator 1
  83 004a 5A4A     		ldr	r2, .L18+8
  84 004c 00E0     		b	.L4
  85              	.L3:
  86              		.loc 1 125 0 discriminator 2
  87 004e 5A4A     		ldr	r2, .L18+12
  88              	.L4:
 123:Generated_Source\PSoC4/CyFlash.c ****                          (uint32) (CY_FLASH_PAGE_LATCH_START_ADDR             << CY_FLASH_PARAM_ADD
  89              		.loc 1 123 0 is_stmt 1
  90 0050 5A4B     		ldr	r3, .L18+16
  91 0052 9021     		movs	r1, #144
  92 0054 4900     		lsls	r1, r1, #1
  93 0056 8C46     		mov	ip, r1
  94 0058 BC44     		add	ip, ip, r7
  95 005a 6344     		add	r3, r3, ip
  96 005c 1A60     		str	r2, [r3]
 126:Generated_Source\PSoC4/CyFlash.c ****                          CY_FLASH_KEY_ONE;
 127:Generated_Source\PSoC4/CyFlash.c ****         parameters[1u] = CY_FLASH_SIZEOF_ROW - 1u;
  97              		.loc 1 127 0
  98 005e 574B     		ldr	r3, .L18+16
  99 0060 9022     		movs	r2, #144
 100 0062 5200     		lsls	r2, r2, #1
ARM GAS  C:\Users\PC\AppData\Local\Temp\ccQA8CFM.s 			page 5


 101 0064 9446     		mov	ip, r2
 102 0066 BC44     		add	ip, ip, r7
 103 0068 6344     		add	r3, r3, ip
 104 006a FF22     		movs	r2, #255
 105 006c 5A60     		str	r2, [r3, #4]
 128:Generated_Source\PSoC4/CyFlash.c **** 
 129:Generated_Source\PSoC4/CyFlash.c ****         CY_FLASH_CPUSS_SYSARG_REG = (uint32) &parameters[0u];
 106              		.loc 1 129 0
 107 006e 544B     		ldr	r3, .L18+20
 108 0070 0C22     		movs	r2, #12
 109 0072 BA18     		adds	r2, r7, r2
 110 0074 1A60     		str	r2, [r3]
 130:Generated_Source\PSoC4/CyFlash.c ****         CY_FLASH_CPUSS_SYSREQ_REG = CY_FLASH_CPUSS_REQ_START | CY_FLASH_API_OPCODE_LOAD;
 111              		.loc 1 130 0
 112 0076 534B     		ldr	r3, .L18+24
 113 0078 534A     		ldr	r2, .L18+28
 114 007a 1A60     		str	r2, [r3]
 131:Generated_Source\PSoC4/CyFlash.c ****         CY_NOP;
 115              		.loc 1 131 0
 116              		.syntax divided
 117              	@ 131 "Generated_Source\PSoC4\CyFlash.c" 1
 118 007c C046     		NOP
 119              	
 120              	@ 0 "" 2
 132:Generated_Source\PSoC4/CyFlash.c ****         retValue = CY_FLASH_API_RETURN;
 121              		.loc 1 132 0
 122              		.thumb
 123              		.syntax unified
 124 007e 504B     		ldr	r3, .L18+20
 125 0080 1B68     		ldr	r3, [r3]
 126 0082 1B0F     		lsrs	r3, r3, #28
 127 0084 1A07     		lsls	r2, r3, #28
 128 0086 F023     		movs	r3, #240
 129 0088 1B06     		lsls	r3, r3, #24
 130 008a 9A42     		cmp	r2, r3
 131 008c 04D1     		bne	.L5
 132              		.loc 1 132 0 is_stmt 0 discriminator 1
 133 008e 4C4B     		ldr	r3, .L18+20
 134 0090 1B68     		ldr	r3, [r3]
 135 0092 FF22     		movs	r2, #255
 136 0094 1340     		ands	r3, r2
 137 0096 0BE0     		b	.L6
 138              	.L5:
 139              		.loc 1 132 0 discriminator 2
 140 0098 494B     		ldr	r3, .L18+20
 141 009a 1B68     		ldr	r3, [r3]
 142 009c 1B0F     		lsrs	r3, r3, #28
 143 009e 1A07     		lsls	r2, r3, #28
 144 00a0 A023     		movs	r3, #160
 145 00a2 1B06     		lsls	r3, r3, #24
 146 00a4 9A42     		cmp	r2, r3
 147 00a6 02D0     		beq	.L7
 148              		.loc 1 132 0 discriminator 4
 149 00a8 454B     		ldr	r3, .L18+20
 150 00aa 1B68     		ldr	r3, [r3]
 151 00ac 00E0     		b	.L6
 152              	.L7:
ARM GAS  C:\Users\PC\AppData\Local\Temp\ccQA8CFM.s 			page 6


 153              		.loc 1 132 0 discriminator 5
 154 00ae 0023     		movs	r3, #0
 155              	.L6:
 156              		.loc 1 132 0 discriminator 8
 157 00b0 8C22     		movs	r2, #140
 158 00b2 5200     		lsls	r2, r2, #1
 159 00b4 BA18     		adds	r2, r7, r2
 160 00b6 1360     		str	r3, [r2]
 133:Generated_Source\PSoC4/CyFlash.c **** 
 134:Generated_Source\PSoC4/CyFlash.c ****         if(retValue == CY_SYS_FLASH_SUCCESS)
 161              		.loc 1 134 0 is_stmt 1 discriminator 8
 162 00b8 8C23     		movs	r3, #140
 163 00ba 5B00     		lsls	r3, r3, #1
 164 00bc FB18     		adds	r3, r7, r3
 165 00be 1B68     		ldr	r3, [r3]
 166 00c0 002B     		cmp	r3, #0
 167 00c2 6BD1     		bne	.L16
 135:Generated_Source\PSoC4/CyFlash.c ****         {
 136:Generated_Source\PSoC4/CyFlash.c ****             /***************************************************************
 137:Generated_Source\PSoC4/CyFlash.c ****             * Mask all the exceptions to guarantee that Flash write will
 138:Generated_Source\PSoC4/CyFlash.c ****             * occur in the atomic way. It will not affect system call
 139:Generated_Source\PSoC4/CyFlash.c ****             * execution (flash row write) since it is executed in the NMI
 140:Generated_Source\PSoC4/CyFlash.c ****             * context.
 141:Generated_Source\PSoC4/CyFlash.c ****             ***************************************************************/
 142:Generated_Source\PSoC4/CyFlash.c ****             interruptState = CyEnterCriticalSection();
 168              		.loc 1 142 0
 169 00c4 2023     		movs	r3, #32
 170 00c6 FF33     		adds	r3, r3, #255
 171 00c8 FC18     		adds	r4, r7, r3
 172 00ca FFF7FEFF 		bl	CyEnterCriticalSection
 173 00ce 0300     		movs	r3, r0
 174 00d0 2370     		strb	r3, [r4]
 143:Generated_Source\PSoC4/CyFlash.c **** 
 144:Generated_Source\PSoC4/CyFlash.c ****             clkCnfRetValue = CySysFlashClockBackup();
 175              		.loc 1 144 0
 176 00d2 FFF7FEFF 		bl	CySysFlashClockBackup
 177 00d6 0300     		movs	r3, r0
 178 00d8 8A22     		movs	r2, #138
 179 00da 5200     		lsls	r2, r2, #1
 180 00dc BA18     		adds	r2, r7, r2
 181 00de 1360     		str	r3, [r2]
 145:Generated_Source\PSoC4/CyFlash.c **** 
 146:Generated_Source\PSoC4/CyFlash.c ****         #if(CY_IP_SPCIF_SYNCHRONOUS)
 147:Generated_Source\PSoC4/CyFlash.c ****             if(clkCnfRetValue == CY_SYS_FLASH_SUCCESS)
 148:Generated_Source\PSoC4/CyFlash.c ****             {
 149:Generated_Source\PSoC4/CyFlash.c ****                 retValue = CySysFlashClockConfig();
 150:Generated_Source\PSoC4/CyFlash.c ****             }
 151:Generated_Source\PSoC4/CyFlash.c ****         #endif  /* (CY_IP_SPCIF_SYNCHRONOUS) */
 152:Generated_Source\PSoC4/CyFlash.c **** 
 153:Generated_Source\PSoC4/CyFlash.c ****             if(retValue == CY_SYS_FLASH_SUCCESS)
 182              		.loc 1 153 0
 183 00e0 8C23     		movs	r3, #140
 184 00e2 5B00     		lsls	r3, r3, #1
 185 00e4 FB18     		adds	r3, r7, r3
 186 00e6 1B68     		ldr	r3, [r3]
 187 00e8 002B     		cmp	r3, #0
 188 00ea 3DD1     		bne	.L10
ARM GAS  C:\Users\PC\AppData\Local\Temp\ccQA8CFM.s 			page 7


 154:Generated_Source\PSoC4/CyFlash.c ****             {
 155:Generated_Source\PSoC4/CyFlash.c ****                 /* Write Row */
 156:Generated_Source\PSoC4/CyFlash.c ****                 parameters[0u]  = (uint32) (((uint32) CY_FLASH_KEY_TWO(CY_FLASH_API_OPCODE_WRITE_RO
 189              		.loc 1 156 0
 190 00ec 334B     		ldr	r3, .L18+16
 191 00ee 9022     		movs	r2, #144
 192 00f0 5200     		lsls	r2, r2, #1
 193 00f2 9446     		mov	ip, r2
 194 00f4 BC44     		add	ip, ip, r7
 195 00f6 6344     		add	r3, r3, ip
 196 00f8 344A     		ldr	r2, .L18+32
 197 00fa 1A60     		str	r2, [r3]
 157:Generated_Source\PSoC4/CyFlash.c ****                 parameters[0u] |= (uint32)(rowNum << 16u);
 198              		.loc 1 157 0
 199 00fc 2F4B     		ldr	r3, .L18+16
 200 00fe 9022     		movs	r2, #144
 201 0100 5200     		lsls	r2, r2, #1
 202 0102 9446     		mov	ip, r2
 203 0104 BC44     		add	ip, ip, r7
 204 0106 6344     		add	r3, r3, ip
 205 0108 1A68     		ldr	r2, [r3]
 206 010a 7B68     		ldr	r3, [r7, #4]
 207 010c 1B04     		lsls	r3, r3, #16
 208 010e 1A43     		orrs	r2, r3
 209 0110 2A4B     		ldr	r3, .L18+16
 210 0112 9021     		movs	r1, #144
 211 0114 4900     		lsls	r1, r1, #1
 212 0116 8C46     		mov	ip, r1
 213 0118 BC44     		add	ip, ip, r7
 214 011a 6344     		add	r3, r3, ip
 215 011c 1A60     		str	r2, [r3]
 158:Generated_Source\PSoC4/CyFlash.c **** 
 159:Generated_Source\PSoC4/CyFlash.c ****                 CY_FLASH_CPUSS_SYSARG_REG = (uint32) &parameters[0u];
 216              		.loc 1 159 0
 217 011e 284B     		ldr	r3, .L18+20
 218 0120 0C22     		movs	r2, #12
 219 0122 BA18     		adds	r2, r7, r2
 220 0124 1A60     		str	r2, [r3]
 160:Generated_Source\PSoC4/CyFlash.c ****                 CY_FLASH_CPUSS_SYSREQ_REG = CY_FLASH_CPUSS_REQ_START | CY_FLASH_API_OPCODE_WRITE_RO
 221              		.loc 1 160 0
 222 0126 274B     		ldr	r3, .L18+24
 223 0128 294A     		ldr	r2, .L18+36
 224 012a 1A60     		str	r2, [r3]
 161:Generated_Source\PSoC4/CyFlash.c ****                 CY_NOP;
 225              		.loc 1 161 0
 226              		.syntax divided
 227              	@ 161 "Generated_Source\PSoC4\CyFlash.c" 1
 228 012c C046     		NOP
 229              	
 230              	@ 0 "" 2
 162:Generated_Source\PSoC4/CyFlash.c ****                 retValue = CY_FLASH_API_RETURN;
 231              		.loc 1 162 0
 232              		.thumb
 233              		.syntax unified
 234 012e 244B     		ldr	r3, .L18+20
 235 0130 1B68     		ldr	r3, [r3]
 236 0132 1B0F     		lsrs	r3, r3, #28
ARM GAS  C:\Users\PC\AppData\Local\Temp\ccQA8CFM.s 			page 8


 237 0134 1A07     		lsls	r2, r3, #28
 238 0136 F023     		movs	r3, #240
 239 0138 1B06     		lsls	r3, r3, #24
 240 013a 9A42     		cmp	r2, r3
 241 013c 04D1     		bne	.L11
 242              		.loc 1 162 0 is_stmt 0 discriminator 1
 243 013e 204B     		ldr	r3, .L18+20
 244 0140 1B68     		ldr	r3, [r3]
 245 0142 FF22     		movs	r2, #255
 246 0144 1340     		ands	r3, r2
 247 0146 0BE0     		b	.L12
 248              	.L11:
 249              		.loc 1 162 0 discriminator 2
 250 0148 1D4B     		ldr	r3, .L18+20
 251 014a 1B68     		ldr	r3, [r3]
 252 014c 1B0F     		lsrs	r3, r3, #28
 253 014e 1A07     		lsls	r2, r3, #28
 254 0150 A023     		movs	r3, #160
 255 0152 1B06     		lsls	r3, r3, #24
 256 0154 9A42     		cmp	r2, r3
 257 0156 02D0     		beq	.L13
 258              		.loc 1 162 0 discriminator 4
 259 0158 194B     		ldr	r3, .L18+20
 260 015a 1B68     		ldr	r3, [r3]
 261 015c 00E0     		b	.L12
 262              	.L13:
 263              		.loc 1 162 0 discriminator 5
 264 015e 0023     		movs	r3, #0
 265              	.L12:
 266              		.loc 1 162 0 discriminator 8
 267 0160 8C22     		movs	r2, #140
 268 0162 5200     		lsls	r2, r2, #1
 269 0164 BA18     		adds	r2, r7, r2
 270 0166 1360     		str	r3, [r2]
 271              	.L10:
 163:Generated_Source\PSoC4/CyFlash.c ****             }
 164:Generated_Source\PSoC4/CyFlash.c **** 
 165:Generated_Source\PSoC4/CyFlash.c ****             #if (CY_FLASH_CHECKSUM_WORKAROUND)
 166:Generated_Source\PSoC4/CyFlash.c **** 
 167:Generated_Source\PSoC4/CyFlash.c ****                 if ((retValue == CYRET_SUCCESS) && (needChecksumWorkaround != 0u))
 168:Generated_Source\PSoC4/CyFlash.c ****                 {
 169:Generated_Source\PSoC4/CyFlash.c ****                     (void)memset((void *)&parameters[2u], 0, CY_FLASH_SIZEOF_ROW);
 170:Generated_Source\PSoC4/CyFlash.c ****                     parameters[savedIndex] = savedValue;
 171:Generated_Source\PSoC4/CyFlash.c **** 
 172:Generated_Source\PSoC4/CyFlash.c ****                     /* Load Flash Bytes */
 173:Generated_Source\PSoC4/CyFlash.c ****                     parameters[0u] = (uint32) (CY_FLASH_GET_MACRO_FROM_ROW(rowNum)        << CY_FLA
 174:Generated_Source\PSoC4/CyFlash.c ****                                      (uint32) (CY_FLASH_PAGE_LATCH_START_ADDR             << CY_FLA
 175:Generated_Source\PSoC4/CyFlash.c ****                                      (uint32) (CY_FLASH_KEY_TWO(CY_FLASH_API_OPCODE_LOAD) << CY_FLA
 176:Generated_Source\PSoC4/CyFlash.c ****                                      CY_FLASH_KEY_ONE;
 177:Generated_Source\PSoC4/CyFlash.c ****                     parameters[1u] = CY_FLASH_SIZEOF_ROW - 1u;
 178:Generated_Source\PSoC4/CyFlash.c **** 
 179:Generated_Source\PSoC4/CyFlash.c ****                     CY_FLASH_CPUSS_SYSARG_REG = (uint32) &parameters[0u];
 180:Generated_Source\PSoC4/CyFlash.c ****                     CY_FLASH_CPUSS_SYSREQ_REG = CY_FLASH_CPUSS_REQ_START | CY_FLASH_API_OPCODE_LOAD
 181:Generated_Source\PSoC4/CyFlash.c ****                     CY_NOP;
 182:Generated_Source\PSoC4/CyFlash.c ****                     retValue = CY_FLASH_API_RETURN;
 183:Generated_Source\PSoC4/CyFlash.c **** 
 184:Generated_Source\PSoC4/CyFlash.c **** 
ARM GAS  C:\Users\PC\AppData\Local\Temp\ccQA8CFM.s 			page 9


 185:Generated_Source\PSoC4/CyFlash.c ****                     if(retValue == CY_SYS_FLASH_SUCCESS)
 186:Generated_Source\PSoC4/CyFlash.c ****                     {
 187:Generated_Source\PSoC4/CyFlash.c ****                         /* Program Row */
 188:Generated_Source\PSoC4/CyFlash.c ****                         parameters[0u]  =
 189:Generated_Source\PSoC4/CyFlash.c ****                             (uint32) (((uint32) CY_FLASH_KEY_TWO(CY_FLASH_API_OPCODE_PROGRAM_ROW) <
 190:Generated_Source\PSoC4/CyFlash.c ****                                                     CY_FLASH_PARAM_KEY_TWO_OFFSET) | CY_FLASH_KEY_O
 191:Generated_Source\PSoC4/CyFlash.c ****                         parameters[0u] |= (uint32)(rowNum << 16u);
 192:Generated_Source\PSoC4/CyFlash.c **** 
 193:Generated_Source\PSoC4/CyFlash.c ****                         CY_FLASH_CPUSS_SYSARG_REG = (uint32) &parameters[0u];
 194:Generated_Source\PSoC4/CyFlash.c ****                         CY_FLASH_CPUSS_SYSREQ_REG = CY_FLASH_CPUSS_REQ_START | CY_FLASH_API_OPCODE_
 195:Generated_Source\PSoC4/CyFlash.c ****                         CY_NOP;
 196:Generated_Source\PSoC4/CyFlash.c ****                         retValue = CY_FLASH_API_RETURN;
 197:Generated_Source\PSoC4/CyFlash.c ****                     }
 198:Generated_Source\PSoC4/CyFlash.c ****                 }
 199:Generated_Source\PSoC4/CyFlash.c ****             #endif  /* (CY_FLASH_CHECKSUM_WORKAROUND) */
 200:Generated_Source\PSoC4/CyFlash.c **** 
 201:Generated_Source\PSoC4/CyFlash.c ****             if(clkCnfRetValue == CY_SYS_FLASH_SUCCESS)
 272              		.loc 1 201 0 is_stmt 1
 273 0168 8A23     		movs	r3, #138
 274 016a 5B00     		lsls	r3, r3, #1
 275 016c FB18     		adds	r3, r7, r3
 276 016e 1B68     		ldr	r3, [r3]
 277 0170 002B     		cmp	r3, #0
 278 0172 06D1     		bne	.L15
 202:Generated_Source\PSoC4/CyFlash.c ****             {
 203:Generated_Source\PSoC4/CyFlash.c ****                 clkCnfRetValue = CySysFlashClockRestore();
 279              		.loc 1 203 0
 280 0174 FFF7FEFF 		bl	CySysFlashClockRestore
 281 0178 0300     		movs	r3, r0
 282 017a 8A22     		movs	r2, #138
 283 017c 5200     		lsls	r2, r2, #1
 284 017e BA18     		adds	r2, r7, r2
 285 0180 1360     		str	r3, [r2]
 286              	.L15:
 204:Generated_Source\PSoC4/CyFlash.c ****             }
 205:Generated_Source\PSoC4/CyFlash.c **** 
 206:Generated_Source\PSoC4/CyFlash.c ****             CyExitCriticalSection(interruptState);
 287              		.loc 1 206 0
 288 0182 2023     		movs	r3, #32
 289 0184 FF33     		adds	r3, r3, #255
 290 0186 FB18     		adds	r3, r7, r3
 291 0188 1B78     		ldrb	r3, [r3]
 292 018a 1800     		movs	r0, r3
 293 018c FFF7FEFF 		bl	CyExitCriticalSection
 134:Generated_Source\PSoC4/CyFlash.c ****         {
 294              		.loc 1 134 0
 295 0190 04E0     		b	.L16
 296              	.L2:
 207:Generated_Source\PSoC4/CyFlash.c ****         }
 208:Generated_Source\PSoC4/CyFlash.c ****     }
 209:Generated_Source\PSoC4/CyFlash.c ****     else
 210:Generated_Source\PSoC4/CyFlash.c ****     {
 211:Generated_Source\PSoC4/CyFlash.c ****         retValue = CY_SYS_FLASH_INVALID_ADDR;
 297              		.loc 1 211 0
 298 0192 0423     		movs	r3, #4
 299 0194 8C22     		movs	r2, #140
 300 0196 5200     		lsls	r2, r2, #1
ARM GAS  C:\Users\PC\AppData\Local\Temp\ccQA8CFM.s 			page 10


 301 0198 BA18     		adds	r2, r7, r2
 302 019a 1360     		str	r3, [r2]
 303              	.L16:
 212:Generated_Source\PSoC4/CyFlash.c ****     }
 213:Generated_Source\PSoC4/CyFlash.c **** 
 214:Generated_Source\PSoC4/CyFlash.c ****     return (retValue);
 304              		.loc 1 214 0
 305 019c 8C23     		movs	r3, #140
 306 019e 5B00     		lsls	r3, r3, #1
 307 01a0 FB18     		adds	r3, r7, r3
 308 01a2 1B68     		ldr	r3, [r3]
 215:Generated_Source\PSoC4/CyFlash.c **** }
 309              		.loc 1 215 0
 310 01a4 1800     		movs	r0, r3
 311 01a6 BD46     		mov	sp, r7
 312 01a8 49B0     		add	sp, sp, #292
 313              		@ sp needed
 314 01aa 90BD     		pop	{r4, r7, pc}
 315              	.L19:
 316              		.align	2
 317              	.L18:
 318 01ac FF030000 		.word	1023
 319 01b0 FF010000 		.word	511
 320 01b4 B6D70001 		.word	16832438
 321 01b8 B6D70000 		.word	55222
 322 01bc ECFEFFFF 		.word	-276
 323 01c0 08001040 		.word	1074790408
 324 01c4 04001040 		.word	1074790404
 325 01c8 04000080 		.word	-2147483644
 326 01cc B6D80000 		.word	55478
 327 01d0 05000080 		.word	-2147483643
 328              		.cfi_endproc
 329              	.LFE2:
 330              		.size	CySysFlashWriteRow, .-CySysFlashWriteRow
 331              		.section	.text.CySysFlashSetWaitCycles,"ax",%progbits
 332              		.align	2
 333              		.global	CySysFlashSetWaitCycles
 334              		.code	16
 335              		.thumb_func
 336              		.type	CySysFlashSetWaitCycles, %function
 337              	CySysFlashSetWaitCycles:
 338              	.LFB3:
 216:Generated_Source\PSoC4/CyFlash.c **** 
 217:Generated_Source\PSoC4/CyFlash.c **** 
 218:Generated_Source\PSoC4/CyFlash.c **** 
 219:Generated_Source\PSoC4/CyFlash.c **** #if (CY_IP_FLASH_PARALLEL_PGM_EN && (CY_IP_FLASH_MACROS > 1u))
 220:Generated_Source\PSoC4/CyFlash.c **** /*******************************************************************************
 221:Generated_Source\PSoC4/CyFlash.c **** * Function Name: CySysFlashStartWriteRow
 222:Generated_Source\PSoC4/CyFlash.c **** ****************************************************************************//**
 223:Generated_Source\PSoC4/CyFlash.c **** *
 224:Generated_Source\PSoC4/CyFlash.c **** * Initiates a write to a row of Flash. A call to this API is non-blocking. 
 225:Generated_Source\PSoC4/CyFlash.c **** * Use CySysFlashResumeWriteRow() to resume flash writes and 
 226:Generated_Source\PSoC4/CyFlash.c **** * CySysFlashGetWriteRowStatus() to ascertain status of the write operation.
 227:Generated_Source\PSoC4/CyFlash.c **** *
 228:Generated_Source\PSoC4/CyFlash.c **** * The devices require HFCLK to be sourced by 48 MHz IMO during flash write.
 229:Generated_Source\PSoC4/CyFlash.c **** * This API will modify IMO configuration; it can be later restored to original
 230:Generated_Source\PSoC4/CyFlash.c **** * configuration by calling \ref CySysFlashGetWriteRowStatus().
ARM GAS  C:\Users\PC\AppData\Local\Temp\ccQA8CFM.s 			page 11


 231:Generated_Source\PSoC4/CyFlash.c **** *
 232:Generated_Source\PSoC4/CyFlash.c **** * \note The non-blocking operation does not return success status 
 233:Generated_Source\PSoC4/CyFlash.c **** * CY_SYS_FLASH_SUCCESS until the last \ref CySysFlashResumeWriteRow API 
 234:Generated_Source\PSoC4/CyFlash.c **** * is complete. The CPUSS_SYSARG register will be reflecting the SRAM address 
 235:Generated_Source\PSoC4/CyFlash.c **** * during an ongoing non-blocking operation.
 236:Generated_Source\PSoC4/CyFlash.c **** *    
 237:Generated_Source\PSoC4/CyFlash.c **** * \param rowNum The flash row number. The number of the flash rows is defined by
 238:Generated_Source\PSoC4/CyFlash.c **** * the \ref CY_FLASH_NUMBER_ROWS macro for the selected device. Refer to the
 239:Generated_Source\PSoC4/CyFlash.c **** * device datasheet for the details.
 240:Generated_Source\PSoC4/CyFlash.c **** * \note The target flash array is calculated based on the specified flash row.
 241:Generated_Source\PSoC4/CyFlash.c **** *
 242:Generated_Source\PSoC4/CyFlash.c **** * \param rowData Array of bytes to write. The size of the array must be equal to
 243:Generated_Source\PSoC4/CyFlash.c **** * the flash row size. The flash row size for the selected device is defined by
 244:Generated_Source\PSoC4/CyFlash.c **** * the \ref CY_FLASH_SIZEOF_ROW macro. Refer to the device datasheet for the
 245:Generated_Source\PSoC4/CyFlash.c **** * details.
 246:Generated_Source\PSoC4/CyFlash.c **** *
 247:Generated_Source\PSoC4/CyFlash.c **** * \return \ref group_flash_status_codes
 248:Generated_Source\PSoC4/CyFlash.c **** *
 249:Generated_Source\PSoC4/CyFlash.c **** *******************************************************************************/
 250:Generated_Source\PSoC4/CyFlash.c **** uint32 CySysFlashStartWriteRow(uint32 rowNum, const uint8 rowData[])
 251:Generated_Source\PSoC4/CyFlash.c **** {
 252:Generated_Source\PSoC4/CyFlash.c ****     volatile uint32 retValue = CY_SYS_FLASH_SUCCESS;
 253:Generated_Source\PSoC4/CyFlash.c ****     volatile uint32 parameters[(CY_FLASH_SIZEOF_ROW + CY_FLASH_SRAM_ROM_DATA) / sizeof(uint32)];
 254:Generated_Source\PSoC4/CyFlash.c ****     uint8  interruptState;
 255:Generated_Source\PSoC4/CyFlash.c **** 
 256:Generated_Source\PSoC4/CyFlash.c **** #if(CY_IP_SPCIF_SYNCHRONOUS)
 257:Generated_Source\PSoC4/CyFlash.c ****     volatile uint32 clkCnfRetValue = CY_SYS_FLASH_SUCCESS;
 258:Generated_Source\PSoC4/CyFlash.c **** #endif  /* (CY_IP_SPCIF_SYNCHRONOUS) */    
 259:Generated_Source\PSoC4/CyFlash.c **** 
 260:Generated_Source\PSoC4/CyFlash.c ****     if ((rowNum < CY_FLASH_NUMBER_ROWS) && (rowData != 0u))
 261:Generated_Source\PSoC4/CyFlash.c ****     {
 262:Generated_Source\PSoC4/CyFlash.c ****         /* Copy data to be written into internal variable */
 263:Generated_Source\PSoC4/CyFlash.c ****         (void)memcpy((void *)&parameters[2u], rowData, CY_FLASH_SIZEOF_ROW);
 264:Generated_Source\PSoC4/CyFlash.c **** 
 265:Generated_Source\PSoC4/CyFlash.c ****         /* Load Flash Bytes */
 266:Generated_Source\PSoC4/CyFlash.c ****         parameters[0u] = (uint32) (CY_FLASH_GET_MACRO_FROM_ROW(rowNum)        << CY_FLASH_PARAM_MAC
 267:Generated_Source\PSoC4/CyFlash.c ****                          (uint32) (CY_FLASH_PAGE_LATCH_START_ADDR             << CY_FLASH_PARAM_ADD
 268:Generated_Source\PSoC4/CyFlash.c ****                          (uint32) (CY_FLASH_KEY_TWO(CY_FLASH_API_OPCODE_LOAD) << CY_FLASH_PARAM_KEY
 269:Generated_Source\PSoC4/CyFlash.c ****                          CY_FLASH_KEY_ONE;
 270:Generated_Source\PSoC4/CyFlash.c ****         parameters[1u] = CY_FLASH_SIZEOF_ROW - 1u;
 271:Generated_Source\PSoC4/CyFlash.c **** 
 272:Generated_Source\PSoC4/CyFlash.c ****         CY_FLASH_CPUSS_SYSARG_REG = (uint32) &parameters[0u];
 273:Generated_Source\PSoC4/CyFlash.c ****         CY_FLASH_CPUSS_SYSREQ_REG = CY_FLASH_CPUSS_REQ_START | CY_FLASH_API_OPCODE_LOAD;
 274:Generated_Source\PSoC4/CyFlash.c ****         CY_NOP;
 275:Generated_Source\PSoC4/CyFlash.c ****         retValue = CY_FLASH_API_RETURN;
 276:Generated_Source\PSoC4/CyFlash.c **** 
 277:Generated_Source\PSoC4/CyFlash.c ****         if(retValue == CY_SYS_FLASH_SUCCESS)
 278:Generated_Source\PSoC4/CyFlash.c ****         {
 279:Generated_Source\PSoC4/CyFlash.c ****             /***************************************************************
 280:Generated_Source\PSoC4/CyFlash.c ****             * Mask all the exceptions to guarantee that Flash write will
 281:Generated_Source\PSoC4/CyFlash.c ****             * occur in the atomic way. It will not affect system call
 282:Generated_Source\PSoC4/CyFlash.c ****             * execution (flash row write) since it is executed in the NMI
 283:Generated_Source\PSoC4/CyFlash.c ****             * context.
 284:Generated_Source\PSoC4/CyFlash.c ****             ***************************************************************/
 285:Generated_Source\PSoC4/CyFlash.c ****             interruptState = CyEnterCriticalSection();
 286:Generated_Source\PSoC4/CyFlash.c **** 
 287:Generated_Source\PSoC4/CyFlash.c ****         #if(CY_IP_SPCIF_SYNCHRONOUS)
ARM GAS  C:\Users\PC\AppData\Local\Temp\ccQA8CFM.s 			page 12


 288:Generated_Source\PSoC4/CyFlash.c ****             clkCnfRetValue = CySysFlashClockBackup();
 289:Generated_Source\PSoC4/CyFlash.c ****             
 290:Generated_Source\PSoC4/CyFlash.c ****             if(clkCnfRetValue == CY_SYS_FLASH_SUCCESS)
 291:Generated_Source\PSoC4/CyFlash.c ****             {
 292:Generated_Source\PSoC4/CyFlash.c ****                 retValue = CySysFlashClockConfig();
 293:Generated_Source\PSoC4/CyFlash.c ****             }
 294:Generated_Source\PSoC4/CyFlash.c ****         #else
 295:Generated_Source\PSoC4/CyFlash.c ****             (void)CySysFlashClockBackup();
 296:Generated_Source\PSoC4/CyFlash.c ****         #endif  /* (CY_IP_SPCIF_SYNCHRONOUS) */
 297:Generated_Source\PSoC4/CyFlash.c **** 
 298:Generated_Source\PSoC4/CyFlash.c ****             if(retValue == CY_SYS_FLASH_SUCCESS)
 299:Generated_Source\PSoC4/CyFlash.c ****             {
 300:Generated_Source\PSoC4/CyFlash.c ****                 /* Non-blocking Write Row */
 301:Generated_Source\PSoC4/CyFlash.c ****                 parameters[0u]  = (uint32) (((uint32) CY_FLASH_KEY_TWO(CY_FLASH_API_OPCODE_NON_BLOC
 302:Generated_Source\PSoC4/CyFlash.c ****                                                         CY_FLASH_PARAM_KEY_TWO_OFFSET) | CY_FLASH_K
 303:Generated_Source\PSoC4/CyFlash.c ****                 parameters[0u] |= (uint32)(rowNum << 16u);
 304:Generated_Source\PSoC4/CyFlash.c **** 
 305:Generated_Source\PSoC4/CyFlash.c ****                 CY_FLASH_CPUSS_SYSARG_REG = (uint32) &parameters[0u];
 306:Generated_Source\PSoC4/CyFlash.c ****                 CY_FLASH_CPUSS_SYSREQ_REG = CY_FLASH_CPUSS_REQ_START | CY_FLASH_API_OPCODE_NON_BLOC
 307:Generated_Source\PSoC4/CyFlash.c ****                 CY_NOP;
 308:Generated_Source\PSoC4/CyFlash.c ****                 retValue = CY_FLASH_API_RETURN;
 309:Generated_Source\PSoC4/CyFlash.c ****             }
 310:Generated_Source\PSoC4/CyFlash.c **** 
 311:Generated_Source\PSoC4/CyFlash.c ****             CyExitCriticalSection(interruptState);
 312:Generated_Source\PSoC4/CyFlash.c ****         }
 313:Generated_Source\PSoC4/CyFlash.c ****     }
 314:Generated_Source\PSoC4/CyFlash.c ****     else
 315:Generated_Source\PSoC4/CyFlash.c ****     {
 316:Generated_Source\PSoC4/CyFlash.c ****         retValue = CY_SYS_FLASH_INVALID_ADDR;
 317:Generated_Source\PSoC4/CyFlash.c ****     }
 318:Generated_Source\PSoC4/CyFlash.c **** 
 319:Generated_Source\PSoC4/CyFlash.c ****     return (retValue);
 320:Generated_Source\PSoC4/CyFlash.c **** }
 321:Generated_Source\PSoC4/CyFlash.c **** 
 322:Generated_Source\PSoC4/CyFlash.c **** 
 323:Generated_Source\PSoC4/CyFlash.c **** /*******************************************************************************
 324:Generated_Source\PSoC4/CyFlash.c **** * Function Name: CySysFlashGetWriteRowStatus
 325:Generated_Source\PSoC4/CyFlash.c **** ****************************************************************************//**
 326:Generated_Source\PSoC4/CyFlash.c **** *
 327:Generated_Source\PSoC4/CyFlash.c **** * Returns the current status of the flash write operation.
 328:Generated_Source\PSoC4/CyFlash.c **** *
 329:Generated_Source\PSoC4/CyFlash.c **** ** \note The non-blocking operation does not return success status 
 330:Generated_Source\PSoC4/CyFlash.c **** * CY_SYS_FLASH_SUCCESS until the last \ref CySysFlashResumeWriteRow API 
 331:Generated_Source\PSoC4/CyFlash.c **** * is complete. The CPUSS_SYSARG register will be reflecting the SRAM address 
 332:Generated_Source\PSoC4/CyFlash.c **** * during an ongoing non-blocking operation.
 333:Generated_Source\PSoC4/CyFlash.c **** * Calling this API before starting a non-blocking write row operation 
 334:Generated_Source\PSoC4/CyFlash.c **** * using the \ref CySysFlashStartWriteRow() API will cause improper operation.
 335:Generated_Source\PSoC4/CyFlash.c **** *
 336:Generated_Source\PSoC4/CyFlash.c **** * \return \ref group_flash_status_codes
 337:Generated_Source\PSoC4/CyFlash.c **** *
 338:Generated_Source\PSoC4/CyFlash.c **** *******************************************************************************/
 339:Generated_Source\PSoC4/CyFlash.c **** uint32 CySysFlashGetWriteRowStatus(void)
 340:Generated_Source\PSoC4/CyFlash.c **** {
 341:Generated_Source\PSoC4/CyFlash.c ****     volatile uint32 retValue = CY_SYS_FLASH_SUCCESS;
 342:Generated_Source\PSoC4/CyFlash.c **** 
 343:Generated_Source\PSoC4/CyFlash.c ****     CY_NOP;
 344:Generated_Source\PSoC4/CyFlash.c ****     retValue = CY_FLASH_API_RETURN;
ARM GAS  C:\Users\PC\AppData\Local\Temp\ccQA8CFM.s 			page 13


 345:Generated_Source\PSoC4/CyFlash.c **** 
 346:Generated_Source\PSoC4/CyFlash.c ****     (void) CySysFlashClockRestore();
 347:Generated_Source\PSoC4/CyFlash.c **** 
 348:Generated_Source\PSoC4/CyFlash.c ****     return (retValue);
 349:Generated_Source\PSoC4/CyFlash.c **** }
 350:Generated_Source\PSoC4/CyFlash.c **** 
 351:Generated_Source\PSoC4/CyFlash.c **** 
 352:Generated_Source\PSoC4/CyFlash.c **** /*******************************************************************************
 353:Generated_Source\PSoC4/CyFlash.c **** * Function Name: CySysFlashResumeWriteRow
 354:Generated_Source\PSoC4/CyFlash.c **** ****************************************************************************//**
 355:Generated_Source\PSoC4/CyFlash.c **** *
 356:Generated_Source\PSoC4/CyFlash.c **** * This API must be called, once the SPC interrupt is triggered to complete the
 357:Generated_Source\PSoC4/CyFlash.c **** * non-blocking operation. It is advised not to prolong calling this API for
 358:Generated_Source\PSoC4/CyFlash.c **** * more than 25 ms.
 359:Generated_Source\PSoC4/CyFlash.c **** *
 360:Generated_Source\PSoC4/CyFlash.c **** * The non-blocking write row API \ref CySysFlashStartWriteRow() requires that
 361:Generated_Source\PSoC4/CyFlash.c **** * this API be called 3 times to complete the write. This can be done by
 362:Generated_Source\PSoC4/CyFlash.c **** * configuring SPCIF interrupt and placing a call to this API.
 363:Generated_Source\PSoC4/CyFlash.c **** *
 364:Generated_Source\PSoC4/CyFlash.c **** * For CM0 based device, a non-blocking call to program a row of macro 0
 365:Generated_Source\PSoC4/CyFlash.c **** * requires the user to set the CPUSS_CONFIG.VECS_IN_RAM bit so that the
 366:Generated_Source\PSoC4/CyFlash.c **** * interrupt vector for the SPC is fetched from the SRAM rather than the FLASH.
 367:Generated_Source\PSoC4/CyFlash.c **** *
 368:Generated_Source\PSoC4/CyFlash.c **** * For CM0+ based device, if the user wants to keep the vector table in flash
 369:Generated_Source\PSoC4/CyFlash.c **** * when performing non-blocking flash write then they need to make sure the
 370:Generated_Source\PSoC4/CyFlash.c **** * vector table is placed in the flash macro which is not getting programmed by
 371:Generated_Source\PSoC4/CyFlash.c **** * configuring the VTOR register.
 372:Generated_Source\PSoC4/CyFlash.c **** *
 373:Generated_Source\PSoC4/CyFlash.c **** * \note The non-blocking operation does not return success status 
 374:Generated_Source\PSoC4/CyFlash.c **** * CY_SYS_FLASH_SUCCESS until the last Resume API is complete. 
 375:Generated_Source\PSoC4/CyFlash.c **** * The CPUSS_SYSARG register will be reflecting the SRAM address during an 
 376:Generated_Source\PSoC4/CyFlash.c **** * ongoing non-blocking operation.
 377:Generated_Source\PSoC4/CyFlash.c **** *
 378:Generated_Source\PSoC4/CyFlash.c **** * \return \ref group_flash_status_codes
 379:Generated_Source\PSoC4/CyFlash.c **** *
 380:Generated_Source\PSoC4/CyFlash.c **** *******************************************************************************/
 381:Generated_Source\PSoC4/CyFlash.c **** uint32 CySysFlashResumeWriteRow(void)
 382:Generated_Source\PSoC4/CyFlash.c **** {
 383:Generated_Source\PSoC4/CyFlash.c ****     volatile uint32 retValue = CY_SYS_FLASH_SUCCESS;
 384:Generated_Source\PSoC4/CyFlash.c ****     static volatile uint32 parameters[1u];
 385:Generated_Source\PSoC4/CyFlash.c **** 
 386:Generated_Source\PSoC4/CyFlash.c ****     /* Resume */
 387:Generated_Source\PSoC4/CyFlash.c ****     parameters[0u] = (uint32) (((uint32) CY_FLASH_KEY_TWO(CY_FLASH_API_OPCODE_RESUME_NON_BLOCKING) 
 388:Generated_Source\PSoC4/CyFlash.c ****                                          CY_FLASH_PARAM_KEY_TWO_OFFSET) | CY_FLASH_KEY_ONE);
 389:Generated_Source\PSoC4/CyFlash.c ****     CY_FLASH_CPUSS_SYSARG_REG = (uint32) &parameters[0u];
 390:Generated_Source\PSoC4/CyFlash.c ****     CY_FLASH_CPUSS_SYSREQ_REG = CY_FLASH_CPUSS_REQ_START | CY_FLASH_API_OPCODE_RESUME_NON_BLOCKING;
 391:Generated_Source\PSoC4/CyFlash.c ****     
 392:Generated_Source\PSoC4/CyFlash.c ****     CY_NOP;
 393:Generated_Source\PSoC4/CyFlash.c ****     retValue = CY_FLASH_API_RETURN;
 394:Generated_Source\PSoC4/CyFlash.c ****     
 395:Generated_Source\PSoC4/CyFlash.c ****     return (retValue);
 396:Generated_Source\PSoC4/CyFlash.c **** }
 397:Generated_Source\PSoC4/CyFlash.c **** 
 398:Generated_Source\PSoC4/CyFlash.c **** #endif /* (CY_IP_FLASH_PARALLEL_PGM_EN && (CY_IP_FLASH_MACROS > 1u)) */
 399:Generated_Source\PSoC4/CyFlash.c **** 
 400:Generated_Source\PSoC4/CyFlash.c **** 
 401:Generated_Source\PSoC4/CyFlash.c **** /*******************************************************************************
ARM GAS  C:\Users\PC\AppData\Local\Temp\ccQA8CFM.s 			page 14


 402:Generated_Source\PSoC4/CyFlash.c **** * Function Name: CySysFlashSetWaitCycles
 403:Generated_Source\PSoC4/CyFlash.c **** ****************************************************************************//**
 404:Generated_Source\PSoC4/CyFlash.c **** *
 405:Generated_Source\PSoC4/CyFlash.c **** * Sets the number of clock cycles the cache will wait before it samples data
 406:Generated_Source\PSoC4/CyFlash.c **** * coming back from Flash. This function must be called before increasing the
 407:Generated_Source\PSoC4/CyFlash.c **** * SYSCLK clock frequency. It can optionally be called after lowering SYSCLK
 408:Generated_Source\PSoC4/CyFlash.c **** * clock frequency in order to improve the CPU performance.
 409:Generated_Source\PSoC4/CyFlash.c **** *
 410:Generated_Source\PSoC4/CyFlash.c **** * \param freq The System clock frequency in MHz.
 411:Generated_Source\PSoC4/CyFlash.c **** *
 412:Generated_Source\PSoC4/CyFlash.c **** * \note Invalid frequency will be ignored in Release mode and the CPU will be
 413:Generated_Source\PSoC4/CyFlash.c **** * halted if project is compiled in Debug mode.
 414:Generated_Source\PSoC4/CyFlash.c **** *
 415:Generated_Source\PSoC4/CyFlash.c **** *******************************************************************************/
 416:Generated_Source\PSoC4/CyFlash.c **** void CySysFlashSetWaitCycles(uint32 freq)
 417:Generated_Source\PSoC4/CyFlash.c **** {
 339              		.loc 1 417 0
 340              		.cfi_startproc
 341              		@ args = 0, pretend = 0, frame = 16
 342              		@ frame_needed = 1, uses_anonymous_args = 0
 343 0000 90B5     		push	{r4, r7, lr}
 344              		.cfi_def_cfa_offset 12
 345              		.cfi_offset 4, -12
 346              		.cfi_offset 7, -8
 347              		.cfi_offset 14, -4
 348 0002 85B0     		sub	sp, sp, #20
 349              		.cfi_def_cfa_offset 32
 350 0004 00AF     		add	r7, sp, #0
 351              		.cfi_def_cfa_register 7
 352 0006 7860     		str	r0, [r7, #4]
 418:Generated_Source\PSoC4/CyFlash.c ****     uint8  interruptState;
 419:Generated_Source\PSoC4/CyFlash.c **** 
 420:Generated_Source\PSoC4/CyFlash.c ****     interruptState = CyEnterCriticalSection();
 353              		.loc 1 420 0
 354 0008 0F23     		movs	r3, #15
 355 000a FC18     		adds	r4, r7, r3
 356 000c FFF7FEFF 		bl	CyEnterCriticalSection
 357 0010 0300     		movs	r3, r0
 358 0012 2370     		strb	r3, [r4]
 421:Generated_Source\PSoC4/CyFlash.c **** 
 422:Generated_Source\PSoC4/CyFlash.c ****     #if (CY_IP_CPUSS)
 423:Generated_Source\PSoC4/CyFlash.c **** 
 424:Generated_Source\PSoC4/CyFlash.c ****         if ( freq <= CY_FLASH_SYSCLK_BOUNDARY_MHZ )
 425:Generated_Source\PSoC4/CyFlash.c ****         {
 426:Generated_Source\PSoC4/CyFlash.c ****             CY_SYS_CLK_SELECT_REG &= (uint32)(~CY_FLASH_WAIT_STATE_EN);
 427:Generated_Source\PSoC4/CyFlash.c ****         }
 428:Generated_Source\PSoC4/CyFlash.c ****         else
 429:Generated_Source\PSoC4/CyFlash.c ****         {
 430:Generated_Source\PSoC4/CyFlash.c ****             CY_SYS_CLK_SELECT_REG |= CY_FLASH_WAIT_STATE_EN;
 431:Generated_Source\PSoC4/CyFlash.c ****         }
 432:Generated_Source\PSoC4/CyFlash.c ****     #else
 433:Generated_Source\PSoC4/CyFlash.c ****         #if (CY_IP_CPUSS_FLASHC_PRESENT)
 434:Generated_Source\PSoC4/CyFlash.c ****             /* CY_IP_FM and CY_IP_FS */
 435:Generated_Source\PSoC4/CyFlash.c ****             if (freq <= CY_FLASH_CTL_WS_0_FREQ_MAX)
 359              		.loc 1 435 0
 360 0014 7B68     		ldr	r3, [r7, #4]
 361 0016 102B     		cmp	r3, #16
ARM GAS  C:\Users\PC\AppData\Local\Temp\ccQA8CFM.s 			page 15


 362 0018 06D8     		bhi	.L21
 436:Generated_Source\PSoC4/CyFlash.c ****             {
 437:Generated_Source\PSoC4/CyFlash.c ****                 CY_FLASH_CTL_REG = (CY_FLASH_CTL_REG & ~CY_FLASH_CTL_WS_MASK) | CY_FLASH_CTL_WS_0_V
 363              		.loc 1 437 0
 364 001a 164B     		ldr	r3, .L25
 365 001c 154A     		ldr	r2, .L25
 366 001e 1268     		ldr	r2, [r2]
 367 0020 0321     		movs	r1, #3
 368 0022 8A43     		bics	r2, r1
 369 0024 1A60     		str	r2, [r3]
 370 0026 1AE0     		b	.L22
 371              	.L21:
 438:Generated_Source\PSoC4/CyFlash.c ****             } else
 439:Generated_Source\PSoC4/CyFlash.c ****             if (freq <= CY_FLASH_CTL_WS_1_FREQ_MAX)
 372              		.loc 1 439 0
 373 0028 7B68     		ldr	r3, [r7, #4]
 374 002a 202B     		cmp	r3, #32
 375 002c 08D8     		bhi	.L23
 440:Generated_Source\PSoC4/CyFlash.c ****             {
 441:Generated_Source\PSoC4/CyFlash.c ****                 CY_FLASH_CTL_REG = (CY_FLASH_CTL_REG & ~CY_FLASH_CTL_WS_MASK) | CY_FLASH_CTL_WS_1_V
 376              		.loc 1 441 0
 377 002e 114B     		ldr	r3, .L25
 378 0030 104A     		ldr	r2, .L25
 379 0032 1268     		ldr	r2, [r2]
 380 0034 0321     		movs	r1, #3
 381 0036 8A43     		bics	r2, r1
 382 0038 0121     		movs	r1, #1
 383 003a 0A43     		orrs	r2, r1
 384 003c 1A60     		str	r2, [r3]
 385 003e 0EE0     		b	.L22
 386              	.L23:
 442:Generated_Source\PSoC4/CyFlash.c ****             } else
 443:Generated_Source\PSoC4/CyFlash.c ****             #if (CY_IP_FMLT || CY_IP_FSLT)
 444:Generated_Source\PSoC4/CyFlash.c ****                 if (freq <= CY_FLASH_CTL_WS_2_FREQ_MAX)
 387              		.loc 1 444 0
 388 0040 7B68     		ldr	r3, [r7, #4]
 389 0042 302B     		cmp	r3, #48
 390 0044 08D8     		bhi	.L24
 445:Generated_Source\PSoC4/CyFlash.c ****                 {
 446:Generated_Source\PSoC4/CyFlash.c ****                     CY_FLASH_CTL_REG = (CY_FLASH_CTL_REG & ~CY_FLASH_CTL_WS_MASK) | CY_FLASH_CTL_WS
 391              		.loc 1 446 0
 392 0046 0B4B     		ldr	r3, .L25
 393 0048 0A4A     		ldr	r2, .L25
 394 004a 1268     		ldr	r2, [r2]
 395 004c 0321     		movs	r1, #3
 396 004e 8A43     		bics	r2, r1
 397 0050 0221     		movs	r1, #2
 398 0052 0A43     		orrs	r2, r1
 399 0054 1A60     		str	r2, [r3]
 400 0056 02E0     		b	.L22
 401              	.L24:
 447:Generated_Source\PSoC4/CyFlash.c ****                 }
 448:Generated_Source\PSoC4/CyFlash.c ****                 else
 449:Generated_Source\PSoC4/CyFlash.c ****             #endif  /* (CY_IP_FMLT || CY_IP_FSLT) */
 450:Generated_Source\PSoC4/CyFlash.c ****         #endif /* (CY_IP_CPUSS_FLASHC_PRESENT) */
 451:Generated_Source\PSoC4/CyFlash.c ****         {
 452:Generated_Source\PSoC4/CyFlash.c ****             /* Halt CPU in debug mode if frequency is invalid */
ARM GAS  C:\Users\PC\AppData\Local\Temp\ccQA8CFM.s 			page 16


 453:Generated_Source\PSoC4/CyFlash.c ****             CYASSERT(0u != 0u);
 402              		.loc 1 453 0 discriminator 1
 403 0058 0020     		movs	r0, #0
 404 005a FFF7FEFF 		bl	CyHalt
 405              	.L22:
 454:Generated_Source\PSoC4/CyFlash.c ****         }
 455:Generated_Source\PSoC4/CyFlash.c **** 
 456:Generated_Source\PSoC4/CyFlash.c ****     #endif  /* (CY_IP_CPUSS) */
 457:Generated_Source\PSoC4/CyFlash.c **** 
 458:Generated_Source\PSoC4/CyFlash.c ****     CyExitCriticalSection(interruptState);
 406              		.loc 1 458 0
 407 005e 0F23     		movs	r3, #15
 408 0060 FB18     		adds	r3, r7, r3
 409 0062 1B78     		ldrb	r3, [r3]
 410 0064 1800     		movs	r0, r3
 411 0066 FFF7FEFF 		bl	CyExitCriticalSection
 459:Generated_Source\PSoC4/CyFlash.c **** }
 412              		.loc 1 459 0
 413 006a C046     		nop
 414 006c BD46     		mov	sp, r7
 415 006e 05B0     		add	sp, sp, #20
 416              		@ sp needed
 417 0070 90BD     		pop	{r4, r7, pc}
 418              	.L26:
 419 0072 C046     		.align	2
 420              	.L25:
 421 0074 30001040 		.word	1074790448
 422              		.cfi_endproc
 423              	.LFE3:
 424              		.size	CySysFlashSetWaitCycles, .-CySysFlashSetWaitCycles
 425              		.section	.text.CySysSFlashWriteUserRow,"ax",%progbits
 426              		.align	2
 427              		.global	CySysSFlashWriteUserRow
 428              		.code	16
 429              		.thumb_func
 430              		.type	CySysSFlashWriteUserRow, %function
 431              	CySysSFlashWriteUserRow:
 432              	.LFB4:
 460:Generated_Source\PSoC4/CyFlash.c **** 
 461:Generated_Source\PSoC4/CyFlash.c **** 
 462:Generated_Source\PSoC4/CyFlash.c **** #if (CY_SFLASH_XTRA_ROWS)
 463:Generated_Source\PSoC4/CyFlash.c **** /*******************************************************************************
 464:Generated_Source\PSoC4/CyFlash.c **** * Function Name: CySysSFlashWriteUserRow
 465:Generated_Source\PSoC4/CyFlash.c **** ****************************************************************************//**
 466:Generated_Source\PSoC4/CyFlash.c **** *
 467:Generated_Source\PSoC4/CyFlash.c **** * Writes data to a row of SFlash user configurable area.
 468:Generated_Source\PSoC4/CyFlash.c **** *
 469:Generated_Source\PSoC4/CyFlash.c **** * This API is applicable for PSoC 4100 BLE, PSoC 4200 BLE, PSoC 4100M,
 470:Generated_Source\PSoC4/CyFlash.c **** * PSoC 4200M, and PSoC 4200L family of devices.
 471:Generated_Source\PSoC4/CyFlash.c **** *
 472:Generated_Source\PSoC4/CyFlash.c **** * \param rowNum The flash row number. The flash row number. The number of the
 473:Generated_Source\PSoC4/CyFlash.c **** * flash rows is defined by the CY_SFLASH_NUMBER_USERROWS macro for the selected
 474:Generated_Source\PSoC4/CyFlash.c **** * device. Valid range is 0-3. Refer to the device TRM for details.
 475:Generated_Source\PSoC4/CyFlash.c **** *
 476:Generated_Source\PSoC4/CyFlash.c **** * \param rowData Array of bytes to write. The size of the array must be equal to
 477:Generated_Source\PSoC4/CyFlash.c **** * the flash row size. The flash row size for the selected device is defined by
 478:Generated_Source\PSoC4/CyFlash.c **** * the \ref CY_SFLASH_SIZEOF_USERROW macro. Refer to the device TRM for the
ARM GAS  C:\Users\PC\AppData\Local\Temp\ccQA8CFM.s 			page 17


 479:Generated_Source\PSoC4/CyFlash.c **** * details.
 480:Generated_Source\PSoC4/CyFlash.c **** *
 481:Generated_Source\PSoC4/CyFlash.c **** * \return \ref group_flash_status_codes
 482:Generated_Source\PSoC4/CyFlash.c **** *
 483:Generated_Source\PSoC4/CyFlash.c **** *******************************************************************************/
 484:Generated_Source\PSoC4/CyFlash.c **** uint32 CySysSFlashWriteUserRow(uint32 rowNum, const uint8 rowData[])
 485:Generated_Source\PSoC4/CyFlash.c **** {
 433              		.loc 1 485 0
 434              		.cfi_startproc
 435              		@ args = 0, pretend = 0, frame = 288
 436              		@ frame_needed = 1, uses_anonymous_args = 0
 437 0000 90B5     		push	{r4, r7, lr}
 438              		.cfi_def_cfa_offset 12
 439              		.cfi_offset 4, -12
 440              		.cfi_offset 7, -8
 441              		.cfi_offset 14, -4
 442 0002 C9B0     		sub	sp, sp, #292
 443              		.cfi_def_cfa_offset 304
 444 0004 00AF     		add	r7, sp, #0
 445              		.cfi_def_cfa_register 7
 446 0006 7860     		str	r0, [r7, #4]
 447 0008 3960     		str	r1, [r7]
 486:Generated_Source\PSoC4/CyFlash.c ****     volatile uint32 retValue = CY_SYS_FLASH_SUCCESS;
 448              		.loc 1 486 0
 449 000a 0023     		movs	r3, #0
 450 000c 8C22     		movs	r2, #140
 451 000e 5200     		lsls	r2, r2, #1
 452 0010 BA18     		adds	r2, r7, r2
 453 0012 1360     		str	r3, [r2]
 487:Generated_Source\PSoC4/CyFlash.c ****     volatile uint32 clkCnfRetValue = CY_SYS_FLASH_SUCCESS;
 454              		.loc 1 487 0
 455 0014 0023     		movs	r3, #0
 456 0016 8A22     		movs	r2, #138
 457 0018 5200     		lsls	r2, r2, #1
 458 001a BA18     		adds	r2, r7, r2
 459 001c 1360     		str	r3, [r2]
 488:Generated_Source\PSoC4/CyFlash.c ****     volatile uint32 parameters[(CY_FLASH_SIZEOF_ROW + CY_FLASH_SRAM_ROM_DATA)/4u];
 489:Generated_Source\PSoC4/CyFlash.c ****     uint8  interruptState;
 490:Generated_Source\PSoC4/CyFlash.c **** 
 491:Generated_Source\PSoC4/CyFlash.c **** 
 492:Generated_Source\PSoC4/CyFlash.c ****     if ((rowNum < CY_SFLASH_NUMBER_USERROWS) && (rowData != 0u))
 460              		.loc 1 492 0
 461 001e 7B68     		ldr	r3, [r7, #4]
 462 0020 032B     		cmp	r3, #3
 463 0022 00D9     		bls	.LCB385
 464 0024 ABE0     		b	.L28	@long jump
 465              	.LCB385:
 466              		.loc 1 492 0 is_stmt 0 discriminator 1
 467 0026 3B68     		ldr	r3, [r7]
 468 0028 002B     		cmp	r3, #0
 469 002a 00D1     		bne	.LCB388
 470 002c A7E0     		b	.L28	@long jump
 471              	.LCB388:
 493:Generated_Source\PSoC4/CyFlash.c ****     {
 494:Generated_Source\PSoC4/CyFlash.c ****         /* Load Flash Bytes */
 495:Generated_Source\PSoC4/CyFlash.c ****         parameters[0u] = (uint32) (CY_FLASH_GET_MACRO_FROM_ROW(rowNum)        << CY_FLASH_PARAM_MAC
 496:Generated_Source\PSoC4/CyFlash.c ****                          (uint32) (CY_FLASH_PAGE_LATCH_START_ADDR             << CY_FLASH_PARAM_ADD
ARM GAS  C:\Users\PC\AppData\Local\Temp\ccQA8CFM.s 			page 18


 497:Generated_Source\PSoC4/CyFlash.c ****                          (uint32) (CY_FLASH_KEY_TWO(CY_FLASH_API_OPCODE_LOAD) << CY_FLASH_PARAM_KEY
 472              		.loc 1 497 0 is_stmt 1
 473 002e 7B68     		ldr	r3, [r7, #4]
 474 0030 594A     		ldr	r2, .L44
 475 0032 9342     		cmp	r3, r2
 476 0034 01D9     		bls	.L29
 477              		.loc 1 497 0 is_stmt 0 discriminator 1
 478 0036 594A     		ldr	r2, .L44+4
 479 0038 00E0     		b	.L30
 480              	.L29:
 481              		.loc 1 497 0 discriminator 2
 482 003a 594A     		ldr	r2, .L44+8
 483              	.L30:
 495:Generated_Source\PSoC4/CyFlash.c ****                          (uint32) (CY_FLASH_PAGE_LATCH_START_ADDR             << CY_FLASH_PARAM_ADD
 484              		.loc 1 495 0 is_stmt 1
 485 003c 594B     		ldr	r3, .L44+12
 486 003e 9021     		movs	r1, #144
 487 0040 4900     		lsls	r1, r1, #1
 488 0042 8C46     		mov	ip, r1
 489 0044 BC44     		add	ip, ip, r7
 490 0046 6344     		add	r3, r3, ip
 491 0048 1A60     		str	r2, [r3]
 498:Generated_Source\PSoC4/CyFlash.c ****                          CY_FLASH_KEY_ONE;
 499:Generated_Source\PSoC4/CyFlash.c ****         parameters[1u] = CY_FLASH_SIZEOF_ROW - 1u;
 492              		.loc 1 499 0
 493 004a 564B     		ldr	r3, .L44+12
 494 004c 9022     		movs	r2, #144
 495 004e 5200     		lsls	r2, r2, #1
 496 0050 9446     		mov	ip, r2
 497 0052 BC44     		add	ip, ip, r7
 498 0054 6344     		add	r3, r3, ip
 499 0056 FF22     		movs	r2, #255
 500 0058 5A60     		str	r2, [r3, #4]
 500:Generated_Source\PSoC4/CyFlash.c **** 
 501:Generated_Source\PSoC4/CyFlash.c ****         (void)memcpy((void *)&parameters[2u], rowData, CY_FLASH_SIZEOF_ROW);
 501              		.loc 1 501 0
 502 005a 8023     		movs	r3, #128
 503 005c 5A00     		lsls	r2, r3, #1
 504 005e 3968     		ldr	r1, [r7]
 505 0060 0C23     		movs	r3, #12
 506 0062 FB18     		adds	r3, r7, r3
 507 0064 0833     		adds	r3, r3, #8
 508 0066 1800     		movs	r0, r3
 509 0068 FFF7FEFF 		bl	memcpy
 502:Generated_Source\PSoC4/CyFlash.c ****         CY_FLASH_CPUSS_SYSARG_REG = (uint32) &parameters[0u];
 510              		.loc 1 502 0
 511 006c 4E4B     		ldr	r3, .L44+16
 512 006e 0C22     		movs	r2, #12
 513 0070 BA18     		adds	r2, r7, r2
 514 0072 1A60     		str	r2, [r3]
 503:Generated_Source\PSoC4/CyFlash.c ****         CY_FLASH_CPUSS_SYSREQ_REG = CY_FLASH_CPUSS_REQ_START | CY_FLASH_API_OPCODE_LOAD;
 515              		.loc 1 503 0
 516 0074 4D4B     		ldr	r3, .L44+20
 517 0076 4E4A     		ldr	r2, .L44+24
 518 0078 1A60     		str	r2, [r3]
 504:Generated_Source\PSoC4/CyFlash.c ****         CY_NOP;
 519              		.loc 1 504 0
ARM GAS  C:\Users\PC\AppData\Local\Temp\ccQA8CFM.s 			page 19


 520              		.syntax divided
 521              	@ 504 "Generated_Source\PSoC4\CyFlash.c" 1
 522 007a C046     		NOP
 523              	
 524              	@ 0 "" 2
 505:Generated_Source\PSoC4/CyFlash.c ****         retValue = CY_FLASH_API_RETURN;
 525              		.loc 1 505 0
 526              		.thumb
 527              		.syntax unified
 528 007c 4A4B     		ldr	r3, .L44+16
 529 007e 1B68     		ldr	r3, [r3]
 530 0080 1B0F     		lsrs	r3, r3, #28
 531 0082 1A07     		lsls	r2, r3, #28
 532 0084 F023     		movs	r3, #240
 533 0086 1B06     		lsls	r3, r3, #24
 534 0088 9A42     		cmp	r2, r3
 535 008a 04D1     		bne	.L31
 536              		.loc 1 505 0 is_stmt 0 discriminator 1
 537 008c 464B     		ldr	r3, .L44+16
 538 008e 1B68     		ldr	r3, [r3]
 539 0090 FF22     		movs	r2, #255
 540 0092 1340     		ands	r3, r2
 541 0094 0BE0     		b	.L32
 542              	.L31:
 543              		.loc 1 505 0 discriminator 2
 544 0096 444B     		ldr	r3, .L44+16
 545 0098 1B68     		ldr	r3, [r3]
 546 009a 1B0F     		lsrs	r3, r3, #28
 547 009c 1A07     		lsls	r2, r3, #28
 548 009e A023     		movs	r3, #160
 549 00a0 1B06     		lsls	r3, r3, #24
 550 00a2 9A42     		cmp	r2, r3
 551 00a4 02D0     		beq	.L33
 552              		.loc 1 505 0 discriminator 4
 553 00a6 404B     		ldr	r3, .L44+16
 554 00a8 1B68     		ldr	r3, [r3]
 555 00aa 00E0     		b	.L32
 556              	.L33:
 557              		.loc 1 505 0 discriminator 5
 558 00ac 0023     		movs	r3, #0
 559              	.L32:
 560              		.loc 1 505 0 discriminator 8
 561 00ae 8C22     		movs	r2, #140
 562 00b0 5200     		lsls	r2, r2, #1
 563 00b2 BA18     		adds	r2, r7, r2
 564 00b4 1360     		str	r3, [r2]
 506:Generated_Source\PSoC4/CyFlash.c **** 
 507:Generated_Source\PSoC4/CyFlash.c ****         if(retValue == CY_SYS_FLASH_SUCCESS)
 565              		.loc 1 507 0 is_stmt 1 discriminator 8
 566 00b6 8C23     		movs	r3, #140
 567 00b8 5B00     		lsls	r3, r3, #1
 568 00ba FB18     		adds	r3, r7, r3
 569 00bc 1B68     		ldr	r3, [r3]
 570 00be 002B     		cmp	r3, #0
 571 00c0 62D1     		bne	.L42
 508:Generated_Source\PSoC4/CyFlash.c ****         {
 509:Generated_Source\PSoC4/CyFlash.c ****             /***************************************************************
ARM GAS  C:\Users\PC\AppData\Local\Temp\ccQA8CFM.s 			page 20


 510:Generated_Source\PSoC4/CyFlash.c ****             * Mask all the exceptions to guarantee that Flash write will
 511:Generated_Source\PSoC4/CyFlash.c ****             * occur in the atomic way. It will not affect system call
 512:Generated_Source\PSoC4/CyFlash.c ****             * execution (flash row write) since it is executed in the NMI
 513:Generated_Source\PSoC4/CyFlash.c ****             * context.
 514:Generated_Source\PSoC4/CyFlash.c ****             ***************************************************************/
 515:Generated_Source\PSoC4/CyFlash.c ****             interruptState = CyEnterCriticalSection();
 572              		.loc 1 515 0
 573 00c2 2023     		movs	r3, #32
 574 00c4 FF33     		adds	r3, r3, #255
 575 00c6 FC18     		adds	r4, r7, r3
 576 00c8 FFF7FEFF 		bl	CyEnterCriticalSection
 577 00cc 0300     		movs	r3, r0
 578 00ce 2370     		strb	r3, [r4]
 516:Generated_Source\PSoC4/CyFlash.c **** 
 517:Generated_Source\PSoC4/CyFlash.c ****             clkCnfRetValue = CySysFlashClockBackup();
 579              		.loc 1 517 0
 580 00d0 FFF7FEFF 		bl	CySysFlashClockBackup
 581 00d4 0300     		movs	r3, r0
 582 00d6 8A22     		movs	r2, #138
 583 00d8 5200     		lsls	r2, r2, #1
 584 00da BA18     		adds	r2, r7, r2
 585 00dc 1360     		str	r3, [r2]
 518:Generated_Source\PSoC4/CyFlash.c **** 
 519:Generated_Source\PSoC4/CyFlash.c ****         #if(CY_IP_SPCIF_SYNCHRONOUS)
 520:Generated_Source\PSoC4/CyFlash.c ****             if(clkCnfRetValue == CY_SYS_FLASH_SUCCESS)
 521:Generated_Source\PSoC4/CyFlash.c ****             {
 522:Generated_Source\PSoC4/CyFlash.c ****                 retValue = CySysFlashClockConfig();
 523:Generated_Source\PSoC4/CyFlash.c ****             }
 524:Generated_Source\PSoC4/CyFlash.c ****         #endif  /* (CY_IP_SPCIF_SYNCHRONOUS) */
 525:Generated_Source\PSoC4/CyFlash.c **** 
 526:Generated_Source\PSoC4/CyFlash.c ****             if(retValue == CY_SYS_FLASH_SUCCESS)
 586              		.loc 1 526 0
 587 00de 8C23     		movs	r3, #140
 588 00e0 5B00     		lsls	r3, r3, #1
 589 00e2 FB18     		adds	r3, r7, r3
 590 00e4 1B68     		ldr	r3, [r3]
 591 00e6 002B     		cmp	r3, #0
 592 00e8 34D1     		bne	.L36
 527:Generated_Source\PSoC4/CyFlash.c ****             {
 528:Generated_Source\PSoC4/CyFlash.c ****                 /* Write User Sflash Row */
 529:Generated_Source\PSoC4/CyFlash.c ****                 parameters[0u]  = (uint32) (((uint32) CY_FLASH_KEY_TWO(CY_FLASH_API_OPCODE_WRITE_SF
 593              		.loc 1 529 0
 594 00ea 2E4B     		ldr	r3, .L44+12
 595 00ec 9022     		movs	r2, #144
 596 00ee 5200     		lsls	r2, r2, #1
 597 00f0 9446     		mov	ip, r2
 598 00f2 BC44     		add	ip, ip, r7
 599 00f4 6344     		add	r3, r3, ip
 600 00f6 2F4A     		ldr	r2, .L44+28
 601 00f8 1A60     		str	r2, [r3]
 530:Generated_Source\PSoC4/CyFlash.c ****                 parameters[1u] = (uint32) rowNum;
 602              		.loc 1 530 0
 603 00fa 2A4B     		ldr	r3, .L44+12
 604 00fc 9022     		movs	r2, #144
 605 00fe 5200     		lsls	r2, r2, #1
 606 0100 9446     		mov	ip, r2
 607 0102 BC44     		add	ip, ip, r7
ARM GAS  C:\Users\PC\AppData\Local\Temp\ccQA8CFM.s 			page 21


 608 0104 6344     		add	r3, r3, ip
 609 0106 7A68     		ldr	r2, [r7, #4]
 610 0108 5A60     		str	r2, [r3, #4]
 531:Generated_Source\PSoC4/CyFlash.c **** 
 532:Generated_Source\PSoC4/CyFlash.c ****                 CY_FLASH_CPUSS_SYSARG_REG = (uint32) &parameters[0u];
 611              		.loc 1 532 0
 612 010a 274B     		ldr	r3, .L44+16
 613 010c 0C22     		movs	r2, #12
 614 010e BA18     		adds	r2, r7, r2
 615 0110 1A60     		str	r2, [r3]
 533:Generated_Source\PSoC4/CyFlash.c ****                 CY_FLASH_CPUSS_SYSREQ_REG = CY_FLASH_CPUSS_REQ_START | CY_FLASH_API_OPCODE_WRITE_SF
 616              		.loc 1 533 0
 617 0112 264B     		ldr	r3, .L44+20
 618 0114 284A     		ldr	r2, .L44+32
 619 0116 1A60     		str	r2, [r3]
 534:Generated_Source\PSoC4/CyFlash.c ****                 CY_NOP;
 620              		.loc 1 534 0
 621              		.syntax divided
 622              	@ 534 "Generated_Source\PSoC4\CyFlash.c" 1
 623 0118 C046     		NOP
 624              	
 625              	@ 0 "" 2
 535:Generated_Source\PSoC4/CyFlash.c ****                 retValue = CY_FLASH_API_RETURN;
 626              		.loc 1 535 0
 627              		.thumb
 628              		.syntax unified
 629 011a 234B     		ldr	r3, .L44+16
 630 011c 1B68     		ldr	r3, [r3]
 631 011e 1B0F     		lsrs	r3, r3, #28
 632 0120 1A07     		lsls	r2, r3, #28
 633 0122 F023     		movs	r3, #240
 634 0124 1B06     		lsls	r3, r3, #24
 635 0126 9A42     		cmp	r2, r3
 636 0128 04D1     		bne	.L37
 637              		.loc 1 535 0 is_stmt 0 discriminator 1
 638 012a 1F4B     		ldr	r3, .L44+16
 639 012c 1B68     		ldr	r3, [r3]
 640 012e FF22     		movs	r2, #255
 641 0130 1340     		ands	r3, r2
 642 0132 0BE0     		b	.L38
 643              	.L37:
 644              		.loc 1 535 0 discriminator 2
 645 0134 1C4B     		ldr	r3, .L44+16
 646 0136 1B68     		ldr	r3, [r3]
 647 0138 1B0F     		lsrs	r3, r3, #28
 648 013a 1A07     		lsls	r2, r3, #28
 649 013c A023     		movs	r3, #160
 650 013e 1B06     		lsls	r3, r3, #24
 651 0140 9A42     		cmp	r2, r3
 652 0142 02D0     		beq	.L39
 653              		.loc 1 535 0 discriminator 4
 654 0144 184B     		ldr	r3, .L44+16
 655 0146 1B68     		ldr	r3, [r3]
 656 0148 00E0     		b	.L38
 657              	.L39:
 658              		.loc 1 535 0 discriminator 5
 659 014a 0023     		movs	r3, #0
ARM GAS  C:\Users\PC\AppData\Local\Temp\ccQA8CFM.s 			page 22


 660              	.L38:
 661              		.loc 1 535 0 discriminator 8
 662 014c 8C22     		movs	r2, #140
 663 014e 5200     		lsls	r2, r2, #1
 664 0150 BA18     		adds	r2, r7, r2
 665 0152 1360     		str	r3, [r2]
 666              	.L36:
 536:Generated_Source\PSoC4/CyFlash.c ****             }
 537:Generated_Source\PSoC4/CyFlash.c **** 
 538:Generated_Source\PSoC4/CyFlash.c ****             if(clkCnfRetValue == CY_SYS_FLASH_SUCCESS)
 667              		.loc 1 538 0 is_stmt 1
 668 0154 8A23     		movs	r3, #138
 669 0156 5B00     		lsls	r3, r3, #1
 670 0158 FB18     		adds	r3, r7, r3
 671 015a 1B68     		ldr	r3, [r3]
 672 015c 002B     		cmp	r3, #0
 673 015e 06D1     		bne	.L41
 539:Generated_Source\PSoC4/CyFlash.c ****             {
 540:Generated_Source\PSoC4/CyFlash.c ****                 clkCnfRetValue = CySysFlashClockRestore();
 674              		.loc 1 540 0
 675 0160 FFF7FEFF 		bl	CySysFlashClockRestore
 676 0164 0300     		movs	r3, r0
 677 0166 8A22     		movs	r2, #138
 678 0168 5200     		lsls	r2, r2, #1
 679 016a BA18     		adds	r2, r7, r2
 680 016c 1360     		str	r3, [r2]
 681              	.L41:
 541:Generated_Source\PSoC4/CyFlash.c ****             }
 542:Generated_Source\PSoC4/CyFlash.c ****             CyExitCriticalSection(interruptState);
 682              		.loc 1 542 0
 683 016e 2023     		movs	r3, #32
 684 0170 FF33     		adds	r3, r3, #255
 685 0172 FB18     		adds	r3, r7, r3
 686 0174 1B78     		ldrb	r3, [r3]
 687 0176 1800     		movs	r0, r3
 688 0178 FFF7FEFF 		bl	CyExitCriticalSection
 507:Generated_Source\PSoC4/CyFlash.c ****         {
 689              		.loc 1 507 0
 690 017c 04E0     		b	.L42
 691              	.L28:
 543:Generated_Source\PSoC4/CyFlash.c ****         }
 544:Generated_Source\PSoC4/CyFlash.c ****     }
 545:Generated_Source\PSoC4/CyFlash.c ****     else
 546:Generated_Source\PSoC4/CyFlash.c ****     {
 547:Generated_Source\PSoC4/CyFlash.c ****         retValue = CY_SYS_FLASH_INVALID_ADDR;
 692              		.loc 1 547 0
 693 017e 0423     		movs	r3, #4
 694 0180 8C22     		movs	r2, #140
 695 0182 5200     		lsls	r2, r2, #1
 696 0184 BA18     		adds	r2, r7, r2
 697 0186 1360     		str	r3, [r2]
 698              	.L42:
 548:Generated_Source\PSoC4/CyFlash.c ****     }
 549:Generated_Source\PSoC4/CyFlash.c **** 
 550:Generated_Source\PSoC4/CyFlash.c ****     return (retValue);
 699              		.loc 1 550 0
 700 0188 8C23     		movs	r3, #140
ARM GAS  C:\Users\PC\AppData\Local\Temp\ccQA8CFM.s 			page 23


 701 018a 5B00     		lsls	r3, r3, #1
 702 018c FB18     		adds	r3, r7, r3
 703 018e 1B68     		ldr	r3, [r3]
 551:Generated_Source\PSoC4/CyFlash.c **** }
 704              		.loc 1 551 0
 705 0190 1800     		movs	r0, r3
 706 0192 BD46     		mov	sp, r7
 707 0194 49B0     		add	sp, sp, #292
 708              		@ sp needed
 709 0196 90BD     		pop	{r4, r7, pc}
 710              	.L45:
 711              		.align	2
 712              	.L44:
 713 0198 FF010000 		.word	511
 714 019c B6D70001 		.word	16832438
 715 01a0 B6D70000 		.word	55222
 716 01a4 ECFEFFFF 		.word	-276
 717 01a8 08001040 		.word	1074790408
 718 01ac 04001040 		.word	1074790404
 719 01b0 04000080 		.word	-2147483644
 720 01b4 B6EB0000 		.word	60342
 721 01b8 18000080 		.word	-2147483624
 722              		.cfi_endproc
 723              	.LFE4:
 724              		.size	CySysSFlashWriteUserRow, .-CySysSFlashWriteUserRow
 725              		.section	.text.CySysFlashClockBackup,"ax",%progbits
 726              		.align	2
 727              		.code	16
 728              		.thumb_func
 729              		.type	CySysFlashClockBackup, %function
 730              	CySysFlashClockBackup:
 731              	.LFB5:
 552:Generated_Source\PSoC4/CyFlash.c **** #endif /* (CY_SFLASH_XTRA_ROWS) */
 553:Generated_Source\PSoC4/CyFlash.c **** 
 554:Generated_Source\PSoC4/CyFlash.c **** 
 555:Generated_Source\PSoC4/CyFlash.c **** /*******************************************************************************
 556:Generated_Source\PSoC4/CyFlash.c **** * Function Name: CySysFlashClockBackup
 557:Generated_Source\PSoC4/CyFlash.c **** ****************************************************************************//**
 558:Generated_Source\PSoC4/CyFlash.c **** *
 559:Generated_Source\PSoC4/CyFlash.c **** * Backups the device clock configuration.
 560:Generated_Source\PSoC4/CyFlash.c **** *
 561:Generated_Source\PSoC4/CyFlash.c **** * \return The same as \ref CySysFlashWriteRow().
 562:Generated_Source\PSoC4/CyFlash.c **** *
 563:Generated_Source\PSoC4/CyFlash.c **** *******************************************************************************/
 564:Generated_Source\PSoC4/CyFlash.c **** static cystatus CySysFlashClockBackup(void)
 565:Generated_Source\PSoC4/CyFlash.c **** {
 732              		.loc 1 565 0
 733              		.cfi_startproc
 734              		@ args = 0, pretend = 0, frame = 8
 735              		@ frame_needed = 1, uses_anonymous_args = 0
 736 0000 80B5     		push	{r7, lr}
 737              		.cfi_def_cfa_offset 8
 738              		.cfi_offset 7, -8
 739              		.cfi_offset 14, -4
 740 0002 82B0     		sub	sp, sp, #8
 741              		.cfi_def_cfa_offset 16
 742 0004 00AF     		add	r7, sp, #0
ARM GAS  C:\Users\PC\AppData\Local\Temp\ccQA8CFM.s 			page 24


 743              		.cfi_def_cfa_register 7
 566:Generated_Source\PSoC4/CyFlash.c ****     cystatus retValue = CY_SYS_FLASH_SUCCESS;
 744              		.loc 1 566 0
 745 0006 0023     		movs	r3, #0
 746 0008 7B60     		str	r3, [r7, #4]
 567:Generated_Source\PSoC4/CyFlash.c **** #if(!CY_IP_FM)
 568:Generated_Source\PSoC4/CyFlash.c ****     #if !(CY_PSOC4_4000)
 569:Generated_Source\PSoC4/CyFlash.c ****         #if (CY_IP_SPCIF_SYNCHRONOUS)
 570:Generated_Source\PSoC4/CyFlash.c ****             volatile uint32   parameters[2u];
 571:Generated_Source\PSoC4/CyFlash.c ****         #endif /* (CY_IP_SPCIF_SYNCHRONOUS) */
 572:Generated_Source\PSoC4/CyFlash.c ****     #endif  /* !(CY_PSOC4_4000) */
 573:Generated_Source\PSoC4/CyFlash.c **** #endif  /* (!CY_IP_FM) */
 574:Generated_Source\PSoC4/CyFlash.c **** 
 575:Generated_Source\PSoC4/CyFlash.c **** #if(CY_IP_FM)
 576:Generated_Source\PSoC4/CyFlash.c **** 
 577:Generated_Source\PSoC4/CyFlash.c ****     /***************************************************************
 578:Generated_Source\PSoC4/CyFlash.c ****     * Preserve IMO configuration that could be changed during
 579:Generated_Source\PSoC4/CyFlash.c ****     * system call execution (Cypress ID #150448).
 580:Generated_Source\PSoC4/CyFlash.c ****     ***************************************************************/
 581:Generated_Source\PSoC4/CyFlash.c ****     cySysFlashBackup.imoConfigReg = CY_SYS_CLK_IMO_CONFIG_REG;
 582:Generated_Source\PSoC4/CyFlash.c **** 
 583:Generated_Source\PSoC4/CyFlash.c **** #else   /* (CY_IP_FMLT) */
 584:Generated_Source\PSoC4/CyFlash.c **** 
 585:Generated_Source\PSoC4/CyFlash.c ****     #if (CY_PSOC4_4000)
 586:Generated_Source\PSoC4/CyFlash.c **** 
 587:Generated_Source\PSoC4/CyFlash.c ****         /***************************************************************************
 588:Generated_Source\PSoC4/CyFlash.c ****         * Perform firmware clock settings backup for the PSOC4 4000 devices (the
 589:Generated_Source\PSoC4/CyFlash.c ****         * corresponding system call is not available).
 590:Generated_Source\PSoC4/CyFlash.c ****         ***************************************************************************/
 591:Generated_Source\PSoC4/CyFlash.c **** 
 592:Generated_Source\PSoC4/CyFlash.c ****         /***************************************************************************
 593:Generated_Source\PSoC4/CyFlash.c ****         * The registers listed below are modified by CySysFlashClockConfig().
 594:Generated_Source\PSoC4/CyFlash.c ****         *
 595:Generated_Source\PSoC4/CyFlash.c ****         * The registers to be saved:
 596:Generated_Source\PSoC4/CyFlash.c ****         * - CY_SYS_CLK_IMO_CONFIG_REG - IMO enable state.
 597:Generated_Source\PSoC4/CyFlash.c ****         * - CY_SYS_CLK_SELECT_REG     - HFCLK source, divider, pump source. Save
 598:Generated_Source\PSoC4/CyFlash.c ****         *                               entire register as it can be directly
 599:Generated_Source\PSoC4/CyFlash.c ****         *                               written on restore (no special
 600:Generated_Source\PSoC4/CyFlash.c ****         *                               requirements).
 601:Generated_Source\PSoC4/CyFlash.c ****         * - CY_SYS_CLK_IMO_SELECT_REG - Save IMO frequency.
 602:Generated_Source\PSoC4/CyFlash.c ****         *
 603:Generated_Source\PSoC4/CyFlash.c ****         * The registers not to be saved:
 604:Generated_Source\PSoC4/CyFlash.c ****         * - CY_SYS_CLK_IMO_TRIM1_REG  - No need to save. Function of frequency.
 605:Generated_Source\PSoC4/CyFlash.c ****         *                               Restored by CySysClkWriteImoFreq().
 606:Generated_Source\PSoC4/CyFlash.c ****         * - CY_SYS_CLK_IMO_TRIM3_REG  - No need to save. Function of frequency.
 607:Generated_Source\PSoC4/CyFlash.c ****         *                               Restored by CySysClkWriteImoFreq().
 608:Generated_Source\PSoC4/CyFlash.c ****         * - REG_CPUSS_FLASH_CTL       - Flash wait cycles. Unmodified due to system
 609:Generated_Source\PSoC4/CyFlash.c ****         *                               clock 16 MHz limit.
 610:Generated_Source\PSoC4/CyFlash.c ****         ***************************************************************************/
 611:Generated_Source\PSoC4/CyFlash.c **** 
 612:Generated_Source\PSoC4/CyFlash.c ****         cySysFlashBackup.clkSelectReg = CY_SYS_CLK_SELECT_REG;
 613:Generated_Source\PSoC4/CyFlash.c ****         cySysFlashBackup.clkImoEna    = CY_SYS_CLK_IMO_CONFIG_REG & CY_SYS_CLK_IMO_CONFIG_ENABLE;
 614:Generated_Source\PSoC4/CyFlash.c ****         cySysFlashBackup.clkImoFreq   = CY_SYS_CLK_IMO_MIN_FREQ_MHZ + (CY_SYS_CLK_IMO_SELECT_REG <<
 615:Generated_Source\PSoC4/CyFlash.c **** 
 616:Generated_Source\PSoC4/CyFlash.c ****     #else
 617:Generated_Source\PSoC4/CyFlash.c **** 
 618:Generated_Source\PSoC4/CyFlash.c ****         #if (CY_IP_SPCIF_SYNCHRONOUS)
ARM GAS  C:\Users\PC\AppData\Local\Temp\ccQA8CFM.s 			page 25


 619:Generated_Source\PSoC4/CyFlash.c ****             /* FM-Lite Clock Backup System Call */
 620:Generated_Source\PSoC4/CyFlash.c ****             parameters[0u] =
 621:Generated_Source\PSoC4/CyFlash.c ****                 (uint32) ((CY_FLASH_KEY_TWO(CY_FLASH_API_OPCODE_CLK_BACKUP) <<  CY_FLASH_PARAM_KEY_
 622:Generated_Source\PSoC4/CyFlash.c ****                             CY_FLASH_KEY_ONE);
 623:Generated_Source\PSoC4/CyFlash.c ****             parameters[1u] = (uint32) &cySysFlashBackup.clockSettings[0u];
 624:Generated_Source\PSoC4/CyFlash.c ****             CY_FLASH_CPUSS_SYSARG_REG = (uint32) &parameters[0u];
 625:Generated_Source\PSoC4/CyFlash.c ****             CY_FLASH_CPUSS_SYSREQ_REG = CY_FLASH_CPUSS_REQ_START | CY_FLASH_API_OPCODE_CLK_BACKUP;
 626:Generated_Source\PSoC4/CyFlash.c ****             CY_NOP;
 627:Generated_Source\PSoC4/CyFlash.c ****             retValue = CY_FLASH_API_RETURN;
 628:Generated_Source\PSoC4/CyFlash.c ****         #endif /* (CY_IP_SPCIF_SYNCHRONOUS) */
 629:Generated_Source\PSoC4/CyFlash.c **** 
 630:Generated_Source\PSoC4/CyFlash.c ****     #endif  /* (CY_PSOC4_4000) */
 631:Generated_Source\PSoC4/CyFlash.c **** 
 632:Generated_Source\PSoC4/CyFlash.c **** #endif  /* (CY_IP_FM) */
 633:Generated_Source\PSoC4/CyFlash.c **** 
 634:Generated_Source\PSoC4/CyFlash.c ****     return (retValue);
 747              		.loc 1 634 0
 748 000a 7B68     		ldr	r3, [r7, #4]
 635:Generated_Source\PSoC4/CyFlash.c **** }
 749              		.loc 1 635 0
 750 000c 1800     		movs	r0, r3
 751 000e BD46     		mov	sp, r7
 752 0010 02B0     		add	sp, sp, #8
 753              		@ sp needed
 754 0012 80BD     		pop	{r7, pc}
 755              		.cfi_endproc
 756              	.LFE5:
 757              		.size	CySysFlashClockBackup, .-CySysFlashClockBackup
 758              		.section	.text.CySysFlashClockRestore,"ax",%progbits
 759              		.align	2
 760              		.code	16
 761              		.thumb_func
 762              		.type	CySysFlashClockRestore, %function
 763              	CySysFlashClockRestore:
 764              	.LFB6:
 636:Generated_Source\PSoC4/CyFlash.c **** 
 637:Generated_Source\PSoC4/CyFlash.c **** 
 638:Generated_Source\PSoC4/CyFlash.c **** #if(CY_IP_SPCIF_SYNCHRONOUS)
 639:Generated_Source\PSoC4/CyFlash.c **** /*******************************************************************************
 640:Generated_Source\PSoC4/CyFlash.c **** * Function Name: CySysFlashClockConfig
 641:Generated_Source\PSoC4/CyFlash.c **** ****************************************************************************//**
 642:Generated_Source\PSoC4/CyFlash.c **** *
 643:Generated_Source\PSoC4/CyFlash.c **** * Configures the device clocks for the flash writing.
 644:Generated_Source\PSoC4/CyFlash.c **** *
 645:Generated_Source\PSoC4/CyFlash.c **** * \return The same as \ref CySysFlashWriteRow().
 646:Generated_Source\PSoC4/CyFlash.c **** *
 647:Generated_Source\PSoC4/CyFlash.c **** *******************************************************************************/
 648:Generated_Source\PSoC4/CyFlash.c **** static cystatus CySysFlashClockConfig(void)
 649:Generated_Source\PSoC4/CyFlash.c **** {
 650:Generated_Source\PSoC4/CyFlash.c ****     cystatus retValue = CY_SYS_FLASH_SUCCESS;
 651:Generated_Source\PSoC4/CyFlash.c **** 
 652:Generated_Source\PSoC4/CyFlash.c ****     /***************************************************************************
 653:Generated_Source\PSoC4/CyFlash.c ****     * The FM-Lite IP uses the IMO at 48MHz for the pump clock and SPC timer
 654:Generated_Source\PSoC4/CyFlash.c ****     * clock. The PUMP_SEL and HF clock must be set to IMO before calling Flash
 655:Generated_Source\PSoC4/CyFlash.c ****     * write or erase operation.
 656:Generated_Source\PSoC4/CyFlash.c ****     ***************************************************************************/
 657:Generated_Source\PSoC4/CyFlash.c **** #if (CY_PSOC4_4000)
ARM GAS  C:\Users\PC\AppData\Local\Temp\ccQA8CFM.s 			page 26


 658:Generated_Source\PSoC4/CyFlash.c **** 
 659:Generated_Source\PSoC4/CyFlash.c ****     /***************************************************************************
 660:Generated_Source\PSoC4/CyFlash.c ****     * Perform firmware clock settings setup for the PSOC4 4000 devices (the
 661:Generated_Source\PSoC4/CyFlash.c ****     * corresponding system call is not reliable):
 662:Generated_Source\PSoC4/CyFlash.c ****     * - The IMO frequency should be 48 MHz
 663:Generated_Source\PSoC4/CyFlash.c ****     * - The IMO should be source for the HFCLK
 664:Generated_Source\PSoC4/CyFlash.c ****     * - The IMO should be the source for the charge pump clock
 665:Generated_Source\PSoC4/CyFlash.c ****     *
 666:Generated_Source\PSoC4/CyFlash.c ****     * Note The structure members used below are initialized by
 667:Generated_Source\PSoC4/CyFlash.c ****     * the CySysFlashClockBackup() function.
 668:Generated_Source\PSoC4/CyFlash.c ****     ***************************************************************************/
 669:Generated_Source\PSoC4/CyFlash.c ****     if ((cySysFlashBackup.clkImoFreq != 48u) ||
 670:Generated_Source\PSoC4/CyFlash.c ****         ((cySysFlashBackup.clkSelectReg & CY_SYS_CLK_SELECT_DIRECT_SEL_MASK) != CY_SYS_CLK_HFCLK_IM
 671:Generated_Source\PSoC4/CyFlash.c ****         (((cySysFlashBackup.clkSelectReg >> CY_SYS_CLK_SELECT_PUMP_SEL_SHIFT) & CY_SYS_CLK_SELECT_P
 672:Generated_Source\PSoC4/CyFlash.c ****             CY_SYS_CLK_SELECT_PUMP_SEL_IMO))
 673:Generated_Source\PSoC4/CyFlash.c ****     {
 674:Generated_Source\PSoC4/CyFlash.c ****         /***********************************************************************
 675:Generated_Source\PSoC4/CyFlash.c ****          Set HFCLK divider to divide-by-4 to ensure that System clock frequency
 676:Generated_Source\PSoC4/CyFlash.c ****         * is within the valid limit (16 MHz for the PSoC4 4000).
 677:Generated_Source\PSoC4/CyFlash.c ****         ***********************************************************************/
 678:Generated_Source\PSoC4/CyFlash.c ****         CySysClkWriteHfclkDiv(CY_SYS_CLK_HFCLK_DIV_4);
 679:Generated_Source\PSoC4/CyFlash.c **** 
 680:Generated_Source\PSoC4/CyFlash.c ****         /* The IMO frequency should be 48 MHz */
 681:Generated_Source\PSoC4/CyFlash.c ****         if (cySysFlashBackup.clkImoFreq != 48u)
 682:Generated_Source\PSoC4/CyFlash.c ****         {
 683:Generated_Source\PSoC4/CyFlash.c ****             CySysClkWriteImoFreq(48u);
 684:Generated_Source\PSoC4/CyFlash.c ****         }
 685:Generated_Source\PSoC4/CyFlash.c ****         CySysClkImoStart();
 686:Generated_Source\PSoC4/CyFlash.c **** 
 687:Generated_Source\PSoC4/CyFlash.c ****         /* The IMO should be source for the HFCLK */
 688:Generated_Source\PSoC4/CyFlash.c ****         CySysClkWriteHfclkDirect(CY_SYS_CLK_HFCLK_IMO);
 689:Generated_Source\PSoC4/CyFlash.c **** 
 690:Generated_Source\PSoC4/CyFlash.c ****         /* The IMO should be the source for the charge pump clock */
 691:Generated_Source\PSoC4/CyFlash.c ****         CY_SYS_CLK_SELECT_REG =  (CY_SYS_CLK_SELECT_REG &
 692:Generated_Source\PSoC4/CyFlash.c ****             ((uint32)~(uint32)(CY_SYS_CLK_SELECT_PUMP_SEL_MASK << CY_SYS_CLK_SELECT_PUMP_SEL_SHIFT)
 693:Generated_Source\PSoC4/CyFlash.c ****             ((uint32)((uint32)1u << CY_SYS_CLK_SELECT_PUMP_SEL_SHIFT));
 694:Generated_Source\PSoC4/CyFlash.c ****     }
 695:Generated_Source\PSoC4/CyFlash.c **** 
 696:Generated_Source\PSoC4/CyFlash.c **** #else
 697:Generated_Source\PSoC4/CyFlash.c **** 
 698:Generated_Source\PSoC4/CyFlash.c ****     /* FM-Lite Clock Configuration */
 699:Generated_Source\PSoC4/CyFlash.c ****     CY_FLASH_CPUSS_SYSARG_REG =
 700:Generated_Source\PSoC4/CyFlash.c ****         (uint32) ((CY_FLASH_KEY_TWO(CY_FLASH_API_OPCODE_CLK_CONFIG) <<  CY_FLASH_PARAM_KEY_TWO_OFFS
 701:Generated_Source\PSoC4/CyFlash.c ****                     CY_FLASH_KEY_ONE);
 702:Generated_Source\PSoC4/CyFlash.c ****     CY_FLASH_CPUSS_SYSREQ_REG = CY_FLASH_CPUSS_REQ_START | CY_FLASH_API_OPCODE_CLK_CONFIG;
 703:Generated_Source\PSoC4/CyFlash.c ****     CY_NOP;
 704:Generated_Source\PSoC4/CyFlash.c ****     retValue = CY_FLASH_API_RETURN;
 705:Generated_Source\PSoC4/CyFlash.c **** 
 706:Generated_Source\PSoC4/CyFlash.c **** #endif  /* (CY_PSOC4_4000) */
 707:Generated_Source\PSoC4/CyFlash.c **** 
 708:Generated_Source\PSoC4/CyFlash.c ****     return (retValue);
 709:Generated_Source\PSoC4/CyFlash.c **** }
 710:Generated_Source\PSoC4/CyFlash.c **** #endif  /* (CY_IP_SPCIF_SYNCHRONOUS) */
 711:Generated_Source\PSoC4/CyFlash.c **** 
 712:Generated_Source\PSoC4/CyFlash.c **** 
 713:Generated_Source\PSoC4/CyFlash.c **** /*******************************************************************************
 714:Generated_Source\PSoC4/CyFlash.c **** * Function Name: CySysFlashClockRestore
ARM GAS  C:\Users\PC\AppData\Local\Temp\ccQA8CFM.s 			page 27


 715:Generated_Source\PSoC4/CyFlash.c **** ****************************************************************************//**
 716:Generated_Source\PSoC4/CyFlash.c **** *
 717:Generated_Source\PSoC4/CyFlash.c **** * Restores the device clock configuration.
 718:Generated_Source\PSoC4/CyFlash.c **** *
 719:Generated_Source\PSoC4/CyFlash.c **** * \return The same as \ref CySysFlashWriteRow().
 720:Generated_Source\PSoC4/CyFlash.c **** *
 721:Generated_Source\PSoC4/CyFlash.c **** *******************************************************************************/
 722:Generated_Source\PSoC4/CyFlash.c **** static cystatus CySysFlashClockRestore(void)
 723:Generated_Source\PSoC4/CyFlash.c **** {
 765              		.loc 1 723 0
 766              		.cfi_startproc
 767              		@ args = 0, pretend = 0, frame = 8
 768              		@ frame_needed = 1, uses_anonymous_args = 0
 769 0000 80B5     		push	{r7, lr}
 770              		.cfi_def_cfa_offset 8
 771              		.cfi_offset 7, -8
 772              		.cfi_offset 14, -4
 773 0002 82B0     		sub	sp, sp, #8
 774              		.cfi_def_cfa_offset 16
 775 0004 00AF     		add	r7, sp, #0
 776              		.cfi_def_cfa_register 7
 724:Generated_Source\PSoC4/CyFlash.c ****     cystatus retValue = CY_SYS_FLASH_SUCCESS;
 777              		.loc 1 724 0
 778 0006 0023     		movs	r3, #0
 779 0008 7B60     		str	r3, [r7, #4]
 725:Generated_Source\PSoC4/CyFlash.c **** #if(!CY_IP_FM)
 726:Generated_Source\PSoC4/CyFlash.c ****     #if !(CY_PSOC4_4000)
 727:Generated_Source\PSoC4/CyFlash.c ****         #if (CY_IP_SPCIF_SYNCHRONOUS)
 728:Generated_Source\PSoC4/CyFlash.c ****             volatile uint32   parameters[2u];
 729:Generated_Source\PSoC4/CyFlash.c ****         #endif /* (CY_IP_SPCIF_SYNCHRONOUS) */
 730:Generated_Source\PSoC4/CyFlash.c ****     #endif  /* !(CY_PSOC4_4000) */
 731:Generated_Source\PSoC4/CyFlash.c **** #endif  /* (!CY_IP_FM) */
 732:Generated_Source\PSoC4/CyFlash.c **** 
 733:Generated_Source\PSoC4/CyFlash.c **** #if(CY_IP_FM)
 734:Generated_Source\PSoC4/CyFlash.c **** 
 735:Generated_Source\PSoC4/CyFlash.c ****     /***************************************************************
 736:Generated_Source\PSoC4/CyFlash.c ****     * Restore IMO configuration that could be changed during
 737:Generated_Source\PSoC4/CyFlash.c ****     * system call execution (Cypress ID #150448).
 738:Generated_Source\PSoC4/CyFlash.c ****     ***************************************************************/
 739:Generated_Source\PSoC4/CyFlash.c ****     CY_SYS_CLK_IMO_CONFIG_REG = cySysFlashBackup.imoConfigReg;
 740:Generated_Source\PSoC4/CyFlash.c **** 
 741:Generated_Source\PSoC4/CyFlash.c **** #else
 742:Generated_Source\PSoC4/CyFlash.c **** 
 743:Generated_Source\PSoC4/CyFlash.c ****     #if (CY_PSOC4_4000)
 744:Generated_Source\PSoC4/CyFlash.c **** 
 745:Generated_Source\PSoC4/CyFlash.c ****         /***************************************************************************
 746:Generated_Source\PSoC4/CyFlash.c ****         * Perform firmware clock settings restore for the PSOC4 4000 devices (the
 747:Generated_Source\PSoC4/CyFlash.c ****         * corresponding system call is not available).
 748:Generated_Source\PSoC4/CyFlash.c ****         ***************************************************************************/
 749:Generated_Source\PSoC4/CyFlash.c **** 
 750:Generated_Source\PSoC4/CyFlash.c ****         /* Restore clock settings */
 751:Generated_Source\PSoC4/CyFlash.c ****         if ((cySysFlashBackup.clkImoFreq != 48u) ||
 752:Generated_Source\PSoC4/CyFlash.c ****             ((cySysFlashBackup.clkSelectReg & CY_SYS_CLK_SELECT_DIRECT_SEL_MASK) != CY_SYS_CLK_HFCL
 753:Generated_Source\PSoC4/CyFlash.c ****             (((cySysFlashBackup.clkSelectReg >> CY_SYS_CLK_SELECT_PUMP_SEL_SHIFT) & CY_SYS_CLK_SELE
 754:Generated_Source\PSoC4/CyFlash.c ****                 CY_SYS_CLK_SELECT_PUMP_SEL_IMO))
 755:Generated_Source\PSoC4/CyFlash.c ****         {
 756:Generated_Source\PSoC4/CyFlash.c ****             /* Restore IMO frequency if needed */
ARM GAS  C:\Users\PC\AppData\Local\Temp\ccQA8CFM.s 			page 28


 757:Generated_Source\PSoC4/CyFlash.c ****             if (cySysFlashBackup.clkImoFreq != 48u)
 758:Generated_Source\PSoC4/CyFlash.c ****             {
 759:Generated_Source\PSoC4/CyFlash.c ****                 CySysClkWriteImoFreq(cySysFlashBackup.clkImoFreq);
 760:Generated_Source\PSoC4/CyFlash.c ****             }
 761:Generated_Source\PSoC4/CyFlash.c **** 
 762:Generated_Source\PSoC4/CyFlash.c ****             /* Restore HFCLK clock source */
 763:Generated_Source\PSoC4/CyFlash.c ****             CySysClkWriteHfclkDirect(cySysFlashBackup.clkSelectReg & CY_SYS_CLK_SELECT_DIRECT_SEL_M
 764:Generated_Source\PSoC4/CyFlash.c **** 
 765:Generated_Source\PSoC4/CyFlash.c ****             /* Restore HFCLK divider and source for pump  */
 766:Generated_Source\PSoC4/CyFlash.c ****             CY_SYS_CLK_SELECT_REG = cySysFlashBackup.clkSelectReg;
 767:Generated_Source\PSoC4/CyFlash.c **** 
 768:Generated_Source\PSoC4/CyFlash.c ****             /* Stop IMO if needed */
 769:Generated_Source\PSoC4/CyFlash.c ****             if (0u == cySysFlashBackup.clkImoEna)
 770:Generated_Source\PSoC4/CyFlash.c ****             {
 771:Generated_Source\PSoC4/CyFlash.c ****                 CySysClkImoStop();
 772:Generated_Source\PSoC4/CyFlash.c ****             }
 773:Generated_Source\PSoC4/CyFlash.c ****         }
 774:Generated_Source\PSoC4/CyFlash.c **** 
 775:Generated_Source\PSoC4/CyFlash.c ****     #else
 776:Generated_Source\PSoC4/CyFlash.c **** 
 777:Generated_Source\PSoC4/CyFlash.c ****         #if (CY_IP_SPCIF_SYNCHRONOUS)
 778:Generated_Source\PSoC4/CyFlash.c ****             /* FM-Lite Clock Restore */
 779:Generated_Source\PSoC4/CyFlash.c ****             parameters[0u] =
 780:Generated_Source\PSoC4/CyFlash.c ****                 (uint32) ((CY_FLASH_KEY_TWO(CY_FLASH_API_OPCODE_CLK_RESTORE) <<  CY_FLASH_PARAM_KEY
 781:Generated_Source\PSoC4/CyFlash.c ****                             CY_FLASH_KEY_ONE);
 782:Generated_Source\PSoC4/CyFlash.c ****             parameters[1u] = (uint32) &cySysFlashBackup.clockSettings[0u];
 783:Generated_Source\PSoC4/CyFlash.c ****             CY_FLASH_CPUSS_SYSARG_REG = (uint32) &parameters[0u];
 784:Generated_Source\PSoC4/CyFlash.c ****             CY_FLASH_CPUSS_SYSREQ_REG = CY_FLASH_CPUSS_REQ_START | CY_FLASH_API_OPCODE_CLK_RESTORE;
 785:Generated_Source\PSoC4/CyFlash.c ****             CY_NOP;
 786:Generated_Source\PSoC4/CyFlash.c ****             retValue = CY_FLASH_API_RETURN;
 787:Generated_Source\PSoC4/CyFlash.c ****         #endif /* (CY_IP_SPCIF_SYNCHRONOUS) */
 788:Generated_Source\PSoC4/CyFlash.c **** 
 789:Generated_Source\PSoC4/CyFlash.c ****     #endif  /* (CY_PSOC4_4000) */
 790:Generated_Source\PSoC4/CyFlash.c **** 
 791:Generated_Source\PSoC4/CyFlash.c **** #endif  /* (CY_IP_FM) */
 792:Generated_Source\PSoC4/CyFlash.c **** 
 793:Generated_Source\PSoC4/CyFlash.c ****     return (retValue);
 780              		.loc 1 793 0
 781 000a 7B68     		ldr	r3, [r7, #4]
 794:Generated_Source\PSoC4/CyFlash.c **** }
 782              		.loc 1 794 0
 783 000c 1800     		movs	r0, r3
 784 000e BD46     		mov	sp, r7
 785 0010 02B0     		add	sp, sp, #8
 786              		@ sp needed
 787 0012 80BD     		pop	{r7, pc}
 788              		.cfi_endproc
 789              	.LFE6:
 790              		.size	CySysFlashClockRestore, .-CySysFlashClockRestore
 791              		.text
 792              	.Letext0:
 793              		.file 2 "Generated_Source\\PSoC4\\cytypes.h"