ARM GAS  C:\Users\PC\AppData\Local\Temp\ccW101Aa.s 			page 1


   1              		.syntax unified
   2              		.cpu cortex-m0
   3              		.fpu softvfp
   4              		.eabi_attribute 20, 1
   5              		.eabi_attribute 21, 1
   6              		.eabi_attribute 23, 3
   7              		.eabi_attribute 24, 1
   8              		.eabi_attribute 25, 1
   9              		.eabi_attribute 26, 1
  10              		.eabi_attribute 30, 6
  11              		.eabi_attribute 34, 0
  12              		.eabi_attribute 18, 4
  13              		.thumb
  14              		.syntax unified
  15              		.file	"CyLib.c"
  16              		.text
  17              	.Ltext0:
  18              		.cfi_sections	.debug_frame
  19              		.global	cydelayFreqHz
  20              		.data
  21              		.align	2
  22              		.type	cydelayFreqHz, %object
  23              		.size	cydelayFreqHz, 4
  24              	cydelayFreqHz:
  25 0000 001BB700 		.word	12000000
  26              		.global	cydelayFreqKhz
  27              		.align	2
  28              		.type	cydelayFreqKhz, %object
  29              		.size	cydelayFreqKhz, 4
  30              	cydelayFreqKhz:
  31 0004 E02E0000 		.word	12000
  32              		.global	cydelayFreqMhz
  33              		.type	cydelayFreqMhz, %object
  34              		.size	cydelayFreqMhz, 1
  35              	cydelayFreqMhz:
  36 0008 0C       		.byte	12
  37              		.global	cydelay32kMs
  38 0009 000000   		.align	2
  39              		.type	cydelay32kMs, %object
  40              		.size	cydelay32kMs, 4
  41              	cydelay32kMs:
  42 000c 00007017 		.word	393216000
  43              		.bss
  44              		.align	2
  45              	CySysTickCallbacks:
  46 0000 00000000 		.space	20
  46      00000000 
  46      00000000 
  46      00000000 
  46      00000000 
  47              		.global	CySysTickInitVar
  48              		.align	2
  49              		.type	CySysTickInitVar, %object
  50              		.size	CySysTickInitVar, 4
  51              	CySysTickInitVar:
  52 0014 00000000 		.space	4
  53              		.global	cyImoFreqMhz2Reg
ARM GAS  C:\Users\PC\AppData\Local\Temp\ccW101Aa.s 			page 2


  54              		.section	.rodata
  55              		.align	2
  56              		.type	cyImoFreqMhz2Reg, %object
  57              		.size	cyImoFreqMhz2Reg, 46
  58              	cyImoFreqMhz2Reg:
  59 0000 03       		.byte	3
  60 0001 04       		.byte	4
  61 0002 05       		.byte	5
  62 0003 06       		.byte	6
  63 0004 07       		.byte	7
  64 0005 08       		.byte	8
  65 0006 09       		.byte	9
  66 0007 0A       		.byte	10
  67 0008 0B       		.byte	11
  68 0009 0C       		.byte	12
  69 000a 0E       		.byte	14
  70 000b 0F       		.byte	15
  71 000c 10       		.byte	16
  72 000d 11       		.byte	17
  73 000e 12       		.byte	18
  74 000f 13       		.byte	19
  75 0010 14       		.byte	20
  76 0011 15       		.byte	21
  77 0012 16       		.byte	22
  78 0013 17       		.byte	23
  79 0014 18       		.byte	24
  80 0015 19       		.byte	25
  81 0016 1B       		.byte	27
  82 0017 1C       		.byte	28
  83 0018 1D       		.byte	29
  84 0019 1E       		.byte	30
  85 001a 1F       		.byte	31
  86 001b 20       		.byte	32
  87 001c 21       		.byte	33
  88 001d 22       		.byte	34
  89 001e 23       		.byte	35
  90 001f 25       		.byte	37
  91 0020 26       		.byte	38
  92 0021 27       		.byte	39
  93 0022 28       		.byte	40
  94 0023 29       		.byte	41
  95 0024 2A       		.byte	42
  96 0025 2B       		.byte	43
  97 0026 2E       		.byte	46
  98 0027 2F       		.byte	47
  99 0028 30       		.byte	48
 100 0029 31       		.byte	49
 101 002a 32       		.byte	50
 102 002b 33       		.byte	51
 103 002c 34       		.byte	52
 104 002d 35       		.byte	53
 105              		.global	CySysClkPumpConfig
 106              		.data
 107              		.align	2
 108              		.type	CySysClkPumpConfig, %object
 109              		.size	CySysClkPumpConfig, 4
 110              	CySysClkPumpConfig:
ARM GAS  C:\Users\PC\AppData\Local\Temp\ccW101Aa.s 			page 3


 111 0010 01000000 		.word	1
 112              		.section	.text.CySysClkImoStart,"ax",%progbits
 113              		.align	2
 114              		.global	CySysClkImoStart
 115              		.code	16
 116              		.thumb_func
 117              		.type	CySysClkImoStart, %function
 118              	CySysClkImoStart:
 119              	.LFB2:
 120              		.file 1 "Generated_Source\\PSoC4\\CyLib.c"
   1:Generated_Source\PSoC4/CyLib.c **** /***************************************************************************//**
   2:Generated_Source\PSoC4/CyLib.c **** * \file CyLib.c
   3:Generated_Source\PSoC4/CyLib.c **** * \version 5.50
   4:Generated_Source\PSoC4/CyLib.c **** *
   5:Generated_Source\PSoC4/CyLib.c **** * \brief Provides a system API for the Clocking, Interrupts, SysTick, and
   6:Generated_Source\PSoC4/CyLib.c **** * Voltage Detect.
   7:Generated_Source\PSoC4/CyLib.c **** *
   8:Generated_Source\PSoC4/CyLib.c **** * \note Documentation of the API's in this file is located in the PSoC 4 System
   9:Generated_Source\PSoC4/CyLib.c **** * Reference Guide provided with PSoC Creator.
  10:Generated_Source\PSoC4/CyLib.c **** *
  11:Generated_Source\PSoC4/CyLib.c **** ********************************************************************************
  12:Generated_Source\PSoC4/CyLib.c **** * \copyright
  13:Generated_Source\PSoC4/CyLib.c **** * Copyright 2010-2016, Cypress Semiconductor Corporation.  All rights reserved.
  14:Generated_Source\PSoC4/CyLib.c **** * You may use this file only in accordance with the license, terms, conditions,
  15:Generated_Source\PSoC4/CyLib.c **** * disclaimers, and limitations in the end user license agreement accompanying
  16:Generated_Source\PSoC4/CyLib.c **** * the software package with which this file was provided.
  17:Generated_Source\PSoC4/CyLib.c **** *******************************************************************************/
  18:Generated_Source\PSoC4/CyLib.c **** 
  19:Generated_Source\PSoC4/CyLib.c **** #include "CyLib.h"
  20:Generated_Source\PSoC4/CyLib.c **** 
  21:Generated_Source\PSoC4/CyLib.c **** /* CySysClkWriteImoFreq() || CySysClkImoEnableWcoLock() */
  22:Generated_Source\PSoC4/CyLib.c **** #if ((CY_IP_SRSSV2 && CY_IP_FMLT) || CY_IP_IMO_TRIMMABLE_BY_WCO)
  23:Generated_Source\PSoC4/CyLib.c ****     #include "CyFlash.h"
  24:Generated_Source\PSoC4/CyLib.c **** #endif /* (CY_IP_SRSSV2 && CY_IP_FMLT) */
  25:Generated_Source\PSoC4/CyLib.c **** 
  26:Generated_Source\PSoC4/CyLib.c **** /* Do not use these definitions directly in your application */
  27:Generated_Source\PSoC4/CyLib.c **** uint32 cydelayFreqHz  = CYDEV_BCLK__SYSCLK__HZ;
  28:Generated_Source\PSoC4/CyLib.c **** uint32 cydelayFreqKhz = (CYDEV_BCLK__SYSCLK__HZ + CY_DELAY_1K_MINUS_1_THRESHOLD) / CY_DELAY_1K_THRE
  29:Generated_Source\PSoC4/CyLib.c **** uint8  cydelayFreqMhz = (uint8)((CYDEV_BCLK__SYSCLK__HZ + CY_DELAY_1M_MINUS_1_THRESHOLD) / CY_DELAY
  30:Generated_Source\PSoC4/CyLib.c **** uint32 cydelay32kMs   = CY_DELAY_MS_OVERFLOW * ((CYDEV_BCLK__SYSCLK__HZ + CY_DELAY_1K_MINUS_1_THRES
  31:Generated_Source\PSoC4/CyLib.c ****                         CY_DELAY_1K_THRESHOLD);
  32:Generated_Source\PSoC4/CyLib.c **** 
  33:Generated_Source\PSoC4/CyLib.c **** 
  34:Generated_Source\PSoC4/CyLib.c **** static cySysTickCallback CySysTickCallbacks[CY_SYS_SYST_NUM_OF_CALLBACKS];
  35:Generated_Source\PSoC4/CyLib.c **** static void CySysTickServiceCallbacks(void);
  36:Generated_Source\PSoC4/CyLib.c **** 
  37:Generated_Source\PSoC4/CyLib.c **** #if (CY_IP_SRSSV2 && CY_IP_PLL)
  38:Generated_Source\PSoC4/CyLib.c ****     static uint32 CySysClkPllGetBypassMode(uint32 pll);
  39:Generated_Source\PSoC4/CyLib.c ****     static cystatus CySysClkPllConfigChangeAllowed(uint32 pll);
  40:Generated_Source\PSoC4/CyLib.c **** #endif /* #if (CY_IP_SRSSV2 && CY_IP_PLL) */
  41:Generated_Source\PSoC4/CyLib.c **** 
  42:Generated_Source\PSoC4/CyLib.c **** 
  43:Generated_Source\PSoC4/CyLib.c **** /***************************************************************************//**
  44:Generated_Source\PSoC4/CyLib.c **** * Indicates whether or not the SysTick has been initialized. The variable is
  45:Generated_Source\PSoC4/CyLib.c **** * initialized to 0 and set to 1 the first time CySysTickStart() is called.
  46:Generated_Source\PSoC4/CyLib.c **** *
  47:Generated_Source\PSoC4/CyLib.c **** * This allows the component to restart without reinitialization after the first
ARM GAS  C:\Users\PC\AppData\Local\Temp\ccW101Aa.s 			page 4


  48:Generated_Source\PSoC4/CyLib.c **** * call to the CySysTickStart() routine.
  49:Generated_Source\PSoC4/CyLib.c **** *
  50:Generated_Source\PSoC4/CyLib.c **** * If reinitialization of the SysTick is required, call CySysTickInit() before
  51:Generated_Source\PSoC4/CyLib.c **** * calling CySysTickStart(). Alternatively, the SysTick can be reinitialized by
  52:Generated_Source\PSoC4/CyLib.c **** * calling the CySysTickInit() and CySysTickEnable() functions.
  53:Generated_Source\PSoC4/CyLib.c **** *******************************************************************************/
  54:Generated_Source\PSoC4/CyLib.c **** uint32 CySysTickInitVar = 0u;
  55:Generated_Source\PSoC4/CyLib.c **** 
  56:Generated_Source\PSoC4/CyLib.c **** 
  57:Generated_Source\PSoC4/CyLib.c **** #if(CY_IP_SRSSV2)
  58:Generated_Source\PSoC4/CyLib.c ****         /* Conversion between CySysClkWriteImoFreq() parameter and register's value */
  59:Generated_Source\PSoC4/CyLib.c ****         const uint8 cyImoFreqMhz2Reg[CY_SYS_CLK_IMO_FREQ_TABLE_SIZE] = {
  60:Generated_Source\PSoC4/CyLib.c ****             /*  3 MHz */ 0x03u,  /*  4 MHz */ 0x04u,  /*  5 MHz */ 0x05u,  /*  6 MHz */ 0x06u,
  61:Generated_Source\PSoC4/CyLib.c ****             /*  7 MHz */ 0x07u,  /*  8 MHz */ 0x08u,  /*  9 MHz */ 0x09u,  /* 10 MHz */ 0x0Au,
  62:Generated_Source\PSoC4/CyLib.c ****             /* 11 MHz */ 0x0Bu,  /* 12 MHz */ 0x0Cu,  /* 13 MHz */ 0x0Eu,  /* 14 MHz */ 0x0Fu,
  63:Generated_Source\PSoC4/CyLib.c ****             /* 15 MHz */ 0x10u,  /* 16 MHz */ 0x11u,  /* 17 MHz */ 0x12u,  /* 18 MHz */ 0x13u,
  64:Generated_Source\PSoC4/CyLib.c ****             /* 19 MHz */ 0x14u,  /* 20 MHz */ 0x15u,  /* 21 MHz */ 0x16u,  /* 22 MHz */ 0x17u,
  65:Generated_Source\PSoC4/CyLib.c ****             /* 23 MHz */ 0x18u,  /* 24 MHz */ 0x19u,  /* 25 MHz */ 0x1Bu,  /* 26 MHz */ 0x1Cu,
  66:Generated_Source\PSoC4/CyLib.c ****             /* 27 MHz */ 0x1Du,  /* 28 MHz */ 0x1Eu,  /* 29 MHz */ 0x1Fu,  /* 30 MHz */ 0x20u,
  67:Generated_Source\PSoC4/CyLib.c ****             /* 31 MHz */ 0x21u,  /* 32 MHz */ 0x22u,  /* 33 MHz */ 0x23u,  /* 34 MHz */ 0x25u,
  68:Generated_Source\PSoC4/CyLib.c ****             /* 35 MHz */ 0x26u,  /* 36 MHz */ 0x27u,  /* 37 MHz */ 0x28u,  /* 38 MHz */ 0x29u,
  69:Generated_Source\PSoC4/CyLib.c ****             /* 39 MHz */ 0x2Au,  /* 40 MHz */ 0x2Bu,  /* 41 MHz */ 0x2Eu,  /* 42 MHz */ 0x2Fu,
  70:Generated_Source\PSoC4/CyLib.c ****             /* 43 MHz */ 0x30u,  /* 44 MHz */ 0x31u,  /* 45 MHz */ 0x32u,  /* 46 MHz */ 0x33u,
  71:Generated_Source\PSoC4/CyLib.c ****             /* 47 MHz */ 0x34u,  /* 48 MHz */ 0x35u };
  72:Generated_Source\PSoC4/CyLib.c **** #endif /* (CY_IP_SRSSV2) */
  73:Generated_Source\PSoC4/CyLib.c **** 
  74:Generated_Source\PSoC4/CyLib.c **** #if (CY_IP_IMO_TRIMMABLE_BY_WCO)
  75:Generated_Source\PSoC4/CyLib.c ****         /* Conversion between IMO frequency and WCO DPLL max offset steps */
  76:Generated_Source\PSoC4/CyLib.c ****         const uint8 cyImoFreqMhz2DpllOffset[CY_SYS_CLK_IMO_FREQ_WCO_DPLL_TABLE_SIZE] = {
  77:Generated_Source\PSoC4/CyLib.c ****             /* 26 MHz */  238u, /* 27 MHz */  219u, /* 28 MHz */  201u, /* 29 MHz */  185u,
  78:Generated_Source\PSoC4/CyLib.c ****             /* 30 MHz */  170u, /* 31 MHz */  155u, /* 32 MHz */  142u, /* 33 MHz */  130u,
  79:Generated_Source\PSoC4/CyLib.c ****             /* 34 MHz */  118u, /* 35 MHz */  107u, /* 36 MHz */   96u, /* 37 MHz */  86u,
  80:Generated_Source\PSoC4/CyLib.c ****             /* 38 MHz */   77u, /* 39 MHz */   68u, /* 40 MHz */   59u, /* 41 MHz */  51u,
  81:Generated_Source\PSoC4/CyLib.c ****             /* 42 MHz */   44u, /* 43 MHz */   36u, /* 44 MHz */   29u, /* 45 MHz */  23u,
  82:Generated_Source\PSoC4/CyLib.c ****             /* 46 MHz */   16u, /* 47 MHz */   10u, /* 48 MHz */   4u };
  83:Generated_Source\PSoC4/CyLib.c **** #endif /* (CY_IP_IMO_TRIMMABLE_BY_WCO) */
  84:Generated_Source\PSoC4/CyLib.c **** 
  85:Generated_Source\PSoC4/CyLib.c **** /* Stored CY_SYS_CLK_IMO_TRIM4_REG when modified for USB lock */
  86:Generated_Source\PSoC4/CyLib.c **** #if (CY_IP_IMO_TRIMMABLE_BY_USB && CY_IP_SRSSV2)
  87:Generated_Source\PSoC4/CyLib.c ****     uint32 CySysClkImoTrim4 = 0u;
  88:Generated_Source\PSoC4/CyLib.c **** #endif /* (CY_IP_IMO_TRIMMABLE_BY_USB && CY_IP_SRSSV2) */
  89:Generated_Source\PSoC4/CyLib.c **** 
  90:Generated_Source\PSoC4/CyLib.c **** /* Stored PUMP_SEL configuration during disable (IMO output by default) */
  91:Generated_Source\PSoC4/CyLib.c **** uint32 CySysClkPumpConfig = CY_SYS_CLK_PUMP_ENABLE;
  92:Generated_Source\PSoC4/CyLib.c **** 
  93:Generated_Source\PSoC4/CyLib.c **** /*******************************************************************************
  94:Generated_Source\PSoC4/CyLib.c **** * Function Name: CySysClkImoStart
  95:Generated_Source\PSoC4/CyLib.c **** ****************************************************************************//**
  96:Generated_Source\PSoC4/CyLib.c **** *
  97:Generated_Source\PSoC4/CyLib.c **** * Enables the IMO.
  98:Generated_Source\PSoC4/CyLib.c **** *
  99:Generated_Source\PSoC4/CyLib.c **** * For PSoC 4100M / PSoC 4200M / PSoC 4000S / PSoC 4100S / PSoC 4400 devices,
 100:Generated_Source\PSoC4/CyLib.c **** * this function will also enable WCO lock if selected in the Design Wide
 101:Generated_Source\PSoC4/CyLib.c **** * Resources tab.
 102:Generated_Source\PSoC4/CyLib.c **** *
 103:Generated_Source\PSoC4/CyLib.c **** * For PSoC 4200L / devices, this function will also enable USB lock if selected
 104:Generated_Source\PSoC4/CyLib.c **** * in the Design Wide Resources tab.
ARM GAS  C:\Users\PC\AppData\Local\Temp\ccW101Aa.s 			page 5


 105:Generated_Source\PSoC4/CyLib.c **** *
 106:Generated_Source\PSoC4/CyLib.c **** *******************************************************************************/
 107:Generated_Source\PSoC4/CyLib.c **** void CySysClkImoStart(void)
 108:Generated_Source\PSoC4/CyLib.c **** {
 121              		.loc 1 108 0
 122              		.cfi_startproc
 123              		@ args = 0, pretend = 0, frame = 0
 124              		@ frame_needed = 1, uses_anonymous_args = 0
 125 0000 80B5     		push	{r7, lr}
 126              		.cfi_def_cfa_offset 8
 127              		.cfi_offset 7, -8
 128              		.cfi_offset 14, -4
 129 0002 00AF     		add	r7, sp, #0
 130              		.cfi_def_cfa_register 7
 109:Generated_Source\PSoC4/CyLib.c ****     CY_SYS_CLK_IMO_CONFIG_REG |= CY_SYS_CLK_IMO_CONFIG_ENABLE;
 131              		.loc 1 109 0
 132 0004 044B     		ldr	r3, .L2
 133 0006 044A     		ldr	r2, .L2
 134 0008 1268     		ldr	r2, [r2]
 135 000a 8021     		movs	r1, #128
 136 000c 0906     		lsls	r1, r1, #24
 137 000e 0A43     		orrs	r2, r1
 138 0010 1A60     		str	r2, [r3]
 110:Generated_Source\PSoC4/CyLib.c **** 
 111:Generated_Source\PSoC4/CyLib.c ****     #if (CY_IP_IMO_TRIMMABLE_BY_WCO)
 112:Generated_Source\PSoC4/CyLib.c ****         #if (CYDEV_IMO_TRIMMED_BY_WCO == 1u)
 113:Generated_Source\PSoC4/CyLib.c ****             CySysClkImoEnableWcoLock();
 114:Generated_Source\PSoC4/CyLib.c ****         #endif  /* (CYDEV_IMO_TRIMMED_BY_WCO == 1u) */
 115:Generated_Source\PSoC4/CyLib.c ****     #endif  /* (CY_IP_IMO_TRIMMABLE_BY_WCO) */
 116:Generated_Source\PSoC4/CyLib.c **** 
 117:Generated_Source\PSoC4/CyLib.c **** 
 118:Generated_Source\PSoC4/CyLib.c ****     #if (CY_IP_IMO_TRIMMABLE_BY_USB)
 119:Generated_Source\PSoC4/CyLib.c ****         #if (CYDEV_IMO_TRIMMED_BY_USB == 1u)
 120:Generated_Source\PSoC4/CyLib.c ****             CySysClkImoEnableUsbLock();
 121:Generated_Source\PSoC4/CyLib.c ****         #endif  /* (CYDEV_IMO_TRIMMED_BY_USB == 1u) */
 122:Generated_Source\PSoC4/CyLib.c ****     #endif  /* (CY_IP_IMO_TRIMMABLE_BY_USB) */
 123:Generated_Source\PSoC4/CyLib.c **** 
 124:Generated_Source\PSoC4/CyLib.c **** }
 139              		.loc 1 124 0
 140 0012 C046     		nop
 141 0014 BD46     		mov	sp, r7
 142              		@ sp needed
 143 0016 80BD     		pop	{r7, pc}
 144              	.L3:
 145              		.align	2
 146              	.L2:
 147 0018 08010B40 		.word	1074462984
 148              		.cfi_endproc
 149              	.LFE2:
 150              		.size	CySysClkImoStart, .-CySysClkImoStart
 151              		.section	.text.CySysClkImoStop,"ax",%progbits
 152              		.align	2
 153              		.global	CySysClkImoStop
 154              		.code	16
 155              		.thumb_func
 156              		.type	CySysClkImoStop, %function
 157              	CySysClkImoStop:
ARM GAS  C:\Users\PC\AppData\Local\Temp\ccW101Aa.s 			page 6


 158              	.LFB3:
 125:Generated_Source\PSoC4/CyLib.c **** 
 126:Generated_Source\PSoC4/CyLib.c **** 
 127:Generated_Source\PSoC4/CyLib.c **** /*******************************************************************************
 128:Generated_Source\PSoC4/CyLib.c **** * Function Name: CySysClkImoStop
 129:Generated_Source\PSoC4/CyLib.c **** ****************************************************************************//**
 130:Generated_Source\PSoC4/CyLib.c **** *
 131:Generated_Source\PSoC4/CyLib.c **** * Disables the IMO.
 132:Generated_Source\PSoC4/CyLib.c **** *
 133:Generated_Source\PSoC4/CyLib.c **** * For PSoC 4100M / PSoC 4200M / PSoC 4000S / PSoC 4100S / PSoC 4400 devices,
 134:Generated_Source\PSoC4/CyLib.c **** * this function will also disable WCO lock.
 135:Generated_Source\PSoC4/CyLib.c **** *
 136:Generated_Source\PSoC4/CyLib.c **** * For PSoC PSoC 4200L devices, this function will also disable USB lock.
 137:Generated_Source\PSoC4/CyLib.c **** *
 138:Generated_Source\PSoC4/CyLib.c **** *******************************************************************************/
 139:Generated_Source\PSoC4/CyLib.c **** void CySysClkImoStop(void)
 140:Generated_Source\PSoC4/CyLib.c **** {
 159              		.loc 1 140 0
 160              		.cfi_startproc
 161              		@ args = 0, pretend = 0, frame = 0
 162              		@ frame_needed = 1, uses_anonymous_args = 0
 163 0000 80B5     		push	{r7, lr}
 164              		.cfi_def_cfa_offset 8
 165              		.cfi_offset 7, -8
 166              		.cfi_offset 14, -4
 167 0002 00AF     		add	r7, sp, #0
 168              		.cfi_def_cfa_register 7
 141:Generated_Source\PSoC4/CyLib.c ****     #if (CY_IP_IMO_TRIMMABLE_BY_WCO)
 142:Generated_Source\PSoC4/CyLib.c ****         CySysClkImoDisableWcoLock();
 143:Generated_Source\PSoC4/CyLib.c ****     #endif  /* (CY_IP_IMO_TRIMMABLE_BY_WCO) */
 144:Generated_Source\PSoC4/CyLib.c **** 
 145:Generated_Source\PSoC4/CyLib.c ****     #if (CY_IP_IMO_TRIMMABLE_BY_USB)
 146:Generated_Source\PSoC4/CyLib.c ****         CySysClkImoDisableUsbLock();
 147:Generated_Source\PSoC4/CyLib.c ****     #endif  /* (CY_IP_IMO_TRIMMABLE_BY_USB) */
 148:Generated_Source\PSoC4/CyLib.c **** 
 149:Generated_Source\PSoC4/CyLib.c ****     CY_SYS_CLK_IMO_CONFIG_REG &= ( uint32 ) ( ~( uint32 )CY_SYS_CLK_IMO_CONFIG_ENABLE);
 169              		.loc 1 149 0
 170 0004 044B     		ldr	r3, .L5
 171 0006 044A     		ldr	r2, .L5
 172 0008 1268     		ldr	r2, [r2]
 173 000a 5200     		lsls	r2, r2, #1
 174 000c 5208     		lsrs	r2, r2, #1
 175 000e 1A60     		str	r2, [r3]
 150:Generated_Source\PSoC4/CyLib.c **** }
 176              		.loc 1 150 0
 177 0010 C046     		nop
 178 0012 BD46     		mov	sp, r7
 179              		@ sp needed
 180 0014 80BD     		pop	{r7, pc}
 181              	.L6:
 182 0016 C046     		.align	2
 183              	.L5:
 184 0018 08010B40 		.word	1074462984
 185              		.cfi_endproc
 186              	.LFE3:
 187              		.size	CySysClkImoStop, .-CySysClkImoStop
 188              		.section	.text.CySysClkWriteHfclkDirect,"ax",%progbits
ARM GAS  C:\Users\PC\AppData\Local\Temp\ccW101Aa.s 			page 7


 189              		.align	2
 190              		.global	CySysClkWriteHfclkDirect
 191              		.code	16
 192              		.thumb_func
 193              		.type	CySysClkWriteHfclkDirect, %function
 194              	CySysClkWriteHfclkDirect:
 195              	.LFB4:
 151:Generated_Source\PSoC4/CyLib.c **** 
 152:Generated_Source\PSoC4/CyLib.c **** #if (CY_IP_IMO_TRIMMABLE_BY_WCO)
 153:Generated_Source\PSoC4/CyLib.c **** 
 154:Generated_Source\PSoC4/CyLib.c ****     /*******************************************************************************
 155:Generated_Source\PSoC4/CyLib.c ****     * Function Name: CySysClkImoEnableWcoLock
 156:Generated_Source\PSoC4/CyLib.c ****     ****************************************************************************//**
 157:Generated_Source\PSoC4/CyLib.c ****     *
 158:Generated_Source\PSoC4/CyLib.c ****     * Enables the IMO to WCO lock feature. This function works only if the WCO is
 159:Generated_Source\PSoC4/CyLib.c ****     * already enabled. If the WCO is not enabled then this function returns
 160:Generated_Source\PSoC4/CyLib.c ****     * without enabling the lock feature.
 161:Generated_Source\PSoC4/CyLib.c ****     *
 162:Generated_Source\PSoC4/CyLib.c ****     * It takes up to 20 ms for the IMO to stabilize. The delay is implemented with
 163:Generated_Source\PSoC4/CyLib.c ****     * CyDelay() function. The delay interval is measured based on the system
 164:Generated_Source\PSoC4/CyLib.c ****     * frequency defined by PSoC Creator at build time. If System clock frequency
 165:Generated_Source\PSoC4/CyLib.c ****     * is changed in runtime, the CyDelayFreq() with the appropriate parameter
 166:Generated_Source\PSoC4/CyLib.c ****     * should be called.
 167:Generated_Source\PSoC4/CyLib.c ****     *
 168:Generated_Source\PSoC4/CyLib.c ****     * For PSoC 4200L devices, note that the IMO can lock to either WCO or USB
 169:Generated_Source\PSoC4/CyLib.c ****     * but not both.
 170:Generated_Source\PSoC4/CyLib.c ****     *
 171:Generated_Source\PSoC4/CyLib.c ****     * This function is applicable for PSoC 4100M / PSoC 4200M / PSoC 4000S /
 172:Generated_Source\PSoC4/CyLib.c ****     * PSoC 4100S / PSoC 4400 / PSoC 4200L.
 173:Generated_Source\PSoC4/CyLib.c ****     *
 174:Generated_Source\PSoC4/CyLib.c ****     *******************************************************************************/
 175:Generated_Source\PSoC4/CyLib.c ****     void CySysClkImoEnableWcoLock(void)
 176:Generated_Source\PSoC4/CyLib.c ****     {
 177:Generated_Source\PSoC4/CyLib.c ****         #if(CY_IP_SRSSV2)
 178:Generated_Source\PSoC4/CyLib.c ****             uint32 i;
 179:Generated_Source\PSoC4/CyLib.c ****         #endif  /* (CY_IP_SRSSV2) */
 180:Generated_Source\PSoC4/CyLib.c **** 
 181:Generated_Source\PSoC4/CyLib.c ****         uint32 freq;
 182:Generated_Source\PSoC4/CyLib.c ****         uint8  interruptState;
 183:Generated_Source\PSoC4/CyLib.c ****         uint32 regTmp;
 184:Generated_Source\PSoC4/CyLib.c ****         uint32 lfLimit = 0u;
 185:Generated_Source\PSoC4/CyLib.c ****         volatile uint32 flashCtlReg;
 186:Generated_Source\PSoC4/CyLib.c **** 
 187:Generated_Source\PSoC4/CyLib.c ****         if (0u != CySysClkWcoEnabled())
 188:Generated_Source\PSoC4/CyLib.c ****         {
 189:Generated_Source\PSoC4/CyLib.c ****             interruptState = CyEnterCriticalSection();
 190:Generated_Source\PSoC4/CyLib.c **** 
 191:Generated_Source\PSoC4/CyLib.c ****             /* Set oscillator interface control port to WCO */
 192:Generated_Source\PSoC4/CyLib.c ****             #if (CY_IP_IMO_TRIMMABLE_BY_WCO && CY_IP_IMO_TRIMMABLE_BY_USB)
 193:Generated_Source\PSoC4/CyLib.c ****                 CY_SYS_CLK_OSCINTF_CTL_REG =
 194:Generated_Source\PSoC4/CyLib.c ****                     (CY_SYS_CLK_OSCINTF_CTL_REG & (uint32) ~CY_SYS_CLK_OSCINTF_CTL_PORT_SEL_MASK) |
 195:Generated_Source\PSoC4/CyLib.c ****                     CY_SYS_CLK_OSCINTF_CTL_PORT_SEL_WCO;
 196:Generated_Source\PSoC4/CyLib.c ****             #endif /* (CY_IP_IMO_TRIMMABLE_BY_WCO && CY_IP_IMO_TRIMMABLE_BY_USB) */
 197:Generated_Source\PSoC4/CyLib.c **** 
 198:Generated_Source\PSoC4/CyLib.c ****             /* Get current IMO frequency based on the register value */
 199:Generated_Source\PSoC4/CyLib.c ****             #if(CY_IP_SRSSV2)
 200:Generated_Source\PSoC4/CyLib.c ****                 freq = CY_SYS_CLK_IMO_MIN_FREQ_MHZ;
ARM GAS  C:\Users\PC\AppData\Local\Temp\ccW101Aa.s 			page 8


 201:Generated_Source\PSoC4/CyLib.c ****                 for(i = 0u; i < CY_SYS_CLK_IMO_FREQ_TABLE_SIZE; i++)
 202:Generated_Source\PSoC4/CyLib.c ****                 {
 203:Generated_Source\PSoC4/CyLib.c ****                     if ((uint8) (CY_SYS_CLK_IMO_TRIM2_REG & CY_SYS_CLK_IMO_FREQ_BITS_MASK) == cyImo
 204:Generated_Source\PSoC4/CyLib.c ****                     {
 205:Generated_Source\PSoC4/CyLib.c ****                         freq = i + CY_SYS_CLK_IMO_FREQ_TABLE_OFFSET;
 206:Generated_Source\PSoC4/CyLib.c ****                         break;
 207:Generated_Source\PSoC4/CyLib.c ****                     }
 208:Generated_Source\PSoC4/CyLib.c ****                 }
 209:Generated_Source\PSoC4/CyLib.c ****             #else
 210:Generated_Source\PSoC4/CyLib.c ****                 /* Calculate frequency by shifting register field value and adding constant. */
 211:Generated_Source\PSoC4/CyLib.c ****                 #if(CY_IP_SRSSLT)
 212:Generated_Source\PSoC4/CyLib.c ****                     freq = (((uint32) ((CY_SYS_CLK_IMO_SELECT_REG & ((uint32) CY_SYS_CLK_IMO_SELECT
 213:Generated_Source\PSoC4/CyLib.c ****                                         CY_SYS_CLK_IMO_SELECT_FREQ_SHIFT) + CY_SYS_CLK_IMO_MIN_FREQ
 214:Generated_Source\PSoC4/CyLib.c ****                                       ((CY_SYS_CLK_SELECT_REG >> CY_SYS_CLK_SELECT_HFCLK_DIV_SHIFT)
 215:Generated_Source\PSoC4/CyLib.c ****                                        (uint32) CY_SYS_CLK_SELECT_HFCLK_DIV_MASK));
 216:Generated_Source\PSoC4/CyLib.c ****                 #else
 217:Generated_Source\PSoC4/CyLib.c ****                     freq = ((uint32) ((CY_SYS_CLK_IMO_SELECT_REG & ((uint32) CY_SYS_CLK_IMO_SELECT_
 218:Generated_Source\PSoC4/CyLib.c ****                                        CY_SYS_CLK_IMO_SELECT_FREQ_SHIFT) + CY_SYS_CLK_IMO_MIN_FREQ_
 219:Generated_Source\PSoC4/CyLib.c ****                 #endif  /* (CY_IP_SRSSLT) */
 220:Generated_Source\PSoC4/CyLib.c **** 
 221:Generated_Source\PSoC4/CyLib.c ****             #endif  /* (CY_IP_SRSSV2) */
 222:Generated_Source\PSoC4/CyLib.c **** 
 223:Generated_Source\PSoC4/CyLib.c ****             /* For the WCO locking mode, the IMO gain needs to be CY_SYS_CLK_IMO_TRIM4_GAIN */
 224:Generated_Source\PSoC4/CyLib.c ****             #if(CY_IP_SRSSV2)
 225:Generated_Source\PSoC4/CyLib.c ****                 if ((CY_SYS_CLK_IMO_TRIM4_REG & CY_SYS_CLK_IMO_TRIM4_GAIN_MASK) == 0u)
 226:Generated_Source\PSoC4/CyLib.c ****                 {
 227:Generated_Source\PSoC4/CyLib.c **** 			         CY_SYS_CLK_IMO_TRIM4_REG = (CY_SYS_CLK_IMO_TRIM4_REG & (uint32) ~CY_SYS_CLK_IMO_TRIM4_G
 228:Generated_Source\PSoC4/CyLib.c **** 			                  				     CY_SYS_CLK_IMO_TRIM4_WCO_GAIN;
 229:Generated_Source\PSoC4/CyLib.c ****                 }
 230:Generated_Source\PSoC4/CyLib.c ****             #endif /* (CY_IP_SRSSV2) */
 231:Generated_Source\PSoC4/CyLib.c **** 
 232:Generated_Source\PSoC4/CyLib.c ****             regTmp  = CY_SYS_CLK_WCO_DPLL_REG & ~(CY_SYS_CLK_WCO_DPLL_MULT_MASK |
 233:Generated_Source\PSoC4/CyLib.c ****                                                   CY_SYS_CLK_WCO_CONFIG_DPLL_LF_IGAIN_MASK |
 234:Generated_Source\PSoC4/CyLib.c ****                                                   CY_SYS_CLK_WCO_CONFIG_DPLL_LF_PGAIN_MASK |
 235:Generated_Source\PSoC4/CyLib.c ****                                                   CY_SYS_CLK_WCO_CONFIG_DPLL_LF_LIMIT_MASK);
 236:Generated_Source\PSoC4/CyLib.c **** 
 237:Generated_Source\PSoC4/CyLib.c ****             /* Set multiplier to determine IMO frequency in multiples of the WCO frequency */
 238:Generated_Source\PSoC4/CyLib.c ****             regTmp |= (CY_SYS_CLK_WCO_DPLL_MULT_VALUE(freq) & CY_SYS_CLK_WCO_DPLL_MULT_MASK);
 239:Generated_Source\PSoC4/CyLib.c **** 
 240:Generated_Source\PSoC4/CyLib.c ****             /* Set DPLL Loop Filter Integral and Proportional Gains Setting */
 241:Generated_Source\PSoC4/CyLib.c ****             regTmp |= (CY_SYS_CLK_WCO_CONFIG_DPLL_LF_IGAIN | CY_SYS_CLK_WCO_CONFIG_DPLL_LF_PGAIN);
 242:Generated_Source\PSoC4/CyLib.c **** 
 243:Generated_Source\PSoC4/CyLib.c ****             /* Set maximum allowed IMO offset */
 244:Generated_Source\PSoC4/CyLib.c ****             if (freq < CY_SYS_CLK_IMO_FREQ_WCO_DPLL_SAFE_POINT)
 245:Generated_Source\PSoC4/CyLib.c ****             {
 246:Generated_Source\PSoC4/CyLib.c ****                 regTmp |= (CY_SYS_CLK_WCO_CONFIG_DPLL_LF_LIMIT_MAX << CY_SYS_CLK_WCO_CONFIG_DPLL_LF
 247:Generated_Source\PSoC4/CyLib.c ****             }
 248:Generated_Source\PSoC4/CyLib.c ****             else
 249:Generated_Source\PSoC4/CyLib.c ****             {
 250:Generated_Source\PSoC4/CyLib.c ****                 lfLimit = (uint32) CY_SFLASH_IMO_TRIM_REG(freq - CY_SYS_CLK_IMO_MIN_FREQ_MHZ) +
 251:Generated_Source\PSoC4/CyLib.c ****                     cyImoFreqMhz2DpllOffset[freq - CY_SYS_CLK_IMO_FREQ_WCO_DPLL_TABLE_OFFSET];
 252:Generated_Source\PSoC4/CyLib.c **** 
 253:Generated_Source\PSoC4/CyLib.c ****                 lfLimit = (lfLimit > CY_SYS_CLK_WCO_CONFIG_DPLL_LF_LIMIT_MAX) ?
 254:Generated_Source\PSoC4/CyLib.c ****                     CY_SYS_CLK_WCO_CONFIG_DPLL_LF_LIMIT_MAX : lfLimit;
 255:Generated_Source\PSoC4/CyLib.c **** 
 256:Generated_Source\PSoC4/CyLib.c ****                 regTmp |= (lfLimit << CY_SYS_CLK_WCO_CONFIG_DPLL_LF_LIMIT_SHIFT);
 257:Generated_Source\PSoC4/CyLib.c ****             }
ARM GAS  C:\Users\PC\AppData\Local\Temp\ccW101Aa.s 			page 9


 258:Generated_Source\PSoC4/CyLib.c **** 
 259:Generated_Source\PSoC4/CyLib.c ****             CY_SYS_CLK_WCO_DPLL_REG = regTmp;
 260:Generated_Source\PSoC4/CyLib.c **** 
 261:Generated_Source\PSoC4/CyLib.c ****             flashCtlReg = CY_FLASH_CTL_REG;
 262:Generated_Source\PSoC4/CyLib.c ****             CySysFlashSetWaitCycles(CY_SYS_CLK_IMO_MAX_FREQ_MHZ);
 263:Generated_Source\PSoC4/CyLib.c ****             CY_SYS_CLK_WCO_CONFIG_REG |= CY_SYS_CLK_WCO_CONFIG_DPLL_ENABLE;
 264:Generated_Source\PSoC4/CyLib.c ****             CyDelay(CY_SYS_CLK_WCO_IMO_TIMEOUT_MS);
 265:Generated_Source\PSoC4/CyLib.c ****             CY_FLASH_CTL_REG = flashCtlReg;
 266:Generated_Source\PSoC4/CyLib.c **** 
 267:Generated_Source\PSoC4/CyLib.c ****             CyExitCriticalSection(interruptState);
 268:Generated_Source\PSoC4/CyLib.c ****         }
 269:Generated_Source\PSoC4/CyLib.c ****     }
 270:Generated_Source\PSoC4/CyLib.c **** 
 271:Generated_Source\PSoC4/CyLib.c **** 
 272:Generated_Source\PSoC4/CyLib.c ****     /*******************************************************************************
 273:Generated_Source\PSoC4/CyLib.c ****     * Function Name: CySysClkImoDisableWcoLock
 274:Generated_Source\PSoC4/CyLib.c ****     ****************************************************************************//**
 275:Generated_Source\PSoC4/CyLib.c ****     *
 276:Generated_Source\PSoC4/CyLib.c ****     * Disables the IMO to WCO lock feature.
 277:Generated_Source\PSoC4/CyLib.c ****     *
 278:Generated_Source\PSoC4/CyLib.c ****     * For PSoC 4200L devices, note that the IMO can lock to either WCO or USB
 279:Generated_Source\PSoC4/CyLib.c ****     * but not both.
 280:Generated_Source\PSoC4/CyLib.c ****     *
 281:Generated_Source\PSoC4/CyLib.c ****     * This function is applicable for PSoC 4100M / PSoC 4200M / PSoC 4000S /
 282:Generated_Source\PSoC4/CyLib.c ****     * PSoC 4100S / PSoC 4400 / PSoC 4200L.
 283:Generated_Source\PSoC4/CyLib.c ****     *
 284:Generated_Source\PSoC4/CyLib.c ****     *******************************************************************************/
 285:Generated_Source\PSoC4/CyLib.c ****     void CySysClkImoDisableWcoLock(void)
 286:Generated_Source\PSoC4/CyLib.c ****     {
 287:Generated_Source\PSoC4/CyLib.c ****         CY_SYS_CLK_WCO_CONFIG_REG &= (uint32) ~CY_SYS_CLK_WCO_CONFIG_DPLL_ENABLE;
 288:Generated_Source\PSoC4/CyLib.c ****     }
 289:Generated_Source\PSoC4/CyLib.c **** 
 290:Generated_Source\PSoC4/CyLib.c **** 
 291:Generated_Source\PSoC4/CyLib.c ****     /*******************************************************************************
 292:Generated_Source\PSoC4/CyLib.c ****     * Function Name: CySysClkImoGetWcoLock
 293:Generated_Source\PSoC4/CyLib.c ****     ****************************************************************************//**
 294:Generated_Source\PSoC4/CyLib.c ****     *
 295:Generated_Source\PSoC4/CyLib.c ****     * Reports the IMO to WCO lock enable state.
 296:Generated_Source\PSoC4/CyLib.c ****     *
 297:Generated_Source\PSoC4/CyLib.c ****     * This function is applicable for PSoC 4100M / PSoC 4200M / PSoC 4000S /
 298:Generated_Source\PSoC4/CyLib.c ****     * PSoC 4100S / PSoC 4400 / PSoC 4200L.
 299:Generated_Source\PSoC4/CyLib.c ****     *
 300:Generated_Source\PSoC4/CyLib.c ****     * \return 1 if IMO to WCO lock is enabled.
 301:Generated_Source\PSoC4/CyLib.c ****     * \return 0 if IMO to WCO lock is disabled.
 302:Generated_Source\PSoC4/CyLib.c ****     *
 303:Generated_Source\PSoC4/CyLib.c ****     *******************************************************************************/
 304:Generated_Source\PSoC4/CyLib.c ****     uint32 CySysClkImoGetWcoLock(void)
 305:Generated_Source\PSoC4/CyLib.c ****     {
 306:Generated_Source\PSoC4/CyLib.c ****         return ((0u != (CY_SYS_CLK_WCO_CONFIG_REG & CY_SYS_CLK_WCO_CONFIG_DPLL_ENABLE)) ?
 307:Generated_Source\PSoC4/CyLib.c ****                 (uint32) 1u :
 308:Generated_Source\PSoC4/CyLib.c ****                 (uint32) 0u);
 309:Generated_Source\PSoC4/CyLib.c ****     }
 310:Generated_Source\PSoC4/CyLib.c **** 
 311:Generated_Source\PSoC4/CyLib.c **** #endif /* (CY_IP_IMO_TRIMMABLE_BY_WCO) */
 312:Generated_Source\PSoC4/CyLib.c **** 
 313:Generated_Source\PSoC4/CyLib.c **** 
 314:Generated_Source\PSoC4/CyLib.c **** #if (CY_IP_IMO_TRIMMABLE_BY_USB)
ARM GAS  C:\Users\PC\AppData\Local\Temp\ccW101Aa.s 			page 10


 315:Generated_Source\PSoC4/CyLib.c **** 
 316:Generated_Source\PSoC4/CyLib.c ****     /*******************************************************************************
 317:Generated_Source\PSoC4/CyLib.c ****     * Function Name: CySysClkImoEnableUsbLock
 318:Generated_Source\PSoC4/CyLib.c ****     ****************************************************************************//**
 319:Generated_Source\PSoC4/CyLib.c ****     *
 320:Generated_Source\PSoC4/CyLib.c ****     * Enables the IMO to USB lock feature.
 321:Generated_Source\PSoC4/CyLib.c ****     *
 322:Generated_Source\PSoC4/CyLib.c ****     * This function must be called before CySysClkWriteImoFreq().
 323:Generated_Source\PSoC4/CyLib.c ****     *
 324:Generated_Source\PSoC4/CyLib.c ****     * This function is called from CySysClkImoStart() function if USB lock
 325:Generated_Source\PSoC4/CyLib.c ****     * selected in the Design Wide Resources tab.
 326:Generated_Source\PSoC4/CyLib.c ****     *
 327:Generated_Source\PSoC4/CyLib.c ****     * This is applicable for PSoC 4200L family of devices only. For PSoC 4200L
 328:Generated_Source\PSoC4/CyLib.c ****     * devices, the IMO can lock to either WCO or USB, but not both.
 329:Generated_Source\PSoC4/CyLib.c ****     *
 330:Generated_Source\PSoC4/CyLib.c ****     *******************************************************************************/
 331:Generated_Source\PSoC4/CyLib.c ****     void CySysClkImoEnableUsbLock(void)
 332:Generated_Source\PSoC4/CyLib.c ****     {
 333:Generated_Source\PSoC4/CyLib.c ****         /* Set oscillator interface control port to USB */
 334:Generated_Source\PSoC4/CyLib.c ****         #if (CY_IP_IMO_TRIMMABLE_BY_WCO && CY_IP_IMO_TRIMMABLE_BY_USB)
 335:Generated_Source\PSoC4/CyLib.c ****             CY_SYS_CLK_OSCINTF_CTL_REG = (CY_SYS_CLK_OSCINTF_CTL_REG & (uint32) ~CY_SYS_CLK_OSCINTF
 336:Generated_Source\PSoC4/CyLib.c ****                                           CY_SYS_CLK_OSCINTF_CTL_PORT_SEL_USB;
 337:Generated_Source\PSoC4/CyLib.c ****         #endif /* (CY_IP_IMO_TRIMMABLE_BY_WCO && CY_IP_IMO_TRIMMABLE_BY_USB) */
 338:Generated_Source\PSoC4/CyLib.c **** 
 339:Generated_Source\PSoC4/CyLib.c ****         #if(CY_IP_SRSSV2)
 340:Generated_Source\PSoC4/CyLib.c ****             /* Save CY_SYS_CLK_IMO_TRIM4_REG and set IMO gain for USB lock */
 341:Generated_Source\PSoC4/CyLib.c ****             CySysClkImoTrim4 = CY_SYS_CLK_IMO_TRIM4_REG & (uint32) ~CY_SYS_CLK_IMO_TRIM4_GAIN_MASK;
 342:Generated_Source\PSoC4/CyLib.c ****             CY_SYS_CLK_IMO_TRIM4_REG = (CY_SYS_CLK_IMO_TRIM4_REG & (uint32) ~CY_SYS_CLK_IMO_TRIM4_G
 343:Generated_Source\PSoC4/CyLib.c ****                                         CY_SYS_CLK_IMO_TRIM4_USB_GAIN;
 344:Generated_Source\PSoC4/CyLib.c ****         #endif  /* (CY_IP_SRSSV2) */
 345:Generated_Source\PSoC4/CyLib.c **** 
 346:Generated_Source\PSoC4/CyLib.c ****         CY_SYS_CLK_USBDEVv2_CR1_REG |= CY_SYS_CLK_USBDEVv2_CR1_ENABLE_LOCK;
 347:Generated_Source\PSoC4/CyLib.c ****     }
 348:Generated_Source\PSoC4/CyLib.c **** 
 349:Generated_Source\PSoC4/CyLib.c **** 
 350:Generated_Source\PSoC4/CyLib.c ****     /*******************************************************************************
 351:Generated_Source\PSoC4/CyLib.c ****     * Function Name: CySysClkImoDisableUsbLock
 352:Generated_Source\PSoC4/CyLib.c ****     ****************************************************************************//**
 353:Generated_Source\PSoC4/CyLib.c ****     *
 354:Generated_Source\PSoC4/CyLib.c ****     * Disables the IMO to USB lock feature.
 355:Generated_Source\PSoC4/CyLib.c ****     *
 356:Generated_Source\PSoC4/CyLib.c ****     * This function is called from CySysClkImoStop() function if USB lock selected
 357:Generated_Source\PSoC4/CyLib.c ****     * in the Design Wide Resources tab.
 358:Generated_Source\PSoC4/CyLib.c ****     *
 359:Generated_Source\PSoC4/CyLib.c ****     * This is applicable for PSoC 4200L family of devices only. For PSoC 4200L
 360:Generated_Source\PSoC4/CyLib.c ****     * devices, the IMO can lock to either WCO or USB, but not both.
 361:Generated_Source\PSoC4/CyLib.c ****     *
 362:Generated_Source\PSoC4/CyLib.c ****     *******************************************************************************/
 363:Generated_Source\PSoC4/CyLib.c ****     void CySysClkImoDisableUsbLock(void)
 364:Generated_Source\PSoC4/CyLib.c ****     {
 365:Generated_Source\PSoC4/CyLib.c ****         CY_SYS_CLK_USBDEVv2_CR1_REG &= (uint32) ~CY_SYS_CLK_USBDEVv2_CR1_ENABLE_LOCK;
 366:Generated_Source\PSoC4/CyLib.c **** 
 367:Generated_Source\PSoC4/CyLib.c ****         #if(CY_IP_SRSSV2)
 368:Generated_Source\PSoC4/CyLib.c ****             /* Restore CY_SYS_CLK_IMO_TRIM4_REG */
 369:Generated_Source\PSoC4/CyLib.c ****             CY_SYS_CLK_IMO_TRIM4_REG = (CY_SYS_CLK_IMO_TRIM4_REG & (uint32) ~CY_SYS_CLK_IMO_TRIM4_G
 370:Generated_Source\PSoC4/CyLib.c ****                                     CySysClkImoTrim4;
 371:Generated_Source\PSoC4/CyLib.c ****         #endif  /* (CY_IP_SRSSV2) */
ARM GAS  C:\Users\PC\AppData\Local\Temp\ccW101Aa.s 			page 11


 372:Generated_Source\PSoC4/CyLib.c ****     }
 373:Generated_Source\PSoC4/CyLib.c **** 
 374:Generated_Source\PSoC4/CyLib.c **** 
 375:Generated_Source\PSoC4/CyLib.c ****     /*******************************************************************************
 376:Generated_Source\PSoC4/CyLib.c ****     * Function Name: CySysClkImoGetUsbLock
 377:Generated_Source\PSoC4/CyLib.c ****     ****************************************************************************//**
 378:Generated_Source\PSoC4/CyLib.c ****     *
 379:Generated_Source\PSoC4/CyLib.c ****     * Reports the IMO to USB lock enable state.
 380:Generated_Source\PSoC4/CyLib.c ****     *
 381:Generated_Source\PSoC4/CyLib.c ****     * This is applicable for PSoC 4200L family of devices only. For PSoC 4200L
 382:Generated_Source\PSoC4/CyLib.c ****     * devices, the IMO can lock to either WCO or USB, but not both.
 383:Generated_Source\PSoC4/CyLib.c ****     *
 384:Generated_Source\PSoC4/CyLib.c ****     * \return 1 if IMO to USB lock is enabled.
 385:Generated_Source\PSoC4/CyLib.c ****     * \return 0 if IMO to USB lock is disabled.
 386:Generated_Source\PSoC4/CyLib.c ****     *
 387:Generated_Source\PSoC4/CyLib.c ****     *******************************************************************************/
 388:Generated_Source\PSoC4/CyLib.c ****     uint32 CySysClkImoGetUsbLock(void)
 389:Generated_Source\PSoC4/CyLib.c ****     {
 390:Generated_Source\PSoC4/CyLib.c ****         return ((0u != (CY_SYS_CLK_USBDEVv2_CR1_REG & CY_SYS_CLK_USBDEVv2_CR1_ENABLE_LOCK)) ?
 391:Generated_Source\PSoC4/CyLib.c ****                 (uint32) 1u :
 392:Generated_Source\PSoC4/CyLib.c ****                 (uint32) 0u);
 393:Generated_Source\PSoC4/CyLib.c ****     }
 394:Generated_Source\PSoC4/CyLib.c **** #endif  /* (CY_IP_IMO_TRIMMABLE_BY_USB) */
 395:Generated_Source\PSoC4/CyLib.c **** 
 396:Generated_Source\PSoC4/CyLib.c **** 
 397:Generated_Source\PSoC4/CyLib.c **** 
 398:Generated_Source\PSoC4/CyLib.c **** /*******************************************************************************
 399:Generated_Source\PSoC4/CyLib.c **** * Function Name: CySysClkWriteHfclkDirect
 400:Generated_Source\PSoC4/CyLib.c **** ****************************************************************************//**
 401:Generated_Source\PSoC4/CyLib.c **** *
 402:Generated_Source\PSoC4/CyLib.c **** * Selects the direct source for the HFCLK.
 403:Generated_Source\PSoC4/CyLib.c **** *
 404:Generated_Source\PSoC4/CyLib.c **** * The new source must be running and stable before calling this function.
 405:Generated_Source\PSoC4/CyLib.c **** *
 406:Generated_Source\PSoC4/CyLib.c **** * PSoC 4000:
 407:Generated_Source\PSoC4/CyLib.c **** * The SYSCLK has a maximum speed of 16 MHz, so HFCLK and SYSCLK dividers should
 408:Generated_Source\PSoC4/CyLib.c **** * be selected in a way to not to exceed 16 MHz for the System clock.
 409:Generated_Source\PSoC4/CyLib.c **** *
 410:Generated_Source\PSoC4/CyLib.c **** * If the SYSCLK clock frequency increases during device operation, call
 411:Generated_Source\PSoC4/CyLib.c **** * CySysFlashSetWaitCycles() with the appropriate parameter to adjust the number
 412:Generated_Source\PSoC4/CyLib.c **** * of clock cycles the cache will wait before sampling data comes back from
 413:Generated_Source\PSoC4/CyLib.c **** * Flash. If the SYSCLK clock frequency decreases, you can call
 414:Generated_Source\PSoC4/CyLib.c **** * CySysFlashSetWaitCycles() to improve the CPU performance. See
 415:Generated_Source\PSoC4/CyLib.c **** * CySysFlashSetWaitCycles() description for more information.
 416:Generated_Source\PSoC4/CyLib.c **** *
 417:Generated_Source\PSoC4/CyLib.c **** * Do not select PLL as the source for HFCLK if PLL output frequency exceeds
 418:Generated_Source\PSoC4/CyLib.c **** * maximum permissible value for HFCLK.
 419:Generated_Source\PSoC4/CyLib.c **** *
 420:Generated_Source\PSoC4/CyLib.c **** * \param clkSelect One of the available HFCLK direct sources.
 421:Generated_Source\PSoC4/CyLib.c **** * CY_SYS_CLK_HFCLK_IMO     IMO.
 422:Generated_Source\PSoC4/CyLib.c **** * CY_SYS_CLK_HFCLK_EXTCLK  External clock pin.
 423:Generated_Source\PSoC4/CyLib.c **** * CY_SYS_CLK_HFCLK_ECO     External crystal oscillator. Applicable for
 424:Generated_Source\PSoC4/CyLib.c **** *                          PSoC 4100 BLE / PSoC 4200 BLE / PSoC 4200L.
 425:Generated_Source\PSoC4/CyLib.c **** * CY_SYS_CLK_HFCLK_PLL0    PLL#0. Applicable for PSoC 4200L.
 426:Generated_Source\PSoC4/CyLib.c **** * CY_SYS_CLK_HFCLK_PLL1    PLL#1. Applicable for PSoC 4200L.
 427:Generated_Source\PSoC4/CyLib.c **** *
 428:Generated_Source\PSoC4/CyLib.c **** *******************************************************************************/
ARM GAS  C:\Users\PC\AppData\Local\Temp\ccW101Aa.s 			page 12


 429:Generated_Source\PSoC4/CyLib.c **** void CySysClkWriteHfclkDirect(uint32 clkSelect)
 430:Generated_Source\PSoC4/CyLib.c **** {
 196              		.loc 1 430 0
 197              		.cfi_startproc
 198              		@ args = 0, pretend = 0, frame = 16
 199              		@ frame_needed = 1, uses_anonymous_args = 0
 200 0000 90B5     		push	{r4, r7, lr}
 201              		.cfi_def_cfa_offset 12
 202              		.cfi_offset 4, -12
 203              		.cfi_offset 7, -8
 204              		.cfi_offset 14, -4
 205 0002 85B0     		sub	sp, sp, #20
 206              		.cfi_def_cfa_offset 32
 207 0004 00AF     		add	r7, sp, #0
 208              		.cfi_def_cfa_register 7
 209 0006 7860     		str	r0, [r7, #4]
 431:Generated_Source\PSoC4/CyLib.c ****     uint8  interruptState;
 432:Generated_Source\PSoC4/CyLib.c ****     uint32 tmpReg;
 433:Generated_Source\PSoC4/CyLib.c **** 
 434:Generated_Source\PSoC4/CyLib.c ****     interruptState = CyEnterCriticalSection();
 210              		.loc 1 434 0
 211 0008 0F23     		movs	r3, #15
 212 000a FC18     		adds	r4, r7, r3
 213 000c FFF7FEFF 		bl	CyEnterCriticalSection
 214 0010 0300     		movs	r3, r0
 215 0012 2370     		strb	r3, [r4]
 435:Generated_Source\PSoC4/CyLib.c **** 
 436:Generated_Source\PSoC4/CyLib.c **** 
 437:Generated_Source\PSoC4/CyLib.c ****     tmpReg = CY_SYS_CLK_SELECT_REG & ~(CY_SYS_CLK_SELECT_DIRECT_SEL_MASK |
 216              		.loc 1 437 0
 217 0014 0B4B     		ldr	r3, .L8
 218 0016 1B68     		ldr	r3, [r3]
 219 0018 0722     		movs	r2, #7
 220 001a 9343     		bics	r3, r2
 221 001c BB60     		str	r3, [r7, #8]
 438:Generated_Source\PSoC4/CyLib.c ****                                        CY_SYS_CLK_SELECT_HFCLK_SEL_MASK);
 439:Generated_Source\PSoC4/CyLib.c **** 
 440:Generated_Source\PSoC4/CyLib.c **** #if (CY_IP_SRSSV2 && CY_IP_PLL)
 441:Generated_Source\PSoC4/CyLib.c ****     if ((CY_SYS_CLK_HFCLK_PLL0 == clkSelect) || (CY_SYS_CLK_HFCLK_PLL1 == clkSelect))
 442:Generated_Source\PSoC4/CyLib.c ****     {
 443:Generated_Source\PSoC4/CyLib.c ****         tmpReg |= (clkSelect & CY_SYS_CLK_SELECT_HFCLK_SEL_MASK);
 444:Generated_Source\PSoC4/CyLib.c ****     }
 445:Generated_Source\PSoC4/CyLib.c ****     else
 446:Generated_Source\PSoC4/CyLib.c **** #endif /* (CY_IP_SRSSV2 && CY_IP_PLL) */
 447:Generated_Source\PSoC4/CyLib.c ****     {
 448:Generated_Source\PSoC4/CyLib.c ****         tmpReg |= (clkSelect & CY_SYS_CLK_SELECT_DIRECT_SEL_MASK);
 222              		.loc 1 448 0
 223 001e 7B68     		ldr	r3, [r7, #4]
 224 0020 0722     		movs	r2, #7
 225 0022 1340     		ands	r3, r2
 226 0024 BA68     		ldr	r2, [r7, #8]
 227 0026 1343     		orrs	r3, r2
 228 0028 BB60     		str	r3, [r7, #8]
 449:Generated_Source\PSoC4/CyLib.c ****     }
 450:Generated_Source\PSoC4/CyLib.c **** 
 451:Generated_Source\PSoC4/CyLib.c ****     CY_SYS_CLK_SELECT_REG = tmpReg;
 229              		.loc 1 451 0
ARM GAS  C:\Users\PC\AppData\Local\Temp\ccW101Aa.s 			page 13


 230 002a 064B     		ldr	r3, .L8
 231 002c BA68     		ldr	r2, [r7, #8]
 232 002e 1A60     		str	r2, [r3]
 452:Generated_Source\PSoC4/CyLib.c **** 
 453:Generated_Source\PSoC4/CyLib.c ****     CyExitCriticalSection(interruptState);
 233              		.loc 1 453 0
 234 0030 0F23     		movs	r3, #15
 235 0032 FB18     		adds	r3, r7, r3
 236 0034 1B78     		ldrb	r3, [r3]
 237 0036 1800     		movs	r0, r3
 238 0038 FFF7FEFF 		bl	CyExitCriticalSection
 454:Generated_Source\PSoC4/CyLib.c **** }
 239              		.loc 1 454 0
 240 003c C046     		nop
 241 003e BD46     		mov	sp, r7
 242 0040 05B0     		add	sp, sp, #20
 243              		@ sp needed
 244 0042 90BD     		pop	{r4, r7, pc}
 245              	.L9:
 246              		.align	2
 247              	.L8:
 248 0044 00010B40 		.word	1074462976
 249              		.cfi_endproc
 250              	.LFE4:
 251              		.size	CySysClkWriteHfclkDirect, .-CySysClkWriteHfclkDirect
 252              		.section	.text.CySysEnablePumpClock,"ax",%progbits
 253              		.align	2
 254              		.global	CySysEnablePumpClock
 255              		.code	16
 256              		.thumb_func
 257              		.type	CySysEnablePumpClock, %function
 258              	CySysEnablePumpClock:
 259              	.LFB5:
 455:Generated_Source\PSoC4/CyLib.c **** 
 456:Generated_Source\PSoC4/CyLib.c **** 
 457:Generated_Source\PSoC4/CyLib.c **** /*******************************************************************************
 458:Generated_Source\PSoC4/CyLib.c **** * Function Name: CySysEnablePumpClock
 459:Generated_Source\PSoC4/CyLib.c **** ****************************************************************************//**
 460:Generated_Source\PSoC4/CyLib.c **** *
 461:Generated_Source\PSoC4/CyLib.c **** * Enables / disables the pump clock.
 462:Generated_Source\PSoC4/CyLib.c **** *
 463:Generated_Source\PSoC4/CyLib.c **** * \param enable  
 464:Generated_Source\PSoC4/CyLib.c **** * CY_SYS_CLK_PUMP_DISABLE - Disables the pump clock
 465:Generated_Source\PSoC4/CyLib.c **** * CY_SYS_CLK_PUMP_ENABLE - Enables and restores the operating source of 
 466:Generated_Source\PSoC4/CyLib.c **** * the pump clock.
 467:Generated_Source\PSoC4/CyLib.c **** *
 468:Generated_Source\PSoC4/CyLib.c **** * \sideeffect
 469:Generated_Source\PSoC4/CyLib.c **** *  Enabling/disabling the pump clock does not guarantee glitch free operation 
 470:Generated_Source\PSoC4/CyLib.c **** *  when changing the IMO parameters or clock divider settings.
 471:Generated_Source\PSoC4/CyLib.c **** *
 472:Generated_Source\PSoC4/CyLib.c **** *******************************************************************************/
 473:Generated_Source\PSoC4/CyLib.c **** void CySysEnablePumpClock(uint32 enable)
 474:Generated_Source\PSoC4/CyLib.c **** {
 260              		.loc 1 474 0
 261              		.cfi_startproc
 262              		@ args = 0, pretend = 0, frame = 8
 263              		@ frame_needed = 1, uses_anonymous_args = 0
ARM GAS  C:\Users\PC\AppData\Local\Temp\ccW101Aa.s 			page 14


 264 0000 80B5     		push	{r7, lr}
 265              		.cfi_def_cfa_offset 8
 266              		.cfi_offset 7, -8
 267              		.cfi_offset 14, -4
 268 0002 82B0     		sub	sp, sp, #8
 269              		.cfi_def_cfa_offset 16
 270 0004 00AF     		add	r7, sp, #0
 271              		.cfi_def_cfa_register 7
 272 0006 7860     		str	r0, [r7, #4]
 475:Generated_Source\PSoC4/CyLib.c ****     #if(CY_IP_SRSSV2)
 476:Generated_Source\PSoC4/CyLib.c ****         if (0u != (CY_SYS_CLK_PUMP_ENABLE & enable))
 273              		.loc 1 476 0
 274 0008 7B68     		ldr	r3, [r7, #4]
 275 000a 0122     		movs	r2, #1
 276 000c 1340     		ands	r3, r2
 277 000e 08D0     		beq	.L11
 477:Generated_Source\PSoC4/CyLib.c ****         {
 478:Generated_Source\PSoC4/CyLib.c ****             CY_SYS_CLK_IMO_CONFIG_REG |= (CySysClkPumpConfig << CY_SYS_CLK_IMO_CONFIG_PUMP_SEL_SHIF
 278              		.loc 1 478 0
 279 0010 0C4A     		ldr	r2, .L14
 280 0012 0C4B     		ldr	r3, .L14
 281 0014 1968     		ldr	r1, [r3]
 282 0016 0C4B     		ldr	r3, .L14+4
 283 0018 1B68     		ldr	r3, [r3]
 284 001a 5B06     		lsls	r3, r3, #25
 285 001c 0B43     		orrs	r3, r1
 286 001e 1360     		str	r3, [r2]
 479:Generated_Source\PSoC4/CyLib.c ****         }
 480:Generated_Source\PSoC4/CyLib.c ****         else
 481:Generated_Source\PSoC4/CyLib.c ****         {
 482:Generated_Source\PSoC4/CyLib.c ****             CySysClkPumpConfig = (CY_SYS_CLK_IMO_CONFIG_REG >> CY_SYS_CLK_IMO_CONFIG_PUMP_SEL_SHIFT
 483:Generated_Source\PSoC4/CyLib.c ****                                   CY_SYS_CLK_IMO_CONFIG_PUMP_SEL_MASK;
 484:Generated_Source\PSoC4/CyLib.c ****             CY_SYS_CLK_IMO_CONFIG_REG &= ~(CY_SYS_CLK_IMO_CONFIG_PUMP_SEL_MASK << CY_SYS_CLK_IMO_CO
 485:Generated_Source\PSoC4/CyLib.c ****         }
 486:Generated_Source\PSoC4/CyLib.c ****     #else /* CY_IP_SRSSLT */
 487:Generated_Source\PSoC4/CyLib.c ****         if (0u != (CY_SYS_CLK_PUMP_ENABLE & enable))
 488:Generated_Source\PSoC4/CyLib.c ****         {
 489:Generated_Source\PSoC4/CyLib.c ****             CY_SYS_CLK_SELECT_REG |= (CySysClkPumpConfig << CY_SYS_CLK_SELECT_PUMP_SEL_SHIFT);
 490:Generated_Source\PSoC4/CyLib.c ****         }
 491:Generated_Source\PSoC4/CyLib.c ****         else
 492:Generated_Source\PSoC4/CyLib.c ****         {
 493:Generated_Source\PSoC4/CyLib.c ****             CySysClkPumpConfig = (CY_SYS_CLK_SELECT_REG >> CY_SYS_CLK_SELECT_PUMP_SEL_SHIFT) & 
 494:Generated_Source\PSoC4/CyLib.c ****                                   CY_SYS_CLK_SELECT_PUMP_SEL_MASK;
 495:Generated_Source\PSoC4/CyLib.c ****             CY_SYS_CLK_SELECT_REG &= ~(CY_SYS_CLK_SELECT_PUMP_SEL_MASK << CY_SYS_CLK_SELECT_PUMP_SE
 496:Generated_Source\PSoC4/CyLib.c ****         }
 497:Generated_Source\PSoC4/CyLib.c ****     #endif  /* (CY_IP_SRSSV2) */
 498:Generated_Source\PSoC4/CyLib.c **** }
 287              		.loc 1 498 0
 288 0020 0CE0     		b	.L13
 289              	.L11:
 482:Generated_Source\PSoC4/CyLib.c ****                                   CY_SYS_CLK_IMO_CONFIG_PUMP_SEL_MASK;
 290              		.loc 1 482 0
 291 0022 084B     		ldr	r3, .L14
 292 0024 1B68     		ldr	r3, [r3]
 293 0026 5B0E     		lsrs	r3, r3, #25
 294 0028 0722     		movs	r2, #7
 295 002a 1A40     		ands	r2, r3
ARM GAS  C:\Users\PC\AppData\Local\Temp\ccW101Aa.s 			page 15


 296 002c 064B     		ldr	r3, .L14+4
 297 002e 1A60     		str	r2, [r3]
 484:Generated_Source\PSoC4/CyLib.c ****         }
 298              		.loc 1 484 0
 299 0030 044B     		ldr	r3, .L14
 300 0032 044A     		ldr	r2, .L14
 301 0034 1268     		ldr	r2, [r2]
 302 0036 0549     		ldr	r1, .L14+8
 303 0038 0A40     		ands	r2, r1
 304 003a 1A60     		str	r2, [r3]
 305              	.L13:
 306              		.loc 1 498 0
 307 003c C046     		nop
 308 003e BD46     		mov	sp, r7
 309 0040 02B0     		add	sp, sp, #8
 310              		@ sp needed
 311 0042 80BD     		pop	{r7, pc}
 312              	.L15:
 313              		.align	2
 314              	.L14:
 315 0044 08010B40 		.word	1074462984
 316 0048 00000000 		.word	CySysClkPumpConfig
 317 004c FFFFFFF1 		.word	-234881025
 318              		.cfi_endproc
 319              	.LFE5:
 320              		.size	CySysEnablePumpClock, .-CySysEnablePumpClock
 321              		.section	.text.CySysClkGetSysclkSource,"ax",%progbits
 322              		.align	2
 323              		.global	CySysClkGetSysclkSource
 324              		.code	16
 325              		.thumb_func
 326              		.type	CySysClkGetSysclkSource, %function
 327              	CySysClkGetSysclkSource:
 328              	.LFB6:
 499:Generated_Source\PSoC4/CyLib.c **** 
 500:Generated_Source\PSoC4/CyLib.c **** 
 501:Generated_Source\PSoC4/CyLib.c **** /*******************************************************************************
 502:Generated_Source\PSoC4/CyLib.c **** * Function Name: CySysClkGetSysclkSource
 503:Generated_Source\PSoC4/CyLib.c **** ****************************************************************************//**
 504:Generated_Source\PSoC4/CyLib.c **** *
 505:Generated_Source\PSoC4/CyLib.c **** * Returns the source of the System clock.
 506:Generated_Source\PSoC4/CyLib.c **** *
 507:Generated_Source\PSoC4/CyLib.c **** * \return The same as \ref CySysClkWriteHfclkDirect() function parameters.
 508:Generated_Source\PSoC4/CyLib.c **** *
 509:Generated_Source\PSoC4/CyLib.c **** *******************************************************************************/
 510:Generated_Source\PSoC4/CyLib.c **** uint32 CySysClkGetSysclkSource(void)
 511:Generated_Source\PSoC4/CyLib.c **** {
 329              		.loc 1 511 0
 330              		.cfi_startproc
 331              		@ args = 0, pretend = 0, frame = 8
 332              		@ frame_needed = 1, uses_anonymous_args = 0
 333 0000 90B5     		push	{r4, r7, lr}
 334              		.cfi_def_cfa_offset 12
 335              		.cfi_offset 4, -12
 336              		.cfi_offset 7, -8
 337              		.cfi_offset 14, -4
 338 0002 83B0     		sub	sp, sp, #12
ARM GAS  C:\Users\PC\AppData\Local\Temp\ccW101Aa.s 			page 16


 339              		.cfi_def_cfa_offset 24
 340 0004 00AF     		add	r7, sp, #0
 341              		.cfi_def_cfa_register 7
 512:Generated_Source\PSoC4/CyLib.c ****     uint8  interruptState;
 513:Generated_Source\PSoC4/CyLib.c ****     uint32 sysclkSource;
 514:Generated_Source\PSoC4/CyLib.c **** 
 515:Generated_Source\PSoC4/CyLib.c ****     interruptState = CyEnterCriticalSection();
 342              		.loc 1 515 0
 343 0006 FC1D     		adds	r4, r7, #7
 344 0008 FFF7FEFF 		bl	CyEnterCriticalSection
 345 000c 0300     		movs	r3, r0
 346 000e 2370     		strb	r3, [r4]
 516:Generated_Source\PSoC4/CyLib.c **** 
 517:Generated_Source\PSoC4/CyLib.c **** #if (CY_IP_SRSSV2 && CY_IP_PLL)
 518:Generated_Source\PSoC4/CyLib.c ****     if ((CY_SYS_CLK_SELECT_REG & CY_SYS_CLK_SELECT_HFCLK_SEL_MASK) != 0u)
 519:Generated_Source\PSoC4/CyLib.c ****     {
 520:Generated_Source\PSoC4/CyLib.c ****         sysclkSource = (CY_SYS_CLK_SELECT_REG & CY_SYS_CLK_SELECT_HFCLK_SEL_MASK);
 521:Generated_Source\PSoC4/CyLib.c ****     }
 522:Generated_Source\PSoC4/CyLib.c ****     else
 523:Generated_Source\PSoC4/CyLib.c **** #endif /* (CY_IP_SRSSV2 && CY_IP_PLL) */
 524:Generated_Source\PSoC4/CyLib.c ****     {
 525:Generated_Source\PSoC4/CyLib.c ****         sysclkSource = (CY_SYS_CLK_SELECT_REG & CY_SYS_CLK_SELECT_DIRECT_SEL_MASK);
 347              		.loc 1 525 0
 348 0010 074B     		ldr	r3, .L18
 349 0012 1B68     		ldr	r3, [r3]
 350 0014 0722     		movs	r2, #7
 351 0016 1340     		ands	r3, r2
 352 0018 3B60     		str	r3, [r7]
 526:Generated_Source\PSoC4/CyLib.c ****     }
 527:Generated_Source\PSoC4/CyLib.c **** 
 528:Generated_Source\PSoC4/CyLib.c ****     CyExitCriticalSection(interruptState);
 353              		.loc 1 528 0
 354 001a FB1D     		adds	r3, r7, #7
 355 001c 1B78     		ldrb	r3, [r3]
 356 001e 1800     		movs	r0, r3
 357 0020 FFF7FEFF 		bl	CyExitCriticalSection
 529:Generated_Source\PSoC4/CyLib.c **** 
 530:Generated_Source\PSoC4/CyLib.c ****     return (sysclkSource);
 358              		.loc 1 530 0
 359 0024 3B68     		ldr	r3, [r7]
 531:Generated_Source\PSoC4/CyLib.c **** }
 360              		.loc 1 531 0
 361 0026 1800     		movs	r0, r3
 362 0028 BD46     		mov	sp, r7
 363 002a 03B0     		add	sp, sp, #12
 364              		@ sp needed
 365 002c 90BD     		pop	{r4, r7, pc}
 366              	.L19:
 367 002e C046     		.align	2
 368              	.L18:
 369 0030 00010B40 		.word	1074462976
 370              		.cfi_endproc
 371              	.LFE6:
 372              		.size	CySysClkGetSysclkSource, .-CySysClkGetSysclkSource
 373              		.section	.text.CySysClkWriteSysclkDiv,"ax",%progbits
 374              		.align	2
 375              		.global	CySysClkWriteSysclkDiv
ARM GAS  C:\Users\PC\AppData\Local\Temp\ccW101Aa.s 			page 17


 376              		.code	16
 377              		.thumb_func
 378              		.type	CySysClkWriteSysclkDiv, %function
 379              	CySysClkWriteSysclkDiv:
 380              	.LFB7:
 532:Generated_Source\PSoC4/CyLib.c **** 
 533:Generated_Source\PSoC4/CyLib.c **** 
 534:Generated_Source\PSoC4/CyLib.c **** /*******************************************************************************
 535:Generated_Source\PSoC4/CyLib.c **** * Function Name: CySysClkWriteSysclkDiv
 536:Generated_Source\PSoC4/CyLib.c **** ****************************************************************************//**
 537:Generated_Source\PSoC4/CyLib.c **** *
 538:Generated_Source\PSoC4/CyLib.c **** * Selects the prescaler divide amount for SYSCLK from HFCLK.
 539:Generated_Source\PSoC4/CyLib.c **** *
 540:Generated_Source\PSoC4/CyLib.c **** * PSoC 4000: The SYSCLK has the speed of 16 MHz, so HFCLK and SYSCLK dividers
 541:Generated_Source\PSoC4/CyLib.c **** * should be selected in a way, not to exceed 16 MHz for SYSCLK.
 542:Generated_Source\PSoC4/CyLib.c **** *
 543:Generated_Source\PSoC4/CyLib.c **** * PSoC 4100 \ PSoC 4100 BLE \ PSoC 4100M: The SYSCLK has the speed of 24 MHz,
 544:Generated_Source\PSoC4/CyLib.c **** * so HFCLK and SYSCLK dividers should be selected in a way, not to exceed 24 MHz
 545:Generated_Source\PSoC4/CyLib.c **** * for SYSCLK.
 546:Generated_Source\PSoC4/CyLib.c **** *
 547:Generated_Source\PSoC4/CyLib.c **** * If the SYSCLK clock frequency increases during the device operation, call
 548:Generated_Source\PSoC4/CyLib.c **** * \ref CySysFlashSetWaitCycles() with the appropriate parameter to adjust the
 549:Generated_Source\PSoC4/CyLib.c **** * number of clock cycles the cache will wait before sampling data comes back
 550:Generated_Source\PSoC4/CyLib.c **** * from Flash. If the SYSCLK clock frequency decreases, you can call
 551:Generated_Source\PSoC4/CyLib.c **** * \ref CySysFlashSetWaitCycles() to improve the CPU performance. See
 552:Generated_Source\PSoC4/CyLib.c **** * \ref CySysFlashSetWaitCycles() description for more information.
 553:Generated_Source\PSoC4/CyLib.c **** *
 554:Generated_Source\PSoC4/CyLib.c **** * \param divider Power of 2 prescaler selection
 555:Generated_Source\PSoC4/CyLib.c **** *  CY_SYS_CLK_SYSCLK_DIV1        SYSCLK = HFCLK / 1
 556:Generated_Source\PSoC4/CyLib.c **** *  CY_SYS_CLK_SYSCLK_DIV2        SYSCLK = HFCLK / 2
 557:Generated_Source\PSoC4/CyLib.c **** *  CY_SYS_CLK_SYSCLK_DIV4        SYSCLK = HFCLK / 4
 558:Generated_Source\PSoC4/CyLib.c **** *  CY_SYS_CLK_SYSCLK_DIV8        SYSCLK = HFCLK / 8
 559:Generated_Source\PSoC4/CyLib.c **** *  CY_SYS_CLK_SYSCLK_DIV16       SYSCLK = HFCLK / 16  (N/A for 4000 Family)
 560:Generated_Source\PSoC4/CyLib.c **** *  CY_SYS_CLK_SYSCLK_DIV32       SYSCLK = HFCLK / 32  (N/A for 4000 Family)
 561:Generated_Source\PSoC4/CyLib.c **** *  CY_SYS_CLK_SYSCLK_DIV64       SYSCLK = HFCLK / 64  (N/A for 4000 Family)
 562:Generated_Source\PSoC4/CyLib.c **** *  CY_SYS_CLK_SYSCLK_DIV128      SYSCLK = HFCLK / 128 (N/A for 4000 Family)
 563:Generated_Source\PSoC4/CyLib.c **** *
 564:Generated_Source\PSoC4/CyLib.c **** *******************************************************************************/
 565:Generated_Source\PSoC4/CyLib.c **** void CySysClkWriteSysclkDiv(uint32 divider)
 566:Generated_Source\PSoC4/CyLib.c **** {
 381              		.loc 1 566 0
 382              		.cfi_startproc
 383              		@ args = 0, pretend = 0, frame = 16
 384              		@ frame_needed = 1, uses_anonymous_args = 0
 385 0000 90B5     		push	{r4, r7, lr}
 386              		.cfi_def_cfa_offset 12
 387              		.cfi_offset 4, -12
 388              		.cfi_offset 7, -8
 389              		.cfi_offset 14, -4
 390 0002 85B0     		sub	sp, sp, #20
 391              		.cfi_def_cfa_offset 32
 392 0004 00AF     		add	r7, sp, #0
 393              		.cfi_def_cfa_register 7
 394 0006 7860     		str	r0, [r7, #4]
 567:Generated_Source\PSoC4/CyLib.c ****     uint8  interruptState;
 568:Generated_Source\PSoC4/CyLib.c **** 
 569:Generated_Source\PSoC4/CyLib.c ****     interruptState = CyEnterCriticalSection();
ARM GAS  C:\Users\PC\AppData\Local\Temp\ccW101Aa.s 			page 18


 395              		.loc 1 569 0
 396 0008 0F23     		movs	r3, #15
 397 000a FC18     		adds	r4, r7, r3
 398 000c FFF7FEFF 		bl	CyEnterCriticalSection
 399 0010 0300     		movs	r3, r0
 400 0012 2370     		strb	r3, [r4]
 570:Generated_Source\PSoC4/CyLib.c **** 
 571:Generated_Source\PSoC4/CyLib.c ****     CY_SYS_CLK_SELECT_REG = ((uint32)(((uint32)divider & CY_SYS_CLK_SELECT_SYSCLK_DIV_MASK) <<
 401              		.loc 1 571 0
 402 0014 0A4B     		ldr	r3, .L21
 403 0016 7A68     		ldr	r2, [r7, #4]
 404 0018 D104     		lsls	r1, r2, #19
 405 001a E022     		movs	r2, #224
 406 001c 9203     		lsls	r2, r2, #14
 407 001e 1140     		ands	r1, r2
 572:Generated_Source\PSoC4/CyLib.c ****                                     CY_SYS_CLK_SELECT_SYSCLK_DIV_SHIFT)) |
 573:Generated_Source\PSoC4/CyLib.c ****                             (CY_SYS_CLK_SELECT_REG & ((uint32)(~(uint32)(CY_SYS_CLK_SELECT_SYSCLK_D
 408              		.loc 1 573 0
 409 0020 074A     		ldr	r2, .L21
 410 0022 1268     		ldr	r2, [r2]
 411 0024 0748     		ldr	r0, .L21+4
 412 0026 0240     		ands	r2, r0
 572:Generated_Source\PSoC4/CyLib.c ****                                     CY_SYS_CLK_SELECT_SYSCLK_DIV_SHIFT)) |
 413              		.loc 1 572 0
 414 0028 0A43     		orrs	r2, r1
 571:Generated_Source\PSoC4/CyLib.c ****                                     CY_SYS_CLK_SELECT_SYSCLK_DIV_SHIFT)) |
 415              		.loc 1 571 0
 416 002a 1A60     		str	r2, [r3]
 574:Generated_Source\PSoC4/CyLib.c ****                                     CY_SYS_CLK_SELECT_SYSCLK_DIV_SHIFT))));
 575:Generated_Source\PSoC4/CyLib.c **** 
 576:Generated_Source\PSoC4/CyLib.c ****     CyExitCriticalSection(interruptState);
 417              		.loc 1 576 0
 418 002c 0F23     		movs	r3, #15
 419 002e FB18     		adds	r3, r7, r3
 420 0030 1B78     		ldrb	r3, [r3]
 421 0032 1800     		movs	r0, r3
 422 0034 FFF7FEFF 		bl	CyExitCriticalSection
 577:Generated_Source\PSoC4/CyLib.c **** }
 423              		.loc 1 577 0
 424 0038 C046     		nop
 425 003a BD46     		mov	sp, r7
 426 003c 05B0     		add	sp, sp, #20
 427              		@ sp needed
 428 003e 90BD     		pop	{r4, r7, pc}
 429              	.L22:
 430              		.align	2
 431              	.L21:
 432 0040 00010B40 		.word	1074462976
 433 0044 FFFFC7FF 		.word	-3670017
 434              		.cfi_endproc
 435              	.LFE7:
 436              		.size	CySysClkWriteSysclkDiv, .-CySysClkWriteSysclkDiv
 437              		.section	.text.CySysClkWriteImoFreq,"ax",%progbits
 438              		.align	2
 439              		.global	CySysClkWriteImoFreq
 440              		.code	16
 441              		.thumb_func
ARM GAS  C:\Users\PC\AppData\Local\Temp\ccW101Aa.s 			page 19


 442              		.type	CySysClkWriteImoFreq, %function
 443              	CySysClkWriteImoFreq:
 444              	.LFB8:
 578:Generated_Source\PSoC4/CyLib.c **** 
 579:Generated_Source\PSoC4/CyLib.c **** 
 580:Generated_Source\PSoC4/CyLib.c **** /*******************************************************************************
 581:Generated_Source\PSoC4/CyLib.c **** * Function Name: CySysClkWriteImoFreq
 582:Generated_Source\PSoC4/CyLib.c **** ****************************************************************************//**
 583:Generated_Source\PSoC4/CyLib.c **** *
 584:Generated_Source\PSoC4/CyLib.c **** * Sets the frequency of the IMO.
 585:Generated_Source\PSoC4/CyLib.c **** *
 586:Generated_Source\PSoC4/CyLib.c **** * PSoC 4000: The SYSCLK has the speed of 16 MHz, so HFCLK and SYSCLK dividers
 587:Generated_Source\PSoC4/CyLib.c **** * should be selected in a way, not to exceed 16 MHz for SYSCLK.
 588:Generated_Source\PSoC4/CyLib.c **** *
 589:Generated_Source\PSoC4/CyLib.c **** * PSoC 4100 \ PSoC 4100 BLE \ PSoC 4100M: The SYSCLK has the speed of 24 MHz,
 590:Generated_Source\PSoC4/CyLib.c **** * so HFCLK and SYSCLK dividers should be selected in a way, not to exceed 24 MHz
 591:Generated_Source\PSoC4/CyLib.c **** * for SYSCLK.
 592:Generated_Source\PSoC4/CyLib.c **** *
 593:Generated_Source\PSoC4/CyLib.c **** * For PSoC 4200M and PSoC 4200L device families, if WCO lock feature is enabled
 594:Generated_Source\PSoC4/CyLib.c **** * then this API will disable the lock, write the new IMO frequency and then
 595:Generated_Source\PSoC4/CyLib.c **** * re-enable the lock.
 596:Generated_Source\PSoC4/CyLib.c **** *
 597:Generated_Source\PSoC4/CyLib.c **** * For PSoC 4200L device families, this function enables the USB lock when 24 or
 598:Generated_Source\PSoC4/CyLib.c **** * 48 MHz passed as a parameter if the USB lock option is enabled in Design Wide
 599:Generated_Source\PSoC4/CyLib.c **** * Resources tab or CySysClkImoEnableUsbLock() was called before. Note the USB
 600:Generated_Source\PSoC4/CyLib.c **** * lock is disabled during IMO frequency change.
 601:Generated_Source\PSoC4/CyLib.c **** *
 602:Generated_Source\PSoC4/CyLib.c **** * The CPU is halted if new frequency is invalid and project is compiled
 603:Generated_Source\PSoC4/CyLib.c **** * in debug mode.
 604:Generated_Source\PSoC4/CyLib.c **** *
 605:Generated_Source\PSoC4/CyLib.c **** * If the SYSCLK clock frequency increases during the device operation, call
 606:Generated_Source\PSoC4/CyLib.c **** * \ref CySysFlashSetWaitCycles() with the appropriate parameter to adjust the
 607:Generated_Source\PSoC4/CyLib.c **** * number of clock cycles the cache will wait before sampling data comes back
 608:Generated_Source\PSoC4/CyLib.c **** * from Flash. If the SYSCLK clock frequency decreases, you can call
 609:Generated_Source\PSoC4/CyLib.c **** * \ref CySysFlashSetWaitCycles() to improve the CPU performance. See
 610:Generated_Source\PSoC4/CyLib.c **** * \ref CySysFlashSetWaitCycles() description for more information.
 611:Generated_Source\PSoC4/CyLib.c **** *
 612:Generated_Source\PSoC4/CyLib.c **** * PSoC 4000: The System Clock (SYSCLK) has maximum speed of 16 MHz, so HFCLK
 613:Generated_Source\PSoC4/CyLib.c **** * and SYSCLK dividers should be selected in a way, to not to exceed 16 MHz for
 614:Generated_Source\PSoC4/CyLib.c **** * the System clock.
 615:Generated_Source\PSoC4/CyLib.c **** *
 616:Generated_Source\PSoC4/CyLib.c **** * \param freq All PSoC 4 families excluding the following: Valid range [3-48]
 617:Generated_Source\PSoC4/CyLib.c **** * with step size equals 1. PSoC 4000: Valid values are 24, 32, and 48.
 618:Generated_Source\PSoC4/CyLib.c **** * PSoC 4000S / PSoC 4100S / PSoC 4400: Valid range [24-48] with step size equals
 619:Generated_Source\PSoC4/CyLib.c **** * 4.
 620:Generated_Source\PSoC4/CyLib.c **** *
 621:Generated_Source\PSoC4/CyLib.c **** *******************************************************************************/
 622:Generated_Source\PSoC4/CyLib.c **** #if(CY_IP_SRSSV2)
 623:Generated_Source\PSoC4/CyLib.c ****     void CySysClkWriteImoFreq(uint32 freq)
 624:Generated_Source\PSoC4/CyLib.c ****     {
 445              		.loc 1 624 0
 446              		.cfi_startproc
 447              		@ args = 0, pretend = 0, frame = 16
 448              		@ frame_needed = 1, uses_anonymous_args = 0
 449 0000 90B5     		push	{r4, r7, lr}
 450              		.cfi_def_cfa_offset 12
 451              		.cfi_offset 4, -12
ARM GAS  C:\Users\PC\AppData\Local\Temp\ccW101Aa.s 			page 20


 452              		.cfi_offset 7, -8
 453              		.cfi_offset 14, -4
 454 0002 85B0     		sub	sp, sp, #20
 455              		.cfi_def_cfa_offset 32
 456 0004 00AF     		add	r7, sp, #0
 457              		.cfi_def_cfa_register 7
 458 0006 7860     		str	r0, [r7, #4]
 625:Generated_Source\PSoC4/CyLib.c ****         #if (CY_IP_FMLT)
 626:Generated_Source\PSoC4/CyLib.c ****             volatile uint32   parameters[2u];
 627:Generated_Source\PSoC4/CyLib.c ****             volatile uint32   regValues[4u];
 628:Generated_Source\PSoC4/CyLib.c ****         #else
 629:Generated_Source\PSoC4/CyLib.c ****             uint8  bgTrim4;
 630:Generated_Source\PSoC4/CyLib.c ****             uint8  bgTrim5;
 631:Generated_Source\PSoC4/CyLib.c ****             uint8  newImoTrim2Value;
 632:Generated_Source\PSoC4/CyLib.c ****             uint8  currentImoTrim2Value;
 633:Generated_Source\PSoC4/CyLib.c ****             uint8  imoTrim1Value;
 634:Generated_Source\PSoC4/CyLib.c ****         #endif /* (CY_IP_FM) */
 635:Generated_Source\PSoC4/CyLib.c **** 
 636:Generated_Source\PSoC4/CyLib.c ****         #if (CY_IP_IMO_TRIMMABLE_BY_WCO)
 637:Generated_Source\PSoC4/CyLib.c ****             uint32 wcoLock = 0u;
 638:Generated_Source\PSoC4/CyLib.c ****         #endif  /* (CY_IP_IMO_TRIMMABLE_BY_WCO) */
 639:Generated_Source\PSoC4/CyLib.c **** 
 640:Generated_Source\PSoC4/CyLib.c ****         #if (CY_IP_IMO_TRIMMABLE_BY_USB)
 641:Generated_Source\PSoC4/CyLib.c ****             uint32 usbLock = 0u;
 642:Generated_Source\PSoC4/CyLib.c ****         #endif  /* (CY_IP_IMO_TRIMMABLE_BY_USB) */
 643:Generated_Source\PSoC4/CyLib.c **** 
 644:Generated_Source\PSoC4/CyLib.c ****         uint8  interruptState;
 645:Generated_Source\PSoC4/CyLib.c **** 
 646:Generated_Source\PSoC4/CyLib.c **** 
 647:Generated_Source\PSoC4/CyLib.c ****         interruptState = CyEnterCriticalSection();
 459              		.loc 1 647 0
 460 0008 0C23     		movs	r3, #12
 461 000a FC18     		adds	r4, r7, r3
 462 000c FFF7FEFF 		bl	CyEnterCriticalSection
 463 0010 0300     		movs	r3, r0
 464 0012 2370     		strb	r3, [r4]
 648:Generated_Source\PSoC4/CyLib.c **** 
 649:Generated_Source\PSoC4/CyLib.c ****         #if (CY_IP_IMO_TRIMMABLE_BY_WCO)
 650:Generated_Source\PSoC4/CyLib.c ****             if(0u != CySysClkImoGetWcoLock())
 651:Generated_Source\PSoC4/CyLib.c ****             {
 652:Generated_Source\PSoC4/CyLib.c ****                 wcoLock = 1u;
 653:Generated_Source\PSoC4/CyLib.c ****                 CySysClkImoDisableWcoLock();
 654:Generated_Source\PSoC4/CyLib.c ****             }
 655:Generated_Source\PSoC4/CyLib.c ****         #endif  /* (CY_IP_IMO_TRIMMABLE_BY_WCO) */
 656:Generated_Source\PSoC4/CyLib.c **** 
 657:Generated_Source\PSoC4/CyLib.c **** 
 658:Generated_Source\PSoC4/CyLib.c ****         #if (CY_IP_IMO_TRIMMABLE_BY_USB)
 659:Generated_Source\PSoC4/CyLib.c **** 
 660:Generated_Source\PSoC4/CyLib.c ****             #if (CYDEV_IMO_TRIMMED_BY_USB == 0u)
 661:Generated_Source\PSoC4/CyLib.c ****                 if(0u != CySysClkImoGetUsbLock())
 662:Generated_Source\PSoC4/CyLib.c ****                 {
 663:Generated_Source\PSoC4/CyLib.c ****             #endif  /* (CYDEV_IMO_TRIMMED_BY_USB == 0u) */
 664:Generated_Source\PSoC4/CyLib.c **** 
 665:Generated_Source\PSoC4/CyLib.c ****                 if ((24u == freq) || (48u == freq))
 666:Generated_Source\PSoC4/CyLib.c ****                 {
 667:Generated_Source\PSoC4/CyLib.c ****                     usbLock = 1u;
 668:Generated_Source\PSoC4/CyLib.c ****                     CySysClkImoDisableUsbLock();
ARM GAS  C:\Users\PC\AppData\Local\Temp\ccW101Aa.s 			page 21


 669:Generated_Source\PSoC4/CyLib.c ****                 }
 670:Generated_Source\PSoC4/CyLib.c **** 
 671:Generated_Source\PSoC4/CyLib.c ****             #if (CYDEV_IMO_TRIMMED_BY_USB == 0u)
 672:Generated_Source\PSoC4/CyLib.c ****                 }
 673:Generated_Source\PSoC4/CyLib.c ****             #endif  /* (CYDEV_IMO_TRIMMED_BY_USB == 0u) */
 674:Generated_Source\PSoC4/CyLib.c **** 
 675:Generated_Source\PSoC4/CyLib.c ****         #endif  /* (CYDEV_IMO_TRIMMED_BY_USB == 0u) */
 676:Generated_Source\PSoC4/CyLib.c **** 
 677:Generated_Source\PSoC4/CyLib.c **** 
 678:Generated_Source\PSoC4/CyLib.c ****         #if (CY_IP_FMLT)
 679:Generated_Source\PSoC4/CyLib.c **** 
 680:Generated_Source\PSoC4/CyLib.c ****             /* FM-Lite Clock Restore */
 681:Generated_Source\PSoC4/CyLib.c ****             regValues[0u] = CY_SYS_CLK_IMO_CONFIG_REG;
 682:Generated_Source\PSoC4/CyLib.c ****             regValues[1u] = CY_SYS_CLK_SELECT_REG;
 683:Generated_Source\PSoC4/CyLib.c ****             regValues[2u] = cyImoFreqMhz2Reg[freq - CY_SYS_CLK_IMO_FREQ_TABLE_OFFSET];
 684:Generated_Source\PSoC4/CyLib.c ****             regValues[3u] = CY_FLASH_CTL_REG;
 685:Generated_Source\PSoC4/CyLib.c **** 
 686:Generated_Source\PSoC4/CyLib.c ****             parameters[0u] =
 687:Generated_Source\PSoC4/CyLib.c ****                 (uint32) ((CY_FLASH_KEY_TWO(CY_FLASH_API_OPCODE_CLK_RESTORE) <<  CY_FLASH_PARAM_KEY
 688:Generated_Source\PSoC4/CyLib.c ****                             CY_FLASH_KEY_ONE);
 689:Generated_Source\PSoC4/CyLib.c ****             parameters[1u] = (uint32) &regValues[0u];
 690:Generated_Source\PSoC4/CyLib.c **** 
 691:Generated_Source\PSoC4/CyLib.c ****             CY_FLASH_CPUSS_SYSARG_REG = (uint32) &parameters[0u];
 692:Generated_Source\PSoC4/CyLib.c ****             CY_FLASH_CPUSS_SYSREQ_REG = CY_FLASH_CPUSS_REQ_START | CY_FLASH_API_OPCODE_CLK_RESTORE;
 693:Generated_Source\PSoC4/CyLib.c ****             (void) CY_FLASH_CPUSS_SYSARG_REG;
 694:Generated_Source\PSoC4/CyLib.c **** 
 695:Generated_Source\PSoC4/CyLib.c ****         #else /* (CY_IP_FM) */
 696:Generated_Source\PSoC4/CyLib.c **** 
 697:Generated_Source\PSoC4/CyLib.c ****         if ((freq >= CY_SYS_CLK_IMO_MIN_FREQ_MHZ) && (freq <= CY_SYS_CLK_IMO_MAX_FREQ_MHZ))
 465              		.loc 1 697 0
 466 0014 7B68     		ldr	r3, [r7, #4]
 467 0016 022B     		cmp	r3, #2
 468 0018 00D8     		bhi	.LCB302
 469 001a B3E0     		b	.L24	@long jump
 470              	.LCB302:
 471              		.loc 1 697 0 is_stmt 0 discriminator 1
 472 001c 7B68     		ldr	r3, [r7, #4]
 473 001e 302B     		cmp	r3, #48
 474 0020 00D9     		bls	.LCB305
 475 0022 AFE0     		b	.L24	@long jump
 476              	.LCB305:
 698:Generated_Source\PSoC4/CyLib.c ****         {
 699:Generated_Source\PSoC4/CyLib.c ****             if(freq <= CY_SFLASH_IMO_MAXF0_REG)
 477              		.loc 1 699 0 is_stmt 1
 478 0024 5E4B     		ldr	r3, .L35
 479 0026 1B78     		ldrb	r3, [r3]
 480 0028 DBB2     		uxtb	r3, r3
 481 002a 1A00     		movs	r2, r3
 482 002c 7B68     		ldr	r3, [r7, #4]
 483 002e 9A42     		cmp	r2, r3
 484 0030 0AD3     		bcc	.L25
 700:Generated_Source\PSoC4/CyLib.c ****             {
 701:Generated_Source\PSoC4/CyLib.c ****                 bgTrim4 = CY_SFLASH_IMO_ABS0_REG;
 485              		.loc 1 701 0
 486 0032 5C4A     		ldr	r2, .L35+4
 487 0034 0F23     		movs	r3, #15
 488 0036 FB18     		adds	r3, r7, r3
ARM GAS  C:\Users\PC\AppData\Local\Temp\ccW101Aa.s 			page 22


 489 0038 1278     		ldrb	r2, [r2]
 490 003a 1A70     		strb	r2, [r3]
 702:Generated_Source\PSoC4/CyLib.c ****                 bgTrim5 = CY_SFLASH_IMO_TMPCO0_REG;
 491              		.loc 1 702 0
 492 003c 5A4A     		ldr	r2, .L35+8
 493 003e 0E23     		movs	r3, #14
 494 0040 FB18     		adds	r3, r7, r3
 495 0042 1278     		ldrb	r2, [r2]
 496 0044 1A70     		strb	r2, [r3]
 497 0046 3FE0     		b	.L26
 498              	.L25:
 703:Generated_Source\PSoC4/CyLib.c ****             }
 704:Generated_Source\PSoC4/CyLib.c ****             else if(freq <= CY_SFLASH_IMO_MAXF1_REG)
 499              		.loc 1 704 0
 500 0048 584B     		ldr	r3, .L35+12
 501 004a 1B78     		ldrb	r3, [r3]
 502 004c DBB2     		uxtb	r3, r3
 503 004e 1A00     		movs	r2, r3
 504 0050 7B68     		ldr	r3, [r7, #4]
 505 0052 9A42     		cmp	r2, r3
 506 0054 0AD3     		bcc	.L27
 705:Generated_Source\PSoC4/CyLib.c ****             {
 706:Generated_Source\PSoC4/CyLib.c ****                 bgTrim4 = CY_SFLASH_IMO_ABS1_REG;
 507              		.loc 1 706 0
 508 0056 564A     		ldr	r2, .L35+16
 509 0058 0F23     		movs	r3, #15
 510 005a FB18     		adds	r3, r7, r3
 511 005c 1278     		ldrb	r2, [r2]
 512 005e 1A70     		strb	r2, [r3]
 707:Generated_Source\PSoC4/CyLib.c ****                 bgTrim5 = CY_SFLASH_IMO_TMPCO1_REG;
 513              		.loc 1 707 0
 514 0060 544A     		ldr	r2, .L35+20
 515 0062 0E23     		movs	r3, #14
 516 0064 FB18     		adds	r3, r7, r3
 517 0066 1278     		ldrb	r2, [r2]
 518 0068 1A70     		strb	r2, [r3]
 519 006a 2DE0     		b	.L26
 520              	.L27:
 708:Generated_Source\PSoC4/CyLib.c ****             }
 709:Generated_Source\PSoC4/CyLib.c ****             else if(freq <= CY_SFLASH_IMO_MAXF2_REG)
 521              		.loc 1 709 0
 522 006c 524B     		ldr	r3, .L35+24
 523 006e 1B78     		ldrb	r3, [r3]
 524 0070 DBB2     		uxtb	r3, r3
 525 0072 1A00     		movs	r2, r3
 526 0074 7B68     		ldr	r3, [r7, #4]
 527 0076 9A42     		cmp	r2, r3
 528 0078 0AD3     		bcc	.L28
 710:Generated_Source\PSoC4/CyLib.c ****             {
 711:Generated_Source\PSoC4/CyLib.c ****                 bgTrim4 = CY_SFLASH_IMO_ABS2_REG;
 529              		.loc 1 711 0
 530 007a 504A     		ldr	r2, .L35+28
 531 007c 0F23     		movs	r3, #15
 532 007e FB18     		adds	r3, r7, r3
 533 0080 1278     		ldrb	r2, [r2]
 534 0082 1A70     		strb	r2, [r3]
 712:Generated_Source\PSoC4/CyLib.c ****                 bgTrim5 = CY_SFLASH_IMO_TMPCO2_REG;
ARM GAS  C:\Users\PC\AppData\Local\Temp\ccW101Aa.s 			page 23


 535              		.loc 1 712 0
 536 0084 4E4A     		ldr	r2, .L35+32
 537 0086 0E23     		movs	r3, #14
 538 0088 FB18     		adds	r3, r7, r3
 539 008a 1278     		ldrb	r2, [r2]
 540 008c 1A70     		strb	r2, [r3]
 541 008e 1BE0     		b	.L26
 542              	.L28:
 713:Generated_Source\PSoC4/CyLib.c ****             }
 714:Generated_Source\PSoC4/CyLib.c ****             else if(freq <= CY_SFLASH_IMO_MAXF3_REG)
 543              		.loc 1 714 0
 544 0090 4C4B     		ldr	r3, .L35+36
 545 0092 1B78     		ldrb	r3, [r3]
 546 0094 DBB2     		uxtb	r3, r3
 547 0096 1A00     		movs	r2, r3
 548 0098 7B68     		ldr	r3, [r7, #4]
 549 009a 9A42     		cmp	r2, r3
 550 009c 0AD3     		bcc	.L29
 715:Generated_Source\PSoC4/CyLib.c ****             {
 716:Generated_Source\PSoC4/CyLib.c ****                 bgTrim4 = CY_SFLASH_IMO_ABS3_REG;
 551              		.loc 1 716 0
 552 009e 4A4A     		ldr	r2, .L35+40
 553 00a0 0F23     		movs	r3, #15
 554 00a2 FB18     		adds	r3, r7, r3
 555 00a4 1278     		ldrb	r2, [r2]
 556 00a6 1A70     		strb	r2, [r3]
 717:Generated_Source\PSoC4/CyLib.c ****                 bgTrim5 = CY_SFLASH_IMO_TMPCO3_REG;
 557              		.loc 1 717 0
 558 00a8 484A     		ldr	r2, .L35+44
 559 00aa 0E23     		movs	r3, #14
 560 00ac FB18     		adds	r3, r7, r3
 561 00ae 1278     		ldrb	r2, [r2]
 562 00b0 1A70     		strb	r2, [r3]
 563 00b2 09E0     		b	.L26
 564              	.L29:
 718:Generated_Source\PSoC4/CyLib.c ****             }
 719:Generated_Source\PSoC4/CyLib.c ****             else
 720:Generated_Source\PSoC4/CyLib.c ****             {
 721:Generated_Source\PSoC4/CyLib.c ****                 bgTrim4 = CY_SFLASH_IMO_ABS4_REG;
 565              		.loc 1 721 0
 566 00b4 464A     		ldr	r2, .L35+48
 567 00b6 0F23     		movs	r3, #15
 568 00b8 FB18     		adds	r3, r7, r3
 569 00ba 1278     		ldrb	r2, [r2]
 570 00bc 1A70     		strb	r2, [r3]
 722:Generated_Source\PSoC4/CyLib.c ****                 bgTrim5 = CY_SFLASH_IMO_TMPCO4_REG;
 571              		.loc 1 722 0
 572 00be 454A     		ldr	r2, .L35+52
 573 00c0 0E23     		movs	r3, #14
 574 00c2 FB18     		adds	r3, r7, r3
 575 00c4 1278     		ldrb	r2, [r2]
 576 00c6 1A70     		strb	r2, [r3]
 577              	.L26:
 723:Generated_Source\PSoC4/CyLib.c ****             }
 724:Generated_Source\PSoC4/CyLib.c **** 
 725:Generated_Source\PSoC4/CyLib.c ****             /* Get IMO_TRIM2 value for the new frequency */
 726:Generated_Source\PSoC4/CyLib.c ****             newImoTrim2Value = cyImoFreqMhz2Reg[freq - CY_SYS_CLK_IMO_FREQ_TABLE_OFFSET];
ARM GAS  C:\Users\PC\AppData\Local\Temp\ccW101Aa.s 			page 24


 578              		.loc 1 726 0
 579 00c8 7B68     		ldr	r3, [r7, #4]
 580 00ca DA1E     		subs	r2, r3, #3
 581 00cc 0B23     		movs	r3, #11
 582 00ce FB18     		adds	r3, r7, r3
 583 00d0 4149     		ldr	r1, .L35+56
 584 00d2 8A5C     		ldrb	r2, [r1, r2]
 585 00d4 1A70     		strb	r2, [r3]
 727:Generated_Source\PSoC4/CyLib.c **** 
 728:Generated_Source\PSoC4/CyLib.c **** 
 729:Generated_Source\PSoC4/CyLib.c ****             /****************************************************************************
 730:Generated_Source\PSoC4/CyLib.c ****             * The IMO can have a different trim per frequency. To avoid possible corner
 731:Generated_Source\PSoC4/CyLib.c ****             * cases where a trim change can exceed the maximum frequency, the trim must
 732:Generated_Source\PSoC4/CyLib.c ****             * be applied at a frequency that is low enough.
 733:Generated_Source\PSoC4/CyLib.c ****             *
 734:Generated_Source\PSoC4/CyLib.c ****             * Comparing IMO_TRIM2 values for the current and new frequencies, since
 735:Generated_Source\PSoC4/CyLib.c ****             * IMO_TRIM2 value as a function of IMO frequency is a strictly increasing
 736:Generated_Source\PSoC4/CyLib.c ****             * function and is time-invariant.
 737:Generated_Source\PSoC4/CyLib.c ****             ***************************************************************************/
 738:Generated_Source\PSoC4/CyLib.c ****             if ((newImoTrim2Value >= CY_SYS_CLK_IMO_BOUNDARY_FREQ_TRIM2) && (freq >= CY_SYS_CLK_IMO
 586              		.loc 1 738 0
 587 00d6 0B23     		movs	r3, #11
 588 00d8 FB18     		adds	r3, r7, r3
 589 00da 1B78     		ldrb	r3, [r3]
 590 00dc 2F2B     		cmp	r3, #47
 591 00de 0DD9     		bls	.L30
 592              		.loc 1 738 0 is_stmt 0 discriminator 1
 593 00e0 7B68     		ldr	r3, [r7, #4]
 594 00e2 2A2B     		cmp	r3, #42
 595 00e4 0AD9     		bls	.L30
 739:Generated_Source\PSoC4/CyLib.c ****             {
 740:Generated_Source\PSoC4/CyLib.c ****                 /* Set boundary IMO frequency: safe for IMO above 48 MHZ trimming */
 741:Generated_Source\PSoC4/CyLib.c ****                 CY_SYS_CLK_IMO_TRIM2_REG = (uint32) cyImoFreqMhz2Reg[CY_SYS_CLK_IMO_TEMP_FREQ_MHZ -
 596              		.loc 1 741 0 is_stmt 1
 597 00e6 3D4B     		ldr	r3, .L35+60
 598 00e8 1922     		movs	r2, #25
 599 00ea 1A60     		str	r2, [r3]
 742:Generated_Source\PSoC4/CyLib.c ****                                                                      CY_SYS_CLK_IMO_FREQ_TABLE_OFFS
 743:Generated_Source\PSoC4/CyLib.c **** 
 744:Generated_Source\PSoC4/CyLib.c ****                 CyDelayCycles(CY_SYS_CLK_IMO_FREQ_TIMEOUT_CYCLES);
 600              		.loc 1 744 0
 601 00ec 0520     		movs	r0, #5
 602 00ee FFF7FEFF 		bl	CyDelayCycles
 745:Generated_Source\PSoC4/CyLib.c **** 
 746:Generated_Source\PSoC4/CyLib.c ****                 currentImoTrim2Value = CY_SYS_CLK_IMO_TEMP_FREQ_TRIM2;
 603              		.loc 1 746 0
 604 00f2 0D23     		movs	r3, #13
 605 00f4 FB18     		adds	r3, r7, r3
 606 00f6 1922     		movs	r2, #25
 607 00f8 1A70     		strb	r2, [r3]
 608 00fa 07E0     		b	.L31
 609              	.L30:
 747:Generated_Source\PSoC4/CyLib.c ****             }
 748:Generated_Source\PSoC4/CyLib.c ****             else
 749:Generated_Source\PSoC4/CyLib.c ****             {
 750:Generated_Source\PSoC4/CyLib.c ****                 currentImoTrim2Value = (uint8) (CY_SYS_CLK_IMO_TRIM2_REG & CY_SYS_CLK_IMO_FREQ_BITS
 610              		.loc 1 750 0
ARM GAS  C:\Users\PC\AppData\Local\Temp\ccW101Aa.s 			page 25


 611 00fc 374B     		ldr	r3, .L35+60
 612 00fe 1B68     		ldr	r3, [r3]
 613 0100 DAB2     		uxtb	r2, r3
 614 0102 0D23     		movs	r3, #13
 615 0104 FB18     		adds	r3, r7, r3
 616 0106 3F21     		movs	r1, #63
 617 0108 0A40     		ands	r2, r1
 618 010a 1A70     		strb	r2, [r3]
 619              	.L31:
 751:Generated_Source\PSoC4/CyLib.c ****             }
 752:Generated_Source\PSoC4/CyLib.c **** 
 753:Generated_Source\PSoC4/CyLib.c **** 
 754:Generated_Source\PSoC4/CyLib.c ****             /***************************************************************************
 755:Generated_Source\PSoC4/CyLib.c ****             * A trim change needs to be allowed to settle (within 5us) before the Freq
 756:Generated_Source\PSoC4/CyLib.c ****             * can be changed to a new frequency.
 757:Generated_Source\PSoC4/CyLib.c ****             *
 758:Generated_Source\PSoC4/CyLib.c ****             * Comparing IMO_TRIM2 values for the current and new frequencies, since
 759:Generated_Source\PSoC4/CyLib.c ****             * IMO_TRIM2 value as a function of IMO frequency is a strictly increasing
 760:Generated_Source\PSoC4/CyLib.c ****             * function and is time-invariant.
 761:Generated_Source\PSoC4/CyLib.c ****             ***************************************************************************/
 762:Generated_Source\PSoC4/CyLib.c ****             if (newImoTrim2Value < currentImoTrim2Value)
 620              		.loc 1 762 0
 621 010c 0B23     		movs	r3, #11
 622 010e FA18     		adds	r2, r7, r3
 623 0110 0D23     		movs	r3, #13
 624 0112 FB18     		adds	r3, r7, r3
 625 0114 1278     		ldrb	r2, [r2]
 626 0116 1B78     		ldrb	r3, [r3]
 627 0118 9A42     		cmp	r2, r3
 628 011a 08D2     		bcs	.L32
 763:Generated_Source\PSoC4/CyLib.c ****             {
 764:Generated_Source\PSoC4/CyLib.c ****                 /* Set new IMO frequency */
 765:Generated_Source\PSoC4/CyLib.c ****                 CY_SYS_CLK_IMO_TRIM2_REG = cyImoFreqMhz2Reg[freq - CY_SYS_CLK_IMO_FREQ_TABLE_OFFSET
 629              		.loc 1 765 0
 630 011c 2F4B     		ldr	r3, .L35+60
 631 011e 7A68     		ldr	r2, [r7, #4]
 632 0120 033A     		subs	r2, r2, #3
 633 0122 2D49     		ldr	r1, .L35+56
 634 0124 8A5C     		ldrb	r2, [r1, r2]
 635 0126 1A60     		str	r2, [r3]
 766:Generated_Source\PSoC4/CyLib.c ****                 CyDelayCycles(CY_SYS_CLK_IMO_FREQ_TIMEOUT_CYCLES);
 636              		.loc 1 766 0
 637 0128 0520     		movs	r0, #5
 638 012a FFF7FEFF 		bl	CyDelayCycles
 639              	.L32:
 767:Generated_Source\PSoC4/CyLib.c ****             }
 768:Generated_Source\PSoC4/CyLib.c **** 
 769:Generated_Source\PSoC4/CyLib.c ****             /* Set trims for the new IMO frequency */
 770:Generated_Source\PSoC4/CyLib.c **** 
 771:Generated_Source\PSoC4/CyLib.c ****             #if (CY_IP_IMO_TRIMMABLE_BY_USB)
 772:Generated_Source\PSoC4/CyLib.c ****                 if ((1u == usbLock) && (48u == freq))
 773:Generated_Source\PSoC4/CyLib.c ****                 {
 774:Generated_Source\PSoC4/CyLib.c ****                     imoTrim1Value = CY_SFLASH_IMO_TRIM_USBMODE_48_REG;
 775:Generated_Source\PSoC4/CyLib.c ****                 }
 776:Generated_Source\PSoC4/CyLib.c ****                 else if ((1u == usbLock) && (24u == freq))
 777:Generated_Source\PSoC4/CyLib.c ****                 {
 778:Generated_Source\PSoC4/CyLib.c ****                     imoTrim1Value = CY_SFLASH_IMO_TRIM_USBMODE_24_REG;
ARM GAS  C:\Users\PC\AppData\Local\Temp\ccW101Aa.s 			page 26


 779:Generated_Source\PSoC4/CyLib.c ****                 }
 780:Generated_Source\PSoC4/CyLib.c ****                 else
 781:Generated_Source\PSoC4/CyLib.c ****                 {
 782:Generated_Source\PSoC4/CyLib.c ****                     imoTrim1Value = (uint8) CY_SFLASH_IMO_TRIM_REG(freq - CY_SYS_CLK_IMO_FREQ_TABLE
 783:Generated_Source\PSoC4/CyLib.c ****                 }
 784:Generated_Source\PSoC4/CyLib.c ****             #else
 785:Generated_Source\PSoC4/CyLib.c ****                 imoTrim1Value = (uint8) CY_SFLASH_IMO_TRIM_REG(freq - CY_SYS_CLK_IMO_FREQ_TABLE_OFF
 640              		.loc 1 785 0
 641 012e 7B68     		ldr	r3, [r7, #4]
 642 0130 284A     		ldr	r2, .L35+52
 643 0132 9A18     		adds	r2, r3, r2
 644 0134 0A23     		movs	r3, #10
 645 0136 FB18     		adds	r3, r7, r3
 646 0138 1278     		ldrb	r2, [r2]
 647 013a 1A70     		strb	r2, [r3]
 786:Generated_Source\PSoC4/CyLib.c ****             #endif  /* (CY_IP_IMO_TRIMMABLE_BY_USB) */
 787:Generated_Source\PSoC4/CyLib.c **** 
 788:Generated_Source\PSoC4/CyLib.c **** 
 789:Generated_Source\PSoC4/CyLib.c ****             CY_SYS_CLK_IMO_TRIM1_REG = (uint32) imoTrim1Value;
 648              		.loc 1 789 0
 649 013c 284B     		ldr	r3, .L35+64
 650 013e 0A22     		movs	r2, #10
 651 0140 BA18     		adds	r2, r7, r2
 652 0142 1278     		ldrb	r2, [r2]
 653 0144 1A60     		str	r2, [r3]
 790:Generated_Source\PSoC4/CyLib.c ****             CY_PWR_BG_TRIM4_REG  = bgTrim4;
 654              		.loc 1 790 0
 655 0146 274B     		ldr	r3, .L35+68
 656 0148 0F22     		movs	r2, #15
 657 014a BA18     		adds	r2, r7, r2
 658 014c 1278     		ldrb	r2, [r2]
 659 014e 1A60     		str	r2, [r3]
 791:Generated_Source\PSoC4/CyLib.c ****             CY_PWR_BG_TRIM5_REG  = bgTrim5;
 660              		.loc 1 791 0
 661 0150 254B     		ldr	r3, .L35+72
 662 0152 0E22     		movs	r2, #14
 663 0154 BA18     		adds	r2, r7, r2
 664 0156 1278     		ldrb	r2, [r2]
 665 0158 1A60     		str	r2, [r3]
 792:Generated_Source\PSoC4/CyLib.c ****             CyDelayUs(CY_SYS_CLK_IMO_TRIM_TIMEOUT_US);
 666              		.loc 1 792 0
 667 015a 0520     		movs	r0, #5
 668 015c FFF7FEFF 		bl	CyDelayUs
 793:Generated_Source\PSoC4/CyLib.c **** 
 794:Generated_Source\PSoC4/CyLib.c ****             if (newImoTrim2Value > currentImoTrim2Value)
 669              		.loc 1 794 0
 670 0160 0B23     		movs	r3, #11
 671 0162 FA18     		adds	r2, r7, r3
 672 0164 0D23     		movs	r3, #13
 673 0166 FB18     		adds	r3, r7, r3
 674 0168 1278     		ldrb	r2, [r2]
 675 016a 1B78     		ldrb	r3, [r3]
 676 016c 9A42     		cmp	r2, r3
 677 016e 0CD9     		bls	.L34
 795:Generated_Source\PSoC4/CyLib.c ****             {
 796:Generated_Source\PSoC4/CyLib.c ****                 /* Set new IMO frequency */
 797:Generated_Source\PSoC4/CyLib.c ****                 CY_SYS_CLK_IMO_TRIM2_REG = cyImoFreqMhz2Reg[freq - CY_SYS_CLK_IMO_FREQ_TABLE_OFFSET
ARM GAS  C:\Users\PC\AppData\Local\Temp\ccW101Aa.s 			page 27


 678              		.loc 1 797 0
 679 0170 1A4B     		ldr	r3, .L35+60
 680 0172 7A68     		ldr	r2, [r7, #4]
 681 0174 033A     		subs	r2, r2, #3
 682 0176 1849     		ldr	r1, .L35+56
 683 0178 8A5C     		ldrb	r2, [r1, r2]
 684 017a 1A60     		str	r2, [r3]
 798:Generated_Source\PSoC4/CyLib.c ****                 CyDelayCycles(CY_SYS_CLK_IMO_FREQ_TIMEOUT_CYCLES);
 685              		.loc 1 798 0
 686 017c 0520     		movs	r0, #5
 687 017e FFF7FEFF 		bl	CyDelayCycles
 794:Generated_Source\PSoC4/CyLib.c ****             {
 688              		.loc 1 794 0
 689 0182 02E0     		b	.L34
 690              	.L24:
 799:Generated_Source\PSoC4/CyLib.c ****             }
 800:Generated_Source\PSoC4/CyLib.c ****         }
 801:Generated_Source\PSoC4/CyLib.c ****         else
 802:Generated_Source\PSoC4/CyLib.c ****         {
 803:Generated_Source\PSoC4/CyLib.c ****             /* Halt CPU in debug mode if new frequency is invalid */
 804:Generated_Source\PSoC4/CyLib.c ****             CYASSERT(0u != 0u);
 691              		.loc 1 804 0 discriminator 1
 692 0184 0020     		movs	r0, #0
 693 0186 FFF7FEFF 		bl	CyHalt
 694              	.L34:
 805:Generated_Source\PSoC4/CyLib.c ****         }
 806:Generated_Source\PSoC4/CyLib.c **** 
 807:Generated_Source\PSoC4/CyLib.c ****         #endif /* (CY_IP_FMLT) */
 808:Generated_Source\PSoC4/CyLib.c **** 
 809:Generated_Source\PSoC4/CyLib.c ****         #if (CY_IP_IMO_TRIMMABLE_BY_WCO)
 810:Generated_Source\PSoC4/CyLib.c ****             if (1u == wcoLock)
 811:Generated_Source\PSoC4/CyLib.c ****             {
 812:Generated_Source\PSoC4/CyLib.c ****                 CySysClkImoEnableWcoLock();
 813:Generated_Source\PSoC4/CyLib.c ****             }
 814:Generated_Source\PSoC4/CyLib.c ****         #endif  /* (CY_IP_IMO_TRIMMABLE_BY_WCO) */
 815:Generated_Source\PSoC4/CyLib.c **** 
 816:Generated_Source\PSoC4/CyLib.c ****         #if (CY_IP_IMO_TRIMMABLE_BY_USB)
 817:Generated_Source\PSoC4/CyLib.c ****             if (1u == usbLock)
 818:Generated_Source\PSoC4/CyLib.c ****             {
 819:Generated_Source\PSoC4/CyLib.c ****                 CySysClkImoEnableUsbLock();
 820:Generated_Source\PSoC4/CyLib.c ****             }
 821:Generated_Source\PSoC4/CyLib.c ****         #endif  /* (CY_IP_IMO_TRIMMABLE_BY_USB) */
 822:Generated_Source\PSoC4/CyLib.c **** 
 823:Generated_Source\PSoC4/CyLib.c ****         CyExitCriticalSection(interruptState);
 695              		.loc 1 823 0
 696 018a 0C23     		movs	r3, #12
 697 018c FB18     		adds	r3, r7, r3
 698 018e 1B78     		ldrb	r3, [r3]
 699 0190 1800     		movs	r0, r3
 700 0192 FFF7FEFF 		bl	CyExitCriticalSection
 824:Generated_Source\PSoC4/CyLib.c ****     }
 701              		.loc 1 824 0
 702 0196 C046     		nop
 703 0198 BD46     		mov	sp, r7
 704 019a 05B0     		add	sp, sp, #20
 705              		@ sp needed
 706 019c 90BD     		pop	{r4, r7, pc}
ARM GAS  C:\Users\PC\AppData\Local\Temp\ccW101Aa.s 			page 28


 707              	.L36:
 708 019e C046     		.align	2
 709              	.L35:
 710 01a0 40F3FF0F 		.word	268432192
 711 01a4 41F3FF0F 		.word	268432193
 712 01a8 42F3FF0F 		.word	268432194
 713 01ac 43F3FF0F 		.word	268432195
 714 01b0 44F3FF0F 		.word	268432196
 715 01b4 45F3FF0F 		.word	268432197
 716 01b8 46F3FF0F 		.word	268432198
 717 01bc 47F3FF0F 		.word	268432199
 718 01c0 48F3FF0F 		.word	268432200
 719 01c4 49F3FF0F 		.word	268432201
 720 01c8 4AF3FF0F 		.word	268432202
 721 01cc 4BF3FF0F 		.word	268432203
 722 01d0 4CF3FF0F 		.word	268432204
 723 01d4 4DF3FF0F 		.word	268432205
 724 01d8 00000000 		.word	cyImoFreqMhz2Reg
 725 01dc 2CFF0B40 		.word	1074528044
 726 01e0 28FF0B40 		.word	1074528040
 727 01e4 1CFF0B40 		.word	1074528028
 728 01e8 20FF0B40 		.word	1074528032
 729              		.cfi_endproc
 730              	.LFE8:
 731              		.size	CySysClkWriteImoFreq, .-CySysClkWriteImoFreq
 732              		.section	.text.CySysClkEcoStart,"ax",%progbits
 733              		.align	2
 734              		.global	CySysClkEcoStart
 735              		.code	16
 736              		.thumb_func
 737              		.type	CySysClkEcoStart, %function
 738              	CySysClkEcoStart:
 739              	.LFB9:
 825:Generated_Source\PSoC4/CyLib.c **** 
 826:Generated_Source\PSoC4/CyLib.c **** #else
 827:Generated_Source\PSoC4/CyLib.c **** 
 828:Generated_Source\PSoC4/CyLib.c ****     void CySysClkWriteImoFreq(uint32 freq)
 829:Generated_Source\PSoC4/CyLib.c ****     {
 830:Generated_Source\PSoC4/CyLib.c ****         uint8  interruptState;
 831:Generated_Source\PSoC4/CyLib.c ****         uint8  imoTrim1Value;
 832:Generated_Source\PSoC4/CyLib.c **** 
 833:Generated_Source\PSoC4/CyLib.c ****         #if (CY_IP_IMO_TRIMMABLE_BY_WCO)
 834:Generated_Source\PSoC4/CyLib.c ****             uint32 wcoLock = 0u;
 835:Generated_Source\PSoC4/CyLib.c ****         #endif  /* (CY_IP_IMO_TRIMMABLE_BY_WCO) */        
 836:Generated_Source\PSoC4/CyLib.c ****         
 837:Generated_Source\PSoC4/CyLib.c ****         #if (CY_IP_IMO_TRIMMABLE_BY_USB)
 838:Generated_Source\PSoC4/CyLib.c ****             uint32 usbLock = 0u;
 839:Generated_Source\PSoC4/CyLib.c ****         #endif  /* (CY_IP_IMO_TRIMMABLE_BY_USB) */
 840:Generated_Source\PSoC4/CyLib.c **** 
 841:Generated_Source\PSoC4/CyLib.c ****         #if (CY_PSOC4_4000)
 842:Generated_Source\PSoC4/CyLib.c ****             if ((freq == 24u) || (freq == 32u) || (freq == 48u))
 843:Generated_Source\PSoC4/CyLib.c ****         #elif (CY_CCG3)
 844:Generated_Source\PSoC4/CyLib.c ****             if ((freq == 24u) || (freq == 36u) || (freq == 48u))
 845:Generated_Source\PSoC4/CyLib.c ****         #else
 846:Generated_Source\PSoC4/CyLib.c ****             if ((freq == 24u) || (freq == 28u) || (freq == 32u) ||
 847:Generated_Source\PSoC4/CyLib.c ****                 (freq == 36u) || (freq == 40u) || (freq == 44u) ||
 848:Generated_Source\PSoC4/CyLib.c ****                 (freq == 48u))
ARM GAS  C:\Users\PC\AppData\Local\Temp\ccW101Aa.s 			page 29


 849:Generated_Source\PSoC4/CyLib.c ****         #endif /* (CY_PSOC4_4000) */
 850:Generated_Source\PSoC4/CyLib.c ****         {
 851:Generated_Source\PSoC4/CyLib.c ****             interruptState = CyEnterCriticalSection();
 852:Generated_Source\PSoC4/CyLib.c **** 
 853:Generated_Source\PSoC4/CyLib.c ****             #if (CY_IP_IMO_TRIMMABLE_BY_WCO)
 854:Generated_Source\PSoC4/CyLib.c ****                 if(0u != CySysClkImoGetWcoLock())
 855:Generated_Source\PSoC4/CyLib.c ****                 {
 856:Generated_Source\PSoC4/CyLib.c ****                     wcoLock = 1u;
 857:Generated_Source\PSoC4/CyLib.c ****                     CySysClkImoDisableWcoLock();
 858:Generated_Source\PSoC4/CyLib.c ****                 }
 859:Generated_Source\PSoC4/CyLib.c ****             #endif  /* (CY_IP_IMO_TRIMMABLE_BY_WCO) */
 860:Generated_Source\PSoC4/CyLib.c **** 
 861:Generated_Source\PSoC4/CyLib.c ****             #if (CY_IP_IMO_TRIMMABLE_BY_USB)
 862:Generated_Source\PSoC4/CyLib.c **** 
 863:Generated_Source\PSoC4/CyLib.c ****                 #if (CYDEV_IMO_TRIMMED_BY_USB == 0u)
 864:Generated_Source\PSoC4/CyLib.c ****                     if(0u != CySysClkImoGetUsbLock())
 865:Generated_Source\PSoC4/CyLib.c ****                     {
 866:Generated_Source\PSoC4/CyLib.c ****                 #endif  /* (CYDEV_IMO_TRIMMED_BY_USB == 0u) */
 867:Generated_Source\PSoC4/CyLib.c **** 
 868:Generated_Source\PSoC4/CyLib.c ****                     if (48u == freq)
 869:Generated_Source\PSoC4/CyLib.c ****                     {
 870:Generated_Source\PSoC4/CyLib.c ****                         usbLock = 1u;
 871:Generated_Source\PSoC4/CyLib.c ****                         CySysClkImoDisableUsbLock();
 872:Generated_Source\PSoC4/CyLib.c ****                     }
 873:Generated_Source\PSoC4/CyLib.c **** 
 874:Generated_Source\PSoC4/CyLib.c ****                 #if (CYDEV_IMO_TRIMMED_BY_USB == 0u)
 875:Generated_Source\PSoC4/CyLib.c ****                     }
 876:Generated_Source\PSoC4/CyLib.c ****                 #endif  /* (CYDEV_IMO_TRIMMED_BY_USB == 0u) */
 877:Generated_Source\PSoC4/CyLib.c **** 
 878:Generated_Source\PSoC4/CyLib.c ****             #endif  /* (CYDEV_IMO_TRIMMED_BY_USB == 0u) */
 879:Generated_Source\PSoC4/CyLib.c **** 
 880:Generated_Source\PSoC4/CyLib.c **** 
 881:Generated_Source\PSoC4/CyLib.c ****             /* Set IMO to 24 MHz - CLK_IMO_SELECT.FREQ = 0 */
 882:Generated_Source\PSoC4/CyLib.c ****             CY_SYS_CLK_IMO_SELECT_REG &= ((uint32) ~CY_SYS_CLK_IMO_SELECT_FREQ_MASK);
 883:Generated_Source\PSoC4/CyLib.c **** 
 884:Generated_Source\PSoC4/CyLib.c **** 
 885:Generated_Source\PSoC4/CyLib.c ****             /* Apply coarse trim */
 886:Generated_Source\PSoC4/CyLib.c ****             #if (CY_IP_IMO_TRIMMABLE_BY_USB)
 887:Generated_Source\PSoC4/CyLib.c ****                 if ((1u == usbLock) && (48u == freq))
 888:Generated_Source\PSoC4/CyLib.c ****                 {
 889:Generated_Source\PSoC4/CyLib.c ****                     imoTrim1Value = CY_SFLASH_IMO_TRIM_USBMODE_48_REG;
 890:Generated_Source\PSoC4/CyLib.c ****                 }
 891:Generated_Source\PSoC4/CyLib.c ****                 else if ((1u == usbLock) && (24u == freq))
 892:Generated_Source\PSoC4/CyLib.c ****                 {
 893:Generated_Source\PSoC4/CyLib.c ****                     imoTrim1Value = CY_SFLASH_IMO_TRIM_USBMODE_24_REG;
 894:Generated_Source\PSoC4/CyLib.c ****                 }
 895:Generated_Source\PSoC4/CyLib.c ****                 else
 896:Generated_Source\PSoC4/CyLib.c ****                 {
 897:Generated_Source\PSoC4/CyLib.c ****                     imoTrim1Value = (uint8) CY_SFLASH_IMO_TRIM_REG(freq - CY_SYS_CLK_IMO_MIN_FREQ_M
 898:Generated_Source\PSoC4/CyLib.c ****                 }
 899:Generated_Source\PSoC4/CyLib.c ****             #else
 900:Generated_Source\PSoC4/CyLib.c ****                 imoTrim1Value = (uint8) CY_SFLASH_IMO_TRIM_REG(freq - CY_SYS_CLK_IMO_MIN_FREQ_MHZ);
 901:Generated_Source\PSoC4/CyLib.c ****             #endif  /* (CY_IP_IMO_TRIMMABLE_BY_USB) */
 902:Generated_Source\PSoC4/CyLib.c ****             CY_SYS_CLK_IMO_TRIM1_REG = (uint32) imoTrim1Value;
 903:Generated_Source\PSoC4/CyLib.c **** 
 904:Generated_Source\PSoC4/CyLib.c ****             /* Zero out fine trim */
 905:Generated_Source\PSoC4/CyLib.c ****             CY_SYS_CLK_IMO_TRIM2_REG = CY_SYS_CLK_IMO_TRIM2_REG & ((uint32) ~CY_SYS_CLK_IMO_TRIM2_F
ARM GAS  C:\Users\PC\AppData\Local\Temp\ccW101Aa.s 			page 30


 906:Generated_Source\PSoC4/CyLib.c **** 
 907:Generated_Source\PSoC4/CyLib.c ****             /* Apply TC trim */
 908:Generated_Source\PSoC4/CyLib.c ****             CY_SYS_CLK_IMO_TRIM3_REG = (CY_SYS_CLK_IMO_TRIM3_REG & ((uint32) ~CY_SYS_CLK_IMO_TRIM3_
 909:Generated_Source\PSoC4/CyLib.c ****                 (CY_SFLASH_IMO_TCTRIM_REG(freq - CY_SYS_CLK_IMO_MIN_FREQ_MHZ) & CY_SYS_CLK_IMO_TRIM
 910:Generated_Source\PSoC4/CyLib.c **** 
 911:Generated_Source\PSoC4/CyLib.c ****             CyDelayCycles(CY_SYS_CLK_IMO_TRIM_DELAY_CYCLES);
 912:Generated_Source\PSoC4/CyLib.c **** 
 913:Generated_Source\PSoC4/CyLib.c ****             if (freq > CY_SYS_CLK_IMO_MIN_FREQ_MHZ)
 914:Generated_Source\PSoC4/CyLib.c ****             {
 915:Generated_Source\PSoC4/CyLib.c ****                 /* Select nearby intermediate frequency */
 916:Generated_Source\PSoC4/CyLib.c ****                 CY_SYS_CLK_IMO_SELECT_REG = (CY_SYS_CLK_IMO_SELECT_REG & ((uint32) ~CY_SYS_CLK_IMO_
 917:Generated_Source\PSoC4/CyLib.c ****                     (((freq - 4u - CY_SYS_CLK_IMO_MIN_FREQ_MHZ) >> 2u) & CY_SYS_CLK_IMO_SELECT_FREQ
 918:Generated_Source\PSoC4/CyLib.c **** 
 919:Generated_Source\PSoC4/CyLib.c ****                 CyDelayCycles(CY_SYS_CLK_IMO_TRIM_DELAY_CYCLES);
 920:Generated_Source\PSoC4/CyLib.c **** 
 921:Generated_Source\PSoC4/CyLib.c ****                 /* Make small step to final frequency */
 922:Generated_Source\PSoC4/CyLib.c ****                 /* Select nearby intermediate frequency */
 923:Generated_Source\PSoC4/CyLib.c ****                 CY_SYS_CLK_IMO_SELECT_REG = (CY_SYS_CLK_IMO_SELECT_REG & ((uint32) ~CY_SYS_CLK_IMO_
 924:Generated_Source\PSoC4/CyLib.c ****                     (((freq - CY_SYS_CLK_IMO_MIN_FREQ_MHZ) >> 2u) & CY_SYS_CLK_IMO_SELECT_FREQ_MASK
 925:Generated_Source\PSoC4/CyLib.c ****             }
 926:Generated_Source\PSoC4/CyLib.c **** 
 927:Generated_Source\PSoC4/CyLib.c ****             #if (CY_IP_IMO_TRIMMABLE_BY_WCO)
 928:Generated_Source\PSoC4/CyLib.c ****                 if (1u == wcoLock)
 929:Generated_Source\PSoC4/CyLib.c ****                 {
 930:Generated_Source\PSoC4/CyLib.c ****                     CySysClkImoEnableWcoLock();
 931:Generated_Source\PSoC4/CyLib.c ****                 }
 932:Generated_Source\PSoC4/CyLib.c ****             #endif  /* (CY_IP_IMO_TRIMMABLE_BY_WCO) */
 933:Generated_Source\PSoC4/CyLib.c ****         
 934:Generated_Source\PSoC4/CyLib.c ****         
 935:Generated_Source\PSoC4/CyLib.c ****             #if (CY_IP_IMO_TRIMMABLE_BY_USB)
 936:Generated_Source\PSoC4/CyLib.c ****                 if (1u == usbLock)
 937:Generated_Source\PSoC4/CyLib.c ****                 {
 938:Generated_Source\PSoC4/CyLib.c ****                     CySysClkImoEnableUsbLock();
 939:Generated_Source\PSoC4/CyLib.c ****                 }
 940:Generated_Source\PSoC4/CyLib.c ****             #endif  /* (CY_IP_IMO_TRIMMABLE_BY_USB) */
 941:Generated_Source\PSoC4/CyLib.c **** 
 942:Generated_Source\PSoC4/CyLib.c ****             CyExitCriticalSection(interruptState);
 943:Generated_Source\PSoC4/CyLib.c ****         }
 944:Generated_Source\PSoC4/CyLib.c ****         else
 945:Generated_Source\PSoC4/CyLib.c ****         {
 946:Generated_Source\PSoC4/CyLib.c ****             /* Halt CPU in debug mode if new frequency is invalid */
 947:Generated_Source\PSoC4/CyLib.c ****             CYASSERT(0u != 0u);
 948:Generated_Source\PSoC4/CyLib.c ****         }
 949:Generated_Source\PSoC4/CyLib.c ****     }
 950:Generated_Source\PSoC4/CyLib.c **** 
 951:Generated_Source\PSoC4/CyLib.c **** #endif /* (CY_IP_SRSSV2) */
 952:Generated_Source\PSoC4/CyLib.c **** 
 953:Generated_Source\PSoC4/CyLib.c **** 
 954:Generated_Source\PSoC4/CyLib.c **** #if(CY_IP_SRSSLT)
 955:Generated_Source\PSoC4/CyLib.c ****     /*******************************************************************************
 956:Generated_Source\PSoC4/CyLib.c ****     * Function Name: CySysClkWriteHfclkDiv
 957:Generated_Source\PSoC4/CyLib.c ****     ****************************************************************************//**
 958:Generated_Source\PSoC4/CyLib.c ****     *
 959:Generated_Source\PSoC4/CyLib.c ****     * Selects the pre-scaler divider value for HFCLK from IMO.
 960:Generated_Source\PSoC4/CyLib.c ****     *
 961:Generated_Source\PSoC4/CyLib.c ****     * The HFCLK predivider allows the device to divide the HFCLK selection mux
 962:Generated_Source\PSoC4/CyLib.c ****     * input before use as HFCLK. The predivider is capable of dividing the HFCLK by
ARM GAS  C:\Users\PC\AppData\Local\Temp\ccW101Aa.s 			page 31


 963:Generated_Source\PSoC4/CyLib.c ****     * powers of 2 between 1 and 8.
 964:Generated_Source\PSoC4/CyLib.c ****     *
 965:Generated_Source\PSoC4/CyLib.c ****     * PSoC 4000: The SYSCLK has the speed of 16 MHz, so HFCLK and SYSCLK dividers
 966:Generated_Source\PSoC4/CyLib.c ****     * should be selected in a way, not to exceed 16 MHz for SYSCLK.
 967:Generated_Source\PSoC4/CyLib.c ****     *
 968:Generated_Source\PSoC4/CyLib.c ****     * If the SYSCLK clock frequency increases during the device operation, call
 969:Generated_Source\PSoC4/CyLib.c ****     * \ref CySysFlashSetWaitCycles() with the appropriate parameter to adjust the
 970:Generated_Source\PSoC4/CyLib.c ****     * number of clock cycles the cache will wait before sampling data comes back
 971:Generated_Source\PSoC4/CyLib.c ****     * from Flash. If the SYSCLK clock frequency decreases, you can call
 972:Generated_Source\PSoC4/CyLib.c ****     * \ref CySysFlashSetWaitCycles() to improve the CPU performance. See
 973:Generated_Source\PSoC4/CyLib.c ****     * \ref CySysFlashSetWaitCycles() description for more information.
 974:Generated_Source\PSoC4/CyLib.c ****     *
 975:Generated_Source\PSoC4/CyLib.c ****     * \param \ref CY_SYS_CLK_HFCLK_DIV_NODIV    Transparent mode (w/o dividing)
 976:Generated_Source\PSoC4/CyLib.c ****     * \param \ref CY_SYS_CLK_HFCLK_DIV_2        Divide selected clock source by 2
 977:Generated_Source\PSoC4/CyLib.c ****     * \param \ref CY_SYS_CLK_HFCLK_DIV_4        Divide selected clock source by 4
 978:Generated_Source\PSoC4/CyLib.c ****     * \param \ref CY_SYS_CLK_HFCLK_DIV_8        Divide selected clock source by 8
 979:Generated_Source\PSoC4/CyLib.c ****     *
 980:Generated_Source\PSoC4/CyLib.c ****     *******************************************************************************/
 981:Generated_Source\PSoC4/CyLib.c ****     void CySysClkWriteHfclkDiv(uint32 divider)
 982:Generated_Source\PSoC4/CyLib.c ****     {
 983:Generated_Source\PSoC4/CyLib.c ****         uint8  interruptState;
 984:Generated_Source\PSoC4/CyLib.c **** 
 985:Generated_Source\PSoC4/CyLib.c ****         interruptState = CyEnterCriticalSection();
 986:Generated_Source\PSoC4/CyLib.c **** 
 987:Generated_Source\PSoC4/CyLib.c ****         CY_SYS_CLK_SELECT_REG = ((CY_SYS_CLK_SELECT_REG & ((uint32) (~(CY_SYS_CLK_SELECT_HFCLK_DIV_
 988:Generated_Source\PSoC4/CyLib.c ****                                         CY_SYS_CLK_SELECT_HFCLK_DIV_SHIFT)))) |
 989:Generated_Source\PSoC4/CyLib.c ****                     ((uint32)((divider & CY_SYS_CLK_SELECT_HFCLK_DIV_MASK) << CY_SYS_CLK_SELECT_HFC
 990:Generated_Source\PSoC4/CyLib.c **** 
 991:Generated_Source\PSoC4/CyLib.c ****         CyExitCriticalSection(interruptState);
 992:Generated_Source\PSoC4/CyLib.c ****     }
 993:Generated_Source\PSoC4/CyLib.c **** #endif /* (CY_IP_SRSSLT) */
 994:Generated_Source\PSoC4/CyLib.c **** 
 995:Generated_Source\PSoC4/CyLib.c **** 
 996:Generated_Source\PSoC4/CyLib.c **** #if (CY_IP_ECO)
 997:Generated_Source\PSoC4/CyLib.c **** 
 998:Generated_Source\PSoC4/CyLib.c ****     /*******************************************************************************
 999:Generated_Source\PSoC4/CyLib.c ****     * Function Name: CySysClkEcoStart
1000:Generated_Source\PSoC4/CyLib.c ****     ****************************************************************************//**
1001:Generated_Source\PSoC4/CyLib.c ****     *
1002:Generated_Source\PSoC4/CyLib.c ****     * Starts the External Crystal Oscillator (ECO). Refer to the device datasheet
1003:Generated_Source\PSoC4/CyLib.c ****     * for the ECO startup time.
1004:Generated_Source\PSoC4/CyLib.c ****     *
1005:Generated_Source\PSoC4/CyLib.c ****     * The timeout interval is measured based on the system frequency defined by
1006:Generated_Source\PSoC4/CyLib.c ****     * PSoC Creator at build time. If System clock frequency is changed in
1007:Generated_Source\PSoC4/CyLib.c ****     * runtime, the \ref CyDelayFreq() with the appropriate parameter should be
1008:Generated_Source\PSoC4/CyLib.c ****     * called.
1009:Generated_Source\PSoC4/CyLib.c ****     *
1010:Generated_Source\PSoC4/CyLib.c ****     * PSoC 4100 BLE / PSoC 4200 BLE: The WCO must be enabled prior to enabling ECO.
1011:Generated_Source\PSoC4/CyLib.c ****     *
1012:Generated_Source\PSoC4/CyLib.c ****     * \param timeoutUs Timeout in microseconds.
1013:Generated_Source\PSoC4/CyLib.c ****     *
1014:Generated_Source\PSoC4/CyLib.c ****     * If zero is specified, the function does not wait for timeout and returns
1015:Generated_Source\PSoC4/CyLib.c ****     * CYRET_SUCCESS. If non-zero is specified, the function waits for the timeout.
1016:Generated_Source\PSoC4/CyLib.c ****     *
1017:Generated_Source\PSoC4/CyLib.c ****     * \return \ref CYRET_SUCCESS Completed successfully. The ECO is oscillating and
1018:Generated_Source\PSoC4/CyLib.c ****     * amplitude reached 60% and it does not mean 24 MHz crystal is within 50 ppm.
1019:Generated_Source\PSoC4/CyLib.c ****     *
ARM GAS  C:\Users\PC\AppData\Local\Temp\ccW101Aa.s 			page 32


1020:Generated_Source\PSoC4/CyLib.c ****     * \return \ref CYRET_TIMEOUT Timeout occurred. If the crystal is not oscillating
1021:Generated_Source\PSoC4/CyLib.c ****     * or amplitude didn't reach 60% after specified amount of time, CYRET_TIMEOUT
1022:Generated_Source\PSoC4/CyLib.c ****     * is returned.
1023:Generated_Source\PSoC4/CyLib.c ****     *
1024:Generated_Source\PSoC4/CyLib.c ****     * \return \ref CYRET_BAD_PARAM One or more invalid parameters.
1025:Generated_Source\PSoC4/CyLib.c ****     *
1026:Generated_Source\PSoC4/CyLib.c ****     *******************************************************************************/
1027:Generated_Source\PSoC4/CyLib.c ****     cystatus CySysClkEcoStart(uint32 timeoutUs)
1028:Generated_Source\PSoC4/CyLib.c ****     {
 740              		.loc 1 1028 0
 741              		.cfi_startproc
 742              		@ args = 0, pretend = 0, frame = 16
 743              		@ frame_needed = 1, uses_anonymous_args = 0
 744 0000 80B5     		push	{r7, lr}
 745              		.cfi_def_cfa_offset 8
 746              		.cfi_offset 7, -8
 747              		.cfi_offset 14, -4
 748 0002 84B0     		sub	sp, sp, #16
 749              		.cfi_def_cfa_offset 24
 750 0004 00AF     		add	r7, sp, #0
 751              		.cfi_def_cfa_register 7
 752 0006 7860     		str	r0, [r7, #4]
1029:Generated_Source\PSoC4/CyLib.c ****         cystatus returnStatus = CYRET_SUCCESS;
 753              		.loc 1 1029 0
 754 0008 0023     		movs	r3, #0
 755 000a FB60     		str	r3, [r7, #12]
1030:Generated_Source\PSoC4/CyLib.c **** 
1031:Generated_Source\PSoC4/CyLib.c ****         #if (CY_IP_ECO_BLESS)
1032:Generated_Source\PSoC4/CyLib.c ****             /* Enable the RF oscillator band gap */
1033:Generated_Source\PSoC4/CyLib.c ****             CY_SYS_XTAL_BLESS_RF_CONFIG_REG |= CY_SYS_XTAL_BLESS_RF_CONFIG_RF_ENABLE;
 756              		.loc 1 1033 0
 757 000c 154B     		ldr	r3, .L43
 758 000e 154A     		ldr	r2, .L43
 759 0010 1268     		ldr	r2, [r2]
 760 0012 0121     		movs	r1, #1
 761 0014 0A43     		orrs	r2, r1
 762 0016 1A60     		str	r2, [r3]
1034:Generated_Source\PSoC4/CyLib.c **** 
1035:Generated_Source\PSoC4/CyLib.c ****             /* Update trimming register */
1036:Generated_Source\PSoC4/CyLib.c ****             CY_SYS_XTAL_BLERD_BB_XO_REG = CY_SYS_XTAL_BLERD_BB_XO_TRIM;
 763              		.loc 1 1036 0
 764 0018 134B     		ldr	r3, .L43+4
 765 001a 144A     		ldr	r2, .L43+8
 766 001c 1A60     		str	r2, [r3]
1037:Generated_Source\PSoC4/CyLib.c **** 
1038:Generated_Source\PSoC4/CyLib.c ****             /* Enable the Crystal */
1039:Generated_Source\PSoC4/CyLib.c ****             CY_SYS_XTAL_BLERD_DBUS_REG |= CY_SYS_XTAL_BLERD_DBUS_XTAL_ENABLE;
 767              		.loc 1 1039 0
 768 001e 144B     		ldr	r3, .L43+12
 769 0020 134A     		ldr	r2, .L43+12
 770 0022 1268     		ldr	r2, [r2]
 771 0024 8021     		movs	r1, #128
 772 0026 0902     		lsls	r1, r1, #8
 773 0028 0A43     		orrs	r2, r1
 774 002a 1A60     		str	r2, [r3]
1040:Generated_Source\PSoC4/CyLib.c ****         
1041:Generated_Source\PSoC4/CyLib.c ****         #elif (CY_IP_ECO_BLESSV3)
ARM GAS  C:\Users\PC\AppData\Local\Temp\ccW101Aa.s 			page 33


1042:Generated_Source\PSoC4/CyLib.c ****             uint32 regConfig;
1043:Generated_Source\PSoC4/CyLib.c ****             uint32 intrRegMaskStore = 0u;
1044:Generated_Source\PSoC4/CyLib.c ****             
1045:Generated_Source\PSoC4/CyLib.c ****             if (0u != (CY_SYS_BLESS_MT_CFG_REG & (CY_SYS_BLESS_MT_CFG_ENABLE_BLERD <<  CYFLD_BLE_BL
1046:Generated_Source\PSoC4/CyLib.c ****             {
1047:Generated_Source\PSoC4/CyLib.c ****                 CY_SYS_BLESS_MT_CFG_REG |= (CY_SYS_BLESS_MT_CFG_DPSLP_ECO_ON  <<  CYFLD_BLE_BLESS_D
1048:Generated_Source\PSoC4/CyLib.c ****             }
1049:Generated_Source\PSoC4/CyLib.c ****             else
1050:Generated_Source\PSoC4/CyLib.c ****             {
1051:Generated_Source\PSoC4/CyLib.c ****                 /* Init BLE core */
1052:Generated_Source\PSoC4/CyLib.c ****                 CY_SYS_BLESS_MT_DELAY_CFG_REG = CY_SYS_BLESS_MT_DELAY_CFG_INIT;
1053:Generated_Source\PSoC4/CyLib.c ****                 CY_SYS_BLESS_MT_DELAY_CFG2_REG = CY_SYS_BLESS_MT_DELAY_CFG2_INIT;
1054:Generated_Source\PSoC4/CyLib.c ****                 CY_SYS_BLESS_MT_DELAY_CFG3_REG = CY_SYS_BLESS_MT_DELAY_CFG3_INIT;
1055:Generated_Source\PSoC4/CyLib.c ****             
1056:Generated_Source\PSoC4/CyLib.c ****                 /* RCB init */
1057:Generated_Source\PSoC4/CyLib.c ****                 regConfig = CY_SYS_RCB_CTRL_REG;
1058:Generated_Source\PSoC4/CyLib.c ****                 regConfig &= CY_SYS_RCB_CTRL_CLEAR;
1059:Generated_Source\PSoC4/CyLib.c ****                 regConfig |= CY_SYS_RCB_CTRL_INIT;
1060:Generated_Source\PSoC4/CyLib.c ****                 CY_SYS_RCB_CTRL_REG = regConfig;
1061:Generated_Source\PSoC4/CyLib.c ****                 
1062:Generated_Source\PSoC4/CyLib.c ****                 intrRegMaskStore = CY_SYS_BLESS_INTR_MASK_REG;
1063:Generated_Source\PSoC4/CyLib.c ****                 if(0u != (CY_SYS_BLESS_BLERD_ACTIVE_INTR_MASK & intrRegMaskStore))
1064:Generated_Source\PSoC4/CyLib.c ****                 {
1065:Generated_Source\PSoC4/CyLib.c ****                     CY_SYS_BLESS_INTR_MASK_REG &= ~CY_SYS_BLESS_BLERD_ACTIVE_INTR_MASK;
1066:Generated_Source\PSoC4/CyLib.c ****                 }
1067:Generated_Source\PSoC4/CyLib.c ****                 
1068:Generated_Source\PSoC4/CyLib.c ****                 /* Enable BLE core */
1069:Generated_Source\PSoC4/CyLib.c ****                 regConfig = CY_SYS_BLESS_MT_CFG_REG;
1070:Generated_Source\PSoC4/CyLib.c ****                 regConfig &= CY_SYS_BLESS_MT_CFG_CLEAR;
1071:Generated_Source\PSoC4/CyLib.c ****                 regConfig |= CY_SYS_BLESS_MT_CFG_INIT;
1072:Generated_Source\PSoC4/CyLib.c ****                 CY_SYS_BLESS_MT_CFG_REG = regConfig;
1073:Generated_Source\PSoC4/CyLib.c **** 
1074:Generated_Source\PSoC4/CyLib.c ****                 while(0u == ((CY_SYS_BLESS_BLERD_ACTIVE_INTR_STAT & CY_SYS_BLESS_INTR_STAT_REG)))
1075:Generated_Source\PSoC4/CyLib.c ****                 {
1076:Generated_Source\PSoC4/CyLib.c ****                     /* Wait until BLERD55 moves to active state */
1077:Generated_Source\PSoC4/CyLib.c ****                 }
1078:Generated_Source\PSoC4/CyLib.c **** 
1079:Generated_Source\PSoC4/CyLib.c ****                 if(0u != (CY_SYS_BLESS_BLERD_ACTIVE_INTR_MASK & intrRegMaskStore))
1080:Generated_Source\PSoC4/CyLib.c ****                 {
1081:Generated_Source\PSoC4/CyLib.c ****                     CY_SYS_BLESS_INTR_MASK_REG |= CY_SYS_BLESS_BLERD_ACTIVE_INTR_MASK;
1082:Generated_Source\PSoC4/CyLib.c ****                 }
1083:Generated_Source\PSoC4/CyLib.c ****                 
1084:Generated_Source\PSoC4/CyLib.c ****                 /* Send write commands to RBUS */
1085:Generated_Source\PSoC4/CyLib.c ****                 CY_SYS_RCB_TX_FIFO_WR_REG = CY_SYS_RCB_RBUS_FREQ_NRST_SET;
1086:Generated_Source\PSoC4/CyLib.c ****                 CY_SYS_RCB_TX_FIFO_WR_REG = CY_SYS_RCB_RBUS_DIG_CLK_SET;
1087:Generated_Source\PSoC4/CyLib.c ****                 
1088:Generated_Source\PSoC4/CyLib.c ****                 #if (CY_SYS_BLE_CLK_ECO_FREQ_32MHZ == CYDEV_ECO_CLK_MHZ)
1089:Generated_Source\PSoC4/CyLib.c ****                     CY_SYS_RCB_TX_FIFO_WR_REG = CY_SYS_RCB_RBUS_FREQ_XTAL_DIV_SET;
1090:Generated_Source\PSoC4/CyLib.c ****                     CY_SYS_RCB_TX_FIFO_WR_REG = (CY_SYS_RCB_RBUS_RF_DCXO_CFG_SET | CY_SYS_RCB_RBUS_
1091:Generated_Source\PSoC4/CyLib.c ****                 #else
1092:Generated_Source\PSoC4/CyLib.c ****                     CY_SYS_RCB_TX_FIFO_WR_REG = CY_SYS_RCB_RBUS_FREQ_XTAL_NODIV_SET;
1093:Generated_Source\PSoC4/CyLib.c ****                 #endif
1094:Generated_Source\PSoC4/CyLib.c ****                 
1095:Generated_Source\PSoC4/CyLib.c ****                 intrRegMaskStore = CY_SYS_BLESS_INTR_MASK_REG;
1096:Generated_Source\PSoC4/CyLib.c ****                 if(0u != (CY_SYS_RCB_INTR_RCB_DONE & intrRegMaskStore))
1097:Generated_Source\PSoC4/CyLib.c ****                 {
1098:Generated_Source\PSoC4/CyLib.c ****                     CY_SYS_BLESS_INTR_MASK_REG &= ~(CY_SYS_RCB_INTR_RCB_DONE | CY_SYS_RCB_INTR_RCB_
ARM GAS  C:\Users\PC\AppData\Local\Temp\ccW101Aa.s 			page 34


1099:Generated_Source\PSoC4/CyLib.c ****                 }
1100:Generated_Source\PSoC4/CyLib.c ****                 
1101:Generated_Source\PSoC4/CyLib.c ****                 /* Send read commands to RBUS */
1102:Generated_Source\PSoC4/CyLib.c ****                 CY_SYS_RCB_TX_FIFO_WR_REG = (CY_SYS_RCB_RBUS_RD_CMD | 
1103:Generated_Source\PSoC4/CyLib.c ****                                             (CY_SYS_RCB_RBUS_RF_DCXO_CFG_SET & ~CY_SYS_RCB_RBUS_VAL
1104:Generated_Source\PSoC4/CyLib.c ****                                             
1105:Generated_Source\PSoC4/CyLib.c ****                 while (0u == (CY_SYS_RCB_INTR_RCB_RX_FIFO_NOT_EMPTY & CY_SYS_RCB_INTR_REG))
1106:Generated_Source\PSoC4/CyLib.c ****                 {
1107:Generated_Source\PSoC4/CyLib.c ****                     /* Wait until RX_FIFO_NOT_EMPTY state */
1108:Generated_Source\PSoC4/CyLib.c ****                 }
1109:Generated_Source\PSoC4/CyLib.c **** 
1110:Generated_Source\PSoC4/CyLib.c ****                 CY_SYS_RCB_INTR_REG |= CY_SYS_RCB_INTR_RCB_DONE;
1111:Generated_Source\PSoC4/CyLib.c ****                 
1112:Generated_Source\PSoC4/CyLib.c ****                 regConfig = CY_SYS_RCB_RX_FIFO_RD_REG & CY_SYS_RCB_RBUS_TRIM_MASK;
1113:Generated_Source\PSoC4/CyLib.c ****                 
1114:Generated_Source\PSoC4/CyLib.c ****                 /* Send write commands to RBUS */
1115:Generated_Source\PSoC4/CyLib.c ****                 CY_SYS_RCB_TX_FIFO_WR_REG = (CY_SYS_RCB_RBUS_RF_DCXO_CFG_SET | regConfig | CY_SYS_R
1116:Generated_Source\PSoC4/CyLib.c ****                 
1117:Generated_Source\PSoC4/CyLib.c ****                 while (0u == (CY_SYS_RCB_INTR_RCB_DONE & CY_SYS_RCB_INTR_REG))
1118:Generated_Source\PSoC4/CyLib.c ****                 {
1119:Generated_Source\PSoC4/CyLib.c ****                     /* Wait until RCB_DONE state */
1120:Generated_Source\PSoC4/CyLib.c ****                 }
1121:Generated_Source\PSoC4/CyLib.c ****                 
1122:Generated_Source\PSoC4/CyLib.c ****                 /* Clear Interrupt */
1123:Generated_Source\PSoC4/CyLib.c ****                 CY_SYS_RCB_INTR_REG = CY_SYS_RCB_INTR_CLEAR;
1124:Generated_Source\PSoC4/CyLib.c ****                 
1125:Generated_Source\PSoC4/CyLib.c ****                 if(0u != ((CY_SYS_RCB_INTR_RCB_DONE | CY_SYS_RCB_INTR_RCB_RX_FIFO_NOT_EMPTY) & intr
1126:Generated_Source\PSoC4/CyLib.c ****                 {
1127:Generated_Source\PSoC4/CyLib.c ****                     CY_SYS_BLESS_INTR_MASK_REG |= intrRegMaskStore;
1128:Generated_Source\PSoC4/CyLib.c ****                 }
1129:Generated_Source\PSoC4/CyLib.c ****                 
1130:Generated_Source\PSoC4/CyLib.c ****             }
1131:Generated_Source\PSoC4/CyLib.c ****         #else /* CY_IP_ECO_SRSSV2 */
1132:Generated_Source\PSoC4/CyLib.c ****             CY_SYS_CLK_ECO_CONFIG_REG |= CY_SYS_CLK_ECO_CONFIG_ENABLE;
1133:Generated_Source\PSoC4/CyLib.c ****             CyDelayUs(CY_SYS_CLK_ECO_CONFIG_CLK_EN_TIMEOUT_US);
1134:Generated_Source\PSoC4/CyLib.c ****             CY_SYS_CLK_ECO_CONFIG_REG |= CY_SYS_CLK_ECO_CONFIG_CLK_EN;
1135:Generated_Source\PSoC4/CyLib.c ****         #endif /* (CY_IP_ECO_BLESS) */
1136:Generated_Source\PSoC4/CyLib.c **** 
1137:Generated_Source\PSoC4/CyLib.c ****         if(timeoutUs > 0u)
 775              		.loc 1 1137 0
 776 002c 7B68     		ldr	r3, [r7, #4]
 777 002e 002B     		cmp	r3, #0
 778 0030 12D0     		beq	.L38
1138:Generated_Source\PSoC4/CyLib.c ****         {
1139:Generated_Source\PSoC4/CyLib.c ****             returnStatus = CYRET_TIMEOUT;
 779              		.loc 1 1139 0
 780 0032 1023     		movs	r3, #16
 781 0034 FB60     		str	r3, [r7, #12]
1140:Generated_Source\PSoC4/CyLib.c **** 
1141:Generated_Source\PSoC4/CyLib.c ****             for( ; timeoutUs > 0u; timeoutUs--)
 782              		.loc 1 1141 0
 783 0036 0CE0     		b	.L39
 784              	.L41:
1142:Generated_Source\PSoC4/CyLib.c ****             {
1143:Generated_Source\PSoC4/CyLib.c ****                 CyDelayUs(1u);
 785              		.loc 1 1143 0
 786 0038 0120     		movs	r0, #1
ARM GAS  C:\Users\PC\AppData\Local\Temp\ccW101Aa.s 			page 35


 787 003a FFF7FEFF 		bl	CyDelayUs
1144:Generated_Source\PSoC4/CyLib.c **** 
1145:Generated_Source\PSoC4/CyLib.c ****                 if(0u != CySysClkEcoReadStatus())
 788              		.loc 1 1145 0
 789 003e FFF7FEFF 		bl	CySysClkEcoReadStatus
 790 0042 031E     		subs	r3, r0, #0
 791 0044 02D0     		beq	.L40
1146:Generated_Source\PSoC4/CyLib.c ****                 {
1147:Generated_Source\PSoC4/CyLib.c ****                     returnStatus = CYRET_SUCCESS;
 792              		.loc 1 1147 0
 793 0046 0023     		movs	r3, #0
 794 0048 FB60     		str	r3, [r7, #12]
1148:Generated_Source\PSoC4/CyLib.c ****                     break;
 795              		.loc 1 1148 0
 796 004a 05E0     		b	.L38
 797              	.L40:
1141:Generated_Source\PSoC4/CyLib.c ****             {
 798              		.loc 1 1141 0
 799 004c 7B68     		ldr	r3, [r7, #4]
 800 004e 013B     		subs	r3, r3, #1
 801 0050 7B60     		str	r3, [r7, #4]
 802              	.L39:
1141:Generated_Source\PSoC4/CyLib.c ****             {
 803              		.loc 1 1141 0 is_stmt 0 discriminator 1
 804 0052 7B68     		ldr	r3, [r7, #4]
 805 0054 002B     		cmp	r3, #0
 806 0056 EFD1     		bne	.L41
 807              	.L38:
1149:Generated_Source\PSoC4/CyLib.c ****                 }
1150:Generated_Source\PSoC4/CyLib.c ****             }
1151:Generated_Source\PSoC4/CyLib.c **** 
1152:Generated_Source\PSoC4/CyLib.c ****         }
1153:Generated_Source\PSoC4/CyLib.c **** 
1154:Generated_Source\PSoC4/CyLib.c ****         return(returnStatus);
 808              		.loc 1 1154 0 is_stmt 1
 809 0058 FB68     		ldr	r3, [r7, #12]
1155:Generated_Source\PSoC4/CyLib.c ****     }
 810              		.loc 1 1155 0
 811 005a 1800     		movs	r0, r3
 812 005c BD46     		mov	sp, r7
 813 005e 04B0     		add	sp, sp, #16
 814              		@ sp needed
 815 0060 80BD     		pop	{r7, pc}
 816              	.L44:
 817 0062 C046     		.align	2
 818              	.L43:
 819 0064 60F02E40 		.word	1076818016
 820 0068 78002E40 		.word	1076756600
 821 006c 02200000 		.word	8194
 822 0070 10002E40 		.word	1076756496
 823              		.cfi_endproc
 824              	.LFE9:
 825              		.size	CySysClkEcoStart, .-CySysClkEcoStart
 826              		.section	.text.CySysClkEcoStop,"ax",%progbits
 827              		.align	2
 828              		.global	CySysClkEcoStop
 829              		.code	16
ARM GAS  C:\Users\PC\AppData\Local\Temp\ccW101Aa.s 			page 36


 830              		.thumb_func
 831              		.type	CySysClkEcoStop, %function
 832              	CySysClkEcoStop:
 833              	.LFB10:
1156:Generated_Source\PSoC4/CyLib.c **** 
1157:Generated_Source\PSoC4/CyLib.c **** 
1158:Generated_Source\PSoC4/CyLib.c ****     /*******************************************************************************
1159:Generated_Source\PSoC4/CyLib.c ****     * Function Name: CySysClkEcoStop
1160:Generated_Source\PSoC4/CyLib.c ****     ****************************************************************************//**
1161:Generated_Source\PSoC4/CyLib.c ****     *
1162:Generated_Source\PSoC4/CyLib.c ****     * Stops the megahertz crystal.
1163:Generated_Source\PSoC4/CyLib.c ****     *
1164:Generated_Source\PSoC4/CyLib.c ****     * If ECO is disabled when it is sourcing HFCLK, the CPU will halt. In addition,
1165:Generated_Source\PSoC4/CyLib.c ****     * for PSoC 4100 BLE / PSoC 4200 BLE devices, the BLE sub-system will stop
1166:Generated_Source\PSoC4/CyLib.c ****     * functioning.
1167:Generated_Source\PSoC4/CyLib.c ****     *
1168:Generated_Source\PSoC4/CyLib.c ****     *******************************************************************************/
1169:Generated_Source\PSoC4/CyLib.c ****     void CySysClkEcoStop(void)
1170:Generated_Source\PSoC4/CyLib.c ****     {
 834              		.loc 1 1170 0
 835              		.cfi_startproc
 836              		@ args = 0, pretend = 0, frame = 0
 837              		@ frame_needed = 1, uses_anonymous_args = 0
 838 0000 80B5     		push	{r7, lr}
 839              		.cfi_def_cfa_offset 8
 840              		.cfi_offset 7, -8
 841              		.cfi_offset 14, -4
 842 0002 00AF     		add	r7, sp, #0
 843              		.cfi_def_cfa_register 7
1171:Generated_Source\PSoC4/CyLib.c ****         #if (CY_IP_WCO_BLESS)
1172:Generated_Source\PSoC4/CyLib.c ****             /* Disable the RF oscillator band gap */
1173:Generated_Source\PSoC4/CyLib.c ****             CY_SYS_XTAL_BLESS_RF_CONFIG_REG &= (uint32) ~CY_SYS_XTAL_BLESS_RF_CONFIG_RF_ENABLE;
 844              		.loc 1 1173 0
 845 0004 074B     		ldr	r3, .L46
 846 0006 074A     		ldr	r2, .L46
 847 0008 1268     		ldr	r2, [r2]
 848 000a 0121     		movs	r1, #1
 849 000c 8A43     		bics	r2, r1
 850 000e 1A60     		str	r2, [r3]
1174:Generated_Source\PSoC4/CyLib.c **** 
1175:Generated_Source\PSoC4/CyLib.c ****             /* Disable the Crystal */
1176:Generated_Source\PSoC4/CyLib.c ****             CY_SYS_XTAL_BLERD_DBUS_REG &= (uint32) ~CY_SYS_XTAL_BLERD_DBUS_XTAL_ENABLE;
 851              		.loc 1 1176 0
 852 0010 054B     		ldr	r3, .L46+4
 853 0012 054A     		ldr	r2, .L46+4
 854 0014 1268     		ldr	r2, [r2]
 855 0016 0549     		ldr	r1, .L46+8
 856 0018 0A40     		ands	r2, r1
 857 001a 1A60     		str	r2, [r3]
1177:Generated_Source\PSoC4/CyLib.c ****         #elif (CY_IP_ECO_BLESSV3)
1178:Generated_Source\PSoC4/CyLib.c ****             CY_SYS_BLESS_MT_CFG_REG &= ~(CY_SYS_BLESS_MT_CFG_DPSLP_ECO_ON  <<  CYFLD_BLE_BLESS_DPSL
1179:Generated_Source\PSoC4/CyLib.c ****         #else
1180:Generated_Source\PSoC4/CyLib.c ****             CY_SYS_CLK_ECO_CONFIG_REG &= (uint32) ~(CY_SYS_CLK_ECO_CONFIG_ENABLE | CY_SYS_CLK_ECO_C
1181:Generated_Source\PSoC4/CyLib.c ****         #endif /* (CY_IP_WCO_BLESS) */
1182:Generated_Source\PSoC4/CyLib.c ****     }
 858              		.loc 1 1182 0
 859 001c C046     		nop
ARM GAS  C:\Users\PC\AppData\Local\Temp\ccW101Aa.s 			page 37


 860 001e BD46     		mov	sp, r7
 861              		@ sp needed
 862 0020 80BD     		pop	{r7, pc}
 863              	.L47:
 864 0022 C046     		.align	2
 865              	.L46:
 866 0024 60F02E40 		.word	1076818016
 867 0028 10002E40 		.word	1076756496
 868 002c FF7FFFFF 		.word	-32769
 869              		.cfi_endproc
 870              	.LFE10:
 871              		.size	CySysClkEcoStop, .-CySysClkEcoStop
 872              		.section	.text.CySysClkEcoReadStatus,"ax",%progbits
 873              		.align	2
 874              		.global	CySysClkEcoReadStatus
 875              		.code	16
 876              		.thumb_func
 877              		.type	CySysClkEcoReadStatus, %function
 878              	CySysClkEcoReadStatus:
 879              	.LFB11:
1183:Generated_Source\PSoC4/CyLib.c **** 
1184:Generated_Source\PSoC4/CyLib.c **** 
1185:Generated_Source\PSoC4/CyLib.c ****     /*******************************************************************************
1186:Generated_Source\PSoC4/CyLib.c ****     * Function Name: CySysClkEcoReadStatus
1187:Generated_Source\PSoC4/CyLib.c ****     ****************************************************************************//**
1188:Generated_Source\PSoC4/CyLib.c ****     *
1189:Generated_Source\PSoC4/CyLib.c ****     * Reads the status bit for the megahertz crystal.
1190:Generated_Source\PSoC4/CyLib.c ****     *
1191:Generated_Source\PSoC4/CyLib.c ****     * For PSoC 4100 BLE / PSoC 4200 BLE devices, the status bit is the
1192:Generated_Source\PSoC4/CyLib.c ****     * XO_AMP_DETECT bit in FSM register.
1193:Generated_Source\PSoC4/CyLib.c ****     *
1194:Generated_Source\PSoC4/CyLib.c ****     * For PSoC 4200L devices, the error status bit is the WATCHDOG_ERROR bit in
1195:Generated_Source\PSoC4/CyLib.c ****     * ECO_STATUS register.
1196:Generated_Source\PSoC4/CyLib.c ****     *
1197:Generated_Source\PSoC4/CyLib.c ****     * \return PSoC 4100 BLE/PSoC 4200 BLE: Non-zero indicates that ECO output
1198:Generated_Source\PSoC4/CyLib.c ****     * reached 50 ppm and is oscillating in valid range.
1199:Generated_Source\PSoC4/CyLib.c ****     *
1200:Generated_Source\PSoC4/CyLib.c ****     * \return PSoC 4200L: Non-zero indicates that ECO is running.
1201:Generated_Source\PSoC4/CyLib.c ****     *
1202:Generated_Source\PSoC4/CyLib.c ****     *******************************************************************************/
1203:Generated_Source\PSoC4/CyLib.c ****     uint32 CySysClkEcoReadStatus(void)
1204:Generated_Source\PSoC4/CyLib.c ****     {
 880              		.loc 1 1204 0
 881              		.cfi_startproc
 882              		@ args = 0, pretend = 0, frame = 8
 883              		@ frame_needed = 1, uses_anonymous_args = 0
 884 0000 80B5     		push	{r7, lr}
 885              		.cfi_def_cfa_offset 8
 886              		.cfi_offset 7, -8
 887              		.cfi_offset 14, -4
 888 0002 82B0     		sub	sp, sp, #8
 889              		.cfi_def_cfa_offset 16
 890 0004 00AF     		add	r7, sp, #0
 891              		.cfi_def_cfa_register 7
1205:Generated_Source\PSoC4/CyLib.c ****         uint32 returnValue;
1206:Generated_Source\PSoC4/CyLib.c **** 
1207:Generated_Source\PSoC4/CyLib.c ****         #if (CY_IP_WCO_BLESS)
ARM GAS  C:\Users\PC\AppData\Local\Temp\ccW101Aa.s 			page 38


1208:Generated_Source\PSoC4/CyLib.c ****             returnValue = CY_SYS_XTAL_BLERD_FSM_REG & CY_SYS_XTAL_BLERD_FSM_XO_AMP_DETECT;
 892              		.loc 1 1208 0
 893 0006 054B     		ldr	r3, .L50
 894 0008 1B68     		ldr	r3, [r3]
 895 000a 0122     		movs	r2, #1
 896 000c 1340     		ands	r3, r2
 897 000e 7B60     		str	r3, [r7, #4]
1209:Generated_Source\PSoC4/CyLib.c ****         #elif (CY_IP_ECO_BLESSV3)
1210:Generated_Source\PSoC4/CyLib.c ****             returnValue = (CY_SYS_BLESS_MT_STATUS_REG & CY_SYS_BLESS_MT_STATUS_CURR_STATE_MASK) >> 
1211:Generated_Source\PSoC4/CyLib.c **** 
1212:Generated_Source\PSoC4/CyLib.c ****             returnValue =  ((CY_SYS_BLESS_MT_STATUS_BLERD_IDLE == returnValue) || 
1213:Generated_Source\PSoC4/CyLib.c ****                             (CY_SYS_BLESS_MT_STATUS_SWITCH_EN  == returnValue) ||
1214:Generated_Source\PSoC4/CyLib.c ****                             (CY_SYS_BLESS_MT_STATUS_ACTIVE  ==  returnValue) ||
1215:Generated_Source\PSoC4/CyLib.c ****                             (CY_SYS_BLESS_MT_STATUS_ISOLATE == returnValue));
1216:Generated_Source\PSoC4/CyLib.c ****         #else
1217:Generated_Source\PSoC4/CyLib.c ****             returnValue = (0u != (CY_SYS_CLK_ECO_STATUS_REG & CY_SYS_CLK_ECO_STATUS_WATCHDOG_ERROR)
1218:Generated_Source\PSoC4/CyLib.c ****         #endif /* (CY_IP_WCO_BLESS) */
1219:Generated_Source\PSoC4/CyLib.c **** 
1220:Generated_Source\PSoC4/CyLib.c ****         return (returnValue);
 898              		.loc 1 1220 0
 899 0010 7B68     		ldr	r3, [r7, #4]
1221:Generated_Source\PSoC4/CyLib.c ****     }
 900              		.loc 1 1221 0
 901 0012 1800     		movs	r0, r3
 902 0014 BD46     		mov	sp, r7
 903 0016 02B0     		add	sp, sp, #8
 904              		@ sp needed
 905 0018 80BD     		pop	{r7, pc}
 906              	.L51:
 907 001a C046     		.align	2
 908              	.L50:
 909 001c 0C002E40 		.word	1076756492
 910              		.cfi_endproc
 911              	.LFE11:
 912              		.size	CySysClkEcoReadStatus, .-CySysClkEcoReadStatus
 913              		.section	.text.CySysClkWriteEcoDiv,"ax",%progbits
 914              		.align	2
 915              		.global	CySysClkWriteEcoDiv
 916              		.code	16
 917              		.thumb_func
 918              		.type	CySysClkWriteEcoDiv, %function
 919              	CySysClkWriteEcoDiv:
 920              	.LFB12:
1222:Generated_Source\PSoC4/CyLib.c **** 
1223:Generated_Source\PSoC4/CyLib.c ****     #if (CY_IP_ECO_BLESS || CY_IP_ECO_BLESSV3)
1224:Generated_Source\PSoC4/CyLib.c ****         /*******************************************************************************
1225:Generated_Source\PSoC4/CyLib.c ****         * Function Name: CySysClkWriteEcoDiv
1226:Generated_Source\PSoC4/CyLib.c ****         ****************************************************************************//**
1227:Generated_Source\PSoC4/CyLib.c ****         *
1228:Generated_Source\PSoC4/CyLib.c ****         * Selects value for the ECO divider.
1229:Generated_Source\PSoC4/CyLib.c ****         *
1230:Generated_Source\PSoC4/CyLib.c ****         * The ECO must not be the HFCLK clock source when this function is called.
1231:Generated_Source\PSoC4/CyLib.c ****         * The HFCLK source can be changed to the other clock source by call to the
1232:Generated_Source\PSoC4/CyLib.c ****         * CySysClkWriteHfclkDirect() function. If the ECO sources the HFCLK this
1233:Generated_Source\PSoC4/CyLib.c ****         * function will not have any effect if compiler in release mode, and halt the
1234:Generated_Source\PSoC4/CyLib.c ****         * CPU when compiler in debug mode.
1235:Generated_Source\PSoC4/CyLib.c ****         *
ARM GAS  C:\Users\PC\AppData\Local\Temp\ccW101Aa.s 			page 39


1236:Generated_Source\PSoC4/CyLib.c ****         * If the SYSCLK clock frequency increases during the device operation, call
1237:Generated_Source\PSoC4/CyLib.c ****         * CySysFlashSetWaitCycles() with the appropriate parameter to adjust the number
1238:Generated_Source\PSoC4/CyLib.c ****         * of clock cycles the cache will wait before sampling data comes back from
1239:Generated_Source\PSoC4/CyLib.c ****         * Flash. If the SYSCLK clock frequency decreases, you can call
1240:Generated_Source\PSoC4/CyLib.c ****         * CySysFlashSetWaitCycles() to improve the CPU performance. See
1241:Generated_Source\PSoC4/CyLib.c ****         * CySysFlashSetWaitCycles() description for more information.
1242:Generated_Source\PSoC4/CyLib.c ****         *
1243:Generated_Source\PSoC4/CyLib.c ****         * \param divider Power of 2 divider selection.
1244:Generated_Source\PSoC4/CyLib.c ****         * - \ref CY_SYS_CLK_ECO_DIV1
1245:Generated_Source\PSoC4/CyLib.c ****         * - \ref CY_SYS_CLK_ECO_DIV2
1246:Generated_Source\PSoC4/CyLib.c ****         * - \ref CY_SYS_CLK_ECO_DIV4
1247:Generated_Source\PSoC4/CyLib.c ****         * - \ref CY_SYS_CLK_ECO_DIV8
1248:Generated_Source\PSoC4/CyLib.c ****         *
1249:Generated_Source\PSoC4/CyLib.c ****         *******************************************************************************/
1250:Generated_Source\PSoC4/CyLib.c ****         void CySysClkWriteEcoDiv(uint32 divider)
1251:Generated_Source\PSoC4/CyLib.c ****         {
 921              		.loc 1 1251 0
 922              		.cfi_startproc
 923              		@ args = 0, pretend = 0, frame = 16
 924              		@ frame_needed = 1, uses_anonymous_args = 0
 925 0000 90B5     		push	{r4, r7, lr}
 926              		.cfi_def_cfa_offset 12
 927              		.cfi_offset 4, -12
 928              		.cfi_offset 7, -8
 929              		.cfi_offset 14, -4
 930 0002 85B0     		sub	sp, sp, #20
 931              		.cfi_def_cfa_offset 32
 932 0004 00AF     		add	r7, sp, #0
 933              		.cfi_def_cfa_register 7
 934 0006 7860     		str	r0, [r7, #4]
1252:Generated_Source\PSoC4/CyLib.c ****             uint8  interruptState;
1253:Generated_Source\PSoC4/CyLib.c **** 
1254:Generated_Source\PSoC4/CyLib.c ****             if (CY_SYS_CLK_HFCLK_ECO != (CY_SYS_CLK_SELECT_REG & CY_SYS_CLK_SELECT_DIRECT_SEL_MASK)
 935              		.loc 1 1254 0
 936 0008 114B     		ldr	r3, .L56
 937 000a 1B68     		ldr	r3, [r3]
 938 000c 0722     		movs	r2, #7
 939 000e 1340     		ands	r3, r2
 940 0010 022B     		cmp	r3, #2
 941 0012 16D0     		beq	.L53
1255:Generated_Source\PSoC4/CyLib.c ****             {
1256:Generated_Source\PSoC4/CyLib.c ****                 interruptState = CyEnterCriticalSection();
 942              		.loc 1 1256 0
 943 0014 0F23     		movs	r3, #15
 944 0016 FC18     		adds	r4, r7, r3
 945 0018 FFF7FEFF 		bl	CyEnterCriticalSection
 946 001c 0300     		movs	r3, r0
 947 001e 2370     		strb	r3, [r4]
1257:Generated_Source\PSoC4/CyLib.c **** 
1258:Generated_Source\PSoC4/CyLib.c ****                 CY_SYS_CLK_XTAL_CLK_DIV_CONFIG_REG =  (divider & CY_SYS_CLK_XTAL_CLK_DIV_MASK) |
 948              		.loc 1 1258 0
 949 0020 0C4B     		ldr	r3, .L56+4
 950 0022 7A68     		ldr	r2, [r7, #4]
 951 0024 0321     		movs	r1, #3
 952 0026 1140     		ands	r1, r2
1259:Generated_Source\PSoC4/CyLib.c ****                                                       (CY_SYS_CLK_XTAL_CLK_DIV_CONFIG_REG & ((uint3
 953              		.loc 1 1259 0
ARM GAS  C:\Users\PC\AppData\Local\Temp\ccW101Aa.s 			page 40


 954 0028 0A4A     		ldr	r2, .L56+4
 955 002a 1268     		ldr	r2, [r2]
 956 002c 0320     		movs	r0, #3
 957 002e 8243     		bics	r2, r0
1258:Generated_Source\PSoC4/CyLib.c ****                                                       (CY_SYS_CLK_XTAL_CLK_DIV_CONFIG_REG & ((uint3
 958              		.loc 1 1258 0
 959 0030 0A43     		orrs	r2, r1
 960 0032 1A60     		str	r2, [r3]
1260:Generated_Source\PSoC4/CyLib.c **** 
1261:Generated_Source\PSoC4/CyLib.c ****                 CyExitCriticalSection(interruptState);
 961              		.loc 1 1261 0
 962 0034 0F23     		movs	r3, #15
 963 0036 FB18     		adds	r3, r7, r3
 964 0038 1B78     		ldrb	r3, [r3]
 965 003a 1800     		movs	r0, r3
 966 003c FFF7FEFF 		bl	CyExitCriticalSection
1262:Generated_Source\PSoC4/CyLib.c ****             }
1263:Generated_Source\PSoC4/CyLib.c ****             else
1264:Generated_Source\PSoC4/CyLib.c ****             {
1265:Generated_Source\PSoC4/CyLib.c ****                 /* Halt CPU in debug mode if ECO sources HFCLK */
1266:Generated_Source\PSoC4/CyLib.c ****                 CYASSERT(0u != 0u);
1267:Generated_Source\PSoC4/CyLib.c ****             }
1268:Generated_Source\PSoC4/CyLib.c ****         }
 967              		.loc 1 1268 0
 968 0040 02E0     		b	.L55
 969              	.L53:
1266:Generated_Source\PSoC4/CyLib.c ****             }
 970              		.loc 1 1266 0 discriminator 1
 971 0042 0020     		movs	r0, #0
 972 0044 FFF7FEFF 		bl	CyHalt
 973              	.L55:
 974              		.loc 1 1268 0
 975 0048 C046     		nop
 976 004a BD46     		mov	sp, r7
 977 004c 05B0     		add	sp, sp, #20
 978              		@ sp needed
 979 004e 90BD     		pop	{r4, r7, pc}
 980              	.L57:
 981              		.align	2
 982              	.L56:
 983 0050 00010B40 		.word	1074462976
 984 0054 64F02E40 		.word	1076818020
 985              		.cfi_endproc
 986              	.LFE12:
 987              		.size	CySysClkWriteEcoDiv, .-CySysClkWriteEcoDiv
 988              		.section	.text.CySysLvdEnable,"ax",%progbits
 989              		.align	2
 990              		.global	CySysLvdEnable
 991              		.code	16
 992              		.thumb_func
 993              		.type	CySysLvdEnable, %function
 994              	CySysLvdEnable:
 995              	.LFB13:
1269:Generated_Source\PSoC4/CyLib.c **** 
1270:Generated_Source\PSoC4/CyLib.c ****     #else
1271:Generated_Source\PSoC4/CyLib.c **** 
1272:Generated_Source\PSoC4/CyLib.c ****         /*******************************************************************************
ARM GAS  C:\Users\PC\AppData\Local\Temp\ccW101Aa.s 			page 41


1273:Generated_Source\PSoC4/CyLib.c ****         * Function Name: CySysClkConfigureEcoTrim
1274:Generated_Source\PSoC4/CyLib.c ****         ****************************************************************************//**
1275:Generated_Source\PSoC4/CyLib.c ****         *
1276:Generated_Source\PSoC4/CyLib.c ****         * Selects trim setting values for ECO. This API is available only for PSoC
1277:Generated_Source\PSoC4/CyLib.c ****         * 4200L devices only.
1278:Generated_Source\PSoC4/CyLib.c ****         *
1279:Generated_Source\PSoC4/CyLib.c ****         * The following parameters can be trimmed for ECO. The affected registers are
1280:Generated_Source\PSoC4/CyLib.c ****         * ECO_TRIM0 and ECO_TRIM1.
1281:Generated_Source\PSoC4/CyLib.c ****         *
1282:Generated_Source\PSoC4/CyLib.c ****         * Watchdog trim - This bit field sets the error threshold below the steady
1283:Generated_Source\PSoC4/CyLib.c ****         * state amplitude level.
1284:Generated_Source\PSoC4/CyLib.c ****         *
1285:Generated_Source\PSoC4/CyLib.c ****         * Amplitude trim - This bit field is to set the crystal drive level when
1286:Generated_Source\PSoC4/CyLib.c ****         * ECO_CONFIG.AGC_EN = 1. WARNING: use care when setting this field because
1287:Generated_Source\PSoC4/CyLib.c ****         * driving a crystal beyond its rated limit can permanently damage the crystal.
1288:Generated_Source\PSoC4/CyLib.c ****         *
1289:Generated_Source\PSoC4/CyLib.c ****         * Filter frequency trim - This bit field sets LPF frequency trim and affects
1290:Generated_Source\PSoC4/CyLib.c ****         * the 3rd harmonic content.
1291:Generated_Source\PSoC4/CyLib.c ****         *
1292:Generated_Source\PSoC4/CyLib.c ****         * Feedback resistor trim - This bit field sets the feedback resistor trim and
1293:Generated_Source\PSoC4/CyLib.c ****         * impacts the oscillation amplitude.
1294:Generated_Source\PSoC4/CyLib.c ****         *
1295:Generated_Source\PSoC4/CyLib.c ****         * Amplifier gain trim - This bit field sets the amplifier gain trim and affects
1296:Generated_Source\PSoC4/CyLib.c ****         * the startup time of the crystal.
1297:Generated_Source\PSoC4/CyLib.c ****         *
1298:Generated_Source\PSoC4/CyLib.c ****         * Use care when setting the amplitude trim field because driving a crystal
1299:Generated_Source\PSoC4/CyLib.c ****         * beyond its rated limit can permanently damage the crystal.
1300:Generated_Source\PSoC4/CyLib.c ****         *
1301:Generated_Source\PSoC4/CyLib.c ****         * \param wDTrim: Watchdog trim
1302:Generated_Source\PSoC4/CyLib.c ****         * - \ref CY_SYS_CLK_ECO_WDTRIM0      Error threshold is 0.05 V
1303:Generated_Source\PSoC4/CyLib.c ****         * - \ref CY_SYS_CLK_ECO_WDTRIM1      Error threshold is 0.10 V
1304:Generated_Source\PSoC4/CyLib.c ****         * - \ref CY_SYS_CLK_ECO_WDTRIM2      Error threshold is 0.15 V
1305:Generated_Source\PSoC4/CyLib.c ****         * - \ref CY_SYS_CLK_ECO_WDTRIM3      Error threshold is 0.20 V
1306:Generated_Source\PSoC4/CyLib.c ****         *
1307:Generated_Source\PSoC4/CyLib.c ****         * \param aTrim: Amplitude trim
1308:Generated_Source\PSoC4/CyLib.c ****         * - \ref CY_SYS_CLK_ECO_ATRIM0       Amplitude is 0.3 Vpp
1309:Generated_Source\PSoC4/CyLib.c ****         * - \ref CY_SYS_CLK_ECO_ATRIM1       Amplitude is 0.4 Vpp
1310:Generated_Source\PSoC4/CyLib.c ****         * - \ref CY_SYS_CLK_ECO_ATRIM2       Amplitude is 0.5 Vpp
1311:Generated_Source\PSoC4/CyLib.c ****         * - \ref CY_SYS_CLK_ECO_ATRIM3       Amplitude is 0.6 Vpp
1312:Generated_Source\PSoC4/CyLib.c ****         * - \ref CY_SYS_CLK_ECO_ATRIM4       Amplitude is 0.7 Vpp
1313:Generated_Source\PSoC4/CyLib.c ****         * - \ref CY_SYS_CLK_ECO_ATRIM5       Amplitude is 0.8 Vpp
1314:Generated_Source\PSoC4/CyLib.c ****         * - \ref CY_SYS_CLK_ECO_ATRIM6       Amplitude is 0.9 Vpp
1315:Generated_Source\PSoC4/CyLib.c ****         * - \ref CY_SYS_CLK_ECO_ATRIM7       Amplitude is 1.0 Vpp
1316:Generated_Source\PSoC4/CyLib.c ****         *
1317:Generated_Source\PSoC4/CyLib.c ****         * \param fTrim: Filter frequency trim
1318:Generated_Source\PSoC4/CyLib.c ****         * - \ref CY_SYS_CLK_ECO_FTRIM0       Crystal frequency > 30 MHz
1319:Generated_Source\PSoC4/CyLib.c ****         * - \ref CY_SYS_CLK_ECO_FTRIM1       24 MHz < Crystal frequency <= 30 MHz
1320:Generated_Source\PSoC4/CyLib.c ****         * - \ref CY_SYS_CLK_ECO_FTRIM2       17 MHz < Crystal frequency <= 24 MHz
1321:Generated_Source\PSoC4/CyLib.c ****         * - \ref CY_SYS_CLK_ECO_FTRIM3       Crystal frequency <= 17 MHz
1322:Generated_Source\PSoC4/CyLib.c ****         *
1323:Generated_Source\PSoC4/CyLib.c ****         * \param rTrim: Feedback resistor trim
1324:Generated_Source\PSoC4/CyLib.c ****         * - \ref CY_SYS_CLK_ECO_RTRIM0       Crystal frequency > 30 MHz
1325:Generated_Source\PSoC4/CyLib.c ****         * - \ref CY_SYS_CLK_ECO_RTRIM1       24 MHz < Crystal frequency <= 30 MHz
1326:Generated_Source\PSoC4/CyLib.c ****         * - \ref CY_SYS_CLK_ECO_RTRIM2       17 MHz < Crystal frequency <= 24 MHz
1327:Generated_Source\PSoC4/CyLib.c ****         * - \ref CY_SYS_CLK_ECO_RTRIM3       Crystal frequency <= 17 MHz
1328:Generated_Source\PSoC4/CyLib.c ****         *
1329:Generated_Source\PSoC4/CyLib.c ****         * \param gTrim: Amplifier gain trim. Calculate the minimum required gm
ARM GAS  C:\Users\PC\AppData\Local\Temp\ccW101Aa.s 			page 42


1330:Generated_Source\PSoC4/CyLib.c ****         * (trans-conductance value). Divide the calculated gm value by 4.5 to
1331:Generated_Source\PSoC4/CyLib.c ****         * obtain an integer value 'result'. For more information please refer
1332:Generated_Source\PSoC4/CyLib.c ****         * to the device TRM.
1333:Generated_Source\PSoC4/CyLib.c ****         * - \ref CY_SYS_CLK_ECO_GTRIM0       If result = 1
1334:Generated_Source\PSoC4/CyLib.c ****         * - \ref CY_SYS_CLK_ECO_GTRIM1       If result = 0
1335:Generated_Source\PSoC4/CyLib.c ****         * - \ref CY_SYS_CLK_ECO_GTRIM2       If result = 2
1336:Generated_Source\PSoC4/CyLib.c ****         * - \ref CY_SYS_CLK_ECO_GTRIM2       If result = 3
1337:Generated_Source\PSoC4/CyLib.c ****         *
1338:Generated_Source\PSoC4/CyLib.c ****         *******************************************************************************/
1339:Generated_Source\PSoC4/CyLib.c ****         void CySysClkConfigureEcoTrim(uint32 wDTrim, uint32 aTrim, uint32 fTrim, uint32 rTrim, uint
1340:Generated_Source\PSoC4/CyLib.c ****         {
1341:Generated_Source\PSoC4/CyLib.c ****             uint8  interruptState;
1342:Generated_Source\PSoC4/CyLib.c ****             uint32 regTmp;
1343:Generated_Source\PSoC4/CyLib.c **** 
1344:Generated_Source\PSoC4/CyLib.c ****             interruptState = CyEnterCriticalSection();
1345:Generated_Source\PSoC4/CyLib.c **** 
1346:Generated_Source\PSoC4/CyLib.c ****             regTmp  = CY_SYS_CLK_ECO_TRIM0_REG & ~(CY_SYS_CLK_ECO_TRIM0_WDTRIM_MASK | CY_SYS_CLK_EC
1347:Generated_Source\PSoC4/CyLib.c ****             regTmp |= ((uint32) (wDTrim << CY_SYS_CLK_ECO_TRIM0_WDTRIM_SHIFT) & CY_SYS_CLK_ECO_TRIM
1348:Generated_Source\PSoC4/CyLib.c ****             regTmp |= ((uint32) (aTrim << CY_SYS_CLK_ECO_TRIM0_ATRIM_SHIFT) & CY_SYS_CLK_ECO_TRIM0_
1349:Generated_Source\PSoC4/CyLib.c ****             CY_SYS_CLK_ECO_TRIM0_REG = regTmp;
1350:Generated_Source\PSoC4/CyLib.c **** 
1351:Generated_Source\PSoC4/CyLib.c ****             regTmp  = CY_SYS_CLK_ECO_TRIM1_REG & ~(CY_SYS_CLK_ECO_TRIM1_FTRIM_MASK |
1352:Generated_Source\PSoC4/CyLib.c ****                                                    CY_SYS_CLK_ECO_TRIM1_RTRIM_MASK |
1353:Generated_Source\PSoC4/CyLib.c ****                                                    CY_SYS_CLK_ECO_TRIM1_GTRIM_MASK);
1354:Generated_Source\PSoC4/CyLib.c ****             regTmp |= ((uint32) (fTrim << CY_SYS_CLK_ECO_TRIM1_FTRIM_SHIFT) & CY_SYS_CLK_ECO_TRIM1_
1355:Generated_Source\PSoC4/CyLib.c ****             regTmp |= ((uint32) (rTrim << CY_SYS_CLK_ECO_TRIM1_RTRIM_SHIFT) & CY_SYS_CLK_ECO_TRIM1_
1356:Generated_Source\PSoC4/CyLib.c ****             regTmp |= ((uint32) (gTrim << CY_SYS_CLK_ECO_TRIM1_GTRIM_SHIFT) & CY_SYS_CLK_ECO_TRIM1_
1357:Generated_Source\PSoC4/CyLib.c **** 
1358:Generated_Source\PSoC4/CyLib.c ****             CY_SYS_CLK_ECO_TRIM1_REG = regTmp;
1359:Generated_Source\PSoC4/CyLib.c **** 
1360:Generated_Source\PSoC4/CyLib.c ****             CyExitCriticalSection(interruptState);
1361:Generated_Source\PSoC4/CyLib.c ****         }
1362:Generated_Source\PSoC4/CyLib.c **** 
1363:Generated_Source\PSoC4/CyLib.c **** 
1364:Generated_Source\PSoC4/CyLib.c ****         /*******************************************************************************
1365:Generated_Source\PSoC4/CyLib.c ****         * Function Name: CySysClkConfigureEcoDrive
1366:Generated_Source\PSoC4/CyLib.c ****         ****************************************************************************//**
1367:Generated_Source\PSoC4/CyLib.c ****         *
1368:Generated_Source\PSoC4/CyLib.c ****         * Selects trim setting values for ECO based on crystal parameters. Use care
1369:Generated_Source\PSoC4/CyLib.c ****         * when setting the driveLevel parameter because driving a crystal beyond its
1370:Generated_Source\PSoC4/CyLib.c ****         * rated limit can permanently damage the crystal.
1371:Generated_Source\PSoC4/CyLib.c ****         *
1372:Generated_Source\PSoC4/CyLib.c ****         * This API is available only for PSoC 4200L devices only.
1373:Generated_Source\PSoC4/CyLib.c ****         *
1374:Generated_Source\PSoC4/CyLib.c ****         * \param freq Frequency of the crystal in kHz.
1375:Generated_Source\PSoC4/CyLib.c ****         * \param cLoad Crystal load capacitance in pF.
1376:Generated_Source\PSoC4/CyLib.c ****         * \param esr Equivalent series resistance of the crystal in ohm.
1377:Generated_Source\PSoC4/CyLib.c ****         *  maxAmplitude: maximum amplitude level in mV. Calculate as
1378:Generated_Source\PSoC4/CyLib.c ****         *  ((sqrt(driveLevel in uW / 2 / esr))/(3.14 * freq * cLoad)) * 10^9.
1379:Generated_Source\PSoC4/CyLib.c ****         *
1380:Generated_Source\PSoC4/CyLib.c ****         *  The Automatic Gain Control (AGC) is disabled when the specified maximum
1381:Generated_Source\PSoC4/CyLib.c ****         *  amplitude level equals or above 2. In this case the amplitude is not
1382:Generated_Source\PSoC4/CyLib.c ****         *  explicitly controlled and will grow until it saturates to the supply rail
1383:Generated_Source\PSoC4/CyLib.c ****         *  (1.8V nom). WARNING: use care when disabling AGC because driving a crystal
1384:Generated_Source\PSoC4/CyLib.c ****         *  beyond its rated limit can permanently damage the crystal.
1385:Generated_Source\PSoC4/CyLib.c ****         *
1386:Generated_Source\PSoC4/CyLib.c ****         * \return \ref CYRET_SUCCESS ECO configuration completed successfully.
ARM GAS  C:\Users\PC\AppData\Local\Temp\ccW101Aa.s 			page 43


1387:Generated_Source\PSoC4/CyLib.c ****         * \return \ref CYRET_BAD_PARAM One or more invalid parameters.
1388:Generated_Source\PSoC4/CyLib.c ****         *
1389:Generated_Source\PSoC4/CyLib.c ****         *******************************************************************************/
1390:Generated_Source\PSoC4/CyLib.c ****         cystatus CySysClkConfigureEcoDrive(uint32 freq, uint32 cLoad, uint32 esr, uint32 maxAmplitu
1391:Generated_Source\PSoC4/CyLib.c ****         {
1392:Generated_Source\PSoC4/CyLib.c ****             cystatus returnStatus = CYRET_SUCCESS;
1393:Generated_Source\PSoC4/CyLib.c **** 
1394:Generated_Source\PSoC4/CyLib.c ****             uint32 wDTrim;
1395:Generated_Source\PSoC4/CyLib.c ****             uint32 aTrim;
1396:Generated_Source\PSoC4/CyLib.c ****             uint32 fTrim;
1397:Generated_Source\PSoC4/CyLib.c ****             uint32 rTrim;
1398:Generated_Source\PSoC4/CyLib.c ****             uint32 gTrim;
1399:Generated_Source\PSoC4/CyLib.c **** 
1400:Generated_Source\PSoC4/CyLib.c ****             uint32 gmMin;
1401:Generated_Source\PSoC4/CyLib.c **** 
1402:Generated_Source\PSoC4/CyLib.c **** 
1403:Generated_Source\PSoC4/CyLib.c ****             if ((maxAmplitude < CY_SYS_CLK_ECO_MAX_AMPL_MIN_mV) ||
1404:Generated_Source\PSoC4/CyLib.c ****                 (freq < CY_SYS_CLK_ECO_FREQ_KHZ_MIN) || (freq > CY_SYS_CLK_ECO_FREQ_KHZ_MAX))
1405:Generated_Source\PSoC4/CyLib.c ****             {
1406:Generated_Source\PSoC4/CyLib.c ****                 returnStatus = CYRET_BAD_PARAM;
1407:Generated_Source\PSoC4/CyLib.c ****             }
1408:Generated_Source\PSoC4/CyLib.c ****             else
1409:Generated_Source\PSoC4/CyLib.c ****             {
1410:Generated_Source\PSoC4/CyLib.c ****                 /* Calculate amplitude trim */
1411:Generated_Source\PSoC4/CyLib.c ****                 aTrim = (maxAmplitude < CY_SYS_CLK_ECO_TRIM_BOUNDARY) ? ((maxAmplitude/100u) - 4u) 
1412:Generated_Source\PSoC4/CyLib.c **** 
1413:Generated_Source\PSoC4/CyLib.c ****                 if (maxAmplitude < CY_SYS_CLK_ECO_AMPL_FOR_ATRIM0)
1414:Generated_Source\PSoC4/CyLib.c ****                 {
1415:Generated_Source\PSoC4/CyLib.c ****                     aTrim = CY_SYS_CLK_ECO_ATRIM0;
1416:Generated_Source\PSoC4/CyLib.c ****                 }
1417:Generated_Source\PSoC4/CyLib.c ****                 else if (maxAmplitude < CY_SYS_CLK_ECO_AMPL_FOR_ATRIM1)
1418:Generated_Source\PSoC4/CyLib.c ****                 {
1419:Generated_Source\PSoC4/CyLib.c ****                     aTrim = CY_SYS_CLK_ECO_ATRIM1;
1420:Generated_Source\PSoC4/CyLib.c ****                 }
1421:Generated_Source\PSoC4/CyLib.c ****                 else if (maxAmplitude < CY_SYS_CLK_ECO_AMPL_FOR_ATRIM2)
1422:Generated_Source\PSoC4/CyLib.c ****                 {
1423:Generated_Source\PSoC4/CyLib.c ****                     aTrim = CY_SYS_CLK_ECO_ATRIM2;
1424:Generated_Source\PSoC4/CyLib.c ****                 }
1425:Generated_Source\PSoC4/CyLib.c ****                 else if (maxAmplitude < CY_SYS_CLK_ECO_AMPL_FOR_ATRIM3)
1426:Generated_Source\PSoC4/CyLib.c ****                 {
1427:Generated_Source\PSoC4/CyLib.c ****                     aTrim = CY_SYS_CLK_ECO_ATRIM3;
1428:Generated_Source\PSoC4/CyLib.c ****                 }
1429:Generated_Source\PSoC4/CyLib.c ****                 else if (maxAmplitude < CY_SYS_CLK_ECO_AMPL_FOR_ATRIM4)
1430:Generated_Source\PSoC4/CyLib.c ****                 {
1431:Generated_Source\PSoC4/CyLib.c ****                     aTrim = CY_SYS_CLK_ECO_ATRIM4;
1432:Generated_Source\PSoC4/CyLib.c ****                 }
1433:Generated_Source\PSoC4/CyLib.c ****                 else if (maxAmplitude < CY_SYS_CLK_ECO_AMPL_FOR_ATRIM5)
1434:Generated_Source\PSoC4/CyLib.c ****                 {
1435:Generated_Source\PSoC4/CyLib.c ****                     aTrim = CY_SYS_CLK_ECO_ATRIM5;
1436:Generated_Source\PSoC4/CyLib.c ****                 }
1437:Generated_Source\PSoC4/CyLib.c ****                 else if (maxAmplitude < CY_SYS_CLK_ECO_AMPL_FOR_ATRIM6)
1438:Generated_Source\PSoC4/CyLib.c ****                 {
1439:Generated_Source\PSoC4/CyLib.c ****                     aTrim = CY_SYS_CLK_ECO_ATRIM6;
1440:Generated_Source\PSoC4/CyLib.c ****                 }
1441:Generated_Source\PSoC4/CyLib.c ****                 else
1442:Generated_Source\PSoC4/CyLib.c ****                 {
1443:Generated_Source\PSoC4/CyLib.c ****                     aTrim = CY_SYS_CLK_ECO_ATRIM7;
ARM GAS  C:\Users\PC\AppData\Local\Temp\ccW101Aa.s 			page 44


1444:Generated_Source\PSoC4/CyLib.c ****                 }
1445:Generated_Source\PSoC4/CyLib.c **** 
1446:Generated_Source\PSoC4/CyLib.c ****                 /* Calculate Watchdog trim. */
1447:Generated_Source\PSoC4/CyLib.c ****                 wDTrim = (maxAmplitude < CY_SYS_CLK_ECO_TRIM_BOUNDARY) ? ((maxAmplitude/200u) - 2u)
1448:Generated_Source\PSoC4/CyLib.c **** 
1449:Generated_Source\PSoC4/CyLib.c ****                 /* Calculate amplifier gain trim. */
1450:Generated_Source\PSoC4/CyLib.c ****                 gmMin = (uint32) (((((CY_SYS_CLK_ECO_GMMIN_COEFFICIENT * freq * cLoad) / 1000) * ((
1451:Generated_Source\PSoC4/CyLib.c ****                 if (gmMin > 3u)
1452:Generated_Source\PSoC4/CyLib.c ****                 {
1453:Generated_Source\PSoC4/CyLib.c ****                     returnStatus = CYRET_BAD_PARAM;
1454:Generated_Source\PSoC4/CyLib.c ****                     gTrim = 0u;
1455:Generated_Source\PSoC4/CyLib.c ****                 }
1456:Generated_Source\PSoC4/CyLib.c ****                 else if (gmMin > 1u)
1457:Generated_Source\PSoC4/CyLib.c ****                 {
1458:Generated_Source\PSoC4/CyLib.c ****                     gTrim = gmMin;
1459:Generated_Source\PSoC4/CyLib.c ****                 }
1460:Generated_Source\PSoC4/CyLib.c ****                 else
1461:Generated_Source\PSoC4/CyLib.c ****                 {
1462:Generated_Source\PSoC4/CyLib.c ****                     gTrim = (gmMin == 1u) ? 0u : 1u;
1463:Generated_Source\PSoC4/CyLib.c ****                 }
1464:Generated_Source\PSoC4/CyLib.c **** 
1465:Generated_Source\PSoC4/CyLib.c ****                 /* Calculate feedback resistor trim */
1466:Generated_Source\PSoC4/CyLib.c ****                 if (freq > CY_SYS_CLK_ECO_FREQ_FOR_FTRIM0)
1467:Generated_Source\PSoC4/CyLib.c ****                 {
1468:Generated_Source\PSoC4/CyLib.c ****                     rTrim = CY_SYS_CLK_ECO_FTRIM0;
1469:Generated_Source\PSoC4/CyLib.c ****                 }
1470:Generated_Source\PSoC4/CyLib.c ****                 else if (freq > CY_SYS_CLK_ECO_FREQ_FOR_FTRIM1)
1471:Generated_Source\PSoC4/CyLib.c ****                 {
1472:Generated_Source\PSoC4/CyLib.c ****                     rTrim = CY_SYS_CLK_ECO_FTRIM1;
1473:Generated_Source\PSoC4/CyLib.c ****                 }
1474:Generated_Source\PSoC4/CyLib.c ****                 else if (freq > CY_SYS_CLK_ECO_FREQ_FOR_FTRIM2)
1475:Generated_Source\PSoC4/CyLib.c ****                 {
1476:Generated_Source\PSoC4/CyLib.c ****                     rTrim = CY_SYS_CLK_ECO_FTRIM2;
1477:Generated_Source\PSoC4/CyLib.c ****                 }
1478:Generated_Source\PSoC4/CyLib.c ****                 else
1479:Generated_Source\PSoC4/CyLib.c ****                 {
1480:Generated_Source\PSoC4/CyLib.c ****                     rTrim = CY_SYS_CLK_ECO_FTRIM3;
1481:Generated_Source\PSoC4/CyLib.c ****                 }
1482:Generated_Source\PSoC4/CyLib.c **** 
1483:Generated_Source\PSoC4/CyLib.c ****                 /* Calculate filter frequency trim */
1484:Generated_Source\PSoC4/CyLib.c ****                 fTrim = rTrim;
1485:Generated_Source\PSoC4/CyLib.c **** 
1486:Generated_Source\PSoC4/CyLib.c ****                 CySysClkConfigureEcoTrim(wDTrim, aTrim, fTrim, rTrim, gTrim);
1487:Generated_Source\PSoC4/CyLib.c **** 
1488:Generated_Source\PSoC4/CyLib.c ****                 /* Automatic Gain Control (AGC) enable */
1489:Generated_Source\PSoC4/CyLib.c ****                 if (maxAmplitude < 2u)
1490:Generated_Source\PSoC4/CyLib.c ****                 {
1491:Generated_Source\PSoC4/CyLib.c ****                     /* The oscillation amplitude is controlled to the level selected by amplitude t
1492:Generated_Source\PSoC4/CyLib.c ****                     CY_SYS_CLK_ECO_CONFIG_REG |= CY_SYS_CLK_ECO_CONFIG_AGC_EN;
1493:Generated_Source\PSoC4/CyLib.c ****                 }
1494:Generated_Source\PSoC4/CyLib.c ****                 else
1495:Generated_Source\PSoC4/CyLib.c ****                 {
1496:Generated_Source\PSoC4/CyLib.c ****                     /* The amplitude is not explicitly controlled and will grow until it saturates 
1497:Generated_Source\PSoC4/CyLib.c ****                     * supply rail (1.8V nom).
1498:Generated_Source\PSoC4/CyLib.c ****                     */
1499:Generated_Source\PSoC4/CyLib.c ****                     CY_SYS_CLK_ECO_CONFIG_REG &= (uint32) ~CY_SYS_CLK_ECO_CONFIG_AGC_EN;
1500:Generated_Source\PSoC4/CyLib.c ****                 }
ARM GAS  C:\Users\PC\AppData\Local\Temp\ccW101Aa.s 			page 45


1501:Generated_Source\PSoC4/CyLib.c ****             }
1502:Generated_Source\PSoC4/CyLib.c **** 
1503:Generated_Source\PSoC4/CyLib.c ****             return (returnStatus);
1504:Generated_Source\PSoC4/CyLib.c ****         }
1505:Generated_Source\PSoC4/CyLib.c **** 
1506:Generated_Source\PSoC4/CyLib.c ****     #endif /* CY_IP_ECO_BLESS */
1507:Generated_Source\PSoC4/CyLib.c **** 
1508:Generated_Source\PSoC4/CyLib.c **** #endif /* (CY_IP_ECO) */
1509:Generated_Source\PSoC4/CyLib.c **** 
1510:Generated_Source\PSoC4/CyLib.c **** 
1511:Generated_Source\PSoC4/CyLib.c **** #if (CY_IP_SRSSV2 && CY_IP_PLL)
1512:Generated_Source\PSoC4/CyLib.c ****     /*******************************************************************************
1513:Generated_Source\PSoC4/CyLib.c ****     * Function Name: CySysClkPllStart
1514:Generated_Source\PSoC4/CyLib.c ****     ****************************************************************************//**
1515:Generated_Source\PSoC4/CyLib.c ****     *
1516:Generated_Source\PSoC4/CyLib.c ****     * Enables the PLL. Optionally waits for it to become stable. Waits at least
1517:Generated_Source\PSoC4/CyLib.c ****     * 250 us or until it is detected that the PLL is stable.
1518:Generated_Source\PSoC4/CyLib.c ****     *
1519:Generated_Source\PSoC4/CyLib.c ****     * Clears the unlock occurred status bit by calling CySysClkPllGetUnlockStatus(),
1520:Generated_Source\PSoC4/CyLib.c ****     * once the PLL is locked if the wait parameter is 1).
1521:Generated_Source\PSoC4/CyLib.c ****     *
1522:Generated_Source\PSoC4/CyLib.c ****     * This API is available only for PSoC 4200L devices.
1523:Generated_Source\PSoC4/CyLib.c ****     *
1524:Generated_Source\PSoC4/CyLib.c ****     * \param PLL:
1525:Generated_Source\PSoC4/CyLib.c ****     * 0   PLL#0
1526:Generated_Source\PSoC4/CyLib.c ****     * 1   PLL#1
1527:Generated_Source\PSoC4/CyLib.c ****     *
1528:Generated_Source\PSoC4/CyLib.c ****     * \param wait:
1529:Generated_Source\PSoC4/CyLib.c ****     * 0 - Return immediately after configuration.
1530:Generated_Source\PSoC4/CyLib.c ****     * 1 - Wait for PLL lock or timeout. This API shall use the CyDelayUs() to
1531:Generated_Source\PSoC4/CyLib.c ****     * implement the timeout feature.
1532:Generated_Source\PSoC4/CyLib.c ****     *
1533:Generated_Source\PSoC4/CyLib.c ****     * \return CYRET_SUCCESS Completed successfully.
1534:Generated_Source\PSoC4/CyLib.c ****     * \return CYRET_TIMEOUT The timeout occurred without detecting a stable clock.
1535:Generated_Source\PSoC4/CyLib.c ****     * If the input source of the clock is jittery, then the lock indication may
1536:Generated_Source\PSoC4/CyLib.c ****     * not occur. However, after the timeout has expired, the generated PLL clock can
1537:Generated_Source\PSoC4/CyLib.c ****     * still be used.
1538:Generated_Source\PSoC4/CyLib.c ****     * \return CYRET_BAD_PARAM - Either the PLL or wait parameter is invalid.
1539:Generated_Source\PSoC4/CyLib.c ****     *
1540:Generated_Source\PSoC4/CyLib.c ****     *******************************************************************************/
1541:Generated_Source\PSoC4/CyLib.c ****     cystatus CySysClkPllStart(uint32 pll, uint32 wait)
1542:Generated_Source\PSoC4/CyLib.c ****     {
1543:Generated_Source\PSoC4/CyLib.c ****         uint32 counts = CY_SYS_CLK_PLL_MAX_STARTUP_US;
1544:Generated_Source\PSoC4/CyLib.c ****         uint8  interruptState;
1545:Generated_Source\PSoC4/CyLib.c ****         cystatus returnStatus = CYRET_SUCCESS;
1546:Generated_Source\PSoC4/CyLib.c **** 
1547:Generated_Source\PSoC4/CyLib.c ****         if((pll < CY_IP_PLL_NR) && (wait <= 1u))
1548:Generated_Source\PSoC4/CyLib.c ****         {
1549:Generated_Source\PSoC4/CyLib.c ****             interruptState = CyEnterCriticalSection();
1550:Generated_Source\PSoC4/CyLib.c **** 
1551:Generated_Source\PSoC4/CyLib.c ****             /* Isolate PLL outputs */
1552:Generated_Source\PSoC4/CyLib.c ****             CY_SYS_CLK_PLL_BASE.pll[pll].config &= (uint32) ~CY_SYS_CLK_PLL_CONFIG_ISOLATE;
1553:Generated_Source\PSoC4/CyLib.c **** 
1554:Generated_Source\PSoC4/CyLib.c ****             /* Enable PLL */
1555:Generated_Source\PSoC4/CyLib.c ****             CY_SYS_CLK_PLL_BASE.pll[pll].config |= CY_SYS_CLK_PLL_CONFIG_ENABLE;
1556:Generated_Source\PSoC4/CyLib.c **** 
1557:Generated_Source\PSoC4/CyLib.c ****             CyExitCriticalSection(interruptState);
ARM GAS  C:\Users\PC\AppData\Local\Temp\ccW101Aa.s 			page 46


1558:Generated_Source\PSoC4/CyLib.c **** 
1559:Generated_Source\PSoC4/CyLib.c ****             /* De-isolate >= CY_SYS_CLK_PLL_MIN_STARTUP_US after PLL enabled */
1560:Generated_Source\PSoC4/CyLib.c ****             CyDelayUs(CY_SYS_CLK_PLL_MIN_STARTUP_US);
1561:Generated_Source\PSoC4/CyLib.c ****             interruptState = CyEnterCriticalSection();
1562:Generated_Source\PSoC4/CyLib.c ****             CY_SYS_CLK_PLL_BASE.pll[pll].config |= CY_SYS_CLK_PLL_CONFIG_ISOLATE;
1563:Generated_Source\PSoC4/CyLib.c ****             CyExitCriticalSection(interruptState);
1564:Generated_Source\PSoC4/CyLib.c **** 
1565:Generated_Source\PSoC4/CyLib.c ****             if(wait != 0u)
1566:Generated_Source\PSoC4/CyLib.c ****             {
1567:Generated_Source\PSoC4/CyLib.c ****                 returnStatus = CYRET_TIMEOUT;
1568:Generated_Source\PSoC4/CyLib.c **** 
1569:Generated_Source\PSoC4/CyLib.c ****                 while(0u != counts)
1570:Generated_Source\PSoC4/CyLib.c ****                 {
1571:Generated_Source\PSoC4/CyLib.c **** 
1572:Generated_Source\PSoC4/CyLib.c ****                     if(0u != CySysClkPllGetLockStatus(pll))
1573:Generated_Source\PSoC4/CyLib.c ****                     {
1574:Generated_Source\PSoC4/CyLib.c ****                         returnStatus = CYRET_SUCCESS;
1575:Generated_Source\PSoC4/CyLib.c ****                         (void) CySysClkPllGetUnlockStatus(pll);
1576:Generated_Source\PSoC4/CyLib.c ****                         break;
1577:Generated_Source\PSoC4/CyLib.c ****                     }
1578:Generated_Source\PSoC4/CyLib.c **** 
1579:Generated_Source\PSoC4/CyLib.c ****                     CyDelayUs(1u);
1580:Generated_Source\PSoC4/CyLib.c ****                     counts--;
1581:Generated_Source\PSoC4/CyLib.c ****                 }
1582:Generated_Source\PSoC4/CyLib.c ****             }
1583:Generated_Source\PSoC4/CyLib.c ****         }
1584:Generated_Source\PSoC4/CyLib.c ****         else
1585:Generated_Source\PSoC4/CyLib.c ****         {
1586:Generated_Source\PSoC4/CyLib.c ****             returnStatus = CYRET_BAD_PARAM;
1587:Generated_Source\PSoC4/CyLib.c ****         }
1588:Generated_Source\PSoC4/CyLib.c **** 
1589:Generated_Source\PSoC4/CyLib.c ****         return (returnStatus);
1590:Generated_Source\PSoC4/CyLib.c ****     }
1591:Generated_Source\PSoC4/CyLib.c **** 
1592:Generated_Source\PSoC4/CyLib.c **** 
1593:Generated_Source\PSoC4/CyLib.c ****     /*******************************************************************************
1594:Generated_Source\PSoC4/CyLib.c ****     * Function Name: CySysClkPllGetLockStatus
1595:Generated_Source\PSoC4/CyLib.c ****     ****************************************************************************//**
1596:Generated_Source\PSoC4/CyLib.c ****     *
1597:Generated_Source\PSoC4/CyLib.c ****     * Returns non-zero if the output of the specified PLL output is locked.
1598:Generated_Source\PSoC4/CyLib.c ****     *
1599:Generated_Source\PSoC4/CyLib.c ****     * This API is available only for PSoC 4200L devices.
1600:Generated_Source\PSoC4/CyLib.c ****     *
1601:Generated_Source\PSoC4/CyLib.c ****     * PLL:
1602:Generated_Source\PSoC4/CyLib.c ****     *  0   PLL#0
1603:Generated_Source\PSoC4/CyLib.c ****     *  1   PLL#1
1604:Generated_Source\PSoC4/CyLib.c ****     *
1605:Generated_Source\PSoC4/CyLib.c ****     * \return A non-zero value when the specified PLL is locked.
1606:Generated_Source\PSoC4/CyLib.c ****     *
1607:Generated_Source\PSoC4/CyLib.c ****     *******************************************************************************/
1608:Generated_Source\PSoC4/CyLib.c ****     uint32 CySysClkPllGetLockStatus(uint32 pll)
1609:Generated_Source\PSoC4/CyLib.c ****     {
1610:Generated_Source\PSoC4/CyLib.c ****         uint8  interruptState;
1611:Generated_Source\PSoC4/CyLib.c ****         uint32 returnStatus;
1612:Generated_Source\PSoC4/CyLib.c **** 
1613:Generated_Source\PSoC4/CyLib.c ****         CYASSERT(pll < CY_IP_PLL_NR);
1614:Generated_Source\PSoC4/CyLib.c **** 
ARM GAS  C:\Users\PC\AppData\Local\Temp\ccW101Aa.s 			page 47


1615:Generated_Source\PSoC4/CyLib.c ****         interruptState = CyEnterCriticalSection();
1616:Generated_Source\PSoC4/CyLib.c **** 
1617:Generated_Source\PSoC4/CyLib.c ****         /* PLL is locked if reported so for two consecutive read. */
1618:Generated_Source\PSoC4/CyLib.c ****         returnStatus = CY_SYS_CLK_PLL_BASE.pll[pll].status & CY_SYS_CLK_PLL_STATUS_LOCKED;
1619:Generated_Source\PSoC4/CyLib.c ****         if(0u != returnStatus)
1620:Generated_Source\PSoC4/CyLib.c ****         {
1621:Generated_Source\PSoC4/CyLib.c ****             returnStatus = CY_SYS_CLK_PLL_BASE.pll[pll].status & CY_SYS_CLK_PLL_STATUS_LOCKED;
1622:Generated_Source\PSoC4/CyLib.c ****         }
1623:Generated_Source\PSoC4/CyLib.c **** 
1624:Generated_Source\PSoC4/CyLib.c ****         CyExitCriticalSection(interruptState);
1625:Generated_Source\PSoC4/CyLib.c **** 
1626:Generated_Source\PSoC4/CyLib.c ****         return (returnStatus);
1627:Generated_Source\PSoC4/CyLib.c ****     }
1628:Generated_Source\PSoC4/CyLib.c **** 
1629:Generated_Source\PSoC4/CyLib.c ****     /*******************************************************************************
1630:Generated_Source\PSoC4/CyLib.c ****     * Function Name: CySysClkPllStop
1631:Generated_Source\PSoC4/CyLib.c ****     ****************************************************************************//**
1632:Generated_Source\PSoC4/CyLib.c ****     *
1633:Generated_Source\PSoC4/CyLib.c ****     * Disables the PLL.
1634:Generated_Source\PSoC4/CyLib.c ****     *
1635:Generated_Source\PSoC4/CyLib.c ****     * Ensures that either PLL is not the source of HFCLK before it is disabled,
1636:Generated_Source\PSoC4/CyLib.c ****     * otherwise, the CPU will halt.
1637:Generated_Source\PSoC4/CyLib.c ****     *
1638:Generated_Source\PSoC4/CyLib.c ****     * This API is available only for PSoC 4200L devices.
1639:Generated_Source\PSoC4/CyLib.c ****     *
1640:Generated_Source\PSoC4/CyLib.c ****     * PLL:
1641:Generated_Source\PSoC4/CyLib.c ****     *  0   PLL#0
1642:Generated_Source\PSoC4/CyLib.c ****     *  1   PLL#1
1643:Generated_Source\PSoC4/CyLib.c ****     *
1644:Generated_Source\PSoC4/CyLib.c ****     *******************************************************************************/
1645:Generated_Source\PSoC4/CyLib.c ****     void CySysClkPllStop(uint32 pll)
1646:Generated_Source\PSoC4/CyLib.c ****     {
1647:Generated_Source\PSoC4/CyLib.c ****         uint8  interruptState;
1648:Generated_Source\PSoC4/CyLib.c **** 
1649:Generated_Source\PSoC4/CyLib.c ****         if (pll < CY_IP_PLL_NR)
1650:Generated_Source\PSoC4/CyLib.c ****         {
1651:Generated_Source\PSoC4/CyLib.c ****             interruptState = CyEnterCriticalSection();
1652:Generated_Source\PSoC4/CyLib.c ****             CY_SYS_CLK_PLL_BASE.pll[pll].config &= (uint32) ~(CY_SYS_CLK_PLL_CONFIG_ISOLATE | CY_SY
1653:Generated_Source\PSoC4/CyLib.c ****             CyExitCriticalSection(interruptState);
1654:Generated_Source\PSoC4/CyLib.c ****         }
1655:Generated_Source\PSoC4/CyLib.c ****     }
1656:Generated_Source\PSoC4/CyLib.c **** 
1657:Generated_Source\PSoC4/CyLib.c **** 
1658:Generated_Source\PSoC4/CyLib.c ****     /*******************************************************************************
1659:Generated_Source\PSoC4/CyLib.c ****     * Function Name: CySysClkPllSetPQ
1660:Generated_Source\PSoC4/CyLib.c ****     ****************************************************************************//**
1661:Generated_Source\PSoC4/CyLib.c ****     *
1662:Generated_Source\PSoC4/CyLib.c ****     * Sets feedback (P) and reference the (Q) divider value. This API also sets the
1663:Generated_Source\PSoC4/CyLib.c ****     * programmable charge pump current value. Note that the PLL has to be disabled
1664:Generated_Source\PSoC4/CyLib.c ****     * before calling this API. If this function is called while any PLL is sourcing,
1665:Generated_Source\PSoC4/CyLib.c ****     * the SYSCLK will return an error.
1666:Generated_Source\PSoC4/CyLib.c ****     *
1667:Generated_Source\PSoC4/CyLib.c ****     * The PLL must not be the system clock source when calling this function. The
1668:Generated_Source\PSoC4/CyLib.c ****     * PLL output will glitch during this function call.
1669:Generated_Source\PSoC4/CyLib.c ****     *
1670:Generated_Source\PSoC4/CyLib.c ****     * This API is available only for PSoC 4200L devices.
1671:Generated_Source\PSoC4/CyLib.c ****     *
ARM GAS  C:\Users\PC\AppData\Local\Temp\ccW101Aa.s 			page 48


1672:Generated_Source\PSoC4/CyLib.c ****     * \param PLL:
1673:Generated_Source\PSoC4/CyLib.c ****     *  0   PLL#0
1674:Generated_Source\PSoC4/CyLib.c ****     *  1   PLL#1
1675:Generated_Source\PSoC4/CyLib.c ****     *
1676:Generated_Source\PSoC4/CyLib.c ****     * \param feedback The P divider. Range 4 - 259. Control bits for the feedback
1677:Generated_Source\PSoC4/CyLib.c ****     * divider.
1678:Generated_Source\PSoC4/CyLib.c ****     *
1679:Generated_Source\PSoC4/CyLib.c ****     * \param reference The Q divider. Range 1 - 64. Divide by the reference.
1680:Generated_Source\PSoC4/CyLib.c ****     *
1681:Generated_Source\PSoC4/CyLib.c ****     * \param current Charge the pump current in uA. The 2 uA for output frequencies
1682:Generated_Source\PSoC4/CyLib.c ****     * of 67 MHz or less, and 3 uA for higher output frequencies. The default
1683:Generated_Source\PSoC4/CyLib.c ****     * value is 2 uA.
1684:Generated_Source\PSoC4/CyLib.c ****     *
1685:Generated_Source\PSoC4/CyLib.c ****     * \return CYRET_SUCCESS Completed successfully.
1686:Generated_Source\PSoC4/CyLib.c ****     * \return CYRET_BAD_PARAM The parameters are out of range or the specified PLL
1687:Generated_Source\PSoC4/CyLib.c ****     * sources the system clock.
1688:Generated_Source\PSoC4/CyLib.c ****     *
1689:Generated_Source\PSoC4/CyLib.c ****     *******************************************************************************/
1690:Generated_Source\PSoC4/CyLib.c ****     cystatus CySysClkPllSetPQ(uint32 pll, uint32 feedback, uint32 reference, uint32 current)
1691:Generated_Source\PSoC4/CyLib.c ****     {
1692:Generated_Source\PSoC4/CyLib.c ****         uint32   regTmp;
1693:Generated_Source\PSoC4/CyLib.c ****         cystatus tmp;
1694:Generated_Source\PSoC4/CyLib.c ****         uint8    interruptState;
1695:Generated_Source\PSoC4/CyLib.c ****         cystatus returnStatus = CYRET_BAD_PARAM;
1696:Generated_Source\PSoC4/CyLib.c **** 
1697:Generated_Source\PSoC4/CyLib.c ****         interruptState = CyEnterCriticalSection();
1698:Generated_Source\PSoC4/CyLib.c **** 
1699:Generated_Source\PSoC4/CyLib.c ****         tmp = CySysClkPllConfigChangeAllowed(pll);
1700:Generated_Source\PSoC4/CyLib.c **** 
1701:Generated_Source\PSoC4/CyLib.c ****         if ((pll < CY_IP_PLL_NR) &&
1702:Generated_Source\PSoC4/CyLib.c ****             (feedback  >= CY_SYS_CLK_PLL_CONFIG_FEEDBACK_DIV_MIN)  && (feedback  <= CY_SYS_CLK_PLL_
1703:Generated_Source\PSoC4/CyLib.c ****             (reference >= CY_SYS_CLK_PLL_CONFIG_REFERENCE_DIV_MIN) && (reference <= CY_SYS_CLK_PLL_
1704:Generated_Source\PSoC4/CyLib.c ****             (current   >= CY_SYS_CLK_PLL_CONFIG_ICP_SEL_MIN )      && (current   <= CY_SYS_CLK_PLL_
1705:Generated_Source\PSoC4/CyLib.c ****             (CYRET_SUCCESS == tmp))
1706:Generated_Source\PSoC4/CyLib.c ****         {
1707:Generated_Source\PSoC4/CyLib.c ****             /* Set new feedback, reference and current values */
1708:Generated_Source\PSoC4/CyLib.c ****             regTmp  = CY_SYS_CLK_PLL_BASE.pll[pll].config & (uint32) ~(CY_SYS_CLK_PLL_CONFIG_FEEDBA
1709:Generated_Source\PSoC4/CyLib.c ****                                                                        CY_SYS_CLK_PLL_CONFIG_REFERE
1710:Generated_Source\PSoC4/CyLib.c ****                                                                        CY_SYS_CLK_PLL_CONFIG_ICP_SE
1711:Generated_Source\PSoC4/CyLib.c **** 
1712:Generated_Source\PSoC4/CyLib.c ****             regTmp |= ((feedback << CY_SYS_CLK_PLL_CONFIG_FEEDBACK_DIV_SHIFT) & CY_SYS_CLK_PLL_CONF
1713:Generated_Source\PSoC4/CyLib.c ****             regTmp |= (((reference - 1u) << CY_SYS_CLK_PLL_CONFIG_REFERENCE_DIV_SHIFT) & CY_SYS_CLK
1714:Generated_Source\PSoC4/CyLib.c ****             regTmp |= ((current << CY_SYS_CLK_PLL_CONFIG_ICP_SEL_SHIFT) & CY_SYS_CLK_PLL_CONFIG_ICP
1715:Generated_Source\PSoC4/CyLib.c **** 
1716:Generated_Source\PSoC4/CyLib.c ****             CY_SYS_CLK_PLL_BASE.pll[pll].config = regTmp;
1717:Generated_Source\PSoC4/CyLib.c **** 
1718:Generated_Source\PSoC4/CyLib.c ****             returnStatus = CYRET_SUCCESS;
1719:Generated_Source\PSoC4/CyLib.c ****         }
1720:Generated_Source\PSoC4/CyLib.c **** 
1721:Generated_Source\PSoC4/CyLib.c ****         CyExitCriticalSection(interruptState);
1722:Generated_Source\PSoC4/CyLib.c **** 
1723:Generated_Source\PSoC4/CyLib.c ****         return (returnStatus);
1724:Generated_Source\PSoC4/CyLib.c ****     }
1725:Generated_Source\PSoC4/CyLib.c **** 
1726:Generated_Source\PSoC4/CyLib.c **** 
1727:Generated_Source\PSoC4/CyLib.c ****     /*******************************************************************************
1728:Generated_Source\PSoC4/CyLib.c ****     * Function Name: CySysClkPllSetBypassMode
ARM GAS  C:\Users\PC\AppData\Local\Temp\ccW101Aa.s 			page 49


1729:Generated_Source\PSoC4/CyLib.c ****     ****************************************************************************//**
1730:Generated_Source\PSoC4/CyLib.c ****     *
1731:Generated_Source\PSoC4/CyLib.c ****     * Sets the bypass mode for the specified PLL.
1732:Generated_Source\PSoC4/CyLib.c ****     *
1733:Generated_Source\PSoC4/CyLib.c ****     * The PLL must not be the system clock source when calling this function.
1734:Generated_Source\PSoC4/CyLib.c ****     * The PLL output will glitch during this function call.
1735:Generated_Source\PSoC4/CyLib.c ****     *
1736:Generated_Source\PSoC4/CyLib.c ****     * When the PLL's reference input is higher than HFCLK frequency the device may 
1737:Generated_Source\PSoC4/CyLib.c ****     * lock due to incorrect flash wait cycle configuration and bypass switches from 
1738:Generated_Source\PSoC4/CyLib.c ****     * PLL output to the reference input. See description of 
1739:Generated_Source\PSoC4/CyLib.c ****     * CySysFlashSetWaitCycles() for more information.
1740:Generated_Source\PSoC4/CyLib.c ****     *
1741:Generated_Source\PSoC4/CyLib.c ****     * This API is available only for PSoC 4200L devices.
1742:Generated_Source\PSoC4/CyLib.c ****     *
1743:Generated_Source\PSoC4/CyLib.c ****     * \param PLL:
1744:Generated_Source\PSoC4/CyLib.c ****     *  0   PLL#0
1745:Generated_Source\PSoC4/CyLib.c ****     *  1   PLL#1
1746:Generated_Source\PSoC4/CyLib.c ****     *
1747:Generated_Source\PSoC4/CyLib.c ****     * \param bypass: The bypass mode.
1748:Generated_Source\PSoC4/CyLib.c ****     * CY_SYS_PLL_BYPASS_AUTO - Automatic usage of the lock indicator. When unlocked,
1749:Generated_Source\PSoC4/CyLib.c ****     * automatically selects PLL the reference input (bypass mode). When locked,
1750:Generated_Source\PSoC4/CyLib.c ****     * automatically selects the PLL output.
1751:Generated_Source\PSoC4/CyLib.c ****     *
1752:Generated_Source\PSoC4/CyLib.c ****     * CY_SYS_PLL_BYPASS_PLL_REF - Selects the PLL reference input (bypass mode).
1753:Generated_Source\PSoC4/CyLib.c ****     * Ignores the lock indicator.
1754:Generated_Source\PSoC4/CyLib.c ****     *
1755:Generated_Source\PSoC4/CyLib.c ****     * CY_SYS_PLL_BYPASS_PLL_OUT - Selects the PLL output.  Ignores the lock indicator.
1756:Generated_Source\PSoC4/CyLib.c ****     *
1757:Generated_Source\PSoC4/CyLib.c ****     *******************************************************************************/
1758:Generated_Source\PSoC4/CyLib.c ****     void CySysClkPllSetBypassMode(uint32 pll, uint32 bypass)
1759:Generated_Source\PSoC4/CyLib.c ****     {
1760:Generated_Source\PSoC4/CyLib.c ****         uint32 regTmp;
1761:Generated_Source\PSoC4/CyLib.c ****         uint8  interruptState;
1762:Generated_Source\PSoC4/CyLib.c **** 
1763:Generated_Source\PSoC4/CyLib.c ****         interruptState = CyEnterCriticalSection();
1764:Generated_Source\PSoC4/CyLib.c **** 
1765:Generated_Source\PSoC4/CyLib.c ****         if ((pll < CY_IP_PLL_NR) && (bypass <= CY_SYS_PLL_BYPASS_PLL_OUT))
1766:Generated_Source\PSoC4/CyLib.c ****         {
1767:Generated_Source\PSoC4/CyLib.c ****             regTmp  = CY_SYS_CLK_PLL_BASE.pll[pll].config & (uint32) ~CY_SYS_CLK_PLL_CONFIG_BYPASS_
1768:Generated_Source\PSoC4/CyLib.c ****             regTmp |=  (uint32)(bypass << CY_SYS_CLK_PLL_CONFIG_BYPASS_SEL_SHIFT);
1769:Generated_Source\PSoC4/CyLib.c ****             CY_SYS_CLK_PLL_BASE.pll[pll].config = regTmp;
1770:Generated_Source\PSoC4/CyLib.c ****         }
1771:Generated_Source\PSoC4/CyLib.c **** 
1772:Generated_Source\PSoC4/CyLib.c ****         CyExitCriticalSection(interruptState);
1773:Generated_Source\PSoC4/CyLib.c ****     }
1774:Generated_Source\PSoC4/CyLib.c **** 
1775:Generated_Source\PSoC4/CyLib.c **** 
1776:Generated_Source\PSoC4/CyLib.c ****     /*******************************************************************************
1777:Generated_Source\PSoC4/CyLib.c ****     * Function Name: CySysClkPllGetBypassMode
1778:Generated_Source\PSoC4/CyLib.c ****     ****************************************************************************//**
1779:Generated_Source\PSoC4/CyLib.c ****     *
1780:Generated_Source\PSoC4/CyLib.c ****     *  Gets the bypass mode for the specified PLL.
1781:Generated_Source\PSoC4/CyLib.c ****     *  This API is available only for PSoC 4200L devices.
1782:Generated_Source\PSoC4/CyLib.c ****     *
1783:Generated_Source\PSoC4/CyLib.c ****     *  \param PLL:
1784:Generated_Source\PSoC4/CyLib.c ****     *   0   PLL#0
1785:Generated_Source\PSoC4/CyLib.c ****     *   1   PLL#1
ARM GAS  C:\Users\PC\AppData\Local\Temp\ccW101Aa.s 			page 50


1786:Generated_Source\PSoC4/CyLib.c ****     *
1787:Generated_Source\PSoC4/CyLib.c ****     *  \param bypass: Bypass mode.
1788:Generated_Source\PSoC4/CyLib.c ****     *   The same as the parameter of the CySysClkPllSetBypassMode().
1789:Generated_Source\PSoC4/CyLib.c ****     *
1790:Generated_Source\PSoC4/CyLib.c ****     *******************************************************************************/
1791:Generated_Source\PSoC4/CyLib.c ****     static uint32 CySysClkPllGetBypassMode(uint32 pll)
1792:Generated_Source\PSoC4/CyLib.c ****     {
1793:Generated_Source\PSoC4/CyLib.c ****         uint32 returnValue;
1794:Generated_Source\PSoC4/CyLib.c ****         uint8  interruptState;
1795:Generated_Source\PSoC4/CyLib.c **** 
1796:Generated_Source\PSoC4/CyLib.c ****         CYASSERT(pll < CY_IP_PLL_NR);
1797:Generated_Source\PSoC4/CyLib.c **** 
1798:Generated_Source\PSoC4/CyLib.c ****         interruptState = CyEnterCriticalSection();
1799:Generated_Source\PSoC4/CyLib.c **** 
1800:Generated_Source\PSoC4/CyLib.c ****         returnValue = CY_SYS_CLK_PLL_BASE.pll[pll].config & CY_SYS_CLK_PLL_CONFIG_BYPASS_SEL_MASK;
1801:Generated_Source\PSoC4/CyLib.c ****         returnValue =  returnValue >> CY_SYS_CLK_PLL_CONFIG_BYPASS_SEL_SHIFT;
1802:Generated_Source\PSoC4/CyLib.c **** 
1803:Generated_Source\PSoC4/CyLib.c ****         CyExitCriticalSection(interruptState);
1804:Generated_Source\PSoC4/CyLib.c **** 
1805:Generated_Source\PSoC4/CyLib.c ****         return (returnValue);
1806:Generated_Source\PSoC4/CyLib.c ****     }
1807:Generated_Source\PSoC4/CyLib.c **** 
1808:Generated_Source\PSoC4/CyLib.c **** 
1809:Generated_Source\PSoC4/CyLib.c ****     /*******************************************************************************
1810:Generated_Source\PSoC4/CyLib.c ****     * Function Name: CySysClkPllConfigChangeAllowed
1811:Generated_Source\PSoC4/CyLib.c ****     ****************************************************************************//**
1812:Generated_Source\PSoC4/CyLib.c ****     *
1813:Generated_Source\PSoC4/CyLib.c ****     *  The function returns non-zero value if the specified PLL sources the System
1814:Generated_Source\PSoC4/CyLib.c ****     *  clock and the PLL is not in the bypass mode.
1815:Generated_Source\PSoC4/CyLib.c ****     *
1816:Generated_Source\PSoC4/CyLib.c ****     *  This API is available only for PSoC 4200L devices.
1817:Generated_Source\PSoC4/CyLib.c ****     *
1818:Generated_Source\PSoC4/CyLib.c ****     *  \param PLL:
1819:Generated_Source\PSoC4/CyLib.c ****     *   0   PLL#0
1820:Generated_Source\PSoC4/CyLib.c ****     *   1   PLL#1
1821:Generated_Source\PSoC4/CyLib.c ****     *
1822:Generated_Source\PSoC4/CyLib.c ****     * \return Non-zero value when the specified PLL sources the System clock and
1823:Generated_Source\PSoC4/CyLib.c ****     * the PLL is not in the bypass mode.
1824:Generated_Source\PSoC4/CyLib.c ****     *
1825:Generated_Source\PSoC4/CyLib.c ****     *******************************************************************************/
1826:Generated_Source\PSoC4/CyLib.c ****     static cystatus CySysClkPllConfigChangeAllowed(uint32 pll)
1827:Generated_Source\PSoC4/CyLib.c ****     {
1828:Generated_Source\PSoC4/CyLib.c ****         uint32   pllBypassMode;
1829:Generated_Source\PSoC4/CyLib.c ****         uint32   sysclkSource;
1830:Generated_Source\PSoC4/CyLib.c ****         cystatus returnValue = CYRET_LOCKED;
1831:Generated_Source\PSoC4/CyLib.c **** 
1832:Generated_Source\PSoC4/CyLib.c ****         sysclkSource  = CySysClkGetSysclkSource();
1833:Generated_Source\PSoC4/CyLib.c ****         pllBypassMode = CySysClkPllGetBypassMode(pll);
1834:Generated_Source\PSoC4/CyLib.c **** 
1835:Generated_Source\PSoC4/CyLib.c ****         if ((CY_SYS_PLL_BYPASS_PLL_REF == pllBypassMode)             ||
1836:Generated_Source\PSoC4/CyLib.c ****             ((CY_SYS_CLK_HFCLK_PLL0 != sysclkSource) && (0u == pll)) ||
1837:Generated_Source\PSoC4/CyLib.c ****             ((CY_SYS_CLK_HFCLK_PLL1 != sysclkSource) && (1u == pll)))
1838:Generated_Source\PSoC4/CyLib.c ****         {
1839:Generated_Source\PSoC4/CyLib.c ****             returnValue = CYRET_SUCCESS;
1840:Generated_Source\PSoC4/CyLib.c ****         }
1841:Generated_Source\PSoC4/CyLib.c **** 
1842:Generated_Source\PSoC4/CyLib.c ****         return (returnValue);
ARM GAS  C:\Users\PC\AppData\Local\Temp\ccW101Aa.s 			page 51


1843:Generated_Source\PSoC4/CyLib.c ****     }
1844:Generated_Source\PSoC4/CyLib.c **** 
1845:Generated_Source\PSoC4/CyLib.c **** 
1846:Generated_Source\PSoC4/CyLib.c ****     /*******************************************************************************
1847:Generated_Source\PSoC4/CyLib.c ****     * Function Name: CySysClkPllGetUnlockStatus
1848:Generated_Source\PSoC4/CyLib.c ****     ****************************************************************************//**
1849:Generated_Source\PSoC4/CyLib.c ****     *
1850:Generated_Source\PSoC4/CyLib.c ****     *  Returns a non-zero value if the specified PLL output was unlocked.
1851:Generated_Source\PSoC4/CyLib.c ****     *  The unlock status is an indicator that the PLL has lost a lock at least once
1852:Generated_Source\PSoC4/CyLib.c ****     *  during its operation. The unlock status is cleared once it is read using
1853:Generated_Source\PSoC4/CyLib.c ****     *  this API.
1854:Generated_Source\PSoC4/CyLib.c ****     *
1855:Generated_Source\PSoC4/CyLib.c ****     *  This API is available only for PSoC 4200L devices.
1856:Generated_Source\PSoC4/CyLib.c ****     *
1857:Generated_Source\PSoC4/CyLib.c ****     *  \param PLL:
1858:Generated_Source\PSoC4/CyLib.c ****     *   0   PLL#0
1859:Generated_Source\PSoC4/CyLib.c ****     *   1   PLL#1
1860:Generated_Source\PSoC4/CyLib.c ****     *
1861:Generated_Source\PSoC4/CyLib.c ****     * \return Non-zero value when the specified PLL was unlocked.
1862:Generated_Source\PSoC4/CyLib.c ****     *
1863:Generated_Source\PSoC4/CyLib.c ****     *******************************************************************************/
1864:Generated_Source\PSoC4/CyLib.c ****     uint32 CySysClkPllGetUnlockStatus(uint32 pll)
1865:Generated_Source\PSoC4/CyLib.c ****     {
1866:Generated_Source\PSoC4/CyLib.c ****         uint32 returnStatus = 0u;
1867:Generated_Source\PSoC4/CyLib.c ****         uint8  interruptState;
1868:Generated_Source\PSoC4/CyLib.c **** 
1869:Generated_Source\PSoC4/CyLib.c ****         interruptState = CyEnterCriticalSection();
1870:Generated_Source\PSoC4/CyLib.c **** 
1871:Generated_Source\PSoC4/CyLib.c ****         returnStatus = CY_SYS_CLK_PLL_BASE.pll[pll].test & CY_SYS_CLK_PLL_TEST_UNLOCK_OCCURRED_MASK
1872:Generated_Source\PSoC4/CyLib.c ****         CY_SYS_CLK_PLL_BASE.pll[pll].test |= CY_SYS_CLK_PLL_TEST_UNLOCK_OCCURRED_MASK;
1873:Generated_Source\PSoC4/CyLib.c **** 
1874:Generated_Source\PSoC4/CyLib.c ****         CyExitCriticalSection(interruptState);
1875:Generated_Source\PSoC4/CyLib.c **** 
1876:Generated_Source\PSoC4/CyLib.c ****         return (returnStatus);
1877:Generated_Source\PSoC4/CyLib.c ****     }
1878:Generated_Source\PSoC4/CyLib.c **** 
1879:Generated_Source\PSoC4/CyLib.c **** 
1880:Generated_Source\PSoC4/CyLib.c ****     /*******************************************************************************
1881:Generated_Source\PSoC4/CyLib.c ****     * Function Name: CySysClkPllSetFrequency
1882:Generated_Source\PSoC4/CyLib.c ****     ****************************************************************************//**
1883:Generated_Source\PSoC4/CyLib.c ****     *
1884:Generated_Source\PSoC4/CyLib.c ****     * Configures either PLL#0 or PLL#1 for the requested input/output frequencies.
1885:Generated_Source\PSoC4/CyLib.c ****     * The input frequency is the frequency of the source to the PLL. The source is
1886:Generated_Source\PSoC4/CyLib.c ****     * set using the CySysClkPllSetSource() function.
1887:Generated_Source\PSoC4/CyLib.c ****     *
1888:Generated_Source\PSoC4/CyLib.c ****     * The PLL must not be the system clock source when calling this function. The
1889:Generated_Source\PSoC4/CyLib.c ****     * PLL output will glitch during this function call.
1890:Generated_Source\PSoC4/CyLib.c ****     *
1891:Generated_Source\PSoC4/CyLib.c ****     * This API is available only for PSoC 4200L devices.
1892:Generated_Source\PSoC4/CyLib.c ****     *
1893:Generated_Source\PSoC4/CyLib.c ****     * \param pll:
1894:Generated_Source\PSoC4/CyLib.c ****     *  0   PLL#0
1895:Generated_Source\PSoC4/CyLib.c ****     *  1   PLL#1
1896:Generated_Source\PSoC4/CyLib.c ****     *
1897:Generated_Source\PSoC4/CyLib.c ****     * \param inputFreq The reference frequency in KHz. The valid range is from 1000 to 49152 KHz.
1898:Generated_Source\PSoC4/CyLib.c ****     *
1899:Generated_Source\PSoC4/CyLib.c ****     * \param pllFreq The target frequency in KHz. The valid range is from 22500 to 49152 KHz.
ARM GAS  C:\Users\PC\AppData\Local\Temp\ccW101Aa.s 			page 52


1900:Generated_Source\PSoC4/CyLib.c ****     *
1901:Generated_Source\PSoC4/CyLib.c ****     * \param divider The output clock divider for the PLL:
1902:Generated_Source\PSoC4/CyLib.c ****     * CY_SYS_PLL_OUTPUT_DIVPASS    Pass Through
1903:Generated_Source\PSoC4/CyLib.c ****     * CY_SYS_PLL_OUTPUT_DIV2       Divide by 2
1904:Generated_Source\PSoC4/CyLib.c ****     * CY_SYS_PLL_OUTPUT_DIV4       Divide by 4
1905:Generated_Source\PSoC4/CyLib.c ****     * CY_SYS_PLL_OUTPUT_DIV8       Divide by 8
1906:Generated_Source\PSoC4/CyLib.c ****     *
1907:Generated_Source\PSoC4/CyLib.c ****     * \param freqTol The tolerance in ppm, 10 ppm is equal to 0.001%.
1908:Generated_Source\PSoC4/CyLib.c ****     *
1909:Generated_Source\PSoC4/CyLib.c ****     * \return CYRET_SUCCESS The PLL was successfully configured for the requested
1910:Generated_Source\PSoC4/CyLib.c ****     * frequency.
1911:Generated_Source\PSoC4/CyLib.c ****     *
1912:Generated_Source\PSoC4/CyLib.c ****     * \return CYRET_BAD_PARAM The PLL was not able to successfully configure for the
1913:Generated_Source\PSoC4/CyLib.c ****     * requested frequency.
1914:Generated_Source\PSoC4/CyLib.c ****     *
1915:Generated_Source\PSoC4/CyLib.c ****     *******************************************************************************/
1916:Generated_Source\PSoC4/CyLib.c ****     cystatus CySysClkPllSetFrequency(uint32 pll, uint32 inputFreq, uint32 pllFreq, uint32 divider, 
1917:Generated_Source\PSoC4/CyLib.c ****     {
1918:Generated_Source\PSoC4/CyLib.c ****         uint32 qMin;
1919:Generated_Source\PSoC4/CyLib.c ****         uint32 qMax;
1920:Generated_Source\PSoC4/CyLib.c **** 
1921:Generated_Source\PSoC4/CyLib.c ****         uint32 qVal = CY_SYS_CLK_PLL_INVALID;
1922:Generated_Source\PSoC4/CyLib.c ****         uint32 pVal = CY_SYS_CLK_PLL_INVALID;
1923:Generated_Source\PSoC4/CyLib.c **** 
1924:Generated_Source\PSoC4/CyLib.c ****         uint32 q;
1925:Generated_Source\PSoC4/CyLib.c ****         uint32 p;
1926:Generated_Source\PSoC4/CyLib.c **** 
1927:Generated_Source\PSoC4/CyLib.c ****         uint32 fvco;
1928:Generated_Source\PSoC4/CyLib.c ****         int32 ferr;
1929:Generated_Source\PSoC4/CyLib.c **** 
1930:Generated_Source\PSoC4/CyLib.c ****         cystatus tmp;
1931:Generated_Source\PSoC4/CyLib.c ****         cystatus returnStatus = CYRET_BAD_PARAM;
1932:Generated_Source\PSoC4/CyLib.c **** 
1933:Generated_Source\PSoC4/CyLib.c **** 
1934:Generated_Source\PSoC4/CyLib.c ****         tmp = CySysClkPllConfigChangeAllowed(pll);
1935:Generated_Source\PSoC4/CyLib.c **** 
1936:Generated_Source\PSoC4/CyLib.c ****         if ((pll < CY_IP_PLL_NR) &&
1937:Generated_Source\PSoC4/CyLib.c ****             (inputFreq  >= CY_SYS_CLK_PLL_INPUT_FREQ_MIN )  && (inputFreq  <= CY_SYS_CLK_PLL_INPUT_
1938:Generated_Source\PSoC4/CyLib.c ****             (pllFreq >= CY_SYS_CLK_PLL_OUTPUT_FREQ_MIN ) && (pllFreq <= CY_SYS_CLK_PLL_OUTPUT_FREQ_
1939:Generated_Source\PSoC4/CyLib.c ****             (divider <= CY_SYS_PLL_OUTPUT_DIV8) &&
1940:Generated_Source\PSoC4/CyLib.c ****             (CYRET_SUCCESS == tmp))
1941:Generated_Source\PSoC4/CyLib.c ****         {
1942:Generated_Source\PSoC4/CyLib.c **** 
1943:Generated_Source\PSoC4/CyLib.c ****             /* Minimum feed forward loop divisor */
1944:Generated_Source\PSoC4/CyLib.c ****             qMin = (inputFreq + (CY_SYS_CLK_PLL_FPFDMAX - 1u)) / CY_SYS_CLK_PLL_FPFDMAX;
1945:Generated_Source\PSoC4/CyLib.c ****             qMin = (qMin < CY_SYS_CLK_PLL_QMINIP) ? CY_SYS_CLK_PLL_QMINIP : qMin;
1946:Generated_Source\PSoC4/CyLib.c **** 
1947:Generated_Source\PSoC4/CyLib.c ****             /* Maximum feed forward loop divisor */
1948:Generated_Source\PSoC4/CyLib.c ****             qMax = inputFreq / CY_SYS_CLK_PLL_FPFDMIN;
1949:Generated_Source\PSoC4/CyLib.c ****             qMax = (qMax > CY_SYS_CLK_PLL_QMAXIP) ? CY_SYS_CLK_PLL_QMAXIP : qMax;
1950:Generated_Source\PSoC4/CyLib.c **** 
1951:Generated_Source\PSoC4/CyLib.c ****             if (qMin <= qMax)
1952:Generated_Source\PSoC4/CyLib.c ****             {
1953:Generated_Source\PSoC4/CyLib.c ****                 for(q = qMin; q <= qMax; q++)
1954:Generated_Source\PSoC4/CyLib.c ****                 {
1955:Generated_Source\PSoC4/CyLib.c ****                     /* Solve for the feedback divisor value */
1956:Generated_Source\PSoC4/CyLib.c **** 
ARM GAS  C:\Users\PC\AppData\Local\Temp\ccW101Aa.s 			page 53


1957:Generated_Source\PSoC4/CyLib.c ****                     /* INT((pllFreq * q ) / inputFreq), where INT is normal rounding  */
1958:Generated_Source\PSoC4/CyLib.c ****                     p = ((pllFreq * q) + (inputFreq / 2u)) / inputFreq;
1959:Generated_Source\PSoC4/CyLib.c **** 
1960:Generated_Source\PSoC4/CyLib.c ****                     /* Calculate the actual VCO frequency (FVCO) */
1961:Generated_Source\PSoC4/CyLib.c ****                     fvco = ((inputFreq * p) / q);
1962:Generated_Source\PSoC4/CyLib.c **** 
1963:Generated_Source\PSoC4/CyLib.c ****                     /* Calculate the frequency error (FERR) */
1964:Generated_Source\PSoC4/CyLib.c ****                     ferr = ((1000000 * ((int32) fvco - (int32) pllFreq))/ (int32) pllFreq);
1965:Generated_Source\PSoC4/CyLib.c **** 
1966:Generated_Source\PSoC4/CyLib.c ****                     /* Bound check the frequency error and decide next action */
1967:Generated_Source\PSoC4/CyLib.c ****                     if ((( -1 * (int32) freqTol) <= ferr) && (ferr <= (int32) freqTol))
1968:Generated_Source\PSoC4/CyLib.c ****                     {
1969:Generated_Source\PSoC4/CyLib.c ****                         qVal = q;
1970:Generated_Source\PSoC4/CyLib.c ****                         pVal = p;
1971:Generated_Source\PSoC4/CyLib.c ****                         break;
1972:Generated_Source\PSoC4/CyLib.c ****                     }
1973:Generated_Source\PSoC4/CyLib.c ****                 }
1974:Generated_Source\PSoC4/CyLib.c **** 
1975:Generated_Source\PSoC4/CyLib.c **** 
1976:Generated_Source\PSoC4/CyLib.c ****                 if ((pVal != CY_SYS_CLK_PLL_INVALID) && (qVal != CY_SYS_CLK_PLL_INVALID))
1977:Generated_Source\PSoC4/CyLib.c ****                 {
1978:Generated_Source\PSoC4/CyLib.c ****                     if (CySysClkPllSetPQ(pll, pVal, qVal, CY_SYS_CLK_PLL_CURRENT_DEFAULT) == CYRET_
1979:Generated_Source\PSoC4/CyLib.c ****                     {
1980:Generated_Source\PSoC4/CyLib.c ****                         returnStatus = CySysClkPllSetOutputDivider(pll, divider);
1981:Generated_Source\PSoC4/CyLib.c ****                     }
1982:Generated_Source\PSoC4/CyLib.c ****                 }
1983:Generated_Source\PSoC4/CyLib.c ****             }
1984:Generated_Source\PSoC4/CyLib.c **** 
1985:Generated_Source\PSoC4/CyLib.c ****         }
1986:Generated_Source\PSoC4/CyLib.c **** 
1987:Generated_Source\PSoC4/CyLib.c ****         return (returnStatus);
1988:Generated_Source\PSoC4/CyLib.c ****     }
1989:Generated_Source\PSoC4/CyLib.c **** 
1990:Generated_Source\PSoC4/CyLib.c **** 
1991:Generated_Source\PSoC4/CyLib.c ****     /*******************************************************************************
1992:Generated_Source\PSoC4/CyLib.c ****     * Function Name: CySysClkPllSetSource
1993:Generated_Source\PSoC4/CyLib.c ****     ****************************************************************************//**
1994:Generated_Source\PSoC4/CyLib.c ****     *
1995:Generated_Source\PSoC4/CyLib.c ****     *  Sets the input clock source to the PLL. The PLL must be disabled before
1996:Generated_Source\PSoC4/CyLib.c ****     *  calling this function.
1997:Generated_Source\PSoC4/CyLib.c ****     *
1998:Generated_Source\PSoC4/CyLib.c ****     *  This API is available only for PSoC 4200L devices.
1999:Generated_Source\PSoC4/CyLib.c ****     *
2000:Generated_Source\PSoC4/CyLib.c ****     *  \param PLL:
2001:Generated_Source\PSoC4/CyLib.c ****     *  0   PLL#0
2002:Generated_Source\PSoC4/CyLib.c ****     *  1   PLL#1
2003:Generated_Source\PSoC4/CyLib.c ****     *
2004:Generated_Source\PSoC4/CyLib.c ****     * \param source:
2005:Generated_Source\PSoC4/CyLib.c ****     *  CY_SYS_PLL_SOURCE_IMO        IMO
2006:Generated_Source\PSoC4/CyLib.c ****     *  CY_SYS_PLL_SOURCE_EXTCLK     External Clock
2007:Generated_Source\PSoC4/CyLib.c ****     *  CY_SYS_PLL_SOURCE_ECO        ECO
2008:Generated_Source\PSoC4/CyLib.c ****     *  CY_SYS_PLL_SOURCE_DSI0       DSI_OUT[0]
2009:Generated_Source\PSoC4/CyLib.c ****     *  CY_SYS_PLL_SOURCE_DSI1       DSI_OUT[1]
2010:Generated_Source\PSoC4/CyLib.c ****     *  CY_SYS_PLL_SOURCE_DSI2       DSI_OUT[2]
2011:Generated_Source\PSoC4/CyLib.c ****     *  CY_SYS_PLL_SOURCE_DSI3       DSI_OUT[3]
2012:Generated_Source\PSoC4/CyLib.c ****     *
2013:Generated_Source\PSoC4/CyLib.c ****     *******************************************************************************/
ARM GAS  C:\Users\PC\AppData\Local\Temp\ccW101Aa.s 			page 54


2014:Generated_Source\PSoC4/CyLib.c ****     void CySysClkPllSetSource(uint32 pll, uint32 source)
2015:Generated_Source\PSoC4/CyLib.c ****     {
2016:Generated_Source\PSoC4/CyLib.c ****         uint32 regTmp;
2017:Generated_Source\PSoC4/CyLib.c ****         uint8  interruptState;
2018:Generated_Source\PSoC4/CyLib.c **** 
2019:Generated_Source\PSoC4/CyLib.c ****         interruptState = CyEnterCriticalSection();
2020:Generated_Source\PSoC4/CyLib.c **** 
2021:Generated_Source\PSoC4/CyLib.c ****         if (pll < CY_IP_PLL_NR)
2022:Generated_Source\PSoC4/CyLib.c ****         {
2023:Generated_Source\PSoC4/CyLib.c ****             regTmp = CY_SYS_CLK_SELECT_REG & (uint32) ~CY_SYS_CLK_SELECT_PLL_MASK(pll);
2024:Generated_Source\PSoC4/CyLib.c ****             regTmp |= ((source << CY_SYS_CLK_SELECT_PLL_SHIFT(pll)) & CY_SYS_CLK_SELECT_PLL_MASK(pl
2025:Generated_Source\PSoC4/CyLib.c ****             CY_SYS_CLK_SELECT_REG = regTmp;
2026:Generated_Source\PSoC4/CyLib.c ****         }
2027:Generated_Source\PSoC4/CyLib.c **** 
2028:Generated_Source\PSoC4/CyLib.c ****         CyExitCriticalSection(interruptState);
2029:Generated_Source\PSoC4/CyLib.c ****     }
2030:Generated_Source\PSoC4/CyLib.c **** 
2031:Generated_Source\PSoC4/CyLib.c **** 
2032:Generated_Source\PSoC4/CyLib.c ****     /*******************************************************************************
2033:Generated_Source\PSoC4/CyLib.c ****     * Function Name: CySysClkPllSetOutputDivider
2034:Generated_Source\PSoC4/CyLib.c ****     ****************************************************************************//**
2035:Generated_Source\PSoC4/CyLib.c ****     *
2036:Generated_Source\PSoC4/CyLib.c ****     *  Sets the output clock divider for the PLL.
2037:Generated_Source\PSoC4/CyLib.c ****     *
2038:Generated_Source\PSoC4/CyLib.c ****     *  The PLL must not be the System Clock source when calling this function. The
2039:Generated_Source\PSoC4/CyLib.c ****     *  PLL output will glitch during this function call.
2040:Generated_Source\PSoC4/CyLib.c ****     *
2041:Generated_Source\PSoC4/CyLib.c ****     *  This API is available only for PSoC 4200L devices.
2042:Generated_Source\PSoC4/CyLib.c ****     *
2043:Generated_Source\PSoC4/CyLib.c ****     *  \param PLL:
2044:Generated_Source\PSoC4/CyLib.c ****     *   0   PLL#0
2045:Generated_Source\PSoC4/CyLib.c ****     *   1   PLL#1
2046:Generated_Source\PSoC4/CyLib.c ****     *
2047:Generated_Source\PSoC4/CyLib.c ****     * \param divider:
2048:Generated_Source\PSoC4/CyLib.c ****     *  CY_SYS_PLL_OUTPUT_DIVPASS    Pass through
2049:Generated_Source\PSoC4/CyLib.c ****     *  CY_SYS_PLL_OUTPUT_DIV2       Divide by 2
2050:Generated_Source\PSoC4/CyLib.c ****     *  CY_SYS_PLL_OUTPUT_DIV4       Divide by 4
2051:Generated_Source\PSoC4/CyLib.c ****     *  CY_SYS_PLL_OUTPUT_DIV8       Divide by 8
2052:Generated_Source\PSoC4/CyLib.c ****     *
2053:Generated_Source\PSoC4/CyLib.c ****     * \return \ref CYRET_SUCCESS    Completed successfully.
2054:Generated_Source\PSoC4/CyLib.c ****     * \return \ref CYRET_BAD_PARAM  The parameters are out of range or the
2055:Generated_Source\PSoC4/CyLib.c ****     * specified PLL sources the System clock.
2056:Generated_Source\PSoC4/CyLib.c ****     *
2057:Generated_Source\PSoC4/CyLib.c ****     *******************************************************************************/
2058:Generated_Source\PSoC4/CyLib.c ****     cystatus CySysClkPllSetOutputDivider(uint32 pll, uint32 divider)
2059:Generated_Source\PSoC4/CyLib.c ****     {
2060:Generated_Source\PSoC4/CyLib.c ****         uint32   tmpReg;
2061:Generated_Source\PSoC4/CyLib.c ****         uint8    interruptState;
2062:Generated_Source\PSoC4/CyLib.c ****         cystatus returnStatus = CYRET_BAD_PARAM;
2063:Generated_Source\PSoC4/CyLib.c ****         cystatus tmp;
2064:Generated_Source\PSoC4/CyLib.c **** 
2065:Generated_Source\PSoC4/CyLib.c **** 
2066:Generated_Source\PSoC4/CyLib.c ****         interruptState = CyEnterCriticalSection();
2067:Generated_Source\PSoC4/CyLib.c **** 
2068:Generated_Source\PSoC4/CyLib.c ****         tmp = CySysClkPllConfigChangeAllowed(pll);
2069:Generated_Source\PSoC4/CyLib.c **** 
2070:Generated_Source\PSoC4/CyLib.c ****         if ((pll < CY_IP_PLL_NR) && (CYRET_SUCCESS == tmp) && (divider <= CY_SYS_PLL_OUTPUT_DIV8))
ARM GAS  C:\Users\PC\AppData\Local\Temp\ccW101Aa.s 			page 55


2071:Generated_Source\PSoC4/CyLib.c ****         {
2072:Generated_Source\PSoC4/CyLib.c ****             tmpReg  = CY_SYS_CLK_PLL_BASE.pll[pll].config & (uint32) ~(CY_SYS_CLK_PLL_CONFIG_OUTPUT
2073:Generated_Source\PSoC4/CyLib.c ****             tmpReg |= ((divider << CY_SYS_CLK_PLL_CONFIG_OUTPUT_DIV_SHIFT) & CY_SYS_CLK_PLL_CONFIG_
2074:Generated_Source\PSoC4/CyLib.c **** 
2075:Generated_Source\PSoC4/CyLib.c ****             CY_SYS_CLK_PLL_BASE.pll[pll].config = tmpReg;
2076:Generated_Source\PSoC4/CyLib.c **** 
2077:Generated_Source\PSoC4/CyLib.c ****             returnStatus = CYRET_SUCCESS;
2078:Generated_Source\PSoC4/CyLib.c ****         }
2079:Generated_Source\PSoC4/CyLib.c **** 
2080:Generated_Source\PSoC4/CyLib.c ****         CyExitCriticalSection(interruptState);
2081:Generated_Source\PSoC4/CyLib.c **** 
2082:Generated_Source\PSoC4/CyLib.c ****         return (returnStatus);
2083:Generated_Source\PSoC4/CyLib.c ****     }
2084:Generated_Source\PSoC4/CyLib.c **** #endif /* (CY_IP_SRSSV2 && CY_IP_PLL) */
2085:Generated_Source\PSoC4/CyLib.c **** 
2086:Generated_Source\PSoC4/CyLib.c **** 
2087:Generated_Source\PSoC4/CyLib.c **** #if(CY_IP_SRSSV2)
2088:Generated_Source\PSoC4/CyLib.c **** 
2089:Generated_Source\PSoC4/CyLib.c ****     /*******************************************************************************
2090:Generated_Source\PSoC4/CyLib.c ****     * Function Name: CySysLvdEnable
2091:Generated_Source\PSoC4/CyLib.c ****     ****************************************************************************//**
2092:Generated_Source\PSoC4/CyLib.c ****     *
2093:Generated_Source\PSoC4/CyLib.c ****     *  Enables the output of the low-voltage monitor when Vddd is at or below the
2094:Generated_Source\PSoC4/CyLib.c ****     *  trip point, configures the device to generate an interrupt, and sets the
2095:Generated_Source\PSoC4/CyLib.c ****     *  voltage trip level.
2096:Generated_Source\PSoC4/CyLib.c ****     *
2097:Generated_Source\PSoC4/CyLib.c ****     *  \param threshold: Threshold selection for Low Voltage Detect circuit.
2098:Generated_Source\PSoC4/CyLib.c ****     *  Threshold variation is +/- 2.5% from these typical voltage choices.
2099:Generated_Source\PSoC4/CyLib.c ****     *         Define                     Voltage threshold
2100:Generated_Source\PSoC4/CyLib.c ****     *    CY_LVD_THRESHOLD_1_75_V       1.7500 V
2101:Generated_Source\PSoC4/CyLib.c ****     *    CY_LVD_THRESHOLD_1_80_V       1.8000 V
2102:Generated_Source\PSoC4/CyLib.c ****     *    CY_LVD_THRESHOLD_1_90_V       1.9000 V
2103:Generated_Source\PSoC4/CyLib.c ****     *    CY_LVD_THRESHOLD_2_00_V       2.0000 V
2104:Generated_Source\PSoC4/CyLib.c ****     *    CY_LVD_THRESHOLD_2_10_V       2.1000 V
2105:Generated_Source\PSoC4/CyLib.c ****     *    CY_LVD_THRESHOLD_2_20_V       2.2000 V
2106:Generated_Source\PSoC4/CyLib.c ****     *    CY_LVD_THRESHOLD_2_30_V       2.3000 V
2107:Generated_Source\PSoC4/CyLib.c ****     *    CY_LVD_THRESHOLD_2_40_V       2.4000 V
2108:Generated_Source\PSoC4/CyLib.c ****     *    CY_LVD_THRESHOLD_2_50_V       2.5000 V
2109:Generated_Source\PSoC4/CyLib.c ****     *    CY_LVD_THRESHOLD_2_60_V       2.6000 V
2110:Generated_Source\PSoC4/CyLib.c ****     *    CY_LVD_THRESHOLD_2_70_V       2.7000 V
2111:Generated_Source\PSoC4/CyLib.c ****     *    CY_LVD_THRESHOLD_2_80_V       2.8000 V
2112:Generated_Source\PSoC4/CyLib.c ****     *    CY_LVD_THRESHOLD_2_90_V       2.9000 V
2113:Generated_Source\PSoC4/CyLib.c ****     *    CY_LVD_THRESHOLD_3_00_V       3.0000 V
2114:Generated_Source\PSoC4/CyLib.c ****     *    CY_LVD_THRESHOLD_3_20_V       3.2000 V
2115:Generated_Source\PSoC4/CyLib.c ****     *    CY_LVD_THRESHOLD_4_50_V       4.5000 V
2116:Generated_Source\PSoC4/CyLib.c ****     *
2117:Generated_Source\PSoC4/CyLib.c ****     *******************************************************************************/
2118:Generated_Source\PSoC4/CyLib.c ****     void CySysLvdEnable(uint32 threshold)
2119:Generated_Source\PSoC4/CyLib.c ****     {
 996              		.loc 1 2119 0
 997              		.cfi_startproc
 998              		@ args = 0, pretend = 0, frame = 8
 999              		@ frame_needed = 1, uses_anonymous_args = 0
 1000 0000 80B5     		push	{r7, lr}
 1001              		.cfi_def_cfa_offset 8
 1002              		.cfi_offset 7, -8
 1003              		.cfi_offset 14, -4
ARM GAS  C:\Users\PC\AppData\Local\Temp\ccW101Aa.s 			page 56


 1004 0002 82B0     		sub	sp, sp, #8
 1005              		.cfi_def_cfa_offset 16
 1006 0004 00AF     		add	r7, sp, #0
 1007              		.cfi_def_cfa_register 7
 1008 0006 7860     		str	r0, [r7, #4]
2120:Generated_Source\PSoC4/CyLib.c ****         /* Prevent propagating a false interrupt */
2121:Generated_Source\PSoC4/CyLib.c ****         CY_LVD_PWR_INTR_MASK_REG   &= (uint32) ~CY_LVD_PROPAGATE_INT_TO_CPU;
 1009              		.loc 1 2121 0
 1010 0008 144B     		ldr	r3, .L59
 1011 000a 144A     		ldr	r2, .L59
 1012 000c 1268     		ldr	r2, [r2]
 1013 000e 0221     		movs	r1, #2
 1014 0010 8A43     		bics	r2, r1
 1015 0012 1A60     		str	r2, [r3]
2122:Generated_Source\PSoC4/CyLib.c **** 
2123:Generated_Source\PSoC4/CyLib.c ****         /* Set specified threshold */
2124:Generated_Source\PSoC4/CyLib.c ****         CY_LVD_PWR_VMON_CONFIG_REG = (CY_LVD_PWR_VMON_CONFIG_REG & ~CY_LVD_PWR_VMON_CONFIG_LVD_SEL_
 1016              		.loc 1 2124 0
 1017 0014 124B     		ldr	r3, .L59+4
 1018 0016 124A     		ldr	r2, .L59+4
 1019 0018 1268     		ldr	r2, [r2]
 1020 001a 1E21     		movs	r1, #30
 1021 001c 8A43     		bics	r2, r1
 1022 001e 1100     		movs	r1, r2
2125:Generated_Source\PSoC4/CyLib.c ****                 ((threshold << CY_LVD_PWR_VMON_CONFIG_LVD_SEL_SHIFT) & CY_LVD_PWR_VMON_CONFIG_LVD_S
 1023              		.loc 1 2125 0
 1024 0020 7A68     		ldr	r2, [r7, #4]
 1025 0022 5200     		lsls	r2, r2, #1
 1026 0024 1E20     		movs	r0, #30
 1027 0026 0240     		ands	r2, r0
2124:Generated_Source\PSoC4/CyLib.c ****                 ((threshold << CY_LVD_PWR_VMON_CONFIG_LVD_SEL_SHIFT) & CY_LVD_PWR_VMON_CONFIG_LVD_S
 1028              		.loc 1 2124 0
 1029 0028 0A43     		orrs	r2, r1
 1030 002a 1A60     		str	r2, [r3]
2126:Generated_Source\PSoC4/CyLib.c **** 
2127:Generated_Source\PSoC4/CyLib.c ****         /* Enable the LVD. This may cause a false LVD event. */
2128:Generated_Source\PSoC4/CyLib.c ****         CY_LVD_PWR_VMON_CONFIG_REG |= CY_LVD_PWR_VMON_CONFIG_LVD_EN;
 1031              		.loc 1 2128 0
 1032 002c 0C4B     		ldr	r3, .L59+4
 1033 002e 0C4A     		ldr	r2, .L59+4
 1034 0030 1268     		ldr	r2, [r2]
 1035 0032 0121     		movs	r1, #1
 1036 0034 0A43     		orrs	r2, r1
 1037 0036 1A60     		str	r2, [r3]
2129:Generated_Source\PSoC4/CyLib.c **** 
2130:Generated_Source\PSoC4/CyLib.c ****         /* Wait for the circuit to stabilize */
2131:Generated_Source\PSoC4/CyLib.c ****         CyDelayUs(CY_LVD_STABILIZE_TIMEOUT_US);
 1038              		.loc 1 2131 0
 1039 0038 FA23     		movs	r3, #250
 1040 003a 9B00     		lsls	r3, r3, #2
 1041 003c 1800     		movs	r0, r3
 1042 003e FFF7FEFF 		bl	CyDelayUs
2132:Generated_Source\PSoC4/CyLib.c **** 
2133:Generated_Source\PSoC4/CyLib.c ****         /* Clear the false event */
2134:Generated_Source\PSoC4/CyLib.c ****         CySysLvdClearInterrupt();
 1043              		.loc 1 2134 0
 1044 0042 FFF7FEFF 		bl	CySysLvdClearInterrupt
ARM GAS  C:\Users\PC\AppData\Local\Temp\ccW101Aa.s 			page 57


2135:Generated_Source\PSoC4/CyLib.c **** 
2136:Generated_Source\PSoC4/CyLib.c ****         /* Unmask the interrupt */
2137:Generated_Source\PSoC4/CyLib.c ****         CY_LVD_PWR_INTR_MASK_REG   |= CY_LVD_PROPAGATE_INT_TO_CPU;
 1045              		.loc 1 2137 0
 1046 0046 054B     		ldr	r3, .L59
 1047 0048 044A     		ldr	r2, .L59
 1048 004a 1268     		ldr	r2, [r2]
 1049 004c 0221     		movs	r1, #2
 1050 004e 0A43     		orrs	r2, r1
 1051 0050 1A60     		str	r2, [r3]
2138:Generated_Source\PSoC4/CyLib.c ****     }
 1052              		.loc 1 2138 0
 1053 0052 C046     		nop
 1054 0054 BD46     		mov	sp, r7
 1055 0056 02B0     		add	sp, sp, #8
 1056              		@ sp needed
 1057 0058 80BD     		pop	{r7, pc}
 1058              	.L60:
 1059 005a C046     		.align	2
 1060              	.L59:
 1061 005c 08000B40 		.word	1074462728
 1062 0060 18000B40 		.word	1074462744
 1063              		.cfi_endproc
 1064              	.LFE13:
 1065              		.size	CySysLvdEnable, .-CySysLvdEnable
 1066              		.section	.text.CySysLvdDisable,"ax",%progbits
 1067              		.align	2
 1068              		.global	CySysLvdDisable
 1069              		.code	16
 1070              		.thumb_func
 1071              		.type	CySysLvdDisable, %function
 1072              	CySysLvdDisable:
 1073              	.LFB14:
2139:Generated_Source\PSoC4/CyLib.c **** 
2140:Generated_Source\PSoC4/CyLib.c **** 
2141:Generated_Source\PSoC4/CyLib.c ****     /*******************************************************************************
2142:Generated_Source\PSoC4/CyLib.c ****     * Function Name: CySysLvdDisable
2143:Generated_Source\PSoC4/CyLib.c ****     ****************************************************************************//**
2144:Generated_Source\PSoC4/CyLib.c ****     *
2145:Generated_Source\PSoC4/CyLib.c ****     *  Disables the low voltage detection. A low voltage interrupt is disabled.
2146:Generated_Source\PSoC4/CyLib.c ****     *
2147:Generated_Source\PSoC4/CyLib.c ****     *******************************************************************************/
2148:Generated_Source\PSoC4/CyLib.c ****     void CySysLvdDisable(void)
2149:Generated_Source\PSoC4/CyLib.c ****     {
 1074              		.loc 1 2149 0
 1075              		.cfi_startproc
 1076              		@ args = 0, pretend = 0, frame = 0
 1077              		@ frame_needed = 1, uses_anonymous_args = 0
 1078 0000 80B5     		push	{r7, lr}
 1079              		.cfi_def_cfa_offset 8
 1080              		.cfi_offset 7, -8
 1081              		.cfi_offset 14, -4
 1082 0002 00AF     		add	r7, sp, #0
 1083              		.cfi_def_cfa_register 7
2150:Generated_Source\PSoC4/CyLib.c ****         CY_LVD_PWR_INTR_MASK_REG   &= ~CY_LVD_PROPAGATE_INT_TO_CPU;
 1084              		.loc 1 2150 0
 1085 0004 074B     		ldr	r3, .L62
ARM GAS  C:\Users\PC\AppData\Local\Temp\ccW101Aa.s 			page 58


 1086 0006 074A     		ldr	r2, .L62
 1087 0008 1268     		ldr	r2, [r2]
 1088 000a 0221     		movs	r1, #2
 1089 000c 8A43     		bics	r2, r1
 1090 000e 1A60     		str	r2, [r3]
2151:Generated_Source\PSoC4/CyLib.c ****         CY_LVD_PWR_VMON_CONFIG_REG &= ~CY_LVD_PWR_VMON_CONFIG_LVD_EN;
 1091              		.loc 1 2151 0
 1092 0010 054B     		ldr	r3, .L62+4
 1093 0012 054A     		ldr	r2, .L62+4
 1094 0014 1268     		ldr	r2, [r2]
 1095 0016 0121     		movs	r1, #1
 1096 0018 8A43     		bics	r2, r1
 1097 001a 1A60     		str	r2, [r3]
2152:Generated_Source\PSoC4/CyLib.c ****     }
 1098              		.loc 1 2152 0
 1099 001c C046     		nop
 1100 001e BD46     		mov	sp, r7
 1101              		@ sp needed
 1102 0020 80BD     		pop	{r7, pc}
 1103              	.L63:
 1104 0022 C046     		.align	2
 1105              	.L62:
 1106 0024 08000B40 		.word	1074462728
 1107 0028 18000B40 		.word	1074462744
 1108              		.cfi_endproc
 1109              	.LFE14:
 1110              		.size	CySysLvdDisable, .-CySysLvdDisable
 1111              		.section	.text.CySysLvdGetInterruptSource,"ax",%progbits
 1112              		.align	2
 1113              		.global	CySysLvdGetInterruptSource
 1114              		.code	16
 1115              		.thumb_func
 1116              		.type	CySysLvdGetInterruptSource, %function
 1117              	CySysLvdGetInterruptSource:
 1118              	.LFB15:
2153:Generated_Source\PSoC4/CyLib.c **** 
2154:Generated_Source\PSoC4/CyLib.c **** 
2155:Generated_Source\PSoC4/CyLib.c ****     /*******************************************************************************
2156:Generated_Source\PSoC4/CyLib.c ****     * Function Name: CySysLvdGetInterruptSource
2157:Generated_Source\PSoC4/CyLib.c ****     ****************************************************************************//**
2158:Generated_Source\PSoC4/CyLib.c ****     *
2159:Generated_Source\PSoC4/CyLib.c ****     *  Gets the low voltage detection interrupt status (without clearing).
2160:Generated_Source\PSoC4/CyLib.c ****     *
2161:Generated_Source\PSoC4/CyLib.c ****     * \return
2162:Generated_Source\PSoC4/CyLib.c ****     *  Interrupt request value:
2163:Generated_Source\PSoC4/CyLib.c ****     *    CY_SYS_LVD_INT - Indicates an Low Voltage Detect interrupt
2164:Generated_Source\PSoC4/CyLib.c ****     *
2165:Generated_Source\PSoC4/CyLib.c ****     *******************************************************************************/
2166:Generated_Source\PSoC4/CyLib.c ****     uint32 CySysLvdGetInterruptSource(void)
2167:Generated_Source\PSoC4/CyLib.c ****     {
 1119              		.loc 1 2167 0
 1120              		.cfi_startproc
 1121              		@ args = 0, pretend = 0, frame = 0
 1122              		@ frame_needed = 1, uses_anonymous_args = 0
 1123 0000 80B5     		push	{r7, lr}
 1124              		.cfi_def_cfa_offset 8
 1125              		.cfi_offset 7, -8
ARM GAS  C:\Users\PC\AppData\Local\Temp\ccW101Aa.s 			page 59


 1126              		.cfi_offset 14, -4
 1127 0002 00AF     		add	r7, sp, #0
 1128              		.cfi_def_cfa_register 7
2168:Generated_Source\PSoC4/CyLib.c ****         return (CY_LVD_PWR_INTR_REG & CY_SYS_LVD_INT);
 1129              		.loc 1 2168 0
 1130 0004 034B     		ldr	r3, .L66
 1131 0006 1B68     		ldr	r3, [r3]
 1132 0008 0222     		movs	r2, #2
 1133 000a 1340     		ands	r3, r2
2169:Generated_Source\PSoC4/CyLib.c ****     }
 1134              		.loc 1 2169 0
 1135 000c 1800     		movs	r0, r3
 1136 000e BD46     		mov	sp, r7
 1137              		@ sp needed
 1138 0010 80BD     		pop	{r7, pc}
 1139              	.L67:
 1140 0012 C046     		.align	2
 1141              	.L66:
 1142 0014 04000B40 		.word	1074462724
 1143              		.cfi_endproc
 1144              	.LFE15:
 1145              		.size	CySysLvdGetInterruptSource, .-CySysLvdGetInterruptSource
 1146              		.section	.text.CySysLvdClearInterrupt,"ax",%progbits
 1147              		.align	2
 1148              		.global	CySysLvdClearInterrupt
 1149              		.code	16
 1150              		.thumb_func
 1151              		.type	CySysLvdClearInterrupt, %function
 1152              	CySysLvdClearInterrupt:
 1153              	.LFB16:
2170:Generated_Source\PSoC4/CyLib.c **** 
2171:Generated_Source\PSoC4/CyLib.c **** 
2172:Generated_Source\PSoC4/CyLib.c ****     /*******************************************************************************
2173:Generated_Source\PSoC4/CyLib.c ****     * Function Name: CySysLvdClearInterrupt
2174:Generated_Source\PSoC4/CyLib.c ****     ****************************************************************************//**
2175:Generated_Source\PSoC4/CyLib.c ****     *
2176:Generated_Source\PSoC4/CyLib.c ****     *  Clears the low voltage detection interrupt status.
2177:Generated_Source\PSoC4/CyLib.c ****     *
2178:Generated_Source\PSoC4/CyLib.c ****     * \return
2179:Generated_Source\PSoC4/CyLib.c ****     *  None
2180:Generated_Source\PSoC4/CyLib.c ****     *
2181:Generated_Source\PSoC4/CyLib.c ****     *******************************************************************************/
2182:Generated_Source\PSoC4/CyLib.c ****     void CySysLvdClearInterrupt(void)
2183:Generated_Source\PSoC4/CyLib.c ****     {
 1154              		.loc 1 2183 0
 1155              		.cfi_startproc
 1156              		@ args = 0, pretend = 0, frame = 0
 1157              		@ frame_needed = 1, uses_anonymous_args = 0
 1158 0000 80B5     		push	{r7, lr}
 1159              		.cfi_def_cfa_offset 8
 1160              		.cfi_offset 7, -8
 1161              		.cfi_offset 14, -4
 1162 0002 00AF     		add	r7, sp, #0
 1163              		.cfi_def_cfa_register 7
2184:Generated_Source\PSoC4/CyLib.c ****         CY_LVD_PWR_INTR_REG = CY_SYS_LVD_INT;
 1164              		.loc 1 2184 0
 1165 0004 024B     		ldr	r3, .L69
ARM GAS  C:\Users\PC\AppData\Local\Temp\ccW101Aa.s 			page 60


 1166 0006 0222     		movs	r2, #2
 1167 0008 1A60     		str	r2, [r3]
2185:Generated_Source\PSoC4/CyLib.c ****     }
 1168              		.loc 1 2185 0
 1169 000a C046     		nop
 1170 000c BD46     		mov	sp, r7
 1171              		@ sp needed
 1172 000e 80BD     		pop	{r7, pc}
 1173              	.L70:
 1174              		.align	2
 1175              	.L69:
 1176 0010 04000B40 		.word	1074462724
 1177              		.cfi_endproc
 1178              	.LFE16:
 1179              		.size	CySysLvdClearInterrupt, .-CySysLvdClearInterrupt
 1180              		.section	.text.CySysGetResetReason,"ax",%progbits
 1181              		.align	2
 1182              		.global	CySysGetResetReason
 1183              		.code	16
 1184              		.thumb_func
 1185              		.type	CySysGetResetReason, %function
 1186              	CySysGetResetReason:
 1187              	.LFB17:
2186:Generated_Source\PSoC4/CyLib.c **** 
2187:Generated_Source\PSoC4/CyLib.c **** #endif /* (CY_IP_SRSSV2) */
2188:Generated_Source\PSoC4/CyLib.c **** 
2189:Generated_Source\PSoC4/CyLib.c **** 
2190:Generated_Source\PSoC4/CyLib.c **** /*******************************************************************************
2191:Generated_Source\PSoC4/CyLib.c **** * Function Name: CySysGetResetReason
2192:Generated_Source\PSoC4/CyLib.c **** ****************************************************************************//**
2193:Generated_Source\PSoC4/CyLib.c **** *
2194:Generated_Source\PSoC4/CyLib.c **** *  Reports the cause for the latest reset(s) that occurred in the system. All
2195:Generated_Source\PSoC4/CyLib.c **** *  the bits in the RES_CAUSE register assert when the corresponding reset cause
2196:Generated_Source\PSoC4/CyLib.c **** *  occurs and must be cleared by the firmware. These bits are cleared by the
2197:Generated_Source\PSoC4/CyLib.c **** *  hardware only during XRES, POR, or a detected brown-out.
2198:Generated_Source\PSoC4/CyLib.c **** *
2199:Generated_Source\PSoC4/CyLib.c **** *  \param reason: bits in the RES_CAUSE register to clear.
2200:Generated_Source\PSoC4/CyLib.c **** *   CY_SYS_RESET_WDT       - WDT caused a reset
2201:Generated_Source\PSoC4/CyLib.c **** *   CY_SYS_RESET_PROTFAULT - Occured protection violation that requires reset
2202:Generated_Source\PSoC4/CyLib.c **** *   CY_SYS_RESET_SW        - Cortex-M0 requested a system reset.
2203:Generated_Source\PSoC4/CyLib.c **** *
2204:Generated_Source\PSoC4/CyLib.c **** * \return
2205:Generated_Source\PSoC4/CyLib.c **** *  Status. Same enumerated bit values as used for the reason parameter.
2206:Generated_Source\PSoC4/CyLib.c **** *
2207:Generated_Source\PSoC4/CyLib.c **** *******************************************************************************/
2208:Generated_Source\PSoC4/CyLib.c **** uint32 CySysGetResetReason(uint32 reason)
2209:Generated_Source\PSoC4/CyLib.c **** {
 1188              		.loc 1 2209 0
 1189              		.cfi_startproc
 1190              		@ args = 0, pretend = 0, frame = 16
 1191              		@ frame_needed = 1, uses_anonymous_args = 0
 1192 0000 80B5     		push	{r7, lr}
 1193              		.cfi_def_cfa_offset 8
 1194              		.cfi_offset 7, -8
 1195              		.cfi_offset 14, -4
 1196 0002 84B0     		sub	sp, sp, #16
 1197              		.cfi_def_cfa_offset 24
ARM GAS  C:\Users\PC\AppData\Local\Temp\ccW101Aa.s 			page 61


 1198 0004 00AF     		add	r7, sp, #0
 1199              		.cfi_def_cfa_register 7
 1200 0006 7860     		str	r0, [r7, #4]
2210:Generated_Source\PSoC4/CyLib.c ****     uint32 returnStatus;
2211:Generated_Source\PSoC4/CyLib.c **** 
2212:Generated_Source\PSoC4/CyLib.c ****     reason &= (CY_SYS_RESET_WDT | CY_SYS_RESET_PROTFAULT | CY_SYS_RESET_SW);
 1201              		.loc 1 2212 0
 1202 0008 7B68     		ldr	r3, [r7, #4]
 1203 000a 1922     		movs	r2, #25
 1204 000c 1340     		ands	r3, r2
 1205 000e 7B60     		str	r3, [r7, #4]
2213:Generated_Source\PSoC4/CyLib.c ****     returnStatus = CY_SYS_RES_CAUSE_REG &
 1206              		.loc 1 2213 0
 1207 0010 064B     		ldr	r3, .L73
 1208 0012 1B68     		ldr	r3, [r3]
 1209 0014 1922     		movs	r2, #25
 1210 0016 1340     		ands	r3, r2
 1211 0018 FB60     		str	r3, [r7, #12]
2214:Generated_Source\PSoC4/CyLib.c ****                   (CY_SYS_RESET_WDT | CY_SYS_RESET_PROTFAULT | CY_SYS_RESET_SW);
2215:Generated_Source\PSoC4/CyLib.c ****     CY_SYS_RES_CAUSE_REG = reason;
 1212              		.loc 1 2215 0
 1213 001a 044B     		ldr	r3, .L73
 1214 001c 7A68     		ldr	r2, [r7, #4]
 1215 001e 1A60     		str	r2, [r3]
2216:Generated_Source\PSoC4/CyLib.c **** 
2217:Generated_Source\PSoC4/CyLib.c ****     return (returnStatus);
 1216              		.loc 1 2217 0
 1217 0020 FB68     		ldr	r3, [r7, #12]
2218:Generated_Source\PSoC4/CyLib.c **** }
 1218              		.loc 1 2218 0
 1219 0022 1800     		movs	r0, r3
 1220 0024 BD46     		mov	sp, r7
 1221 0026 04B0     		add	sp, sp, #16
 1222              		@ sp needed
 1223 0028 80BD     		pop	{r7, pc}
 1224              	.L74:
 1225 002a C046     		.align	2
 1226              	.L73:
 1227 002c 00030B40 		.word	1074463488
 1228              		.cfi_endproc
 1229              	.LFE17:
 1230              		.size	CySysGetResetReason, .-CySysGetResetReason
 1231              		.section	.text.CyDisableInts,"ax",%progbits
 1232              		.align	2
 1233              		.global	CyDisableInts
 1234              		.code	16
 1235              		.thumb_func
 1236              		.type	CyDisableInts, %function
 1237              	CyDisableInts:
 1238              	.LFB18:
2219:Generated_Source\PSoC4/CyLib.c **** 
2220:Generated_Source\PSoC4/CyLib.c **** 
2221:Generated_Source\PSoC4/CyLib.c **** /*******************************************************************************
2222:Generated_Source\PSoC4/CyLib.c **** * Function Name: CyDisableInts
2223:Generated_Source\PSoC4/CyLib.c **** ****************************************************************************//**
2224:Generated_Source\PSoC4/CyLib.c **** *
2225:Generated_Source\PSoC4/CyLib.c **** *  Disables all interrupts.
ARM GAS  C:\Users\PC\AppData\Local\Temp\ccW101Aa.s 			page 62


2226:Generated_Source\PSoC4/CyLib.c **** *
2227:Generated_Source\PSoC4/CyLib.c **** * \return
2228:Generated_Source\PSoC4/CyLib.c **** *  32 bit mask of previously enabled interrupts.
2229:Generated_Source\PSoC4/CyLib.c **** *
2230:Generated_Source\PSoC4/CyLib.c **** *******************************************************************************/
2231:Generated_Source\PSoC4/CyLib.c **** uint32 CyDisableInts(void)
2232:Generated_Source\PSoC4/CyLib.c **** {
 1239              		.loc 1 2232 0
 1240              		.cfi_startproc
 1241              		@ args = 0, pretend = 0, frame = 8
 1242              		@ frame_needed = 1, uses_anonymous_args = 0
 1243 0000 80B5     		push	{r7, lr}
 1244              		.cfi_def_cfa_offset 8
 1245              		.cfi_offset 7, -8
 1246              		.cfi_offset 14, -4
 1247 0002 82B0     		sub	sp, sp, #8
 1248              		.cfi_def_cfa_offset 16
 1249 0004 00AF     		add	r7, sp, #0
 1250              		.cfi_def_cfa_register 7
2233:Generated_Source\PSoC4/CyLib.c ****     uint32 intState;
2234:Generated_Source\PSoC4/CyLib.c **** 
2235:Generated_Source\PSoC4/CyLib.c ****     /* Get current interrupt state. */
2236:Generated_Source\PSoC4/CyLib.c ****     intState = CY_INT_CLEAR_REG;
 1251              		.loc 1 2236 0
 1252 0006 064B     		ldr	r3, .L77
 1253 0008 1B68     		ldr	r3, [r3]
 1254 000a 7B60     		str	r3, [r7, #4]
2237:Generated_Source\PSoC4/CyLib.c **** 
2238:Generated_Source\PSoC4/CyLib.c ****     /* Disable all interrupts. */
2239:Generated_Source\PSoC4/CyLib.c ****     CY_INT_CLEAR_REG = CY_INT_CLEAR_DISABLE_ALL;
 1255              		.loc 1 2239 0
 1256 000c 044B     		ldr	r3, .L77
 1257 000e 0122     		movs	r2, #1
 1258 0010 5242     		rsbs	r2, r2, #0
 1259 0012 1A60     		str	r2, [r3]
2240:Generated_Source\PSoC4/CyLib.c **** 
2241:Generated_Source\PSoC4/CyLib.c ****     return (intState);
 1260              		.loc 1 2241 0
 1261 0014 7B68     		ldr	r3, [r7, #4]
2242:Generated_Source\PSoC4/CyLib.c **** }
 1262              		.loc 1 2242 0
 1263 0016 1800     		movs	r0, r3
 1264 0018 BD46     		mov	sp, r7
 1265 001a 02B0     		add	sp, sp, #8
 1266              		@ sp needed
 1267 001c 80BD     		pop	{r7, pc}
 1268              	.L78:
 1269 001e C046     		.align	2
 1270              	.L77:
 1271 0020 80E100E0 		.word	-536813184
 1272              		.cfi_endproc
 1273              	.LFE18:
 1274              		.size	CyDisableInts, .-CyDisableInts
 1275              		.section	.text.CyEnableInts,"ax",%progbits
 1276              		.align	2
 1277              		.global	CyEnableInts
 1278              		.code	16
ARM GAS  C:\Users\PC\AppData\Local\Temp\ccW101Aa.s 			page 63


 1279              		.thumb_func
 1280              		.type	CyEnableInts, %function
 1281              	CyEnableInts:
 1282              	.LFB19:
2243:Generated_Source\PSoC4/CyLib.c **** 
2244:Generated_Source\PSoC4/CyLib.c **** 
2245:Generated_Source\PSoC4/CyLib.c **** /*******************************************************************************
2246:Generated_Source\PSoC4/CyLib.c **** * Function Name: CyEnableInts
2247:Generated_Source\PSoC4/CyLib.c **** ****************************************************************************//**
2248:Generated_Source\PSoC4/CyLib.c **** *
2249:Generated_Source\PSoC4/CyLib.c **** *  Enables interrupts to a given state.
2250:Generated_Source\PSoC4/CyLib.c **** *
2251:Generated_Source\PSoC4/CyLib.c **** *  \param mask The 32 bit mask of interrupts to enable.
2252:Generated_Source\PSoC4/CyLib.c **** *
2253:Generated_Source\PSoC4/CyLib.c **** *******************************************************************************/
2254:Generated_Source\PSoC4/CyLib.c **** void CyEnableInts(uint32 mask)
2255:Generated_Source\PSoC4/CyLib.c **** {
 1283              		.loc 1 2255 0
 1284              		.cfi_startproc
 1285              		@ args = 0, pretend = 0, frame = 8
 1286              		@ frame_needed = 1, uses_anonymous_args = 0
 1287 0000 80B5     		push	{r7, lr}
 1288              		.cfi_def_cfa_offset 8
 1289              		.cfi_offset 7, -8
 1290              		.cfi_offset 14, -4
 1291 0002 82B0     		sub	sp, sp, #8
 1292              		.cfi_def_cfa_offset 16
 1293 0004 00AF     		add	r7, sp, #0
 1294              		.cfi_def_cfa_register 7
 1295 0006 7860     		str	r0, [r7, #4]
2256:Generated_Source\PSoC4/CyLib.c ****     CY_INT_ENABLE_REG = mask;
 1296              		.loc 1 2256 0
 1297 0008 034B     		ldr	r3, .L80
 1298 000a 7A68     		ldr	r2, [r7, #4]
 1299 000c 1A60     		str	r2, [r3]
2257:Generated_Source\PSoC4/CyLib.c **** }
 1300              		.loc 1 2257 0
 1301 000e C046     		nop
 1302 0010 BD46     		mov	sp, r7
 1303 0012 02B0     		add	sp, sp, #8
 1304              		@ sp needed
 1305 0014 80BD     		pop	{r7, pc}
 1306              	.L81:
 1307 0016 C046     		.align	2
 1308              	.L80:
 1309 0018 00E100E0 		.word	-536813312
 1310              		.cfi_endproc
 1311              	.LFE19:
 1312              		.size	CyEnableInts, .-CyEnableInts
 1313              		.section	.text.CyIntSetSysVector,"ax",%progbits
 1314              		.align	2
 1315              		.global	CyIntSetSysVector
 1316              		.code	16
 1317              		.thumb_func
 1318              		.type	CyIntSetSysVector, %function
 1319              	CyIntSetSysVector:
 1320              	.LFB20:
ARM GAS  C:\Users\PC\AppData\Local\Temp\ccW101Aa.s 			page 64


2258:Generated_Source\PSoC4/CyLib.c **** 
2259:Generated_Source\PSoC4/CyLib.c **** 
2260:Generated_Source\PSoC4/CyLib.c **** /*******************************************************************************
2261:Generated_Source\PSoC4/CyLib.c **** * Function Name: CyIntSetSysVector
2262:Generated_Source\PSoC4/CyLib.c **** ****************************************************************************//**
2263:Generated_Source\PSoC4/CyLib.c **** *
2264:Generated_Source\PSoC4/CyLib.c **** *  Sets the interrupt vector of the specified system interrupt number. These
2265:Generated_Source\PSoC4/CyLib.c **** *  interrupts are for SysTick, PendSV and others.
2266:Generated_Source\PSoC4/CyLib.c **** *
2267:Generated_Source\PSoC4/CyLib.c **** *  \param number: System interrupt number:
2268:Generated_Source\PSoC4/CyLib.c **** *    CY_INT_NMI_IRQN        - Non Maskable Interrupt
2269:Generated_Source\PSoC4/CyLib.c **** *    CY_INT_HARD_FAULT_IRQN - Hard Fault Interrupt
2270:Generated_Source\PSoC4/CyLib.c **** *    CY_INT_SVCALL_IRQN     - SV Call Interrupt
2271:Generated_Source\PSoC4/CyLib.c **** *    CY_INT_PEND_SV_IRQN    - Pend SV Interrupt
2272:Generated_Source\PSoC4/CyLib.c **** *    CY_INT_SYSTICK_IRQN    - System Tick Interrupt
2273:Generated_Source\PSoC4/CyLib.c **** *
2274:Generated_Source\PSoC4/CyLib.c **** *  \param address Pointer to an interrupt service routine.
2275:Generated_Source\PSoC4/CyLib.c **** *
2276:Generated_Source\PSoC4/CyLib.c **** * \return The old ISR vector at this location.
2277:Generated_Source\PSoC4/CyLib.c **** *
2278:Generated_Source\PSoC4/CyLib.c **** *******************************************************************************/
2279:Generated_Source\PSoC4/CyLib.c **** cyisraddress CyIntSetSysVector(uint8 number, cyisraddress address)
2280:Generated_Source\PSoC4/CyLib.c **** {
 1321              		.loc 1 2280 0
 1322              		.cfi_startproc
 1323              		@ args = 0, pretend = 0, frame = 16
 1324              		@ frame_needed = 1, uses_anonymous_args = 0
 1325 0000 80B5     		push	{r7, lr}
 1326              		.cfi_def_cfa_offset 8
 1327              		.cfi_offset 7, -8
 1328              		.cfi_offset 14, -4
 1329 0002 84B0     		sub	sp, sp, #16
 1330              		.cfi_def_cfa_offset 24
 1331 0004 00AF     		add	r7, sp, #0
 1332              		.cfi_def_cfa_register 7
 1333 0006 0200     		movs	r2, r0
 1334 0008 3960     		str	r1, [r7]
 1335 000a FB1D     		adds	r3, r7, #7
 1336 000c 1A70     		strb	r2, [r3]
2281:Generated_Source\PSoC4/CyLib.c ****     cyisraddress oldIsr;
2282:Generated_Source\PSoC4/CyLib.c ****     cyisraddress *ramVectorTable = (cyisraddress *) CY_INT_VECT_TABLE;
 1337              		.loc 1 2282 0
 1338 000e 8023     		movs	r3, #128
 1339 0010 9B05     		lsls	r3, r3, #22
 1340 0012 FB60     		str	r3, [r7, #12]
2283:Generated_Source\PSoC4/CyLib.c **** 
2284:Generated_Source\PSoC4/CyLib.c ****     CYASSERT(number < CY_INT_IRQ_BASE);
 1341              		.loc 1 2284 0
 1342 0014 FB1D     		adds	r3, r7, #7
 1343 0016 1B78     		ldrb	r3, [r3]
 1344 0018 0F2B     		cmp	r3, #15
 1345 001a 02D9     		bls	.L83
 1346              		.loc 1 2284 0 is_stmt 0 discriminator 1
 1347 001c 0020     		movs	r0, #0
 1348 001e FFF7FEFF 		bl	CyHalt
 1349              	.L83:
2285:Generated_Source\PSoC4/CyLib.c **** 
ARM GAS  C:\Users\PC\AppData\Local\Temp\ccW101Aa.s 			page 65


2286:Generated_Source\PSoC4/CyLib.c ****     /* Save old Interrupt service routine. */
2287:Generated_Source\PSoC4/CyLib.c ****     oldIsr = ramVectorTable[number];
 1350              		.loc 1 2287 0 is_stmt 1
 1351 0022 FB1D     		adds	r3, r7, #7
 1352 0024 1B78     		ldrb	r3, [r3]
 1353 0026 9B00     		lsls	r3, r3, #2
 1354 0028 FA68     		ldr	r2, [r7, #12]
 1355 002a D318     		adds	r3, r2, r3
 1356 002c 1B68     		ldr	r3, [r3]
 1357 002e BB60     		str	r3, [r7, #8]
2288:Generated_Source\PSoC4/CyLib.c **** 
2289:Generated_Source\PSoC4/CyLib.c ****     /* Set new Interrupt service routine. */
2290:Generated_Source\PSoC4/CyLib.c ****     ramVectorTable[number] = address;
 1358              		.loc 1 2290 0
 1359 0030 FB1D     		adds	r3, r7, #7
 1360 0032 1B78     		ldrb	r3, [r3]
 1361 0034 9B00     		lsls	r3, r3, #2
 1362 0036 FA68     		ldr	r2, [r7, #12]
 1363 0038 D318     		adds	r3, r2, r3
 1364 003a 3A68     		ldr	r2, [r7]
 1365 003c 1A60     		str	r2, [r3]
2291:Generated_Source\PSoC4/CyLib.c **** 
2292:Generated_Source\PSoC4/CyLib.c ****     return(oldIsr);
 1366              		.loc 1 2292 0
 1367 003e BB68     		ldr	r3, [r7, #8]
2293:Generated_Source\PSoC4/CyLib.c **** }
 1368              		.loc 1 2293 0
 1369 0040 1800     		movs	r0, r3
 1370 0042 BD46     		mov	sp, r7
 1371 0044 04B0     		add	sp, sp, #16
 1372              		@ sp needed
 1373 0046 80BD     		pop	{r7, pc}
 1374              		.cfi_endproc
 1375              	.LFE20:
 1376              		.size	CyIntSetSysVector, .-CyIntSetSysVector
 1377              		.section	.text.CyIntGetSysVector,"ax",%progbits
 1378              		.align	2
 1379              		.global	CyIntGetSysVector
 1380              		.code	16
 1381              		.thumb_func
 1382              		.type	CyIntGetSysVector, %function
 1383              	CyIntGetSysVector:
 1384              	.LFB21:
2294:Generated_Source\PSoC4/CyLib.c **** 
2295:Generated_Source\PSoC4/CyLib.c **** 
2296:Generated_Source\PSoC4/CyLib.c **** /*******************************************************************************
2297:Generated_Source\PSoC4/CyLib.c **** * Function Name: CyIntGetSysVector
2298:Generated_Source\PSoC4/CyLib.c **** ****************************************************************************//**
2299:Generated_Source\PSoC4/CyLib.c **** *
2300:Generated_Source\PSoC4/CyLib.c **** *   Gets the interrupt vector of the specified system interrupt number. These
2301:Generated_Source\PSoC4/CyLib.c **** *   interrupts are for SysTick, PendSV and others.
2302:Generated_Source\PSoC4/CyLib.c **** *
2303:Generated_Source\PSoC4/CyLib.c **** *  \param number: System interrupt number:
2304:Generated_Source\PSoC4/CyLib.c **** *    CY_INT_NMI_IRQN        - Non Maskable Interrupt
2305:Generated_Source\PSoC4/CyLib.c **** *    CY_INT_HARD_FAULT_IRQN - Hard Fault Interrupt
2306:Generated_Source\PSoC4/CyLib.c **** *    CY_INT_SVCALL_IRQN     - SV Call Interrupt
2307:Generated_Source\PSoC4/CyLib.c **** *    CY_INT_PEND_SV_IRQN    - Pend SV Interrupt
ARM GAS  C:\Users\PC\AppData\Local\Temp\ccW101Aa.s 			page 66


2308:Generated_Source\PSoC4/CyLib.c **** *    CY_INT_SYSTICK_IRQN    - System Tick Interrupt
2309:Generated_Source\PSoC4/CyLib.c **** *
2310:Generated_Source\PSoC4/CyLib.c **** * \return Address of the ISR in the interrupt vector table.
2311:Generated_Source\PSoC4/CyLib.c **** *
2312:Generated_Source\PSoC4/CyLib.c **** *******************************************************************************/
2313:Generated_Source\PSoC4/CyLib.c **** cyisraddress CyIntGetSysVector(uint8 number)
2314:Generated_Source\PSoC4/CyLib.c **** {
 1385              		.loc 1 2314 0
 1386              		.cfi_startproc
 1387              		@ args = 0, pretend = 0, frame = 16
 1388              		@ frame_needed = 1, uses_anonymous_args = 0
 1389 0000 80B5     		push	{r7, lr}
 1390              		.cfi_def_cfa_offset 8
 1391              		.cfi_offset 7, -8
 1392              		.cfi_offset 14, -4
 1393 0002 84B0     		sub	sp, sp, #16
 1394              		.cfi_def_cfa_offset 24
 1395 0004 00AF     		add	r7, sp, #0
 1396              		.cfi_def_cfa_register 7
 1397 0006 0200     		movs	r2, r0
 1398 0008 FB1D     		adds	r3, r7, #7
 1399 000a 1A70     		strb	r2, [r3]
2315:Generated_Source\PSoC4/CyLib.c ****     cyisraddress *ramVectorTable = (cyisraddress *) CY_INT_VECT_TABLE;
 1400              		.loc 1 2315 0
 1401 000c 8023     		movs	r3, #128
 1402 000e 9B05     		lsls	r3, r3, #22
 1403 0010 FB60     		str	r3, [r7, #12]
2316:Generated_Source\PSoC4/CyLib.c **** 
2317:Generated_Source\PSoC4/CyLib.c ****     CYASSERT(number < CY_INT_IRQ_BASE);
 1404              		.loc 1 2317 0
 1405 0012 FB1D     		adds	r3, r7, #7
 1406 0014 1B78     		ldrb	r3, [r3]
 1407 0016 0F2B     		cmp	r3, #15
 1408 0018 02D9     		bls	.L86
 1409              		.loc 1 2317 0 is_stmt 0 discriminator 1
 1410 001a 0020     		movs	r0, #0
 1411 001c FFF7FEFF 		bl	CyHalt
 1412              	.L86:
2318:Generated_Source\PSoC4/CyLib.c **** 
2319:Generated_Source\PSoC4/CyLib.c ****     return(ramVectorTable[number]);
 1413              		.loc 1 2319 0 is_stmt 1
 1414 0020 FB1D     		adds	r3, r7, #7
 1415 0022 1B78     		ldrb	r3, [r3]
 1416 0024 9B00     		lsls	r3, r3, #2
 1417 0026 FA68     		ldr	r2, [r7, #12]
 1418 0028 D318     		adds	r3, r2, r3
 1419 002a 1B68     		ldr	r3, [r3]
2320:Generated_Source\PSoC4/CyLib.c **** }
 1420              		.loc 1 2320 0
 1421 002c 1800     		movs	r0, r3
 1422 002e BD46     		mov	sp, r7
 1423 0030 04B0     		add	sp, sp, #16
 1424              		@ sp needed
 1425 0032 80BD     		pop	{r7, pc}
 1426              		.cfi_endproc
 1427              	.LFE21:
 1428              		.size	CyIntGetSysVector, .-CyIntGetSysVector
ARM GAS  C:\Users\PC\AppData\Local\Temp\ccW101Aa.s 			page 67


 1429              		.section	.text.CyIntSetVector,"ax",%progbits
 1430              		.align	2
 1431              		.global	CyIntSetVector
 1432              		.code	16
 1433              		.thumb_func
 1434              		.type	CyIntSetVector, %function
 1435              	CyIntSetVector:
 1436              	.LFB22:
2321:Generated_Source\PSoC4/CyLib.c **** 
2322:Generated_Source\PSoC4/CyLib.c **** 
2323:Generated_Source\PSoC4/CyLib.c **** /*******************************************************************************
2324:Generated_Source\PSoC4/CyLib.c **** * Function Name: CyIntSetVector
2325:Generated_Source\PSoC4/CyLib.c **** ****************************************************************************//**
2326:Generated_Source\PSoC4/CyLib.c **** *
2327:Generated_Source\PSoC4/CyLib.c **** *  Sets the interrupt vector of the specified interrupt number.
2328:Generated_Source\PSoC4/CyLib.c **** *
2329:Generated_Source\PSoC4/CyLib.c **** *  \param number Valid range [0-31].  Interrupt number
2330:Generated_Source\PSoC4/CyLib.c **** *  \param address Pointer to an interrupt service routine
2331:Generated_Source\PSoC4/CyLib.c **** *
2332:Generated_Source\PSoC4/CyLib.c **** * \return Previous interrupt vector value.
2333:Generated_Source\PSoC4/CyLib.c **** *
2334:Generated_Source\PSoC4/CyLib.c **** *******************************************************************************/
2335:Generated_Source\PSoC4/CyLib.c **** cyisraddress CyIntSetVector(uint8 number, cyisraddress address)
2336:Generated_Source\PSoC4/CyLib.c **** {
 1437              		.loc 1 2336 0
 1438              		.cfi_startproc
 1439              		@ args = 0, pretend = 0, frame = 16
 1440              		@ frame_needed = 1, uses_anonymous_args = 0
 1441 0000 80B5     		push	{r7, lr}
 1442              		.cfi_def_cfa_offset 8
 1443              		.cfi_offset 7, -8
 1444              		.cfi_offset 14, -4
 1445 0002 84B0     		sub	sp, sp, #16
 1446              		.cfi_def_cfa_offset 24
 1447 0004 00AF     		add	r7, sp, #0
 1448              		.cfi_def_cfa_register 7
 1449 0006 0200     		movs	r2, r0
 1450 0008 3960     		str	r1, [r7]
 1451 000a FB1D     		adds	r3, r7, #7
 1452 000c 1A70     		strb	r2, [r3]
2337:Generated_Source\PSoC4/CyLib.c ****     cyisraddress oldIsr;
2338:Generated_Source\PSoC4/CyLib.c ****     cyisraddress *ramVectorTable = (cyisraddress *) CY_INT_VECT_TABLE;
 1453              		.loc 1 2338 0
 1454 000e 8023     		movs	r3, #128
 1455 0010 9B05     		lsls	r3, r3, #22
 1456 0012 FB60     		str	r3, [r7, #12]
2339:Generated_Source\PSoC4/CyLib.c **** 
2340:Generated_Source\PSoC4/CyLib.c ****     CYASSERT(number < CY_NUM_INTERRUPTS);
 1457              		.loc 1 2340 0
 1458 0014 FB1D     		adds	r3, r7, #7
 1459 0016 1B78     		ldrb	r3, [r3]
 1460 0018 1F2B     		cmp	r3, #31
 1461 001a 02D9     		bls	.L89
 1462              		.loc 1 2340 0 is_stmt 0 discriminator 1
 1463 001c 0020     		movs	r0, #0
 1464 001e FFF7FEFF 		bl	CyHalt
 1465              	.L89:
ARM GAS  C:\Users\PC\AppData\Local\Temp\ccW101Aa.s 			page 68


2341:Generated_Source\PSoC4/CyLib.c **** 
2342:Generated_Source\PSoC4/CyLib.c ****     /* Save old Interrupt service routine. */
2343:Generated_Source\PSoC4/CyLib.c ****     oldIsr = ramVectorTable[CY_INT_IRQ_BASE + number];
 1466              		.loc 1 2343 0 is_stmt 1
 1467 0022 FB1D     		adds	r3, r7, #7
 1468 0024 1B78     		ldrb	r3, [r3]
 1469 0026 1033     		adds	r3, r3, #16
 1470 0028 9B00     		lsls	r3, r3, #2
 1471 002a FA68     		ldr	r2, [r7, #12]
 1472 002c D318     		adds	r3, r2, r3
 1473 002e 1B68     		ldr	r3, [r3]
 1474 0030 BB60     		str	r3, [r7, #8]
2344:Generated_Source\PSoC4/CyLib.c **** 
2345:Generated_Source\PSoC4/CyLib.c ****     /* Set new Interrupt service routine. */
2346:Generated_Source\PSoC4/CyLib.c ****     ramVectorTable[CY_INT_IRQ_BASE + number] = address;
 1475              		.loc 1 2346 0
 1476 0032 FB1D     		adds	r3, r7, #7
 1477 0034 1B78     		ldrb	r3, [r3]
 1478 0036 1033     		adds	r3, r3, #16
 1479 0038 9B00     		lsls	r3, r3, #2
 1480 003a FA68     		ldr	r2, [r7, #12]
 1481 003c D318     		adds	r3, r2, r3
 1482 003e 3A68     		ldr	r2, [r7]
 1483 0040 1A60     		str	r2, [r3]
2347:Generated_Source\PSoC4/CyLib.c **** 
2348:Generated_Source\PSoC4/CyLib.c ****     return(oldIsr);
 1484              		.loc 1 2348 0
 1485 0042 BB68     		ldr	r3, [r7, #8]
2349:Generated_Source\PSoC4/CyLib.c **** }
 1486              		.loc 1 2349 0
 1487 0044 1800     		movs	r0, r3
 1488 0046 BD46     		mov	sp, r7
 1489 0048 04B0     		add	sp, sp, #16
 1490              		@ sp needed
 1491 004a 80BD     		pop	{r7, pc}
 1492              		.cfi_endproc
 1493              	.LFE22:
 1494              		.size	CyIntSetVector, .-CyIntSetVector
 1495              		.section	.text.CyIntGetVector,"ax",%progbits
 1496              		.align	2
 1497              		.global	CyIntGetVector
 1498              		.code	16
 1499              		.thumb_func
 1500              		.type	CyIntGetVector, %function
 1501              	CyIntGetVector:
 1502              	.LFB23:
2350:Generated_Source\PSoC4/CyLib.c **** 
2351:Generated_Source\PSoC4/CyLib.c **** 
2352:Generated_Source\PSoC4/CyLib.c **** /*******************************************************************************
2353:Generated_Source\PSoC4/CyLib.c **** * Function Name: CyIntGetVector
2354:Generated_Source\PSoC4/CyLib.c **** ****************************************************************************//**
2355:Generated_Source\PSoC4/CyLib.c **** *
2356:Generated_Source\PSoC4/CyLib.c **** *  Gets the interrupt vector of the specified interrupt number.
2357:Generated_Source\PSoC4/CyLib.c **** *
2358:Generated_Source\PSoC4/CyLib.c **** *  \param number: Valid range [0-31].  Interrupt number
2359:Generated_Source\PSoC4/CyLib.c **** *
2360:Generated_Source\PSoC4/CyLib.c **** * \return Address of the ISR in the interrupt vector table.
ARM GAS  C:\Users\PC\AppData\Local\Temp\ccW101Aa.s 			page 69


2361:Generated_Source\PSoC4/CyLib.c **** *
2362:Generated_Source\PSoC4/CyLib.c **** *******************************************************************************/
2363:Generated_Source\PSoC4/CyLib.c **** cyisraddress CyIntGetVector(uint8 number)
2364:Generated_Source\PSoC4/CyLib.c **** {
 1503              		.loc 1 2364 0
 1504              		.cfi_startproc
 1505              		@ args = 0, pretend = 0, frame = 16
 1506              		@ frame_needed = 1, uses_anonymous_args = 0
 1507 0000 80B5     		push	{r7, lr}
 1508              		.cfi_def_cfa_offset 8
 1509              		.cfi_offset 7, -8
 1510              		.cfi_offset 14, -4
 1511 0002 84B0     		sub	sp, sp, #16
 1512              		.cfi_def_cfa_offset 24
 1513 0004 00AF     		add	r7, sp, #0
 1514              		.cfi_def_cfa_register 7
 1515 0006 0200     		movs	r2, r0
 1516 0008 FB1D     		adds	r3, r7, #7
 1517 000a 1A70     		strb	r2, [r3]
2365:Generated_Source\PSoC4/CyLib.c ****     cyisraddress *ramVectorTable = (cyisraddress *) CY_INT_VECT_TABLE;
 1518              		.loc 1 2365 0
 1519 000c 8023     		movs	r3, #128
 1520 000e 9B05     		lsls	r3, r3, #22
 1521 0010 FB60     		str	r3, [r7, #12]
2366:Generated_Source\PSoC4/CyLib.c **** 
2367:Generated_Source\PSoC4/CyLib.c ****     CYASSERT(number < CY_NUM_INTERRUPTS);
 1522              		.loc 1 2367 0
 1523 0012 FB1D     		adds	r3, r7, #7
 1524 0014 1B78     		ldrb	r3, [r3]
 1525 0016 1F2B     		cmp	r3, #31
 1526 0018 02D9     		bls	.L92
 1527              		.loc 1 2367 0 is_stmt 0 discriminator 1
 1528 001a 0020     		movs	r0, #0
 1529 001c FFF7FEFF 		bl	CyHalt
 1530              	.L92:
2368:Generated_Source\PSoC4/CyLib.c **** 
2369:Generated_Source\PSoC4/CyLib.c ****     return (ramVectorTable[CY_INT_IRQ_BASE + number]);
 1531              		.loc 1 2369 0 is_stmt 1
 1532 0020 FB1D     		adds	r3, r7, #7
 1533 0022 1B78     		ldrb	r3, [r3]
 1534 0024 1033     		adds	r3, r3, #16
 1535 0026 9B00     		lsls	r3, r3, #2
 1536 0028 FA68     		ldr	r2, [r7, #12]
 1537 002a D318     		adds	r3, r2, r3
 1538 002c 1B68     		ldr	r3, [r3]
2370:Generated_Source\PSoC4/CyLib.c **** }
 1539              		.loc 1 2370 0
 1540 002e 1800     		movs	r0, r3
 1541 0030 BD46     		mov	sp, r7
 1542 0032 04B0     		add	sp, sp, #16
 1543              		@ sp needed
 1544 0034 80BD     		pop	{r7, pc}
 1545              		.cfi_endproc
 1546              	.LFE23:
 1547              		.size	CyIntGetVector, .-CyIntGetVector
 1548 0036 C046     		.section	.text.CyIntSetPriority,"ax",%progbits
 1549              		.align	2
ARM GAS  C:\Users\PC\AppData\Local\Temp\ccW101Aa.s 			page 70


 1550              		.global	CyIntSetPriority
 1551              		.code	16
 1552              		.thumb_func
 1553              		.type	CyIntSetPriority, %function
 1554              	CyIntSetPriority:
 1555              	.LFB24:
2371:Generated_Source\PSoC4/CyLib.c **** 
2372:Generated_Source\PSoC4/CyLib.c **** /*******************************************************************************
2373:Generated_Source\PSoC4/CyLib.c **** * Function Name: CyIntSetPriority
2374:Generated_Source\PSoC4/CyLib.c **** ****************************************************************************//**
2375:Generated_Source\PSoC4/CyLib.c **** *
2376:Generated_Source\PSoC4/CyLib.c **** *  Sets the priority of the interrupt.
2377:Generated_Source\PSoC4/CyLib.c **** *
2378:Generated_Source\PSoC4/CyLib.c **** *  \param priority: Priority of the interrupt. 0 - 3, 0 being the highest.
2379:Generated_Source\PSoC4/CyLib.c **** *  \param number: The number of the interrupt, 0 - 31.
2380:Generated_Source\PSoC4/CyLib.c **** *
2381:Generated_Source\PSoC4/CyLib.c **** *******************************************************************************/
2382:Generated_Source\PSoC4/CyLib.c **** void CyIntSetPriority(uint8 number, uint8 priority)
2383:Generated_Source\PSoC4/CyLib.c **** {
 1556              		.loc 1 2383 0
 1557              		.cfi_startproc
 1558              		@ args = 0, pretend = 0, frame = 24
 1559              		@ frame_needed = 1, uses_anonymous_args = 0
 1560 0000 90B5     		push	{r4, r7, lr}
 1561              		.cfi_def_cfa_offset 12
 1562              		.cfi_offset 4, -12
 1563              		.cfi_offset 7, -8
 1564              		.cfi_offset 14, -4
 1565 0002 87B0     		sub	sp, sp, #28
 1566              		.cfi_def_cfa_offset 40
 1567 0004 00AF     		add	r7, sp, #0
 1568              		.cfi_def_cfa_register 7
 1569 0006 0200     		movs	r2, r0
 1570 0008 FB1D     		adds	r3, r7, #7
 1571 000a 1A70     		strb	r2, [r3]
 1572 000c BB1D     		adds	r3, r7, #6
 1573 000e 0A1C     		adds	r2, r1, #0
 1574 0010 1A70     		strb	r2, [r3]
2384:Generated_Source\PSoC4/CyLib.c ****     uint8 interruptState;
2385:Generated_Source\PSoC4/CyLib.c ****     uint32 shift;
2386:Generated_Source\PSoC4/CyLib.c ****     uint32 value;
2387:Generated_Source\PSoC4/CyLib.c **** 
2388:Generated_Source\PSoC4/CyLib.c ****     CYASSERT(priority <= CY_MIN_PRIORITY);
 1575              		.loc 1 2388 0
 1576 0012 BB1D     		adds	r3, r7, #6
 1577 0014 1B78     		ldrb	r3, [r3]
 1578 0016 032B     		cmp	r3, #3
 1579 0018 02D9     		bls	.L95
 1580              		.loc 1 2388 0 is_stmt 0 discriminator 1
 1581 001a 0020     		movs	r0, #0
 1582 001c FFF7FEFF 		bl	CyHalt
 1583              	.L95:
2389:Generated_Source\PSoC4/CyLib.c ****     CYASSERT(number < CY_NUM_INTERRUPTS);
 1584              		.loc 1 2389 0 is_stmt 1
 1585 0020 FB1D     		adds	r3, r7, #7
 1586 0022 1B78     		ldrb	r3, [r3]
 1587 0024 1F2B     		cmp	r3, #31
ARM GAS  C:\Users\PC\AppData\Local\Temp\ccW101Aa.s 			page 71


 1588 0026 02D9     		bls	.L96
 1589              		.loc 1 2389 0 is_stmt 0 discriminator 1
 1590 0028 0020     		movs	r0, #0
 1591 002a FFF7FEFF 		bl	CyHalt
 1592              	.L96:
2390:Generated_Source\PSoC4/CyLib.c **** 
2391:Generated_Source\PSoC4/CyLib.c ****     shift = CY_INT_PRIORITY_SHIFT(number);
 1593              		.loc 1 2391 0 is_stmt 1
 1594 002e FB1D     		adds	r3, r7, #7
 1595 0030 1B78     		ldrb	r3, [r3]
 1596 0032 0322     		movs	r2, #3
 1597 0034 1340     		ands	r3, r2
 1598 0036 DB00     		lsls	r3, r3, #3
 1599 0038 0633     		adds	r3, r3, #6
 1600 003a 7B61     		str	r3, [r7, #20]
2392:Generated_Source\PSoC4/CyLib.c **** 
2393:Generated_Source\PSoC4/CyLib.c ****     interruptState = CyEnterCriticalSection();
 1601              		.loc 1 2393 0
 1602 003c 1323     		movs	r3, #19
 1603 003e FC18     		adds	r4, r7, r3
 1604 0040 FFF7FEFF 		bl	CyEnterCriticalSection
 1605 0044 0300     		movs	r3, r0
 1606 0046 2370     		strb	r3, [r4]
2394:Generated_Source\PSoC4/CyLib.c **** 
2395:Generated_Source\PSoC4/CyLib.c ****     value = CY_INT_PRIORITY_REG(number);
 1607              		.loc 1 2395 0
 1608 0048 FB1D     		adds	r3, r7, #7
 1609 004a 1B78     		ldrb	r3, [r3]
 1610 004c 9B08     		lsrs	r3, r3, #2
 1611 004e DBB2     		uxtb	r3, r3
 1612 0050 9B00     		lsls	r3, r3, #2
 1613 0052 144A     		ldr	r2, .L97
 1614 0054 9446     		mov	ip, r2
 1615 0056 6344     		add	r3, r3, ip
 1616 0058 1B68     		ldr	r3, [r3]
 1617 005a FB60     		str	r3, [r7, #12]
2396:Generated_Source\PSoC4/CyLib.c ****     value &= (uint32)(~((uint32)(CY_INT_PRIORITY_MASK << shift)));
 1618              		.loc 1 2396 0
 1619 005c 0322     		movs	r2, #3
 1620 005e 7B69     		ldr	r3, [r7, #20]
 1621 0060 9A40     		lsls	r2, r2, r3
 1622 0062 1300     		movs	r3, r2
 1623 0064 DA43     		mvns	r2, r3
 1624 0066 FB68     		ldr	r3, [r7, #12]
 1625 0068 1340     		ands	r3, r2
 1626 006a FB60     		str	r3, [r7, #12]
2397:Generated_Source\PSoC4/CyLib.c ****     value |= ((uint32)priority << shift);
 1627              		.loc 1 2397 0
 1628 006c BB1D     		adds	r3, r7, #6
 1629 006e 1A78     		ldrb	r2, [r3]
 1630 0070 7B69     		ldr	r3, [r7, #20]
 1631 0072 9A40     		lsls	r2, r2, r3
 1632 0074 1300     		movs	r3, r2
 1633 0076 FA68     		ldr	r2, [r7, #12]
 1634 0078 1343     		orrs	r3, r2
 1635 007a FB60     		str	r3, [r7, #12]
2398:Generated_Source\PSoC4/CyLib.c ****     CY_INT_PRIORITY_REG(number) = value;
ARM GAS  C:\Users\PC\AppData\Local\Temp\ccW101Aa.s 			page 72


 1636              		.loc 1 2398 0
 1637 007c FB1D     		adds	r3, r7, #7
 1638 007e 1B78     		ldrb	r3, [r3]
 1639 0080 9B08     		lsrs	r3, r3, #2
 1640 0082 DBB2     		uxtb	r3, r3
 1641 0084 9B00     		lsls	r3, r3, #2
 1642 0086 074A     		ldr	r2, .L97
 1643 0088 9446     		mov	ip, r2
 1644 008a 6344     		add	r3, r3, ip
 1645 008c FA68     		ldr	r2, [r7, #12]
 1646 008e 1A60     		str	r2, [r3]
2399:Generated_Source\PSoC4/CyLib.c **** 
2400:Generated_Source\PSoC4/CyLib.c ****     CyExitCriticalSection(interruptState);
 1647              		.loc 1 2400 0
 1648 0090 1323     		movs	r3, #19
 1649 0092 FB18     		adds	r3, r7, r3
 1650 0094 1B78     		ldrb	r3, [r3]
 1651 0096 1800     		movs	r0, r3
 1652 0098 FFF7FEFF 		bl	CyExitCriticalSection
2401:Generated_Source\PSoC4/CyLib.c **** }
 1653              		.loc 1 2401 0
 1654 009c C046     		nop
 1655 009e BD46     		mov	sp, r7
 1656 00a0 07B0     		add	sp, sp, #28
 1657              		@ sp needed
 1658 00a2 90BD     		pop	{r4, r7, pc}
 1659              	.L98:
 1660              		.align	2
 1661              	.L97:
 1662 00a4 00E400E0 		.word	-536812544
 1663              		.cfi_endproc
 1664              	.LFE24:
 1665              		.size	CyIntSetPriority, .-CyIntSetPriority
 1666              		.section	.text.CyIntGetPriority,"ax",%progbits
 1667              		.align	2
 1668              		.global	CyIntGetPriority
 1669              		.code	16
 1670              		.thumb_func
 1671              		.type	CyIntGetPriority, %function
 1672              	CyIntGetPriority:
 1673              	.LFB25:
2402:Generated_Source\PSoC4/CyLib.c **** 
2403:Generated_Source\PSoC4/CyLib.c **** 
2404:Generated_Source\PSoC4/CyLib.c **** /*******************************************************************************
2405:Generated_Source\PSoC4/CyLib.c **** * Function Name: CyIntGetPriority
2406:Generated_Source\PSoC4/CyLib.c **** ****************************************************************************//**
2407:Generated_Source\PSoC4/CyLib.c **** *
2408:Generated_Source\PSoC4/CyLib.c **** *  Gets the priority of the interrupt.
2409:Generated_Source\PSoC4/CyLib.c **** *
2410:Generated_Source\PSoC4/CyLib.c **** *  \param number: The number of the interrupt, 0 - 31.
2411:Generated_Source\PSoC4/CyLib.c **** *
2412:Generated_Source\PSoC4/CyLib.c **** * \return
2413:Generated_Source\PSoC4/CyLib.c **** *  Priority of the interrupt. 0 - 3, 0 being the highest.
2414:Generated_Source\PSoC4/CyLib.c **** *
2415:Generated_Source\PSoC4/CyLib.c **** *******************************************************************************/
2416:Generated_Source\PSoC4/CyLib.c **** uint8 CyIntGetPriority(uint8 number)
2417:Generated_Source\PSoC4/CyLib.c **** {
ARM GAS  C:\Users\PC\AppData\Local\Temp\ccW101Aa.s 			page 73


 1674              		.loc 1 2417 0
 1675              		.cfi_startproc
 1676              		@ args = 0, pretend = 0, frame = 16
 1677              		@ frame_needed = 1, uses_anonymous_args = 0
 1678 0000 80B5     		push	{r7, lr}
 1679              		.cfi_def_cfa_offset 8
 1680              		.cfi_offset 7, -8
 1681              		.cfi_offset 14, -4
 1682 0002 84B0     		sub	sp, sp, #16
 1683              		.cfi_def_cfa_offset 24
 1684 0004 00AF     		add	r7, sp, #0
 1685              		.cfi_def_cfa_register 7
 1686 0006 0200     		movs	r2, r0
 1687 0008 FB1D     		adds	r3, r7, #7
 1688 000a 1A70     		strb	r2, [r3]
2418:Generated_Source\PSoC4/CyLib.c ****     uint8 priority;
2419:Generated_Source\PSoC4/CyLib.c **** 
2420:Generated_Source\PSoC4/CyLib.c ****     CYASSERT(number < CY_NUM_INTERRUPTS);
 1689              		.loc 1 2420 0
 1690 000c FB1D     		adds	r3, r7, #7
 1691 000e 1B78     		ldrb	r3, [r3]
 1692 0010 1F2B     		cmp	r3, #31
 1693 0012 02D9     		bls	.L100
 1694              		.loc 1 2420 0 is_stmt 0 discriminator 1
 1695 0014 0020     		movs	r0, #0
 1696 0016 FFF7FEFF 		bl	CyHalt
 1697              	.L100:
2421:Generated_Source\PSoC4/CyLib.c **** 
2422:Generated_Source\PSoC4/CyLib.c ****     priority = (uint8) (CY_INT_PRIORITY_REG(number) >> CY_INT_PRIORITY_SHIFT(number));
 1698              		.loc 1 2422 0 is_stmt 1
 1699 001a FB1D     		adds	r3, r7, #7
 1700 001c 1B78     		ldrb	r3, [r3]
 1701 001e 9B08     		lsrs	r3, r3, #2
 1702 0020 DBB2     		uxtb	r3, r3
 1703 0022 9B00     		lsls	r3, r3, #2
 1704 0024 0B4A     		ldr	r2, .L102
 1705 0026 9446     		mov	ip, r2
 1706 0028 6344     		add	r3, r3, ip
 1707 002a 1A68     		ldr	r2, [r3]
 1708 002c FB1D     		adds	r3, r7, #7
 1709 002e 1B78     		ldrb	r3, [r3]
 1710 0030 0321     		movs	r1, #3
 1711 0032 0B40     		ands	r3, r1
 1712 0034 DB00     		lsls	r3, r3, #3
 1713 0036 0633     		adds	r3, r3, #6
 1714 0038 DA40     		lsrs	r2, r2, r3
 1715 003a 0F23     		movs	r3, #15
 1716 003c FB18     		adds	r3, r7, r3
 1717 003e 1A70     		strb	r2, [r3]
2423:Generated_Source\PSoC4/CyLib.c **** 
2424:Generated_Source\PSoC4/CyLib.c ****     return (priority & (uint8) CY_INT_PRIORITY_MASK);
 1718              		.loc 1 2424 0
 1719 0040 0F23     		movs	r3, #15
 1720 0042 FB18     		adds	r3, r7, r3
 1721 0044 1B78     		ldrb	r3, [r3]
 1722 0046 0322     		movs	r2, #3
 1723 0048 1340     		ands	r3, r2
ARM GAS  C:\Users\PC\AppData\Local\Temp\ccW101Aa.s 			page 74


 1724 004a DBB2     		uxtb	r3, r3
2425:Generated_Source\PSoC4/CyLib.c **** }
 1725              		.loc 1 2425 0
 1726 004c 1800     		movs	r0, r3
 1727 004e BD46     		mov	sp, r7
 1728 0050 04B0     		add	sp, sp, #16
 1729              		@ sp needed
 1730 0052 80BD     		pop	{r7, pc}
 1731              	.L103:
 1732              		.align	2
 1733              	.L102:
 1734 0054 00E400E0 		.word	-536812544
 1735              		.cfi_endproc
 1736              	.LFE25:
 1737              		.size	CyIntGetPriority, .-CyIntGetPriority
 1738              		.section	.text.CyIntEnable,"ax",%progbits
 1739              		.align	2
 1740              		.global	CyIntEnable
 1741              		.code	16
 1742              		.thumb_func
 1743              		.type	CyIntEnable, %function
 1744              	CyIntEnable:
 1745              	.LFB26:
2426:Generated_Source\PSoC4/CyLib.c **** 
2427:Generated_Source\PSoC4/CyLib.c **** 
2428:Generated_Source\PSoC4/CyLib.c **** /*******************************************************************************
2429:Generated_Source\PSoC4/CyLib.c **** * Function Name: CyIntEnable
2430:Generated_Source\PSoC4/CyLib.c **** ****************************************************************************//**
2431:Generated_Source\PSoC4/CyLib.c **** *
2432:Generated_Source\PSoC4/CyLib.c **** *  Enables the specified interrupt number.
2433:Generated_Source\PSoC4/CyLib.c **** *
2434:Generated_Source\PSoC4/CyLib.c **** *  \param number: Valid range [0-31].  Interrupt number
2435:Generated_Source\PSoC4/CyLib.c **** *
2436:Generated_Source\PSoC4/CyLib.c **** *******************************************************************************/
2437:Generated_Source\PSoC4/CyLib.c **** void CyIntEnable(uint8 number)
2438:Generated_Source\PSoC4/CyLib.c **** {
 1746              		.loc 1 2438 0
 1747              		.cfi_startproc
 1748              		@ args = 0, pretend = 0, frame = 8
 1749              		@ frame_needed = 1, uses_anonymous_args = 0
 1750 0000 80B5     		push	{r7, lr}
 1751              		.cfi_def_cfa_offset 8
 1752              		.cfi_offset 7, -8
 1753              		.cfi_offset 14, -4
 1754 0002 82B0     		sub	sp, sp, #8
 1755              		.cfi_def_cfa_offset 16
 1756 0004 00AF     		add	r7, sp, #0
 1757              		.cfi_def_cfa_register 7
 1758 0006 0200     		movs	r2, r0
 1759 0008 FB1D     		adds	r3, r7, #7
 1760 000a 1A70     		strb	r2, [r3]
2439:Generated_Source\PSoC4/CyLib.c ****     CY_INT_ENABLE_REG = ((uint32) 0x01u << (CY_INT_ENABLE_RANGE_MASK & number));
 1761              		.loc 1 2439 0
 1762 000c 064B     		ldr	r3, .L105
 1763 000e FA1D     		adds	r2, r7, #7
 1764 0010 1278     		ldrb	r2, [r2]
 1765 0012 1F21     		movs	r1, #31
ARM GAS  C:\Users\PC\AppData\Local\Temp\ccW101Aa.s 			page 75


 1766 0014 0A40     		ands	r2, r1
 1767 0016 0121     		movs	r1, #1
 1768 0018 9140     		lsls	r1, r1, r2
 1769 001a 0A00     		movs	r2, r1
 1770 001c 1A60     		str	r2, [r3]
2440:Generated_Source\PSoC4/CyLib.c **** }
 1771              		.loc 1 2440 0
 1772 001e C046     		nop
 1773 0020 BD46     		mov	sp, r7
 1774 0022 02B0     		add	sp, sp, #8
 1775              		@ sp needed
 1776 0024 80BD     		pop	{r7, pc}
 1777              	.L106:
 1778 0026 C046     		.align	2
 1779              	.L105:
 1780 0028 00E100E0 		.word	-536813312
 1781              		.cfi_endproc
 1782              	.LFE26:
 1783              		.size	CyIntEnable, .-CyIntEnable
 1784              		.section	.text.CyIntGetState,"ax",%progbits
 1785              		.align	2
 1786              		.global	CyIntGetState
 1787              		.code	16
 1788              		.thumb_func
 1789              		.type	CyIntGetState, %function
 1790              	CyIntGetState:
 1791              	.LFB27:
2441:Generated_Source\PSoC4/CyLib.c **** 
2442:Generated_Source\PSoC4/CyLib.c **** 
2443:Generated_Source\PSoC4/CyLib.c **** /*******************************************************************************
2444:Generated_Source\PSoC4/CyLib.c **** * Function Name: CyIntGetState
2445:Generated_Source\PSoC4/CyLib.c **** ****************************************************************************//**
2446:Generated_Source\PSoC4/CyLib.c **** *
2447:Generated_Source\PSoC4/CyLib.c **** *  Gets the enable state of the specified interrupt number.
2448:Generated_Source\PSoC4/CyLib.c **** *
2449:Generated_Source\PSoC4/CyLib.c **** *  \param number: Valid range [0-31].  Interrupt number.
2450:Generated_Source\PSoC4/CyLib.c **** *
2451:Generated_Source\PSoC4/CyLib.c **** * \return
2452:Generated_Source\PSoC4/CyLib.c **** *  Enable status: 1 if enabled, 0 if disabled
2453:Generated_Source\PSoC4/CyLib.c **** *
2454:Generated_Source\PSoC4/CyLib.c **** *******************************************************************************/
2455:Generated_Source\PSoC4/CyLib.c **** uint8 CyIntGetState(uint8 number)
2456:Generated_Source\PSoC4/CyLib.c **** {
 1792              		.loc 1 2456 0
 1793              		.cfi_startproc
 1794              		@ args = 0, pretend = 0, frame = 8
 1795              		@ frame_needed = 1, uses_anonymous_args = 0
 1796 0000 80B5     		push	{r7, lr}
 1797              		.cfi_def_cfa_offset 8
 1798              		.cfi_offset 7, -8
 1799              		.cfi_offset 14, -4
 1800 0002 82B0     		sub	sp, sp, #8
 1801              		.cfi_def_cfa_offset 16
 1802 0004 00AF     		add	r7, sp, #0
 1803              		.cfi_def_cfa_register 7
 1804 0006 0200     		movs	r2, r0
 1805 0008 FB1D     		adds	r3, r7, #7
ARM GAS  C:\Users\PC\AppData\Local\Temp\ccW101Aa.s 			page 76


 1806 000a 1A70     		strb	r2, [r3]
2457:Generated_Source\PSoC4/CyLib.c ****     /* Get state of interrupt. */
2458:Generated_Source\PSoC4/CyLib.c ****     return ((0u != (CY_INT_ENABLE_REG & ((uint32) 0x01u << (CY_INT_ENABLE_RANGE_MASK & number)))) ?
 1807              		.loc 1 2458 0
 1808 000c 074B     		ldr	r3, .L109
 1809 000e 1A68     		ldr	r2, [r3]
 1810 0010 FB1D     		adds	r3, r7, #7
 1811 0012 1B78     		ldrb	r3, [r3]
 1812 0014 1F21     		movs	r1, #31
 1813 0016 0B40     		ands	r3, r1
 1814 0018 DA40     		lsrs	r2, r2, r3
 1815 001a 1300     		movs	r3, r2
 1816 001c DBB2     		uxtb	r3, r3
 1817 001e 0122     		movs	r2, #1
 1818 0020 1340     		ands	r3, r2
 1819 0022 DBB2     		uxtb	r3, r3
2459:Generated_Source\PSoC4/CyLib.c **** }
 1820              		.loc 1 2459 0
 1821 0024 1800     		movs	r0, r3
 1822 0026 BD46     		mov	sp, r7
 1823 0028 02B0     		add	sp, sp, #8
 1824              		@ sp needed
 1825 002a 80BD     		pop	{r7, pc}
 1826              	.L110:
 1827              		.align	2
 1828              	.L109:
 1829 002c 00E100E0 		.word	-536813312
 1830              		.cfi_endproc
 1831              	.LFE27:
 1832              		.size	CyIntGetState, .-CyIntGetState
 1833              		.section	.text.CyIntDisable,"ax",%progbits
 1834              		.align	2
 1835              		.global	CyIntDisable
 1836              		.code	16
 1837              		.thumb_func
 1838              		.type	CyIntDisable, %function
 1839              	CyIntDisable:
 1840              	.LFB28:
2460:Generated_Source\PSoC4/CyLib.c **** 
2461:Generated_Source\PSoC4/CyLib.c **** 
2462:Generated_Source\PSoC4/CyLib.c **** /*******************************************************************************
2463:Generated_Source\PSoC4/CyLib.c **** * Function Name: CyIntDisable
2464:Generated_Source\PSoC4/CyLib.c **** ****************************************************************************//**
2465:Generated_Source\PSoC4/CyLib.c **** *
2466:Generated_Source\PSoC4/CyLib.c **** *   Disables the specified interrupt number.
2467:Generated_Source\PSoC4/CyLib.c **** *
2468:Generated_Source\PSoC4/CyLib.c **** *   \param number: Valid range [0-31].  Interrupt number.
2469:Generated_Source\PSoC4/CyLib.c **** *
2470:Generated_Source\PSoC4/CyLib.c **** *******************************************************************************/
2471:Generated_Source\PSoC4/CyLib.c **** void CyIntDisable(uint8 number)
2472:Generated_Source\PSoC4/CyLib.c **** {
 1841              		.loc 1 2472 0
 1842              		.cfi_startproc
 1843              		@ args = 0, pretend = 0, frame = 8
 1844              		@ frame_needed = 1, uses_anonymous_args = 0
 1845 0000 80B5     		push	{r7, lr}
 1846              		.cfi_def_cfa_offset 8
ARM GAS  C:\Users\PC\AppData\Local\Temp\ccW101Aa.s 			page 77


 1847              		.cfi_offset 7, -8
 1848              		.cfi_offset 14, -4
 1849 0002 82B0     		sub	sp, sp, #8
 1850              		.cfi_def_cfa_offset 16
 1851 0004 00AF     		add	r7, sp, #0
 1852              		.cfi_def_cfa_register 7
 1853 0006 0200     		movs	r2, r0
 1854 0008 FB1D     		adds	r3, r7, #7
 1855 000a 1A70     		strb	r2, [r3]
2473:Generated_Source\PSoC4/CyLib.c ****     CY_INT_CLEAR_REG = ((uint32) 0x01u << (CY_INT_ENABLE_RANGE_MASK & number));
 1856              		.loc 1 2473 0
 1857 000c 064B     		ldr	r3, .L112
 1858 000e FA1D     		adds	r2, r7, #7
 1859 0010 1278     		ldrb	r2, [r2]
 1860 0012 1F21     		movs	r1, #31
 1861 0014 0A40     		ands	r2, r1
 1862 0016 0121     		movs	r1, #1
 1863 0018 9140     		lsls	r1, r1, r2
 1864 001a 0A00     		movs	r2, r1
 1865 001c 1A60     		str	r2, [r3]
2474:Generated_Source\PSoC4/CyLib.c **** }
 1866              		.loc 1 2474 0
 1867 001e C046     		nop
 1868 0020 BD46     		mov	sp, r7
 1869 0022 02B0     		add	sp, sp, #8
 1870              		@ sp needed
 1871 0024 80BD     		pop	{r7, pc}
 1872              	.L113:
 1873 0026 C046     		.align	2
 1874              	.L112:
 1875 0028 80E100E0 		.word	-536813184
 1876              		.cfi_endproc
 1877              	.LFE28:
 1878              		.size	CyIntDisable, .-CyIntDisable
 1879              		.section	.text.CyIntSetPending,"ax",%progbits
 1880              		.align	2
 1881              		.global	CyIntSetPending
 1882              		.code	16
 1883              		.thumb_func
 1884              		.type	CyIntSetPending, %function
 1885              	CyIntSetPending:
 1886              	.LFB29:
2475:Generated_Source\PSoC4/CyLib.c **** 
2476:Generated_Source\PSoC4/CyLib.c **** /*******************************************************************************
2477:Generated_Source\PSoC4/CyLib.c **** * Function Name: CyIntSetPending
2478:Generated_Source\PSoC4/CyLib.c **** ****************************************************************************//**
2479:Generated_Source\PSoC4/CyLib.c **** *
2480:Generated_Source\PSoC4/CyLib.c **** *  Forces the specified interrupt number to be pending.
2481:Generated_Source\PSoC4/CyLib.c **** *
2482:Generated_Source\PSoC4/CyLib.c **** *  \param number: Valid range [0-31].  Interrupt number.
2483:Generated_Source\PSoC4/CyLib.c **** *
2484:Generated_Source\PSoC4/CyLib.c **** *******************************************************************************/
2485:Generated_Source\PSoC4/CyLib.c **** void CyIntSetPending(uint8 number)
2486:Generated_Source\PSoC4/CyLib.c **** {
 1887              		.loc 1 2486 0
 1888              		.cfi_startproc
 1889              		@ args = 0, pretend = 0, frame = 8
ARM GAS  C:\Users\PC\AppData\Local\Temp\ccW101Aa.s 			page 78


 1890              		@ frame_needed = 1, uses_anonymous_args = 0
 1891 0000 80B5     		push	{r7, lr}
 1892              		.cfi_def_cfa_offset 8
 1893              		.cfi_offset 7, -8
 1894              		.cfi_offset 14, -4
 1895 0002 82B0     		sub	sp, sp, #8
 1896              		.cfi_def_cfa_offset 16
 1897 0004 00AF     		add	r7, sp, #0
 1898              		.cfi_def_cfa_register 7
 1899 0006 0200     		movs	r2, r0
 1900 0008 FB1D     		adds	r3, r7, #7
 1901 000a 1A70     		strb	r2, [r3]
2487:Generated_Source\PSoC4/CyLib.c ****     CY_INT_SET_PEND_REG = ((uint32) 0x01u << (CY_INT_ENABLE_RANGE_MASK & number));
 1902              		.loc 1 2487 0
 1903 000c 064B     		ldr	r3, .L115
 1904 000e FA1D     		adds	r2, r7, #7
 1905 0010 1278     		ldrb	r2, [r2]
 1906 0012 1F21     		movs	r1, #31
 1907 0014 0A40     		ands	r2, r1
 1908 0016 0121     		movs	r1, #1
 1909 0018 9140     		lsls	r1, r1, r2
 1910 001a 0A00     		movs	r2, r1
 1911 001c 1A60     		str	r2, [r3]
2488:Generated_Source\PSoC4/CyLib.c **** }
 1912              		.loc 1 2488 0
 1913 001e C046     		nop
 1914 0020 BD46     		mov	sp, r7
 1915 0022 02B0     		add	sp, sp, #8
 1916              		@ sp needed
 1917 0024 80BD     		pop	{r7, pc}
 1918              	.L116:
 1919 0026 C046     		.align	2
 1920              	.L115:
 1921 0028 00E200E0 		.word	-536813056
 1922              		.cfi_endproc
 1923              	.LFE29:
 1924              		.size	CyIntSetPending, .-CyIntSetPending
 1925              		.section	.text.CyIntClearPending,"ax",%progbits
 1926              		.align	2
 1927              		.global	CyIntClearPending
 1928              		.code	16
 1929              		.thumb_func
 1930              		.type	CyIntClearPending, %function
 1931              	CyIntClearPending:
 1932              	.LFB30:
2489:Generated_Source\PSoC4/CyLib.c **** 
2490:Generated_Source\PSoC4/CyLib.c **** 
2491:Generated_Source\PSoC4/CyLib.c **** /*******************************************************************************
2492:Generated_Source\PSoC4/CyLib.c **** * Function Name: CyIntClearPending
2493:Generated_Source\PSoC4/CyLib.c **** ****************************************************************************//**
2494:Generated_Source\PSoC4/CyLib.c **** *
2495:Generated_Source\PSoC4/CyLib.c **** *  Clears any pending interrupt for the specified interrupt number.
2496:Generated_Source\PSoC4/CyLib.c **** *
2497:Generated_Source\PSoC4/CyLib.c **** *  \param number: Valid range [0-31].  Interrupt number.
2498:Generated_Source\PSoC4/CyLib.c **** *
2499:Generated_Source\PSoC4/CyLib.c **** *******************************************************************************/
2500:Generated_Source\PSoC4/CyLib.c **** void CyIntClearPending(uint8 number)
ARM GAS  C:\Users\PC\AppData\Local\Temp\ccW101Aa.s 			page 79


2501:Generated_Source\PSoC4/CyLib.c **** {
 1933              		.loc 1 2501 0
 1934              		.cfi_startproc
 1935              		@ args = 0, pretend = 0, frame = 8
 1936              		@ frame_needed = 1, uses_anonymous_args = 0
 1937 0000 80B5     		push	{r7, lr}
 1938              		.cfi_def_cfa_offset 8
 1939              		.cfi_offset 7, -8
 1940              		.cfi_offset 14, -4
 1941 0002 82B0     		sub	sp, sp, #8
 1942              		.cfi_def_cfa_offset 16
 1943 0004 00AF     		add	r7, sp, #0
 1944              		.cfi_def_cfa_register 7
 1945 0006 0200     		movs	r2, r0
 1946 0008 FB1D     		adds	r3, r7, #7
 1947 000a 1A70     		strb	r2, [r3]
2502:Generated_Source\PSoC4/CyLib.c ****     CY_INT_CLR_PEND_REG = ((uint32) 0x01u << (CY_INT_ENABLE_RANGE_MASK & number));
 1948              		.loc 1 2502 0
 1949 000c 064B     		ldr	r3, .L118
 1950 000e FA1D     		adds	r2, r7, #7
 1951 0010 1278     		ldrb	r2, [r2]
 1952 0012 1F21     		movs	r1, #31
 1953 0014 0A40     		ands	r2, r1
 1954 0016 0121     		movs	r1, #1
 1955 0018 9140     		lsls	r1, r1, r2
 1956 001a 0A00     		movs	r2, r1
 1957 001c 1A60     		str	r2, [r3]
2503:Generated_Source\PSoC4/CyLib.c **** }
 1958              		.loc 1 2503 0
 1959 001e C046     		nop
 1960 0020 BD46     		mov	sp, r7
 1961 0022 02B0     		add	sp, sp, #8
 1962              		@ sp needed
 1963 0024 80BD     		pop	{r7, pc}
 1964              	.L119:
 1965 0026 C046     		.align	2
 1966              	.L118:
 1967 0028 80E200E0 		.word	-536812928
 1968              		.cfi_endproc
 1969              	.LFE30:
 1970              		.size	CyIntClearPending, .-CyIntClearPending
 1971              		.section	.text.CyHalt,"ax",%progbits
 1972              		.align	2
 1973              		.global	CyHalt
 1974              		.code	16
 1975              		.thumb_func
 1976              		.type	CyHalt, %function
 1977              	CyHalt:
 1978              	.LFB31:
2504:Generated_Source\PSoC4/CyLib.c **** 
2505:Generated_Source\PSoC4/CyLib.c **** 
2506:Generated_Source\PSoC4/CyLib.c **** /*******************************************************************************
2507:Generated_Source\PSoC4/CyLib.c **** * Function Name: CyHalt
2508:Generated_Source\PSoC4/CyLib.c **** ****************************************************************************//**
2509:Generated_Source\PSoC4/CyLib.c **** *
2510:Generated_Source\PSoC4/CyLib.c **** *  Halts the CPU.
2511:Generated_Source\PSoC4/CyLib.c **** *
ARM GAS  C:\Users\PC\AppData\Local\Temp\ccW101Aa.s 			page 80


2512:Generated_Source\PSoC4/CyLib.c **** *  \param reason: Value to be used during debugging.
2513:Generated_Source\PSoC4/CyLib.c **** *
2514:Generated_Source\PSoC4/CyLib.c **** *******************************************************************************/
2515:Generated_Source\PSoC4/CyLib.c **** void CyHalt(uint8 reason)
2516:Generated_Source\PSoC4/CyLib.c **** {
 1979              		.loc 1 2516 0
 1980              		.cfi_startproc
 1981              		@ args = 0, pretend = 0, frame = 8
 1982              		@ frame_needed = 1, uses_anonymous_args = 0
 1983 0000 80B5     		push	{r7, lr}
 1984              		.cfi_def_cfa_offset 8
 1985              		.cfi_offset 7, -8
 1986              		.cfi_offset 14, -4
 1987 0002 82B0     		sub	sp, sp, #8
 1988              		.cfi_def_cfa_offset 16
 1989 0004 00AF     		add	r7, sp, #0
 1990              		.cfi_def_cfa_register 7
 1991 0006 0200     		movs	r2, r0
 1992 0008 FB1D     		adds	r3, r7, #7
 1993 000a 1A70     		strb	r2, [r3]
2517:Generated_Source\PSoC4/CyLib.c ****     if(0u != reason)
2518:Generated_Source\PSoC4/CyLib.c ****     {
2519:Generated_Source\PSoC4/CyLib.c ****         /* To remove unreferenced local variable warning */
2520:Generated_Source\PSoC4/CyLib.c ****     }
2521:Generated_Source\PSoC4/CyLib.c **** 
2522:Generated_Source\PSoC4/CyLib.c ****     #if defined (__ARMCC_VERSION)
2523:Generated_Source\PSoC4/CyLib.c ****         __breakpoint(0x0);
2524:Generated_Source\PSoC4/CyLib.c ****     #elif defined(__GNUC__) || defined (__ICCARM__)
2525:Generated_Source\PSoC4/CyLib.c ****         __asm("    bkpt    1");
 1994              		.loc 1 2525 0
 1995              		.syntax divided
 1996              	@ 2525 "Generated_Source\PSoC4\CyLib.c" 1
 1997 000c 01BE     		    bkpt    1
 1998              	@ 0 "" 2
2526:Generated_Source\PSoC4/CyLib.c ****     #elif defined(__C51__)
2527:Generated_Source\PSoC4/CyLib.c ****         CYDEV_HALT_CPU;
2528:Generated_Source\PSoC4/CyLib.c ****     #endif  /* (__ARMCC_VERSION) */
2529:Generated_Source\PSoC4/CyLib.c **** }
 1999              		.loc 1 2529 0
 2000              		.thumb
 2001              		.syntax unified
 2002 000e C046     		nop
 2003 0010 BD46     		mov	sp, r7
 2004 0012 02B0     		add	sp, sp, #8
 2005              		@ sp needed
 2006 0014 80BD     		pop	{r7, pc}
 2007              		.cfi_endproc
 2008              	.LFE31:
 2009              		.size	CyHalt, .-CyHalt
 2010 0016 C046     		.section	.text.CySoftwareReset,"ax",%progbits
 2011              		.align	2
 2012              		.global	CySoftwareReset
 2013              		.code	16
 2014              		.thumb_func
 2015              		.type	CySoftwareReset, %function
 2016              	CySoftwareReset:
 2017              	.LFB32:
ARM GAS  C:\Users\PC\AppData\Local\Temp\ccW101Aa.s 			page 81


2530:Generated_Source\PSoC4/CyLib.c **** 
2531:Generated_Source\PSoC4/CyLib.c **** 
2532:Generated_Source\PSoC4/CyLib.c **** /*******************************************************************************
2533:Generated_Source\PSoC4/CyLib.c **** * Function Name: CySoftwareReset
2534:Generated_Source\PSoC4/CyLib.c **** ****************************************************************************//**
2535:Generated_Source\PSoC4/CyLib.c **** *
2536:Generated_Source\PSoC4/CyLib.c **** *  Forces a software reset of the device.
2537:Generated_Source\PSoC4/CyLib.c **** *
2538:Generated_Source\PSoC4/CyLib.c **** *******************************************************************************/
2539:Generated_Source\PSoC4/CyLib.c **** void CySoftwareReset(void)
2540:Generated_Source\PSoC4/CyLib.c **** {
 2018              		.loc 1 2540 0
 2019              		.cfi_startproc
 2020              		@ args = 0, pretend = 0, frame = 0
 2021              		@ frame_needed = 1, uses_anonymous_args = 0
 2022 0000 80B5     		push	{r7, lr}
 2023              		.cfi_def_cfa_offset 8
 2024              		.cfi_offset 7, -8
 2025              		.cfi_offset 14, -4
 2026 0002 00AF     		add	r7, sp, #0
 2027              		.cfi_def_cfa_register 7
2541:Generated_Source\PSoC4/CyLib.c ****     /***************************************************************************
2542:Generated_Source\PSoC4/CyLib.c ****     * Setting the system reset request bit. The vector key value must be written
2543:Generated_Source\PSoC4/CyLib.c ****     * to the register, otherwise the register write is unpredictable.
2544:Generated_Source\PSoC4/CyLib.c ****     ***************************************************************************/
2545:Generated_Source\PSoC4/CyLib.c ****     CY_SYS_AIRCR_REG = (CY_SYS_AIRCR_REG & (uint32)(~CY_SYS_AIRCR_VECTKEY_MASK)) |
 2028              		.loc 1 2545 0
 2029 0004 054B     		ldr	r3, .L122
 2030 0006 054A     		ldr	r2, .L122
 2031 0008 1268     		ldr	r2, [r2]
 2032 000a 1204     		lsls	r2, r2, #16
 2033 000c 120C     		lsrs	r2, r2, #16
2546:Generated_Source\PSoC4/CyLib.c ****                             CY_SYS_AIRCR_VECTKEY | CY_SYS_AIRCR_SYSRESETREQ;
 2034              		.loc 1 2546 0
 2035 000e 0449     		ldr	r1, .L122+4
 2036 0010 0A43     		orrs	r2, r1
2545:Generated_Source\PSoC4/CyLib.c ****                             CY_SYS_AIRCR_VECTKEY | CY_SYS_AIRCR_SYSRESETREQ;
 2037              		.loc 1 2545 0
 2038 0012 1A60     		str	r2, [r3]
2547:Generated_Source\PSoC4/CyLib.c **** }
 2039              		.loc 1 2547 0
 2040 0014 C046     		nop
 2041 0016 BD46     		mov	sp, r7
 2042              		@ sp needed
 2043 0018 80BD     		pop	{r7, pc}
 2044              	.L123:
 2045 001a C046     		.align	2
 2046              	.L122:
 2047 001c 0CED00E0 		.word	-536810228
 2048 0020 0400FA05 		.word	100270084
 2049              		.cfi_endproc
 2050              	.LFE32:
 2051              		.size	CySoftwareReset, .-CySoftwareReset
 2052              		.section	.text.CyDelay,"ax",%progbits
 2053              		.align	2
 2054              		.global	CyDelay
 2055              		.code	16
ARM GAS  C:\Users\PC\AppData\Local\Temp\ccW101Aa.s 			page 82


 2056              		.thumb_func
 2057              		.type	CyDelay, %function
 2058              	CyDelay:
 2059              	.LFB33:
2548:Generated_Source\PSoC4/CyLib.c **** 
2549:Generated_Source\PSoC4/CyLib.c **** 
2550:Generated_Source\PSoC4/CyLib.c **** /*******************************************************************************
2551:Generated_Source\PSoC4/CyLib.c **** * Function Name: CyDelay
2552:Generated_Source\PSoC4/CyLib.c **** ****************************************************************************//**
2553:Generated_Source\PSoC4/CyLib.c **** *
2554:Generated_Source\PSoC4/CyLib.c **** *  Blocks for milliseconds.
2555:Generated_Source\PSoC4/CyLib.c **** *
2556:Generated_Source\PSoC4/CyLib.c **** *  \param milliseconds: number of milliseconds to delay.
2557:Generated_Source\PSoC4/CyLib.c **** *
2558:Generated_Source\PSoC4/CyLib.c **** *******************************************************************************/
2559:Generated_Source\PSoC4/CyLib.c **** void CyDelay(uint32 milliseconds)
2560:Generated_Source\PSoC4/CyLib.c **** {
 2060              		.loc 1 2560 0
 2061              		.cfi_startproc
 2062              		@ args = 0, pretend = 0, frame = 8
 2063              		@ frame_needed = 1, uses_anonymous_args = 0
 2064 0000 80B5     		push	{r7, lr}
 2065              		.cfi_def_cfa_offset 8
 2066              		.cfi_offset 7, -8
 2067              		.cfi_offset 14, -4
 2068 0002 82B0     		sub	sp, sp, #8
 2069              		.cfi_def_cfa_offset 16
 2070 0004 00AF     		add	r7, sp, #0
 2071              		.cfi_def_cfa_register 7
 2072 0006 7860     		str	r0, [r7, #4]
2561:Generated_Source\PSoC4/CyLib.c ****     while (milliseconds > CY_DELAY_MS_OVERFLOW)
 2073              		.loc 1 2561 0
 2074 0008 09E0     		b	.L125
 2075              	.L126:
2562:Generated_Source\PSoC4/CyLib.c ****     {
2563:Generated_Source\PSoC4/CyLib.c ****         /* This loop prevents overflow.
2564:Generated_Source\PSoC4/CyLib.c ****          * At 100MHz, milliseconds * cydelayFreqKhz overflows at about 42 seconds
2565:Generated_Source\PSoC4/CyLib.c ****          */
2566:Generated_Source\PSoC4/CyLib.c ****         CyDelayCycles(cydelay32kMs);
 2076              		.loc 1 2566 0
 2077 000a 0D4B     		ldr	r3, .L127
 2078 000c 1B68     		ldr	r3, [r3]
 2079 000e 1800     		movs	r0, r3
 2080 0010 FFF7FEFF 		bl	CyDelayCycles
2567:Generated_Source\PSoC4/CyLib.c ****         milliseconds -= CY_DELAY_MS_OVERFLOW;
 2081              		.loc 1 2567 0
 2082 0014 7B68     		ldr	r3, [r7, #4]
 2083 0016 0B4A     		ldr	r2, .L127+4
 2084 0018 9446     		mov	ip, r2
 2085 001a 6344     		add	r3, r3, ip
 2086 001c 7B60     		str	r3, [r7, #4]
 2087              	.L125:
2561:Generated_Source\PSoC4/CyLib.c ****     while (milliseconds > CY_DELAY_MS_OVERFLOW)
 2088              		.loc 1 2561 0
 2089 001e 7A68     		ldr	r2, [r7, #4]
 2090 0020 8023     		movs	r3, #128
 2091 0022 1B02     		lsls	r3, r3, #8
ARM GAS  C:\Users\PC\AppData\Local\Temp\ccW101Aa.s 			page 83


 2092 0024 9A42     		cmp	r2, r3
 2093 0026 F0D8     		bhi	.L126
2568:Generated_Source\PSoC4/CyLib.c ****     }
2569:Generated_Source\PSoC4/CyLib.c **** 
2570:Generated_Source\PSoC4/CyLib.c ****     CyDelayCycles(milliseconds * cydelayFreqKhz);
 2094              		.loc 1 2570 0
 2095 0028 074B     		ldr	r3, .L127+8
 2096 002a 1B68     		ldr	r3, [r3]
 2097 002c 7A68     		ldr	r2, [r7, #4]
 2098 002e 5343     		muls	r3, r2
 2099 0030 1800     		movs	r0, r3
 2100 0032 FFF7FEFF 		bl	CyDelayCycles
2571:Generated_Source\PSoC4/CyLib.c **** }
 2101              		.loc 1 2571 0
 2102 0036 C046     		nop
 2103 0038 BD46     		mov	sp, r7
 2104 003a 02B0     		add	sp, sp, #8
 2105              		@ sp needed
 2106 003c 80BD     		pop	{r7, pc}
 2107              	.L128:
 2108 003e C046     		.align	2
 2109              	.L127:
 2110 0040 00000000 		.word	cydelay32kMs
 2111 0044 0080FFFF 		.word	-32768
 2112 0048 00000000 		.word	cydelayFreqKhz
 2113              		.cfi_endproc
 2114              	.LFE33:
 2115              		.size	CyDelay, .-CyDelay
 2116              		.section	.text.CyDelayUs,"ax",%progbits
 2117              		.align	2
 2118              		.global	CyDelayUs
 2119              		.code	16
 2120              		.thumb_func
 2121              		.type	CyDelayUs, %function
 2122              	CyDelayUs:
 2123              	.LFB34:
2572:Generated_Source\PSoC4/CyLib.c **** 
2573:Generated_Source\PSoC4/CyLib.c **** 
2574:Generated_Source\PSoC4/CyLib.c **** /*******************************************************************************
2575:Generated_Source\PSoC4/CyLib.c **** * Function Name: CyDelayUs
2576:Generated_Source\PSoC4/CyLib.c **** ****************************************************************************//**
2577:Generated_Source\PSoC4/CyLib.c **** *  Blocks for microseconds.
2578:Generated_Source\PSoC4/CyLib.c **** *
2579:Generated_Source\PSoC4/CyLib.c **** *  \param microseconds: number of microseconds to delay.
2580:Generated_Source\PSoC4/CyLib.c **** *
2581:Generated_Source\PSoC4/CyLib.c **** *******************************************************************************/
2582:Generated_Source\PSoC4/CyLib.c **** void CyDelayUs(uint16 microseconds)
2583:Generated_Source\PSoC4/CyLib.c **** {
 2124              		.loc 1 2583 0
 2125              		.cfi_startproc
 2126              		@ args = 0, pretend = 0, frame = 8
 2127              		@ frame_needed = 1, uses_anonymous_args = 0
 2128 0000 80B5     		push	{r7, lr}
 2129              		.cfi_def_cfa_offset 8
 2130              		.cfi_offset 7, -8
 2131              		.cfi_offset 14, -4
 2132 0002 82B0     		sub	sp, sp, #8
ARM GAS  C:\Users\PC\AppData\Local\Temp\ccW101Aa.s 			page 84


 2133              		.cfi_def_cfa_offset 16
 2134 0004 00AF     		add	r7, sp, #0
 2135              		.cfi_def_cfa_register 7
 2136 0006 0200     		movs	r2, r0
 2137 0008 BB1D     		adds	r3, r7, #6
 2138 000a 1A80     		strh	r2, [r3]
2584:Generated_Source\PSoC4/CyLib.c ****     CyDelayCycles((uint32)microseconds * cydelayFreqMhz);
 2139              		.loc 1 2584 0
 2140 000c BB1D     		adds	r3, r7, #6
 2141 000e 1B88     		ldrh	r3, [r3]
 2142 0010 044A     		ldr	r2, .L130
 2143 0012 1278     		ldrb	r2, [r2]
 2144 0014 5343     		muls	r3, r2
 2145 0016 1800     		movs	r0, r3
 2146 0018 FFF7FEFF 		bl	CyDelayCycles
2585:Generated_Source\PSoC4/CyLib.c **** }
 2147              		.loc 1 2585 0
 2148 001c C046     		nop
 2149 001e BD46     		mov	sp, r7
 2150 0020 02B0     		add	sp, sp, #8
 2151              		@ sp needed
 2152 0022 80BD     		pop	{r7, pc}
 2153              	.L131:
 2154              		.align	2
 2155              	.L130:
 2156 0024 00000000 		.word	cydelayFreqMhz
 2157              		.cfi_endproc
 2158              	.LFE34:
 2159              		.size	CyDelayUs, .-CyDelayUs
 2160              		.global	__aeabi_uidiv
 2161              		.section	.text.CyDelayFreq,"ax",%progbits
 2162              		.align	2
 2163              		.global	CyDelayFreq
 2164              		.code	16
 2165              		.thumb_func
 2166              		.type	CyDelayFreq, %function
 2167              	CyDelayFreq:
 2168              	.LFB35:
2586:Generated_Source\PSoC4/CyLib.c **** 
2587:Generated_Source\PSoC4/CyLib.c **** 
2588:Generated_Source\PSoC4/CyLib.c **** /*******************************************************************************
2589:Generated_Source\PSoC4/CyLib.c **** * Function Name: CyDelayFreq
2590:Generated_Source\PSoC4/CyLib.c **** ****************************************************************************//**
2591:Generated_Source\PSoC4/CyLib.c **** *  Sets clock frequency for CyDelay.
2592:Generated_Source\PSoC4/CyLib.c **** *
2593:Generated_Source\PSoC4/CyLib.c **** *  \param freq: Frequency of bus clock in Hertz.
2594:Generated_Source\PSoC4/CyLib.c **** *
2595:Generated_Source\PSoC4/CyLib.c **** *******************************************************************************/
2596:Generated_Source\PSoC4/CyLib.c **** void CyDelayFreq(uint32 freq)
2597:Generated_Source\PSoC4/CyLib.c **** {
 2169              		.loc 1 2597 0
 2170              		.cfi_startproc
 2171              		@ args = 0, pretend = 0, frame = 8
 2172              		@ frame_needed = 1, uses_anonymous_args = 0
 2173 0000 80B5     		push	{r7, lr}
 2174              		.cfi_def_cfa_offset 8
 2175              		.cfi_offset 7, -8
ARM GAS  C:\Users\PC\AppData\Local\Temp\ccW101Aa.s 			page 85


 2176              		.cfi_offset 14, -4
 2177 0002 82B0     		sub	sp, sp, #8
 2178              		.cfi_def_cfa_offset 16
 2179 0004 00AF     		add	r7, sp, #0
 2180              		.cfi_def_cfa_register 7
 2181 0006 7860     		str	r0, [r7, #4]
2598:Generated_Source\PSoC4/CyLib.c ****     if (freq != 0u)
 2182              		.loc 1 2598 0
 2183 0008 7B68     		ldr	r3, [r7, #4]
 2184 000a 002B     		cmp	r3, #0
 2185 000c 03D0     		beq	.L133
2599:Generated_Source\PSoC4/CyLib.c ****     {
2600:Generated_Source\PSoC4/CyLib.c ****         cydelayFreqHz = freq;
 2186              		.loc 1 2600 0
 2187 000e 154B     		ldr	r3, .L135
 2188 0010 7A68     		ldr	r2, [r7, #4]
 2189 0012 1A60     		str	r2, [r3]
 2190 0014 02E0     		b	.L134
 2191              	.L133:
2601:Generated_Source\PSoC4/CyLib.c ****     }
2602:Generated_Source\PSoC4/CyLib.c ****     else
2603:Generated_Source\PSoC4/CyLib.c ****     {
2604:Generated_Source\PSoC4/CyLib.c ****         cydelayFreqHz = CYDEV_BCLK__SYSCLK__HZ;
 2192              		.loc 1 2604 0
 2193 0016 134B     		ldr	r3, .L135
 2194 0018 134A     		ldr	r2, .L135+4
 2195 001a 1A60     		str	r2, [r3]
 2196              	.L134:
2605:Generated_Source\PSoC4/CyLib.c ****     }
2606:Generated_Source\PSoC4/CyLib.c **** 
2607:Generated_Source\PSoC4/CyLib.c ****     cydelayFreqMhz = (uint8)((cydelayFreqHz + CY_DELAY_1M_MINUS_1_THRESHOLD) / CY_DELAY_1M_THRESHOL
 2197              		.loc 1 2607 0
 2198 001c 114B     		ldr	r3, .L135
 2199 001e 1B68     		ldr	r3, [r3]
 2200 0020 124A     		ldr	r2, .L135+8
 2201 0022 9446     		mov	ip, r2
 2202 0024 6344     		add	r3, r3, ip
 2203 0026 1249     		ldr	r1, .L135+12
 2204 0028 1800     		movs	r0, r3
 2205 002a FFF7FEFF 		bl	__aeabi_uidiv
 2206 002e 0300     		movs	r3, r0
 2207 0030 DAB2     		uxtb	r2, r3
 2208 0032 104B     		ldr	r3, .L135+16
 2209 0034 1A70     		strb	r2, [r3]
2608:Generated_Source\PSoC4/CyLib.c ****     cydelayFreqKhz = (cydelayFreqHz + CY_DELAY_1K_MINUS_1_THRESHOLD) / CY_DELAY_1K_THRESHOLD;
 2210              		.loc 1 2608 0
 2211 0036 0B4B     		ldr	r3, .L135
 2212 0038 1B68     		ldr	r3, [r3]
 2213 003a 0F4A     		ldr	r2, .L135+20
 2214 003c 9A18     		adds	r2, r3, r2
 2215 003e FA23     		movs	r3, #250
 2216 0040 9900     		lsls	r1, r3, #2
 2217 0042 1000     		movs	r0, r2
 2218 0044 FFF7FEFF 		bl	__aeabi_uidiv
 2219 0048 0300     		movs	r3, r0
 2220 004a 1A00     		movs	r2, r3
 2221 004c 0B4B     		ldr	r3, .L135+24
ARM GAS  C:\Users\PC\AppData\Local\Temp\ccW101Aa.s 			page 86


 2222 004e 1A60     		str	r2, [r3]
2609:Generated_Source\PSoC4/CyLib.c ****     cydelay32kMs   = CY_DELAY_MS_OVERFLOW * cydelayFreqKhz;
 2223              		.loc 1 2609 0
 2224 0050 0A4B     		ldr	r3, .L135+24
 2225 0052 1B68     		ldr	r3, [r3]
 2226 0054 DA03     		lsls	r2, r3, #15
 2227 0056 0A4B     		ldr	r3, .L135+28
 2228 0058 1A60     		str	r2, [r3]
2610:Generated_Source\PSoC4/CyLib.c **** }
 2229              		.loc 1 2610 0
 2230 005a C046     		nop
 2231 005c BD46     		mov	sp, r7
 2232 005e 02B0     		add	sp, sp, #8
 2233              		@ sp needed
 2234 0060 80BD     		pop	{r7, pc}
 2235              	.L136:
 2236 0062 C046     		.align	2
 2237              	.L135:
 2238 0064 00000000 		.word	cydelayFreqHz
 2239 0068 001BB700 		.word	12000000
 2240 006c 3F420F00 		.word	999999
 2241 0070 40420F00 		.word	1000000
 2242 0074 00000000 		.word	cydelayFreqMhz
 2243 0078 E7030000 		.word	999
 2244 007c 00000000 		.word	cydelayFreqKhz
 2245 0080 00000000 		.word	cydelay32kMs
 2246              		.cfi_endproc
 2247              	.LFE35:
 2248              		.size	CyDelayFreq, .-CyDelayFreq
 2249              		.section	.text.CySysTickStart,"ax",%progbits
 2250              		.align	2
 2251              		.global	CySysTickStart
 2252              		.code	16
 2253              		.thumb_func
 2254              		.type	CySysTickStart, %function
 2255              	CySysTickStart:
 2256              	.LFB36:
2611:Generated_Source\PSoC4/CyLib.c **** 
2612:Generated_Source\PSoC4/CyLib.c **** 
2613:Generated_Source\PSoC4/CyLib.c **** /*******************************************************************************
2614:Generated_Source\PSoC4/CyLib.c **** * Function Name: CySysTick_Start
2615:Generated_Source\PSoC4/CyLib.c **** ****************************************************************************//**
2616:Generated_Source\PSoC4/CyLib.c **** *
2617:Generated_Source\PSoC4/CyLib.c **** *  Starts the system timer (SysTick): configures SysTick to generate interrupt
2618:Generated_Source\PSoC4/CyLib.c **** *  every 1 ms and enables the interrupt.
2619:Generated_Source\PSoC4/CyLib.c **** *
2620:Generated_Source\PSoC4/CyLib.c **** *  There are components (LIN, CapSense Gesture) that relies on the default 
2621:Generated_Source\PSoC4/CyLib.c **** *  interval (1 ms). And that changing the interval will negatively impact 
2622:Generated_Source\PSoC4/CyLib.c **** *  their functionality.
2623:Generated_Source\PSoC4/CyLib.c **** *
2624:Generated_Source\PSoC4/CyLib.c **** * \sideeffect
2625:Generated_Source\PSoC4/CyLib.c **** *  Clears SysTick count flag if it was set.
2626:Generated_Source\PSoC4/CyLib.c **** *
2627:Generated_Source\PSoC4/CyLib.c **** *******************************************************************************/
2628:Generated_Source\PSoC4/CyLib.c **** void CySysTickStart(void)
2629:Generated_Source\PSoC4/CyLib.c **** {
 2257              		.loc 1 2629 0
ARM GAS  C:\Users\PC\AppData\Local\Temp\ccW101Aa.s 			page 87


 2258              		.cfi_startproc
 2259              		@ args = 0, pretend = 0, frame = 0
 2260              		@ frame_needed = 1, uses_anonymous_args = 0
 2261 0000 80B5     		push	{r7, lr}
 2262              		.cfi_def_cfa_offset 8
 2263              		.cfi_offset 7, -8
 2264              		.cfi_offset 14, -4
 2265 0002 00AF     		add	r7, sp, #0
 2266              		.cfi_def_cfa_register 7
2630:Generated_Source\PSoC4/CyLib.c ****     if (0u == CySysTickInitVar)
 2267              		.loc 1 2630 0
 2268 0004 064B     		ldr	r3, .L139
 2269 0006 1B68     		ldr	r3, [r3]
 2270 0008 002B     		cmp	r3, #0
 2271 000a 04D1     		bne	.L138
2631:Generated_Source\PSoC4/CyLib.c ****     {
2632:Generated_Source\PSoC4/CyLib.c ****         CySysTickInit();
 2272              		.loc 1 2632 0
 2273 000c FFF7FEFF 		bl	CySysTickInit
2633:Generated_Source\PSoC4/CyLib.c ****         CySysTickInitVar = 1u;
 2274              		.loc 1 2633 0
 2275 0010 034B     		ldr	r3, .L139
 2276 0012 0122     		movs	r2, #1
 2277 0014 1A60     		str	r2, [r3]
 2278              	.L138:
2634:Generated_Source\PSoC4/CyLib.c ****     }
2635:Generated_Source\PSoC4/CyLib.c **** 
2636:Generated_Source\PSoC4/CyLib.c ****     CySysTickEnable();
 2279              		.loc 1 2636 0
 2280 0016 FFF7FEFF 		bl	CySysTickEnable
2637:Generated_Source\PSoC4/CyLib.c **** }
 2281              		.loc 1 2637 0
 2282 001a C046     		nop
 2283 001c BD46     		mov	sp, r7
 2284              		@ sp needed
 2285 001e 80BD     		pop	{r7, pc}
 2286              	.L140:
 2287              		.align	2
 2288              	.L139:
 2289 0020 00000000 		.word	CySysTickInitVar
 2290              		.cfi_endproc
 2291              	.LFE36:
 2292              		.size	CySysTickStart, .-CySysTickStart
 2293              		.section	.text.CySysTickInit,"ax",%progbits
 2294              		.align	2
 2295              		.global	CySysTickInit
 2296              		.code	16
 2297              		.thumb_func
 2298              		.type	CySysTickInit, %function
 2299              	CySysTickInit:
 2300              	.LFB37:
2638:Generated_Source\PSoC4/CyLib.c **** 
2639:Generated_Source\PSoC4/CyLib.c **** 
2640:Generated_Source\PSoC4/CyLib.c **** /*******************************************************************************
2641:Generated_Source\PSoC4/CyLib.c **** * Function Name: CySysTickInit
2642:Generated_Source\PSoC4/CyLib.c **** ****************************************************************************//**
2643:Generated_Source\PSoC4/CyLib.c **** *
ARM GAS  C:\Users\PC\AppData\Local\Temp\ccW101Aa.s 			page 88


2644:Generated_Source\PSoC4/CyLib.c **** *  Initializes the callback addresses with pointers to NULL, associates the
2645:Generated_Source\PSoC4/CyLib.c **** *  SysTick system vector with the function that is responsible for calling
2646:Generated_Source\PSoC4/CyLib.c **** *  registered callback functions, configures SysTick timer to generate interrupt
2647:Generated_Source\PSoC4/CyLib.c **** *  every 1 ms.
2648:Generated_Source\PSoC4/CyLib.c **** *
2649:Generated_Source\PSoC4/CyLib.c **** *  The 1 ms interrupt interval is configured based on the frequency determined
2650:Generated_Source\PSoC4/CyLib.c **** *  by PSoC Creator at build time. If System clock frequency is changed in
2651:Generated_Source\PSoC4/CyLib.c **** *  runtime, the CyDelayFreq() with the appropriate parameter should be called.
2652:Generated_Source\PSoC4/CyLib.c **** *
2653:Generated_Source\PSoC4/CyLib.c **** * \sideeffect
2654:Generated_Source\PSoC4/CyLib.c **** *  Clears SysTick count flag if it was set.
2655:Generated_Source\PSoC4/CyLib.c **** *
2656:Generated_Source\PSoC4/CyLib.c **** *******************************************************************************/
2657:Generated_Source\PSoC4/CyLib.c **** void CySysTickInit(void)
2658:Generated_Source\PSoC4/CyLib.c **** {
 2301              		.loc 1 2658 0
 2302              		.cfi_startproc
 2303              		@ args = 0, pretend = 0, frame = 8
 2304              		@ frame_needed = 1, uses_anonymous_args = 0
 2305 0000 80B5     		push	{r7, lr}
 2306              		.cfi_def_cfa_offset 8
 2307              		.cfi_offset 7, -8
 2308              		.cfi_offset 14, -4
 2309 0002 82B0     		sub	sp, sp, #8
 2310              		.cfi_def_cfa_offset 16
 2311 0004 00AF     		add	r7, sp, #0
 2312              		.cfi_def_cfa_register 7
2659:Generated_Source\PSoC4/CyLib.c ****     uint32 i;
2660:Generated_Source\PSoC4/CyLib.c **** 
2661:Generated_Source\PSoC4/CyLib.c ****     for (i = 0u; i<CY_SYS_SYST_NUM_OF_CALLBACKS; i++)
 2313              		.loc 1 2661 0
 2314 0006 0023     		movs	r3, #0
 2315 0008 7B60     		str	r3, [r7, #4]
 2316 000a 07E0     		b	.L142
 2317              	.L143:
2662:Generated_Source\PSoC4/CyLib.c ****     {
2663:Generated_Source\PSoC4/CyLib.c ****         CySysTickCallbacks[i] = (void *) 0;
 2318              		.loc 1 2663 0 discriminator 3
 2319 000c 134B     		ldr	r3, .L144
 2320 000e 7A68     		ldr	r2, [r7, #4]
 2321 0010 9200     		lsls	r2, r2, #2
 2322 0012 0021     		movs	r1, #0
 2323 0014 D150     		str	r1, [r2, r3]
2661:Generated_Source\PSoC4/CyLib.c ****     {
 2324              		.loc 1 2661 0 discriminator 3
 2325 0016 7B68     		ldr	r3, [r7, #4]
 2326 0018 0133     		adds	r3, r3, #1
 2327 001a 7B60     		str	r3, [r7, #4]
 2328              	.L142:
2661:Generated_Source\PSoC4/CyLib.c ****     {
 2329              		.loc 1 2661 0 is_stmt 0 discriminator 1
 2330 001c 7B68     		ldr	r3, [r7, #4]
 2331 001e 042B     		cmp	r3, #4
 2332 0020 F4D9     		bls	.L143
2664:Generated_Source\PSoC4/CyLib.c ****     }
2665:Generated_Source\PSoC4/CyLib.c **** 
2666:Generated_Source\PSoC4/CyLib.c ****     (void) CyIntSetSysVector(CY_INT_SYSTICK_IRQN, &CySysTickServiceCallbacks);
ARM GAS  C:\Users\PC\AppData\Local\Temp\ccW101Aa.s 			page 89


 2333              		.loc 1 2666 0 is_stmt 1
 2334 0022 0F4B     		ldr	r3, .L144+4
 2335 0024 1900     		movs	r1, r3
 2336 0026 0F20     		movs	r0, #15
 2337 0028 FFF7FEFF 		bl	CyIntSetSysVector
2667:Generated_Source\PSoC4/CyLib.c **** 
2668:Generated_Source\PSoC4/CyLib.c ****     #if(CY_SYSTICK_LFCLK_SOURCE)
2669:Generated_Source\PSoC4/CyLib.c ****         CySysTickSetClockSource(CY_SYS_SYST_CSR_CLK_SRC_SYSCLK);
 2338              		.loc 1 2669 0
 2339 002c 0120     		movs	r0, #1
 2340 002e FFF7FEFF 		bl	CySysTickSetClockSource
2670:Generated_Source\PSoC4/CyLib.c ****     #endif /* (CY_SYSTICK_LFCLK_SOURCE) */
2671:Generated_Source\PSoC4/CyLib.c **** 
2672:Generated_Source\PSoC4/CyLib.c ****     CySysTickSetReload(cydelayFreqHz/1000u);
 2341              		.loc 1 2672 0
 2342 0032 0C4B     		ldr	r3, .L144+8
 2343 0034 1A68     		ldr	r2, [r3]
 2344 0036 FA23     		movs	r3, #250
 2345 0038 9900     		lsls	r1, r3, #2
 2346 003a 1000     		movs	r0, r2
 2347 003c FFF7FEFF 		bl	__aeabi_uidiv
 2348 0040 0300     		movs	r3, r0
 2349 0042 1800     		movs	r0, r3
 2350 0044 FFF7FEFF 		bl	CySysTickSetReload
2673:Generated_Source\PSoC4/CyLib.c ****     CySysTickClear();
 2351              		.loc 1 2673 0
 2352 0048 FFF7FEFF 		bl	CySysTickClear
2674:Generated_Source\PSoC4/CyLib.c ****     CyIntEnable(CY_INT_SYSTICK_IRQN);
 2353              		.loc 1 2674 0
 2354 004c 0F20     		movs	r0, #15
 2355 004e FFF7FEFF 		bl	CyIntEnable
2675:Generated_Source\PSoC4/CyLib.c **** }
 2356              		.loc 1 2675 0
 2357 0052 C046     		nop
 2358 0054 BD46     		mov	sp, r7
 2359 0056 02B0     		add	sp, sp, #8
 2360              		@ sp needed
 2361 0058 80BD     		pop	{r7, pc}
 2362              	.L145:
 2363 005a C046     		.align	2
 2364              	.L144:
 2365 005c 00000000 		.word	CySysTickCallbacks
 2366 0060 00000000 		.word	CySysTickServiceCallbacks
 2367 0064 00000000 		.word	cydelayFreqHz
 2368              		.cfi_endproc
 2369              	.LFE37:
 2370              		.size	CySysTickInit, .-CySysTickInit
 2371              		.section	.text.CySysTickEnable,"ax",%progbits
 2372              		.align	2
 2373              		.global	CySysTickEnable
 2374              		.code	16
 2375              		.thumb_func
 2376              		.type	CySysTickEnable, %function
 2377              	CySysTickEnable:
 2378              	.LFB38:
2676:Generated_Source\PSoC4/CyLib.c **** 
2677:Generated_Source\PSoC4/CyLib.c **** 
ARM GAS  C:\Users\PC\AppData\Local\Temp\ccW101Aa.s 			page 90


2678:Generated_Source\PSoC4/CyLib.c **** /*******************************************************************************
2679:Generated_Source\PSoC4/CyLib.c **** * Function Name: CySysTickEnable
2680:Generated_Source\PSoC4/CyLib.c **** ****************************************************************************//**
2681:Generated_Source\PSoC4/CyLib.c **** *
2682:Generated_Source\PSoC4/CyLib.c **** *  Enables the SysTick timer and its interrupt.
2683:Generated_Source\PSoC4/CyLib.c **** *
2684:Generated_Source\PSoC4/CyLib.c **** * \sideeffect
2685:Generated_Source\PSoC4/CyLib.c **** *  Clears SysTick count flag if it was set
2686:Generated_Source\PSoC4/CyLib.c **** *
2687:Generated_Source\PSoC4/CyLib.c **** *******************************************************************************/
2688:Generated_Source\PSoC4/CyLib.c **** void CySysTickEnable(void)
2689:Generated_Source\PSoC4/CyLib.c **** {
 2379              		.loc 1 2689 0
 2380              		.cfi_startproc
 2381              		@ args = 0, pretend = 0, frame = 0
 2382              		@ frame_needed = 1, uses_anonymous_args = 0
 2383 0000 80B5     		push	{r7, lr}
 2384              		.cfi_def_cfa_offset 8
 2385              		.cfi_offset 7, -8
 2386              		.cfi_offset 14, -4
 2387 0002 00AF     		add	r7, sp, #0
 2388              		.cfi_def_cfa_register 7
2690:Generated_Source\PSoC4/CyLib.c ****     CySysTickEnableInterrupt();
 2389              		.loc 1 2690 0
 2390 0004 FFF7FEFF 		bl	CySysTickEnableInterrupt
2691:Generated_Source\PSoC4/CyLib.c ****     CY_SYS_SYST_CSR_REG |= CY_SYS_SYST_CSR_ENABLE;
 2391              		.loc 1 2691 0
 2392 0008 044B     		ldr	r3, .L147
 2393 000a 044A     		ldr	r2, .L147
 2394 000c 1268     		ldr	r2, [r2]
 2395 000e 0121     		movs	r1, #1
 2396 0010 0A43     		orrs	r2, r1
 2397 0012 1A60     		str	r2, [r3]
2692:Generated_Source\PSoC4/CyLib.c **** }
 2398              		.loc 1 2692 0
 2399 0014 C046     		nop
 2400 0016 BD46     		mov	sp, r7
 2401              		@ sp needed
 2402 0018 80BD     		pop	{r7, pc}
 2403              	.L148:
 2404 001a C046     		.align	2
 2405              	.L147:
 2406 001c 10E000E0 		.word	-536813552
 2407              		.cfi_endproc
 2408              	.LFE38:
 2409              		.size	CySysTickEnable, .-CySysTickEnable
 2410              		.section	.text.CySysTickStop,"ax",%progbits
 2411              		.align	2
 2412              		.global	CySysTickStop
 2413              		.code	16
 2414              		.thumb_func
 2415              		.type	CySysTickStop, %function
 2416              	CySysTickStop:
 2417              	.LFB39:
2693:Generated_Source\PSoC4/CyLib.c **** 
2694:Generated_Source\PSoC4/CyLib.c **** 
2695:Generated_Source\PSoC4/CyLib.c **** /*******************************************************************************
ARM GAS  C:\Users\PC\AppData\Local\Temp\ccW101Aa.s 			page 91


2696:Generated_Source\PSoC4/CyLib.c **** * Function Name: CySysTickStop
2697:Generated_Source\PSoC4/CyLib.c **** ****************************************************************************//**
2698:Generated_Source\PSoC4/CyLib.c **** *
2699:Generated_Source\PSoC4/CyLib.c **** *  Stops the system timer (SysTick).
2700:Generated_Source\PSoC4/CyLib.c **** *
2701:Generated_Source\PSoC4/CyLib.c **** * \sideeffect
2702:Generated_Source\PSoC4/CyLib.c **** *  Clears SysTick count flag if it was set
2703:Generated_Source\PSoC4/CyLib.c **** *
2704:Generated_Source\PSoC4/CyLib.c **** *******************************************************************************/
2705:Generated_Source\PSoC4/CyLib.c **** void CySysTickStop(void)
2706:Generated_Source\PSoC4/CyLib.c **** {
 2418              		.loc 1 2706 0
 2419              		.cfi_startproc
 2420              		@ args = 0, pretend = 0, frame = 0
 2421              		@ frame_needed = 1, uses_anonymous_args = 0
 2422 0000 80B5     		push	{r7, lr}
 2423              		.cfi_def_cfa_offset 8
 2424              		.cfi_offset 7, -8
 2425              		.cfi_offset 14, -4
 2426 0002 00AF     		add	r7, sp, #0
 2427              		.cfi_def_cfa_register 7
2707:Generated_Source\PSoC4/CyLib.c ****     CY_SYS_SYST_CSR_REG &= ((uint32) ~(CY_SYS_SYST_CSR_ENABLE));
 2428              		.loc 1 2707 0
 2429 0004 044B     		ldr	r3, .L150
 2430 0006 044A     		ldr	r2, .L150
 2431 0008 1268     		ldr	r2, [r2]
 2432 000a 0121     		movs	r1, #1
 2433 000c 8A43     		bics	r2, r1
 2434 000e 1A60     		str	r2, [r3]
2708:Generated_Source\PSoC4/CyLib.c **** }
 2435              		.loc 1 2708 0
 2436 0010 C046     		nop
 2437 0012 BD46     		mov	sp, r7
 2438              		@ sp needed
 2439 0014 80BD     		pop	{r7, pc}
 2440              	.L151:
 2441 0016 C046     		.align	2
 2442              	.L150:
 2443 0018 10E000E0 		.word	-536813552
 2444              		.cfi_endproc
 2445              	.LFE39:
 2446              		.size	CySysTickStop, .-CySysTickStop
 2447              		.section	.text.CySysTickEnableInterrupt,"ax",%progbits
 2448              		.align	2
 2449              		.global	CySysTickEnableInterrupt
 2450              		.code	16
 2451              		.thumb_func
 2452              		.type	CySysTickEnableInterrupt, %function
 2453              	CySysTickEnableInterrupt:
 2454              	.LFB40:
2709:Generated_Source\PSoC4/CyLib.c **** 
2710:Generated_Source\PSoC4/CyLib.c **** 
2711:Generated_Source\PSoC4/CyLib.c **** /*******************************************************************************
2712:Generated_Source\PSoC4/CyLib.c **** * Function Name: CySysTickEnableInterrupt
2713:Generated_Source\PSoC4/CyLib.c **** ****************************************************************************//**
2714:Generated_Source\PSoC4/CyLib.c **** *
2715:Generated_Source\PSoC4/CyLib.c **** *  Enables the SysTick interrupt.
ARM GAS  C:\Users\PC\AppData\Local\Temp\ccW101Aa.s 			page 92


2716:Generated_Source\PSoC4/CyLib.c **** *
2717:Generated_Source\PSoC4/CyLib.c **** * \sideeffect
2718:Generated_Source\PSoC4/CyLib.c **** *  Clears SysTick count flag if it was set
2719:Generated_Source\PSoC4/CyLib.c **** *
2720:Generated_Source\PSoC4/CyLib.c **** *******************************************************************************/
2721:Generated_Source\PSoC4/CyLib.c **** void CySysTickEnableInterrupt(void)
2722:Generated_Source\PSoC4/CyLib.c **** {
 2455              		.loc 1 2722 0
 2456              		.cfi_startproc
 2457              		@ args = 0, pretend = 0, frame = 0
 2458              		@ frame_needed = 1, uses_anonymous_args = 0
 2459 0000 80B5     		push	{r7, lr}
 2460              		.cfi_def_cfa_offset 8
 2461              		.cfi_offset 7, -8
 2462              		.cfi_offset 14, -4
 2463 0002 00AF     		add	r7, sp, #0
 2464              		.cfi_def_cfa_register 7
2723:Generated_Source\PSoC4/CyLib.c ****     CY_SYS_SYST_CSR_REG |= CY_SYS_SYST_CSR_ENABLE_INT;
 2465              		.loc 1 2723 0
 2466 0004 044B     		ldr	r3, .L153
 2467 0006 044A     		ldr	r2, .L153
 2468 0008 1268     		ldr	r2, [r2]
 2469 000a 0221     		movs	r1, #2
 2470 000c 0A43     		orrs	r2, r1
 2471 000e 1A60     		str	r2, [r3]
2724:Generated_Source\PSoC4/CyLib.c **** }
 2472              		.loc 1 2724 0
 2473 0010 C046     		nop
 2474 0012 BD46     		mov	sp, r7
 2475              		@ sp needed
 2476 0014 80BD     		pop	{r7, pc}
 2477              	.L154:
 2478 0016 C046     		.align	2
 2479              	.L153:
 2480 0018 10E000E0 		.word	-536813552
 2481              		.cfi_endproc
 2482              	.LFE40:
 2483              		.size	CySysTickEnableInterrupt, .-CySysTickEnableInterrupt
 2484              		.section	.text.CySysTickDisableInterrupt,"ax",%progbits
 2485              		.align	2
 2486              		.global	CySysTickDisableInterrupt
 2487              		.code	16
 2488              		.thumb_func
 2489              		.type	CySysTickDisableInterrupt, %function
 2490              	CySysTickDisableInterrupt:
 2491              	.LFB41:
2725:Generated_Source\PSoC4/CyLib.c **** 
2726:Generated_Source\PSoC4/CyLib.c **** 
2727:Generated_Source\PSoC4/CyLib.c **** /*******************************************************************************
2728:Generated_Source\PSoC4/CyLib.c **** * Function Name: CySysTickDisableInterrupt
2729:Generated_Source\PSoC4/CyLib.c **** ****************************************************************************//**
2730:Generated_Source\PSoC4/CyLib.c **** *
2731:Generated_Source\PSoC4/CyLib.c **** *  Disables the SysTick interrupt.
2732:Generated_Source\PSoC4/CyLib.c **** *
2733:Generated_Source\PSoC4/CyLib.c **** * \sideeffect
2734:Generated_Source\PSoC4/CyLib.c **** *  Clears SysTick count flag if it was set
2735:Generated_Source\PSoC4/CyLib.c **** *
ARM GAS  C:\Users\PC\AppData\Local\Temp\ccW101Aa.s 			page 93


2736:Generated_Source\PSoC4/CyLib.c **** *******************************************************************************/
2737:Generated_Source\PSoC4/CyLib.c **** void CySysTickDisableInterrupt(void)
2738:Generated_Source\PSoC4/CyLib.c **** {
 2492              		.loc 1 2738 0
 2493              		.cfi_startproc
 2494              		@ args = 0, pretend = 0, frame = 0
 2495              		@ frame_needed = 1, uses_anonymous_args = 0
 2496 0000 80B5     		push	{r7, lr}
 2497              		.cfi_def_cfa_offset 8
 2498              		.cfi_offset 7, -8
 2499              		.cfi_offset 14, -4
 2500 0002 00AF     		add	r7, sp, #0
 2501              		.cfi_def_cfa_register 7
2739:Generated_Source\PSoC4/CyLib.c ****     CY_SYS_SYST_CSR_REG &= ((uint32) ~(CY_SYS_SYST_CSR_ENABLE_INT));
 2502              		.loc 1 2739 0
 2503 0004 044B     		ldr	r3, .L156
 2504 0006 044A     		ldr	r2, .L156
 2505 0008 1268     		ldr	r2, [r2]
 2506 000a 0221     		movs	r1, #2
 2507 000c 8A43     		bics	r2, r1
 2508 000e 1A60     		str	r2, [r3]
2740:Generated_Source\PSoC4/CyLib.c **** }
 2509              		.loc 1 2740 0
 2510 0010 C046     		nop
 2511 0012 BD46     		mov	sp, r7
 2512              		@ sp needed
 2513 0014 80BD     		pop	{r7, pc}
 2514              	.L157:
 2515 0016 C046     		.align	2
 2516              	.L156:
 2517 0018 10E000E0 		.word	-536813552
 2518              		.cfi_endproc
 2519              	.LFE41:
 2520              		.size	CySysTickDisableInterrupt, .-CySysTickDisableInterrupt
 2521              		.section	.text.CySysTickSetReload,"ax",%progbits
 2522              		.align	2
 2523              		.global	CySysTickSetReload
 2524              		.code	16
 2525              		.thumb_func
 2526              		.type	CySysTickSetReload, %function
 2527              	CySysTickSetReload:
 2528              	.LFB42:
2741:Generated_Source\PSoC4/CyLib.c **** 
2742:Generated_Source\PSoC4/CyLib.c **** 
2743:Generated_Source\PSoC4/CyLib.c **** /*******************************************************************************
2744:Generated_Source\PSoC4/CyLib.c **** * Function Name: CySysTickSetReload
2745:Generated_Source\PSoC4/CyLib.c **** ****************************************************************************//**
2746:Generated_Source\PSoC4/CyLib.c **** *
2747:Generated_Source\PSoC4/CyLib.c **** *  Sets value the counter is set to on startup and after it reaches zero. This
2748:Generated_Source\PSoC4/CyLib.c **** *  function do not change or reset current sysTick counter value, so it should
2749:Generated_Source\PSoC4/CyLib.c **** *  be cleared using CySysTickClear() API.
2750:Generated_Source\PSoC4/CyLib.c **** *
2751:Generated_Source\PSoC4/CyLib.c **** *  \param value: Valid range [0x0-0x00FFFFFF]. Counter reset value
2752:Generated_Source\PSoC4/CyLib.c **** *
2753:Generated_Source\PSoC4/CyLib.c **** *******************************************************************************/
2754:Generated_Source\PSoC4/CyLib.c **** void CySysTickSetReload(uint32 value)
2755:Generated_Source\PSoC4/CyLib.c **** {
ARM GAS  C:\Users\PC\AppData\Local\Temp\ccW101Aa.s 			page 94


 2529              		.loc 1 2755 0
 2530              		.cfi_startproc
 2531              		@ args = 0, pretend = 0, frame = 8
 2532              		@ frame_needed = 1, uses_anonymous_args = 0
 2533 0000 80B5     		push	{r7, lr}
 2534              		.cfi_def_cfa_offset 8
 2535              		.cfi_offset 7, -8
 2536              		.cfi_offset 14, -4
 2537 0002 82B0     		sub	sp, sp, #8
 2538              		.cfi_def_cfa_offset 16
 2539 0004 00AF     		add	r7, sp, #0
 2540              		.cfi_def_cfa_register 7
 2541 0006 7860     		str	r0, [r7, #4]
2756:Generated_Source\PSoC4/CyLib.c ****     CY_SYS_SYST_RVR_REG = (value & CY_SYS_SYST_RVR_CNT_MASK);
 2542              		.loc 1 2756 0
 2543 0008 044B     		ldr	r3, .L159
 2544 000a 7A68     		ldr	r2, [r7, #4]
 2545 000c 1202     		lsls	r2, r2, #8
 2546 000e 120A     		lsrs	r2, r2, #8
 2547 0010 1A60     		str	r2, [r3]
2757:Generated_Source\PSoC4/CyLib.c **** }
 2548              		.loc 1 2757 0
 2549 0012 C046     		nop
 2550 0014 BD46     		mov	sp, r7
 2551 0016 02B0     		add	sp, sp, #8
 2552              		@ sp needed
 2553 0018 80BD     		pop	{r7, pc}
 2554              	.L160:
 2555 001a C046     		.align	2
 2556              	.L159:
 2557 001c 14E000E0 		.word	-536813548
 2558              		.cfi_endproc
 2559              	.LFE42:
 2560              		.size	CySysTickSetReload, .-CySysTickSetReload
 2561              		.section	.text.CySysTickGetReload,"ax",%progbits
 2562              		.align	2
 2563              		.global	CySysTickGetReload
 2564              		.code	16
 2565              		.thumb_func
 2566              		.type	CySysTickGetReload, %function
 2567              	CySysTickGetReload:
 2568              	.LFB43:
2758:Generated_Source\PSoC4/CyLib.c **** 
2759:Generated_Source\PSoC4/CyLib.c **** 
2760:Generated_Source\PSoC4/CyLib.c **** /*******************************************************************************
2761:Generated_Source\PSoC4/CyLib.c **** * Function Name: CySysTickGetReload
2762:Generated_Source\PSoC4/CyLib.c **** ****************************************************************************//**
2763:Generated_Source\PSoC4/CyLib.c **** *
2764:Generated_Source\PSoC4/CyLib.c **** *  Gets value the counter is set to on startup and after it reaches zero.
2765:Generated_Source\PSoC4/CyLib.c **** *
2766:Generated_Source\PSoC4/CyLib.c **** * \return
2767:Generated_Source\PSoC4/CyLib.c **** *  Counter reset value.
2768:Generated_Source\PSoC4/CyLib.c **** *
2769:Generated_Source\PSoC4/CyLib.c **** *******************************************************************************/
2770:Generated_Source\PSoC4/CyLib.c **** uint32 CySysTickGetReload(void)
2771:Generated_Source\PSoC4/CyLib.c **** {
 2569              		.loc 1 2771 0
ARM GAS  C:\Users\PC\AppData\Local\Temp\ccW101Aa.s 			page 95


 2570              		.cfi_startproc
 2571              		@ args = 0, pretend = 0, frame = 0
 2572              		@ frame_needed = 1, uses_anonymous_args = 0
 2573 0000 80B5     		push	{r7, lr}
 2574              		.cfi_def_cfa_offset 8
 2575              		.cfi_offset 7, -8
 2576              		.cfi_offset 14, -4
 2577 0002 00AF     		add	r7, sp, #0
 2578              		.cfi_def_cfa_register 7
2772:Generated_Source\PSoC4/CyLib.c ****     return(CY_SYS_SYST_RVR_REG & CY_SYS_SYST_RVR_CNT_MASK);
 2579              		.loc 1 2772 0
 2580 0004 034B     		ldr	r3, .L163
 2581 0006 1B68     		ldr	r3, [r3]
 2582 0008 1B02     		lsls	r3, r3, #8
 2583 000a 1B0A     		lsrs	r3, r3, #8
2773:Generated_Source\PSoC4/CyLib.c **** }
 2584              		.loc 1 2773 0
 2585 000c 1800     		movs	r0, r3
 2586 000e BD46     		mov	sp, r7
 2587              		@ sp needed
 2588 0010 80BD     		pop	{r7, pc}
 2589              	.L164:
 2590 0012 C046     		.align	2
 2591              	.L163:
 2592 0014 14E000E0 		.word	-536813548
 2593              		.cfi_endproc
 2594              	.LFE43:
 2595              		.size	CySysTickGetReload, .-CySysTickGetReload
 2596              		.section	.text.CySysTickGetValue,"ax",%progbits
 2597              		.align	2
 2598              		.global	CySysTickGetValue
 2599              		.code	16
 2600              		.thumb_func
 2601              		.type	CySysTickGetValue, %function
 2602              	CySysTickGetValue:
 2603              	.LFB44:
2774:Generated_Source\PSoC4/CyLib.c **** 
2775:Generated_Source\PSoC4/CyLib.c **** 
2776:Generated_Source\PSoC4/CyLib.c **** /*******************************************************************************
2777:Generated_Source\PSoC4/CyLib.c **** * Function Name: CySysTickGetValue
2778:Generated_Source\PSoC4/CyLib.c **** ****************************************************************************//**
2779:Generated_Source\PSoC4/CyLib.c **** *
2780:Generated_Source\PSoC4/CyLib.c **** *  Gets current SysTick counter value.
2781:Generated_Source\PSoC4/CyLib.c **** *
2782:Generated_Source\PSoC4/CyLib.c **** * \return
2783:Generated_Source\PSoC4/CyLib.c **** *  Current SysTick counter value
2784:Generated_Source\PSoC4/CyLib.c **** *
2785:Generated_Source\PSoC4/CyLib.c **** *******************************************************************************/
2786:Generated_Source\PSoC4/CyLib.c **** uint32 CySysTickGetValue(void)
2787:Generated_Source\PSoC4/CyLib.c **** {
 2604              		.loc 1 2787 0
 2605              		.cfi_startproc
 2606              		@ args = 0, pretend = 0, frame = 0
 2607              		@ frame_needed = 1, uses_anonymous_args = 0
 2608 0000 80B5     		push	{r7, lr}
 2609              		.cfi_def_cfa_offset 8
 2610              		.cfi_offset 7, -8
ARM GAS  C:\Users\PC\AppData\Local\Temp\ccW101Aa.s 			page 96


 2611              		.cfi_offset 14, -4
 2612 0002 00AF     		add	r7, sp, #0
 2613              		.cfi_def_cfa_register 7
2788:Generated_Source\PSoC4/CyLib.c ****     return(CY_SYS_SYST_CVR_REG & CY_SYS_SYST_CVR_CNT_MASK);
 2614              		.loc 1 2788 0
 2615 0004 034B     		ldr	r3, .L167
 2616 0006 1B68     		ldr	r3, [r3]
 2617 0008 1B02     		lsls	r3, r3, #8
 2618 000a 1B0A     		lsrs	r3, r3, #8
2789:Generated_Source\PSoC4/CyLib.c **** }
 2619              		.loc 1 2789 0
 2620 000c 1800     		movs	r0, r3
 2621 000e BD46     		mov	sp, r7
 2622              		@ sp needed
 2623 0010 80BD     		pop	{r7, pc}
 2624              	.L168:
 2625 0012 C046     		.align	2
 2626              	.L167:
 2627 0014 18E000E0 		.word	-536813544
 2628              		.cfi_endproc
 2629              	.LFE44:
 2630              		.size	CySysTickGetValue, .-CySysTickGetValue
 2631              		.section	.text.CySysTickSetClockSource,"ax",%progbits
 2632              		.align	2
 2633              		.global	CySysTickSetClockSource
 2634              		.code	16
 2635              		.thumb_func
 2636              		.type	CySysTickSetClockSource, %function
 2637              	CySysTickSetClockSource:
 2638              	.LFB45:
2790:Generated_Source\PSoC4/CyLib.c **** 
2791:Generated_Source\PSoC4/CyLib.c **** 
2792:Generated_Source\PSoC4/CyLib.c **** #if(CY_SYSTICK_LFCLK_SOURCE)
2793:Generated_Source\PSoC4/CyLib.c ****     /*******************************************************************************
2794:Generated_Source\PSoC4/CyLib.c ****     * Function Name: CySysTickSetClockSource
2795:Generated_Source\PSoC4/CyLib.c ****     ****************************************************************************//**
2796:Generated_Source\PSoC4/CyLib.c ****     *
2797:Generated_Source\PSoC4/CyLib.c ****     *  Sets the clock source for the SysTick counter.
2798:Generated_Source\PSoC4/CyLib.c ****     *
2799:Generated_Source\PSoC4/CyLib.c ****     *  Clears SysTick count flag if it was set. If clock source is not ready this
2800:Generated_Source\PSoC4/CyLib.c ****     *  function call will have no effect. After changing clock source to the low
2801:Generated_Source\PSoC4/CyLib.c ****     *  frequency clock the counter and reload register values will remain unchanged
2802:Generated_Source\PSoC4/CyLib.c ****     *  so time to the interrupt will be significantly longer and vice versa.
2803:Generated_Source\PSoC4/CyLib.c ****     *
2804:Generated_Source\PSoC4/CyLib.c ****     *  The changing of SysTick clock source and\or its frequency will change 
2805:Generated_Source\PSoC4/CyLib.c ****     *  the interrupt interval and that CySysTickSetReload() should be 
2806:Generated_Source\PSoC4/CyLib.c ****     *  called to compensate this change.    
2807:Generated_Source\PSoC4/CyLib.c ****     *
2808:Generated_Source\PSoC4/CyLib.c ****     *  The function is not available on PSoC 4000, PSoC 4100, and PSoC 42000
2809:Generated_Source\PSoC4/CyLib.c ****     *  devices. The SysTick timer clocked by the System clock on these devices.
2810:Generated_Source\PSoC4/CyLib.c ****     *
2811:Generated_Source\PSoC4/CyLib.c ****     *  \param clockSource Clock source for SysTick counter
2812:Generated_Source\PSoC4/CyLib.c ****     *         Define                     Clock Source
2813:Generated_Source\PSoC4/CyLib.c ****     *   CY_SYS_SYST_CSR_CLK_SRC_SYSCLK     SysTick is clocked by the CPU clock.
2814:Generated_Source\PSoC4/CyLib.c ****     *   CY_SYS_SYST_CSR_CLK_SRC_LFCLK      SysTick is clocked by the low frequency
2815:Generated_Source\PSoC4/CyLib.c ****     *                                      clock. (ILO 100 KHz for PSoC 5LP, and
2816:Generated_Source\PSoC4/CyLib.c ****     *                                      LFCLK for PSoC 4).
ARM GAS  C:\Users\PC\AppData\Local\Temp\ccW101Aa.s 			page 97


2817:Generated_Source\PSoC4/CyLib.c ****     *******************************************************************************/
2818:Generated_Source\PSoC4/CyLib.c ****     void CySysTickSetClockSource(uint32 clockSource)
2819:Generated_Source\PSoC4/CyLib.c ****     {
 2639              		.loc 1 2819 0
 2640              		.cfi_startproc
 2641              		@ args = 0, pretend = 0, frame = 8
 2642              		@ frame_needed = 1, uses_anonymous_args = 0
 2643 0000 80B5     		push	{r7, lr}
 2644              		.cfi_def_cfa_offset 8
 2645              		.cfi_offset 7, -8
 2646              		.cfi_offset 14, -4
 2647 0002 82B0     		sub	sp, sp, #8
 2648              		.cfi_def_cfa_offset 16
 2649 0004 00AF     		add	r7, sp, #0
 2650              		.cfi_def_cfa_register 7
 2651 0006 7860     		str	r0, [r7, #4]
2820:Generated_Source\PSoC4/CyLib.c ****         if (clockSource == CY_SYS_SYST_CSR_CLK_SRC_SYSCLK)
 2652              		.loc 1 2820 0
 2653 0008 7B68     		ldr	r3, [r7, #4]
 2654 000a 012B     		cmp	r3, #1
 2655 000c 06D1     		bne	.L170
2821:Generated_Source\PSoC4/CyLib.c ****         {
2822:Generated_Source\PSoC4/CyLib.c ****             CY_SYS_SYST_CSR_REG |= (uint32)(CY_SYS_SYST_CSR_CLK_SRC_SYSCLK << CY_SYS_SYST_CSR_CLK_S
 2656              		.loc 1 2822 0
 2657 000e 084B     		ldr	r3, .L173
 2658 0010 074A     		ldr	r2, .L173
 2659 0012 1268     		ldr	r2, [r2]
 2660 0014 0421     		movs	r1, #4
 2661 0016 0A43     		orrs	r2, r1
 2662 0018 1A60     		str	r2, [r3]
2823:Generated_Source\PSoC4/CyLib.c ****         }
2824:Generated_Source\PSoC4/CyLib.c ****         else
2825:Generated_Source\PSoC4/CyLib.c ****         {
2826:Generated_Source\PSoC4/CyLib.c ****             CY_SYS_SYST_CSR_REG &= ((uint32) ~((uint32)(CY_SYS_SYST_CSR_CLK_SRC_SYSCLK << CY_SYS_SY
2827:Generated_Source\PSoC4/CyLib.c ****         }
2828:Generated_Source\PSoC4/CyLib.c ****     }
 2663              		.loc 1 2828 0
 2664 001a 05E0     		b	.L172
 2665              	.L170:
2826:Generated_Source\PSoC4/CyLib.c ****         }
 2666              		.loc 1 2826 0
 2667 001c 044B     		ldr	r3, .L173
 2668 001e 044A     		ldr	r2, .L173
 2669 0020 1268     		ldr	r2, [r2]
 2670 0022 0421     		movs	r1, #4
 2671 0024 8A43     		bics	r2, r1
 2672 0026 1A60     		str	r2, [r3]
 2673              	.L172:
 2674              		.loc 1 2828 0
 2675 0028 C046     		nop
 2676 002a BD46     		mov	sp, r7
 2677 002c 02B0     		add	sp, sp, #8
 2678              		@ sp needed
 2679 002e 80BD     		pop	{r7, pc}
 2680              	.L174:
 2681              		.align	2
 2682              	.L173:
ARM GAS  C:\Users\PC\AppData\Local\Temp\ccW101Aa.s 			page 98


 2683 0030 10E000E0 		.word	-536813552
 2684              		.cfi_endproc
 2685              	.LFE45:
 2686              		.size	CySysTickSetClockSource, .-CySysTickSetClockSource
 2687              		.section	.text.CySysTickGetClockSource,"ax",%progbits
 2688              		.align	2
 2689              		.global	CySysTickGetClockSource
 2690              		.code	16
 2691              		.thumb_func
 2692              		.type	CySysTickGetClockSource, %function
 2693              	CySysTickGetClockSource:
 2694              	.LFB46:
2829:Generated_Source\PSoC4/CyLib.c **** 
2830:Generated_Source\PSoC4/CyLib.c ****     
2831:Generated_Source\PSoC4/CyLib.c ****     /*******************************************************************************
2832:Generated_Source\PSoC4/CyLib.c ****     * Function Name: CySysTickGetClockSource
2833:Generated_Source\PSoC4/CyLib.c ****     ****************************************************************************//**
2834:Generated_Source\PSoC4/CyLib.c ****     *
2835:Generated_Source\PSoC4/CyLib.c ****     *  Returns the current clock source of the SysTick counter.
2836:Generated_Source\PSoC4/CyLib.c ****     *
2837:Generated_Source\PSoC4/CyLib.c ****     *  \return 
2838:Generated_Source\PSoC4/CyLib.c ****     *   CY_SYS_SYST_CSR_CLK_SRC_SYSCLK     SysTick is clocked by CPU clock.
2839:Generated_Source\PSoC4/CyLib.c ****     *   CY_SYS_SYST_CSR_CLK_SRC_LFCLK      SysTick is clocked by the low frequency
2840:Generated_Source\PSoC4/CyLib.c ****     *                                      clock. (ILO 100 KHz for PSoC 5LP, and
2841:Generated_Source\PSoC4/CyLib.c ****     *                                      LFCLK for PSoC 4).
2842:Generated_Source\PSoC4/CyLib.c ****     *******************************************************************************/
2843:Generated_Source\PSoC4/CyLib.c ****     uint32 CySysTickGetClockSource(void)
2844:Generated_Source\PSoC4/CyLib.c ****     {
 2695              		.loc 1 2844 0
 2696              		.cfi_startproc
 2697              		@ args = 0, pretend = 0, frame = 0
 2698              		@ frame_needed = 1, uses_anonymous_args = 0
 2699 0000 80B5     		push	{r7, lr}
 2700              		.cfi_def_cfa_offset 8
 2701              		.cfi_offset 7, -8
 2702              		.cfi_offset 14, -4
 2703 0002 00AF     		add	r7, sp, #0
 2704              		.cfi_def_cfa_register 7
2845:Generated_Source\PSoC4/CyLib.c ****         return ((CY_SYS_SYST_CSR_REG >> CY_SYS_SYST_CSR_CLK_SOURCE_SHIFT) & CY_SYS_SYST_CSR_CLK_SRC
 2705              		.loc 1 2845 0
 2706 0004 034B     		ldr	r3, .L177
 2707 0006 1B68     		ldr	r3, [r3]
 2708 0008 9B08     		lsrs	r3, r3, #2
 2709 000a 0122     		movs	r2, #1
 2710 000c 1340     		ands	r3, r2
2846:Generated_Source\PSoC4/CyLib.c ****     }
 2711              		.loc 1 2846 0
 2712 000e 1800     		movs	r0, r3
 2713 0010 BD46     		mov	sp, r7
 2714              		@ sp needed
 2715 0012 80BD     		pop	{r7, pc}
 2716              	.L178:
 2717              		.align	2
 2718              	.L177:
 2719 0014 10E000E0 		.word	-536813552
 2720              		.cfi_endproc
 2721              	.LFE46:
ARM GAS  C:\Users\PC\AppData\Local\Temp\ccW101Aa.s 			page 99


 2722              		.size	CySysTickGetClockSource, .-CySysTickGetClockSource
 2723              		.section	.text.CySysTickGetCountFlag,"ax",%progbits
 2724              		.align	2
 2725              		.global	CySysTickGetCountFlag
 2726              		.code	16
 2727              		.thumb_func
 2728              		.type	CySysTickGetCountFlag, %function
 2729              	CySysTickGetCountFlag:
 2730              	.LFB47:
2847:Generated_Source\PSoC4/CyLib.c ****     
2848:Generated_Source\PSoC4/CyLib.c **** #endif /* (CY_SYSTICK_LFCLK_SOURCE) */
2849:Generated_Source\PSoC4/CyLib.c **** 
2850:Generated_Source\PSoC4/CyLib.c **** 
2851:Generated_Source\PSoC4/CyLib.c **** /*******************************************************************************
2852:Generated_Source\PSoC4/CyLib.c **** * Function Name: CySysTickGetCountFlag
2853:Generated_Source\PSoC4/CyLib.c **** ****************************************************************************//**
2854:Generated_Source\PSoC4/CyLib.c **** *
2855:Generated_Source\PSoC4/CyLib.c **** *  The count flag is set once SysTick counter reaches zero.
2856:Generated_Source\PSoC4/CyLib.c **** *  The flag cleared on read.
2857:Generated_Source\PSoC4/CyLib.c **** *
2858:Generated_Source\PSoC4/CyLib.c **** * \return
2859:Generated_Source\PSoC4/CyLib.c ****     *  Returns non-zero value if flag is set, otherwise zero is returned.
2860:Generated_Source\PSoC4/CyLib.c **** *
2861:Generated_Source\PSoC4/CyLib.c **** *
2862:Generated_Source\PSoC4/CyLib.c **** * \sideeffect
2863:Generated_Source\PSoC4/CyLib.c **** *  Clears SysTick count flag if it was set.
2864:Generated_Source\PSoC4/CyLib.c **** *
2865:Generated_Source\PSoC4/CyLib.c **** *******************************************************************************/
2866:Generated_Source\PSoC4/CyLib.c **** uint32 CySysTickGetCountFlag(void)
2867:Generated_Source\PSoC4/CyLib.c **** {
 2731              		.loc 1 2867 0
 2732              		.cfi_startproc
 2733              		@ args = 0, pretend = 0, frame = 0
 2734              		@ frame_needed = 1, uses_anonymous_args = 0
 2735 0000 80B5     		push	{r7, lr}
 2736              		.cfi_def_cfa_offset 8
 2737              		.cfi_offset 7, -8
 2738              		.cfi_offset 14, -4
 2739 0002 00AF     		add	r7, sp, #0
 2740              		.cfi_def_cfa_register 7
2868:Generated_Source\PSoC4/CyLib.c ****     return ((CY_SYS_SYST_CSR_REG >> CY_SYS_SYST_CSR_COUNTFLAG_SHIFT) & 0x01u);
 2741              		.loc 1 2868 0
 2742 0004 034B     		ldr	r3, .L181
 2743 0006 1B68     		ldr	r3, [r3]
 2744 0008 1B0C     		lsrs	r3, r3, #16
 2745 000a 0122     		movs	r2, #1
 2746 000c 1340     		ands	r3, r2
2869:Generated_Source\PSoC4/CyLib.c **** }
 2747              		.loc 1 2869 0
 2748 000e 1800     		movs	r0, r3
 2749 0010 BD46     		mov	sp, r7
 2750              		@ sp needed
 2751 0012 80BD     		pop	{r7, pc}
 2752              	.L182:
 2753              		.align	2
 2754              	.L181:
 2755 0014 10E000E0 		.word	-536813552
ARM GAS  C:\Users\PC\AppData\Local\Temp\ccW101Aa.s 			page 100


 2756              		.cfi_endproc
 2757              	.LFE47:
 2758              		.size	CySysTickGetCountFlag, .-CySysTickGetCountFlag
 2759              		.section	.text.CySysTickClear,"ax",%progbits
 2760              		.align	2
 2761              		.global	CySysTickClear
 2762              		.code	16
 2763              		.thumb_func
 2764              		.type	CySysTickClear, %function
 2765              	CySysTickClear:
 2766              	.LFB48:
2870:Generated_Source\PSoC4/CyLib.c **** 
2871:Generated_Source\PSoC4/CyLib.c **** 
2872:Generated_Source\PSoC4/CyLib.c **** /*******************************************************************************
2873:Generated_Source\PSoC4/CyLib.c **** * Function Name: CySysTickClear
2874:Generated_Source\PSoC4/CyLib.c **** ****************************************************************************//**
2875:Generated_Source\PSoC4/CyLib.c **** *
2876:Generated_Source\PSoC4/CyLib.c **** *  Clears the SysTick counter for well-defined startup.
2877:Generated_Source\PSoC4/CyLib.c **** *
2878:Generated_Source\PSoC4/CyLib.c **** *******************************************************************************/
2879:Generated_Source\PSoC4/CyLib.c **** void CySysTickClear(void)
2880:Generated_Source\PSoC4/CyLib.c **** {
 2767              		.loc 1 2880 0
 2768              		.cfi_startproc
 2769              		@ args = 0, pretend = 0, frame = 0
 2770              		@ frame_needed = 1, uses_anonymous_args = 0
 2771 0000 80B5     		push	{r7, lr}
 2772              		.cfi_def_cfa_offset 8
 2773              		.cfi_offset 7, -8
 2774              		.cfi_offset 14, -4
 2775 0002 00AF     		add	r7, sp, #0
 2776              		.cfi_def_cfa_register 7
2881:Generated_Source\PSoC4/CyLib.c ****     CY_SYS_SYST_CVR_REG = 0u;
 2777              		.loc 1 2881 0
 2778 0004 024B     		ldr	r3, .L184
 2779 0006 0022     		movs	r2, #0
 2780 0008 1A60     		str	r2, [r3]
2882:Generated_Source\PSoC4/CyLib.c **** }
 2781              		.loc 1 2882 0
 2782 000a C046     		nop
 2783 000c BD46     		mov	sp, r7
 2784              		@ sp needed
 2785 000e 80BD     		pop	{r7, pc}
 2786              	.L185:
 2787              		.align	2
 2788              	.L184:
 2789 0010 18E000E0 		.word	-536813544
 2790              		.cfi_endproc
 2791              	.LFE48:
 2792              		.size	CySysTickClear, .-CySysTickClear
 2793              		.section	.text.CySysTickSetCallback,"ax",%progbits
 2794              		.align	2
 2795              		.global	CySysTickSetCallback
 2796              		.code	16
 2797              		.thumb_func
 2798              		.type	CySysTickSetCallback, %function
 2799              	CySysTickSetCallback:
ARM GAS  C:\Users\PC\AppData\Local\Temp\ccW101Aa.s 			page 101


 2800              	.LFB49:
2883:Generated_Source\PSoC4/CyLib.c **** 
2884:Generated_Source\PSoC4/CyLib.c **** 
2885:Generated_Source\PSoC4/CyLib.c **** /*******************************************************************************
2886:Generated_Source\PSoC4/CyLib.c **** * Function Name: CySysTickSetCallback
2887:Generated_Source\PSoC4/CyLib.c **** ****************************************************************************//**
2888:Generated_Source\PSoC4/CyLib.c **** *
2889:Generated_Source\PSoC4/CyLib.c **** *  This function allows up to five user-defined interrupt service routine
2890:Generated_Source\PSoC4/CyLib.c **** *  functions to be associated with the SysTick interrupt. These are specified
2891:Generated_Source\PSoC4/CyLib.c **** *  through the use of pointers to the function.
2892:Generated_Source\PSoC4/CyLib.c **** *
2893:Generated_Source\PSoC4/CyLib.c **** *  To set a custom callback function without the overhead of the system provided
2894:Generated_Source\PSoC4/CyLib.c **** *  one, use CyIntSetSysVector(CY_INT_SYSTICK_IRQN, cyisraddress <address>),
2895:Generated_Source\PSoC4/CyLib.c **** *  where <address> is address of the custom defined interrupt service routine.
2896:Generated_Source\PSoC4/CyLib.c **** *  Note: a custom callback function overrides the system defined callback
2897:Generated_Source\PSoC4/CyLib.c **** *  functions.
2898:Generated_Source\PSoC4/CyLib.c **** *
2899:Generated_Source\PSoC4/CyLib.c **** *  \param number: The number of the callback function addresses to be set. The valid
2900:Generated_Source\PSoC4/CyLib.c **** *          range is from 0 to 4.
2901:Generated_Source\PSoC4/CyLib.c **** *
2902:Generated_Source\PSoC4/CyLib.c **** *  void(*CallbackFunction(void): A pointer to the function that will be
2903:Generated_Source\PSoC4/CyLib.c **** *                                associated with the SysTick ISR for the
2904:Generated_Source\PSoC4/CyLib.c **** *                                specified number.
2905:Generated_Source\PSoC4/CyLib.c **** *
2906:Generated_Source\PSoC4/CyLib.c **** * \return
2907:Generated_Source\PSoC4/CyLib.c **** *  Returns the address of the previous callback function.
2908:Generated_Source\PSoC4/CyLib.c **** *  The NULL is returned if the specified address in not set.
2909:Generated_Source\PSoC4/CyLib.c **** *
2910:Generated_Source\PSoC4/CyLib.c **** * \sideeffect
2911:Generated_Source\PSoC4/CyLib.c **** *  The registered callback functions will be executed in the interrupt.
2912:Generated_Source\PSoC4/CyLib.c **** *
2913:Generated_Source\PSoC4/CyLib.c **** *******************************************************************************/
2914:Generated_Source\PSoC4/CyLib.c **** cySysTickCallback CySysTickSetCallback(uint32 number, cySysTickCallback function)
2915:Generated_Source\PSoC4/CyLib.c **** {
 2801              		.loc 1 2915 0
 2802              		.cfi_startproc
 2803              		@ args = 0, pretend = 0, frame = 16
 2804              		@ frame_needed = 1, uses_anonymous_args = 0
 2805 0000 80B5     		push	{r7, lr}
 2806              		.cfi_def_cfa_offset 8
 2807              		.cfi_offset 7, -8
 2808              		.cfi_offset 14, -4
 2809 0002 84B0     		sub	sp, sp, #16
 2810              		.cfi_def_cfa_offset 24
 2811 0004 00AF     		add	r7, sp, #0
 2812              		.cfi_def_cfa_register 7
 2813 0006 7860     		str	r0, [r7, #4]
 2814 0008 3960     		str	r1, [r7]
2916:Generated_Source\PSoC4/CyLib.c ****     cySysTickCallback retVal;
2917:Generated_Source\PSoC4/CyLib.c **** 
2918:Generated_Source\PSoC4/CyLib.c ****     retVal = CySysTickCallbacks[number];
 2815              		.loc 1 2918 0
 2816 000a 074B     		ldr	r3, .L188
 2817 000c 7A68     		ldr	r2, [r7, #4]
 2818 000e 9200     		lsls	r2, r2, #2
 2819 0010 D358     		ldr	r3, [r2, r3]
 2820 0012 FB60     		str	r3, [r7, #12]
ARM GAS  C:\Users\PC\AppData\Local\Temp\ccW101Aa.s 			page 102


2919:Generated_Source\PSoC4/CyLib.c ****     CySysTickCallbacks[number] = function;
 2821              		.loc 1 2919 0
 2822 0014 044B     		ldr	r3, .L188
 2823 0016 7A68     		ldr	r2, [r7, #4]
 2824 0018 9200     		lsls	r2, r2, #2
 2825 001a 3968     		ldr	r1, [r7]
 2826 001c D150     		str	r1, [r2, r3]
2920:Generated_Source\PSoC4/CyLib.c ****     return (retVal);
 2827              		.loc 1 2920 0
 2828 001e FB68     		ldr	r3, [r7, #12]
2921:Generated_Source\PSoC4/CyLib.c **** }
 2829              		.loc 1 2921 0
 2830 0020 1800     		movs	r0, r3
 2831 0022 BD46     		mov	sp, r7
 2832 0024 04B0     		add	sp, sp, #16
 2833              		@ sp needed
 2834 0026 80BD     		pop	{r7, pc}
 2835              	.L189:
 2836              		.align	2
 2837              	.L188:
 2838 0028 00000000 		.word	CySysTickCallbacks
 2839              		.cfi_endproc
 2840              	.LFE49:
 2841              		.size	CySysTickSetCallback, .-CySysTickSetCallback
 2842              		.section	.text.CySysTickGetCallback,"ax",%progbits
 2843              		.align	2
 2844              		.global	CySysTickGetCallback
 2845              		.code	16
 2846              		.thumb_func
 2847              		.type	CySysTickGetCallback, %function
 2848              	CySysTickGetCallback:
 2849              	.LFB50:
2922:Generated_Source\PSoC4/CyLib.c **** 
2923:Generated_Source\PSoC4/CyLib.c **** 
2924:Generated_Source\PSoC4/CyLib.c **** /*******************************************************************************
2925:Generated_Source\PSoC4/CyLib.c **** * Function Name: CySysTickGetCallback
2926:Generated_Source\PSoC4/CyLib.c **** ****************************************************************************//**
2927:Generated_Source\PSoC4/CyLib.c **** *
2928:Generated_Source\PSoC4/CyLib.c **** *  The function get the specified callback pointer.
2929:Generated_Source\PSoC4/CyLib.c **** *
2930:Generated_Source\PSoC4/CyLib.c **** *  \param number: The number of callback function address to get. The valid
2931:Generated_Source\PSoC4/CyLib.c **** *          range is from 0 to 4.
2932:Generated_Source\PSoC4/CyLib.c **** *
2933:Generated_Source\PSoC4/CyLib.c **** * \return
2934:Generated_Source\PSoC4/CyLib.c **** *  Returns the address of the specified callback function.
2935:Generated_Source\PSoC4/CyLib.c **** *  The NULL is returned if the specified address in not initialized.
2936:Generated_Source\PSoC4/CyLib.c **** *
2937:Generated_Source\PSoC4/CyLib.c **** *******************************************************************************/
2938:Generated_Source\PSoC4/CyLib.c **** cySysTickCallback CySysTickGetCallback(uint32 number)
2939:Generated_Source\PSoC4/CyLib.c **** {
 2850              		.loc 1 2939 0
 2851              		.cfi_startproc
 2852              		@ args = 0, pretend = 0, frame = 8
 2853              		@ frame_needed = 1, uses_anonymous_args = 0
 2854 0000 80B5     		push	{r7, lr}
 2855              		.cfi_def_cfa_offset 8
 2856              		.cfi_offset 7, -8
ARM GAS  C:\Users\PC\AppData\Local\Temp\ccW101Aa.s 			page 103


 2857              		.cfi_offset 14, -4
 2858 0002 82B0     		sub	sp, sp, #8
 2859              		.cfi_def_cfa_offset 16
 2860 0004 00AF     		add	r7, sp, #0
 2861              		.cfi_def_cfa_register 7
 2862 0006 7860     		str	r0, [r7, #4]
2940:Generated_Source\PSoC4/CyLib.c ****     return ((cySysTickCallback) CySysTickCallbacks[number]);
 2863              		.loc 1 2940 0
 2864 0008 034B     		ldr	r3, .L192
 2865 000a 7A68     		ldr	r2, [r7, #4]
 2866 000c 9200     		lsls	r2, r2, #2
 2867 000e D358     		ldr	r3, [r2, r3]
2941:Generated_Source\PSoC4/CyLib.c **** }
 2868              		.loc 1 2941 0
 2869 0010 1800     		movs	r0, r3
 2870 0012 BD46     		mov	sp, r7
 2871 0014 02B0     		add	sp, sp, #8
 2872              		@ sp needed
 2873 0016 80BD     		pop	{r7, pc}
 2874              	.L193:
 2875              		.align	2
 2876              	.L192:
 2877 0018 00000000 		.word	CySysTickCallbacks
 2878              		.cfi_endproc
 2879              	.LFE50:
 2880              		.size	CySysTickGetCallback, .-CySysTickGetCallback
 2881              		.section	.text.CySysTickServiceCallbacks,"ax",%progbits
 2882              		.align	2
 2883              		.code	16
 2884              		.thumb_func
 2885              		.type	CySysTickServiceCallbacks, %function
 2886              	CySysTickServiceCallbacks:
 2887              	.LFB51:
2942:Generated_Source\PSoC4/CyLib.c **** 
2943:Generated_Source\PSoC4/CyLib.c **** 
2944:Generated_Source\PSoC4/CyLib.c **** /*******************************************************************************
2945:Generated_Source\PSoC4/CyLib.c **** * Function Name: CySysTickServiceCallbacks
2946:Generated_Source\PSoC4/CyLib.c **** ****************************************************************************//**
2947:Generated_Source\PSoC4/CyLib.c **** *
2948:Generated_Source\PSoC4/CyLib.c **** *  System Tick timer interrupt routine
2949:Generated_Source\PSoC4/CyLib.c **** *
2950:Generated_Source\PSoC4/CyLib.c **** *******************************************************************************/
2951:Generated_Source\PSoC4/CyLib.c **** static void CySysTickServiceCallbacks(void)
2952:Generated_Source\PSoC4/CyLib.c **** {
 2888              		.loc 1 2952 0
 2889              		.cfi_startproc
 2890              		@ args = 0, pretend = 0, frame = 8
 2891              		@ frame_needed = 1, uses_anonymous_args = 0
 2892 0000 80B5     		push	{r7, lr}
 2893              		.cfi_def_cfa_offset 8
 2894              		.cfi_offset 7, -8
 2895              		.cfi_offset 14, -4
 2896 0002 82B0     		sub	sp, sp, #8
 2897              		.cfi_def_cfa_offset 16
 2898 0004 00AF     		add	r7, sp, #0
 2899              		.cfi_def_cfa_register 7
2953:Generated_Source\PSoC4/CyLib.c ****     uint32 i;
ARM GAS  C:\Users\PC\AppData\Local\Temp\ccW101Aa.s 			page 104


2954:Generated_Source\PSoC4/CyLib.c **** 
2955:Generated_Source\PSoC4/CyLib.c ****     /* Verify that tick timer flag was set */
2956:Generated_Source\PSoC4/CyLib.c ****     if (1u == CySysTickGetCountFlag())
 2900              		.loc 1 2956 0
 2901 0006 FFF7FEFF 		bl	CySysTickGetCountFlag
 2902 000a 0300     		movs	r3, r0
 2903 000c 012B     		cmp	r3, #1
 2904 000e 13D1     		bne	.L199
2957:Generated_Source\PSoC4/CyLib.c ****     {
2958:Generated_Source\PSoC4/CyLib.c ****         for (i=0u; i < CY_SYS_SYST_NUM_OF_CALLBACKS; i++)
 2905              		.loc 1 2958 0
 2906 0010 0023     		movs	r3, #0
 2907 0012 7B60     		str	r3, [r7, #4]
 2908 0014 0DE0     		b	.L196
 2909              	.L198:
2959:Generated_Source\PSoC4/CyLib.c ****         {
2960:Generated_Source\PSoC4/CyLib.c ****             if (CySysTickCallbacks[i] != (void *) 0)
 2910              		.loc 1 2960 0
 2911 0016 0A4B     		ldr	r3, .L200
 2912 0018 7A68     		ldr	r2, [r7, #4]
 2913 001a 9200     		lsls	r2, r2, #2
 2914 001c D358     		ldr	r3, [r2, r3]
 2915 001e 002B     		cmp	r3, #0
 2916 0020 04D0     		beq	.L197
2961:Generated_Source\PSoC4/CyLib.c ****             {
2962:Generated_Source\PSoC4/CyLib.c ****                 (void)(CySysTickCallbacks[i])();
 2917              		.loc 1 2962 0
 2918 0022 074B     		ldr	r3, .L200
 2919 0024 7A68     		ldr	r2, [r7, #4]
 2920 0026 9200     		lsls	r2, r2, #2
 2921 0028 D358     		ldr	r3, [r2, r3]
 2922 002a 9847     		blx	r3
 2923              	.L197:
2958:Generated_Source\PSoC4/CyLib.c ****         {
 2924              		.loc 1 2958 0 discriminator 2
 2925 002c 7B68     		ldr	r3, [r7, #4]
 2926 002e 0133     		adds	r3, r3, #1
 2927 0030 7B60     		str	r3, [r7, #4]
 2928              	.L196:
2958:Generated_Source\PSoC4/CyLib.c ****         {
 2929              		.loc 1 2958 0 is_stmt 0 discriminator 1
 2930 0032 7B68     		ldr	r3, [r7, #4]
 2931 0034 042B     		cmp	r3, #4
 2932 0036 EED9     		bls	.L198
 2933              	.L199:
2963:Generated_Source\PSoC4/CyLib.c ****             }
2964:Generated_Source\PSoC4/CyLib.c ****         }
2965:Generated_Source\PSoC4/CyLib.c ****     }
2966:Generated_Source\PSoC4/CyLib.c **** }
 2934              		.loc 1 2966 0 is_stmt 1
 2935 0038 C046     		nop
 2936 003a BD46     		mov	sp, r7
 2937 003c 02B0     		add	sp, sp, #8
 2938              		@ sp needed
 2939 003e 80BD     		pop	{r7, pc}
 2940              	.L201:
 2941              		.align	2
ARM GAS  C:\Users\PC\AppData\Local\Temp\ccW101Aa.s 			page 105


 2942              	.L200:
 2943 0040 00000000 		.word	CySysTickCallbacks
 2944              		.cfi_endproc
 2945              	.LFE51:
 2946              		.size	CySysTickServiceCallbacks, .-CySysTickServiceCallbacks
 2947              		.section	.text.CyGetUniqueId,"ax",%progbits
 2948              		.align	2
 2949              		.global	CyGetUniqueId
 2950              		.code	16
 2951              		.thumb_func
 2952              		.type	CyGetUniqueId, %function
 2953              	CyGetUniqueId:
 2954              	.LFB52:
2967:Generated_Source\PSoC4/CyLib.c **** 
2968:Generated_Source\PSoC4/CyLib.c **** 
2969:Generated_Source\PSoC4/CyLib.c **** /*******************************************************************************
2970:Generated_Source\PSoC4/CyLib.c **** * Function Name: CyGetUniqueId
2971:Generated_Source\PSoC4/CyLib.c **** ****************************************************************************//**
2972:Generated_Source\PSoC4/CyLib.c **** *
2973:Generated_Source\PSoC4/CyLib.c **** *  Returns the 64-bit unique ID of the device. The uniqueness of the number is
2974:Generated_Source\PSoC4/CyLib.c **** *  guaranteed for 10 years due to the die lot number having a cycle life of 10
2975:Generated_Source\PSoC4/CyLib.c **** *  years and even after 10 years, the probability of getting two identical
2976:Generated_Source\PSoC4/CyLib.c **** *  numbers is very small.
2977:Generated_Source\PSoC4/CyLib.c **** *
2978:Generated_Source\PSoC4/CyLib.c **** *  \param uniqueId: The pointer to a two element 32-bit unsigned integer array. Returns
2979:Generated_Source\PSoC4/CyLib.c **** *  the 64-bit unique ID of the device by loading them into the integer array
2980:Generated_Source\PSoC4/CyLib.c **** *  pointed to by uniqueId.
2981:Generated_Source\PSoC4/CyLib.c **** *
2982:Generated_Source\PSoC4/CyLib.c **** *******************************************************************************/
2983:Generated_Source\PSoC4/CyLib.c **** void CyGetUniqueId(uint32* uniqueId)
2984:Generated_Source\PSoC4/CyLib.c **** {
 2955              		.loc 1 2984 0
 2956              		.cfi_startproc
 2957              		@ args = 0, pretend = 0, frame = 8
 2958              		@ frame_needed = 1, uses_anonymous_args = 0
 2959 0000 80B5     		push	{r7, lr}
 2960              		.cfi_def_cfa_offset 8
 2961              		.cfi_offset 7, -8
 2962              		.cfi_offset 14, -4
 2963 0002 82B0     		sub	sp, sp, #8
 2964              		.cfi_def_cfa_offset 16
 2965 0004 00AF     		add	r7, sp, #0
 2966              		.cfi_def_cfa_register 7
 2967 0006 7860     		str	r0, [r7, #4]
2985:Generated_Source\PSoC4/CyLib.c **** #if(CY_PSOC4)
2986:Generated_Source\PSoC4/CyLib.c ****     uniqueId[0u]  =  (uint32)(* (reg8 *) CYREG_SFLASH_DIE_LOT0  );
 2968              		.loc 1 2986 0
 2969 0008 254B     		ldr	r3, .L203
 2970 000a 1B78     		ldrb	r3, [r3]
 2971 000c DBB2     		uxtb	r3, r3
 2972 000e 1A00     		movs	r2, r3
 2973 0010 7B68     		ldr	r3, [r7, #4]
 2974 0012 1A60     		str	r2, [r3]
2987:Generated_Source\PSoC4/CyLib.c ****     uniqueId[0u] |= ((uint32)(* (reg8 *) CYREG_SFLASH_DIE_LOT1  ) <<  8u);
 2975              		.loc 1 2987 0
 2976 0014 234B     		ldr	r3, .L203+4
 2977 0016 1B78     		ldrb	r3, [r3]
ARM GAS  C:\Users\PC\AppData\Local\Temp\ccW101Aa.s 			page 106


 2978 0018 DBB2     		uxtb	r3, r3
 2979 001a 1A02     		lsls	r2, r3, #8
 2980 001c 7B68     		ldr	r3, [r7, #4]
 2981 001e 1B68     		ldr	r3, [r3]
 2982 0020 1A43     		orrs	r2, r3
 2983 0022 7B68     		ldr	r3, [r7, #4]
 2984 0024 1A60     		str	r2, [r3]
2988:Generated_Source\PSoC4/CyLib.c ****     uniqueId[0u] |= ((uint32)(* (reg8 *) CYREG_SFLASH_DIE_LOT2  ) << 16u);
 2985              		.loc 1 2988 0
 2986 0026 204B     		ldr	r3, .L203+8
 2987 0028 1B78     		ldrb	r3, [r3]
 2988 002a DBB2     		uxtb	r3, r3
 2989 002c 1A04     		lsls	r2, r3, #16
 2990 002e 7B68     		ldr	r3, [r7, #4]
 2991 0030 1B68     		ldr	r3, [r3]
 2992 0032 1A43     		orrs	r2, r3
 2993 0034 7B68     		ldr	r3, [r7, #4]
 2994 0036 1A60     		str	r2, [r3]
2989:Generated_Source\PSoC4/CyLib.c ****     uniqueId[0u] |= ((uint32)(* (reg8 *) CYREG_SFLASH_DIE_WAFER ) << 24u);
 2995              		.loc 1 2989 0
 2996 0038 1C4B     		ldr	r3, .L203+12
 2997 003a 1B78     		ldrb	r3, [r3]
 2998 003c DBB2     		uxtb	r3, r3
 2999 003e 1A06     		lsls	r2, r3, #24
 3000 0040 7B68     		ldr	r3, [r7, #4]
 3001 0042 1B68     		ldr	r3, [r3]
 3002 0044 1A43     		orrs	r2, r3
 3003 0046 7B68     		ldr	r3, [r7, #4]
 3004 0048 1A60     		str	r2, [r3]
2990:Generated_Source\PSoC4/CyLib.c **** 
2991:Generated_Source\PSoC4/CyLib.c ****     uniqueId[1u]  =  (uint32)(* (reg8 *) CYREG_SFLASH_DIE_X     );
 3005              		.loc 1 2991 0
 3006 004a 7B68     		ldr	r3, [r7, #4]
 3007 004c 0433     		adds	r3, r3, #4
 3008 004e 184A     		ldr	r2, .L203+16
 3009 0050 1278     		ldrb	r2, [r2]
 3010 0052 D2B2     		uxtb	r2, r2
 3011 0054 1A60     		str	r2, [r3]
2992:Generated_Source\PSoC4/CyLib.c ****     uniqueId[1u] |= ((uint32)(* (reg8 *) CYREG_SFLASH_DIE_Y     ) <<  8u);
 3012              		.loc 1 2992 0
 3013 0056 174B     		ldr	r3, .L203+20
 3014 0058 1B78     		ldrb	r3, [r3]
 3015 005a DBB2     		uxtb	r3, r3
 3016 005c 1902     		lsls	r1, r3, #8
 3017 005e 7B68     		ldr	r3, [r7, #4]
 3018 0060 0433     		adds	r3, r3, #4
 3019 0062 7A68     		ldr	r2, [r7, #4]
 3020 0064 0432     		adds	r2, r2, #4
 3021 0066 1268     		ldr	r2, [r2]
 3022 0068 0A43     		orrs	r2, r1
 3023 006a 1A60     		str	r2, [r3]
2993:Generated_Source\PSoC4/CyLib.c ****     uniqueId[1u] |= ((uint32)(* (reg8 *) CYREG_SFLASH_DIE_SORT  ) << 16u);
 3024              		.loc 1 2993 0
 3025 006c 124B     		ldr	r3, .L203+24
 3026 006e 1B78     		ldrb	r3, [r3]
 3027 0070 DBB2     		uxtb	r3, r3
 3028 0072 1904     		lsls	r1, r3, #16
ARM GAS  C:\Users\PC\AppData\Local\Temp\ccW101Aa.s 			page 107


 3029 0074 7B68     		ldr	r3, [r7, #4]
 3030 0076 0433     		adds	r3, r3, #4
 3031 0078 7A68     		ldr	r2, [r7, #4]
 3032 007a 0432     		adds	r2, r2, #4
 3033 007c 1268     		ldr	r2, [r2]
 3034 007e 0A43     		orrs	r2, r1
 3035 0080 1A60     		str	r2, [r3]
2994:Generated_Source\PSoC4/CyLib.c ****     uniqueId[1u] |= ((uint32)(* (reg8 *) CYREG_SFLASH_DIE_MINOR ) << 24u);
 3036              		.loc 1 2994 0
 3037 0082 0E4B     		ldr	r3, .L203+28
 3038 0084 1B78     		ldrb	r3, [r3]
 3039 0086 DBB2     		uxtb	r3, r3
 3040 0088 1906     		lsls	r1, r3, #24
 3041 008a 7B68     		ldr	r3, [r7, #4]
 3042 008c 0433     		adds	r3, r3, #4
 3043 008e 7A68     		ldr	r2, [r7, #4]
 3044 0090 0432     		adds	r2, r2, #4
 3045 0092 1268     		ldr	r2, [r2]
 3046 0094 0A43     		orrs	r2, r1
 3047 0096 1A60     		str	r2, [r3]
2995:Generated_Source\PSoC4/CyLib.c **** #else
2996:Generated_Source\PSoC4/CyLib.c ****     uniqueId[0u]  =  (uint32) CY_GET_XTND_REG8((void CYFAR *) (CYREG_FLSHID_CUST_TABLES_LOT_LSB   )
2997:Generated_Source\PSoC4/CyLib.c ****     uniqueId[0u] |= ((uint32) CY_GET_XTND_REG8((void CYFAR *) (CYREG_FLSHID_CUST_TABLES_LOT_MSB   )
2998:Generated_Source\PSoC4/CyLib.c ****     uniqueId[0u] |= ((uint32) CY_GET_XTND_REG8((void CYFAR *) (CYREG_MLOGIC_REV_ID                )
2999:Generated_Source\PSoC4/CyLib.c ****     uniqueId[0u] |= ((uint32) CY_GET_XTND_REG8((void CYFAR *) (CYREG_FLSHID_CUST_TABLES_WAFER_NUM )
3000:Generated_Source\PSoC4/CyLib.c **** 
3001:Generated_Source\PSoC4/CyLib.c ****     uniqueId[1u]  =  (uint32) CY_GET_XTND_REG8((void CYFAR *) (CYREG_FLSHID_CUST_TABLES_X_LOC     )
3002:Generated_Source\PSoC4/CyLib.c ****     uniqueId[1u] |= ((uint32) CY_GET_XTND_REG8((void CYFAR *) (CYREG_FLSHID_CUST_TABLES_Y_LOC     )
3003:Generated_Source\PSoC4/CyLib.c ****     uniqueId[1u] |= ((uint32) CY_GET_XTND_REG8((void CYFAR *) (CYREG_FLSHID_CUST_TABLES_WRK_WK    )
3004:Generated_Source\PSoC4/CyLib.c ****     uniqueId[1u] |= ((uint32) CY_GET_XTND_REG8((void CYFAR *) (CYREG_FLSHID_CUST_TABLES_FAB_YR    )
3005:Generated_Source\PSoC4/CyLib.c **** #endif  /* (CY_PSOC4) */
3006:Generated_Source\PSoC4/CyLib.c **** }
 3048              		.loc 1 3006 0
 3049 0098 C046     		nop
 3050 009a BD46     		mov	sp, r7
 3051 009c 02B0     		add	sp, sp, #8
 3052              		@ sp needed
 3053 009e 80BD     		pop	{r7, pc}
 3054              	.L204:
 3055              		.align	2
 3056              	.L203:
 3057 00a0 78F2FF0F 		.word	268431992
 3058 00a4 79F2FF0F 		.word	268431993
 3059 00a8 7AF2FF0F 		.word	268431994
 3060 00ac 7BF2FF0F 		.word	268431995
 3061 00b0 7CF2FF0F 		.word	268431996
 3062 00b4 7DF2FF0F 		.word	268431997
 3063 00b8 7EF2FF0F 		.word	268431998
 3064 00bc 7FF2FF0F 		.word	268431999
 3065              		.cfi_endproc
 3066              	.LFE52:
 3067              		.size	CyGetUniqueId, .-CyGetUniqueId
 3068              		.section	.text.CySysSetRamAccessArbPriority,"ax",%progbits
 3069              		.align	2
 3070              		.global	CySysSetRamAccessArbPriority
 3071              		.code	16
 3072              		.thumb_func
ARM GAS  C:\Users\PC\AppData\Local\Temp\ccW101Aa.s 			page 108


 3073              		.type	CySysSetRamAccessArbPriority, %function
 3074              	CySysSetRamAccessArbPriority:
 3075              	.LFB53:
3007:Generated_Source\PSoC4/CyLib.c **** 
3008:Generated_Source\PSoC4/CyLib.c **** 
3009:Generated_Source\PSoC4/CyLib.c **** #if (CY_IP_DMAC_PRESENT)
3010:Generated_Source\PSoC4/CyLib.c ****     /*******************************************************************************
3011:Generated_Source\PSoC4/CyLib.c ****     * Function Name: CySysSetRamAccessArbPriority
3012:Generated_Source\PSoC4/CyLib.c ****     ****************************************************************************//**
3013:Generated_Source\PSoC4/CyLib.c ****     *
3014:Generated_Source\PSoC4/CyLib.c ****     *  Sets RAM access priority between CPU and DMA. The RAM_CTL register is
3015:Generated_Source\PSoC4/CyLib.c ****     *  configured to set the priority. Please refer to the device TRM for more
3016:Generated_Source\PSoC4/CyLib.c ****     *  details.
3017:Generated_Source\PSoC4/CyLib.c ****     *
3018:Generated_Source\PSoC4/CyLib.c ****     *  This API is applicable for PSoC 4200M and PSoC 4200L devices only.
3019:Generated_Source\PSoC4/CyLib.c ****     *
3020:Generated_Source\PSoC4/CyLib.c ****     *  \param source:
3021:Generated_Source\PSoC4/CyLib.c ****     *   CY_SYS_ARB_PRIORITY_CPU              CPU has priority (Default)
3022:Generated_Source\PSoC4/CyLib.c ****     *   CY_SYS_ARB_PRIORITY_DMA              DMA has priority
3023:Generated_Source\PSoC4/CyLib.c ****     *   CY_SYS_ARB_PRIORITY_ROUND            Round robin
3024:Generated_Source\PSoC4/CyLib.c ****     *   CY_SYS_ARB_PRIORITY_ROUND_STICKY     Round robin sticky
3025:Generated_Source\PSoC4/CyLib.c ****     *
3026:Generated_Source\PSoC4/CyLib.c ****     *******************************************************************************/
3027:Generated_Source\PSoC4/CyLib.c ****     void CySysSetRamAccessArbPriority(uint32 source)
3028:Generated_Source\PSoC4/CyLib.c ****     {
 3076              		.loc 1 3028 0
 3077              		.cfi_startproc
 3078              		@ args = 0, pretend = 0, frame = 16
 3079              		@ frame_needed = 1, uses_anonymous_args = 0
 3080 0000 80B5     		push	{r7, lr}
 3081              		.cfi_def_cfa_offset 8
 3082              		.cfi_offset 7, -8
 3083              		.cfi_offset 14, -4
 3084 0002 84B0     		sub	sp, sp, #16
 3085              		.cfi_def_cfa_offset 24
 3086 0004 00AF     		add	r7, sp, #0
 3087              		.cfi_def_cfa_register 7
 3088 0006 7860     		str	r0, [r7, #4]
3029:Generated_Source\PSoC4/CyLib.c ****         uint32 regTmp;
3030:Generated_Source\PSoC4/CyLib.c **** 
3031:Generated_Source\PSoC4/CyLib.c ****         regTmp  = CY_SYS_CPUSS_RAM_CTL_REG & ~CY_SYS_CPUSS_RAM_CTL_ARB_MASK;
 3089              		.loc 1 3031 0
 3090 0008 094B     		ldr	r3, .L206
 3091 000a 1B68     		ldr	r3, [r3]
 3092 000c 094A     		ldr	r2, .L206+4
 3093 000e 1340     		ands	r3, r2
 3094 0010 FB60     		str	r3, [r7, #12]
3032:Generated_Source\PSoC4/CyLib.c ****         regTmp |= ((uint32) (source << CY_SYS_CPUSS_RAM_CTL_ARB_SHIFT) & CY_SYS_CPUSS_RAM_CTL_ARB_M
 3095              		.loc 1 3032 0
 3096 0012 7B68     		ldr	r3, [r7, #4]
 3097 0014 5A04     		lsls	r2, r3, #17
 3098 0016 C023     		movs	r3, #192
 3099 0018 DB02     		lsls	r3, r3, #11
 3100 001a 1340     		ands	r3, r2
 3101 001c FA68     		ldr	r2, [r7, #12]
 3102 001e 1343     		orrs	r3, r2
 3103 0020 FB60     		str	r3, [r7, #12]
ARM GAS  C:\Users\PC\AppData\Local\Temp\ccW101Aa.s 			page 109


3033:Generated_Source\PSoC4/CyLib.c ****         CY_SYS_CPUSS_RAM_CTL_REG = regTmp;
 3104              		.loc 1 3033 0
 3105 0022 034B     		ldr	r3, .L206
 3106 0024 FA68     		ldr	r2, [r7, #12]
 3107 0026 1A60     		str	r2, [r3]
3034:Generated_Source\PSoC4/CyLib.c ****     }
 3108              		.loc 1 3034 0
 3109 0028 C046     		nop
 3110 002a BD46     		mov	sp, r7
 3111 002c 04B0     		add	sp, sp, #16
 3112              		@ sp needed
 3113 002e 80BD     		pop	{r7, pc}
 3114              	.L207:
 3115              		.align	2
 3116              	.L206:
 3117 0030 38001040 		.word	1074790456
 3118 0034 FFFFF9FF 		.word	-393217
 3119              		.cfi_endproc
 3120              	.LFE53:
 3121              		.size	CySysSetRamAccessArbPriority, .-CySysSetRamAccessArbPriority
 3122              		.section	.text.CySysSetFlashAccessArbPriority,"ax",%progbits
 3123              		.align	2
 3124              		.global	CySysSetFlashAccessArbPriority
 3125              		.code	16
 3126              		.thumb_func
 3127              		.type	CySysSetFlashAccessArbPriority, %function
 3128              	CySysSetFlashAccessArbPriority:
 3129              	.LFB54:
3035:Generated_Source\PSoC4/CyLib.c **** 
3036:Generated_Source\PSoC4/CyLib.c **** 
3037:Generated_Source\PSoC4/CyLib.c ****     /*******************************************************************************
3038:Generated_Source\PSoC4/CyLib.c ****     * Function Name: CySysSetFlashAccessArbPriority
3039:Generated_Source\PSoC4/CyLib.c ****     ****************************************************************************//**
3040:Generated_Source\PSoC4/CyLib.c ****     *
3041:Generated_Source\PSoC4/CyLib.c ****     *  Sets flash access priority between CPU and DMA. The FLASH_CTL register is
3042:Generated_Source\PSoC4/CyLib.c ****     *  configured to set the priority. Please refer to the device TRM for more
3043:Generated_Source\PSoC4/CyLib.c ****     *  details.
3044:Generated_Source\PSoC4/CyLib.c ****     *
3045:Generated_Source\PSoC4/CyLib.c ****     *  This API is applicable for PSoC 4200M and PSoC 4200L devices only.
3046:Generated_Source\PSoC4/CyLib.c ****     *
3047:Generated_Source\PSoC4/CyLib.c ****     *  \param source:
3048:Generated_Source\PSoC4/CyLib.c ****     *   CY_SYS_ARB_PRIORITY_CPU              CPU has priority (Default)
3049:Generated_Source\PSoC4/CyLib.c ****     *   CY_SYS_ARB_PRIORITY_DMA              DMA has priority
3050:Generated_Source\PSoC4/CyLib.c ****     *   CY_SYS_ARB_PRIORITY_ROUND            Round robin
3051:Generated_Source\PSoC4/CyLib.c ****     *   CY_SYS_ARB_PRIORITY_ROUND_STICKY     Round robin sticky
3052:Generated_Source\PSoC4/CyLib.c ****     *
3053:Generated_Source\PSoC4/CyLib.c ****     *******************************************************************************/
3054:Generated_Source\PSoC4/CyLib.c ****     void CySysSetFlashAccessArbPriority(uint32 source)
3055:Generated_Source\PSoC4/CyLib.c ****     {
 3130              		.loc 1 3055 0
 3131              		.cfi_startproc
 3132              		@ args = 0, pretend = 0, frame = 16
 3133              		@ frame_needed = 1, uses_anonymous_args = 0
 3134 0000 80B5     		push	{r7, lr}
 3135              		.cfi_def_cfa_offset 8
 3136              		.cfi_offset 7, -8
 3137              		.cfi_offset 14, -4
ARM GAS  C:\Users\PC\AppData\Local\Temp\ccW101Aa.s 			page 110


 3138 0002 84B0     		sub	sp, sp, #16
 3139              		.cfi_def_cfa_offset 24
 3140 0004 00AF     		add	r7, sp, #0
 3141              		.cfi_def_cfa_register 7
 3142 0006 7860     		str	r0, [r7, #4]
3056:Generated_Source\PSoC4/CyLib.c ****         uint32 regTmp;
3057:Generated_Source\PSoC4/CyLib.c **** 
3058:Generated_Source\PSoC4/CyLib.c ****         regTmp  = CY_SYS_CPUSS_FLASH_CTL_REG & ~CY_SYS_CPUSS_FLASH_CTL_ARB_MASK;
 3143              		.loc 1 3058 0
 3144 0008 094B     		ldr	r3, .L209
 3145 000a 1B68     		ldr	r3, [r3]
 3146 000c 094A     		ldr	r2, .L209+4
 3147 000e 1340     		ands	r3, r2
 3148 0010 FB60     		str	r3, [r7, #12]
3059:Generated_Source\PSoC4/CyLib.c ****         regTmp |= ((uint32) (source << CY_SYS_CPUSS_FLASH_CTL_ARB_SHIFT) & CY_SYS_CPUSS_FLASH_CTL_A
 3149              		.loc 1 3059 0
 3150 0012 7B68     		ldr	r3, [r7, #4]
 3151 0014 5A04     		lsls	r2, r3, #17
 3152 0016 C023     		movs	r3, #192
 3153 0018 DB02     		lsls	r3, r3, #11
 3154 001a 1340     		ands	r3, r2
 3155 001c FA68     		ldr	r2, [r7, #12]
 3156 001e 1343     		orrs	r3, r2
 3157 0020 FB60     		str	r3, [r7, #12]
3060:Generated_Source\PSoC4/CyLib.c ****         CY_SYS_CPUSS_FLASH_CTL_REG = regTmp;
 3158              		.loc 1 3060 0
 3159 0022 034B     		ldr	r3, .L209
 3160 0024 FA68     		ldr	r2, [r7, #12]
 3161 0026 1A60     		str	r2, [r3]
3061:Generated_Source\PSoC4/CyLib.c ****     }
 3162              		.loc 1 3061 0
 3163 0028 C046     		nop
 3164 002a BD46     		mov	sp, r7
 3165 002c 04B0     		add	sp, sp, #16
 3166              		@ sp needed
 3167 002e 80BD     		pop	{r7, pc}
 3168              	.L210:
 3169              		.align	2
 3170              	.L209:
 3171 0030 30001040 		.word	1074790448
 3172 0034 FFFFF9FF 		.word	-393217
 3173              		.cfi_endproc
 3174              	.LFE54:
 3175              		.size	CySysSetFlashAccessArbPriority, .-CySysSetFlashAccessArbPriority
 3176              		.section	.text.CySysSetDmacAccessArbPriority,"ax",%progbits
 3177              		.align	2
 3178              		.global	CySysSetDmacAccessArbPriority
 3179              		.code	16
 3180              		.thumb_func
 3181              		.type	CySysSetDmacAccessArbPriority, %function
 3182              	CySysSetDmacAccessArbPriority:
 3183              	.LFB55:
3062:Generated_Source\PSoC4/CyLib.c **** 
3063:Generated_Source\PSoC4/CyLib.c **** 
3064:Generated_Source\PSoC4/CyLib.c ****     /*******************************************************************************
3065:Generated_Source\PSoC4/CyLib.c ****     * Function Name: CySysSetDmacAccessArbPriority
3066:Generated_Source\PSoC4/CyLib.c ****     ****************************************************************************//**
ARM GAS  C:\Users\PC\AppData\Local\Temp\ccW101Aa.s 			page 111


3067:Generated_Source\PSoC4/CyLib.c ****     *
3068:Generated_Source\PSoC4/CyLib.c ****     *  Sets DMAC slave interface access priority between CPU and DMA. The DMAC_CTL
3069:Generated_Source\PSoC4/CyLib.c ****     *  register is configured to set the priority. Please refer to the device TRM
3070:Generated_Source\PSoC4/CyLib.c ****     *  for more details.
3071:Generated_Source\PSoC4/CyLib.c ****     *
3072:Generated_Source\PSoC4/CyLib.c ****     *  This API is applicable for PSoC 4200M and PSoC 4200L devices only.
3073:Generated_Source\PSoC4/CyLib.c ****     *
3074:Generated_Source\PSoC4/CyLib.c ****     *  \param source:
3075:Generated_Source\PSoC4/CyLib.c ****     *   CY_SYS_ARB_PRIORITY_CPU              CPU has priority (Default)
3076:Generated_Source\PSoC4/CyLib.c ****     *   CY_SYS_ARB_PRIORITY_DMA              DMA has priority
3077:Generated_Source\PSoC4/CyLib.c ****     *   CY_SYS_ARB_PRIORITY_ROUND            Round robin
3078:Generated_Source\PSoC4/CyLib.c ****     *   CY_SYS_ARB_PRIORITY_ROUND_STICKY     Round robin sticky
3079:Generated_Source\PSoC4/CyLib.c ****     *
3080:Generated_Source\PSoC4/CyLib.c ****     *******************************************************************************/
3081:Generated_Source\PSoC4/CyLib.c ****     void CySysSetDmacAccessArbPriority(uint32 source)
3082:Generated_Source\PSoC4/CyLib.c ****     {
 3184              		.loc 1 3082 0
 3185              		.cfi_startproc
 3186              		@ args = 0, pretend = 0, frame = 16
 3187              		@ frame_needed = 1, uses_anonymous_args = 0
 3188 0000 80B5     		push	{r7, lr}
 3189              		.cfi_def_cfa_offset 8
 3190              		.cfi_offset 7, -8
 3191              		.cfi_offset 14, -4
 3192 0002 84B0     		sub	sp, sp, #16
 3193              		.cfi_def_cfa_offset 24
 3194 0004 00AF     		add	r7, sp, #0
 3195              		.cfi_def_cfa_register 7
 3196 0006 7860     		str	r0, [r7, #4]
3083:Generated_Source\PSoC4/CyLib.c ****         uint32 regTmp;
3084:Generated_Source\PSoC4/CyLib.c **** 
3085:Generated_Source\PSoC4/CyLib.c ****         regTmp  = CY_SYS_CPUSS_DMAC_CTL_REG & ~CY_SYS_CPUSS_DMAC_CTL_ARB_MASK;
 3197              		.loc 1 3085 0
 3198 0008 094B     		ldr	r3, .L212
 3199 000a 1B68     		ldr	r3, [r3]
 3200 000c 094A     		ldr	r2, .L212+4
 3201 000e 1340     		ands	r3, r2
 3202 0010 FB60     		str	r3, [r7, #12]
3086:Generated_Source\PSoC4/CyLib.c ****         regTmp |= ((uint32) (source << CY_SYS_CPUSS_DMAC_CTL_ARB_SHIFT) & CY_SYS_CPUSS_DMAC_CTL_ARB
 3203              		.loc 1 3086 0
 3204 0012 7B68     		ldr	r3, [r7, #4]
 3205 0014 5A04     		lsls	r2, r3, #17
 3206 0016 C023     		movs	r3, #192
 3207 0018 DB02     		lsls	r3, r3, #11
 3208 001a 1340     		ands	r3, r2
 3209 001c FA68     		ldr	r2, [r7, #12]
 3210 001e 1343     		orrs	r3, r2
 3211 0020 FB60     		str	r3, [r7, #12]
3087:Generated_Source\PSoC4/CyLib.c ****         CY_SYS_CPUSS_DMAC_CTL_REG = regTmp;
 3212              		.loc 1 3087 0
 3213 0022 034B     		ldr	r3, .L212
 3214 0024 FA68     		ldr	r2, [r7, #12]
 3215 0026 1A60     		str	r2, [r3]
3088:Generated_Source\PSoC4/CyLib.c ****     }
 3216              		.loc 1 3088 0
 3217 0028 C046     		nop
 3218 002a BD46     		mov	sp, r7
ARM GAS  C:\Users\PC\AppData\Local\Temp\ccW101Aa.s 			page 112


 3219 002c 04B0     		add	sp, sp, #16
 3220              		@ sp needed
 3221 002e 80BD     		pop	{r7, pc}
 3222              	.L213:
 3223              		.align	2
 3224              	.L212:
 3225 0030 3C001040 		.word	1074790460
 3226 0034 FFFFF9FF 		.word	-393217
 3227              		.cfi_endproc
 3228              	.LFE55:
 3229              		.size	CySysSetDmacAccessArbPriority, .-CySysSetDmacAccessArbPriority
 3230              		.section	.text.CySysSetPeripheralAccessArbPriority,"ax",%progbits
 3231              		.align	2
 3232              		.global	CySysSetPeripheralAccessArbPriority
 3233              		.code	16
 3234              		.thumb_func
 3235              		.type	CySysSetPeripheralAccessArbPriority, %function
 3236              	CySysSetPeripheralAccessArbPriority:
 3237              	.LFB56:
3089:Generated_Source\PSoC4/CyLib.c **** 
3090:Generated_Source\PSoC4/CyLib.c **** 
3091:Generated_Source\PSoC4/CyLib.c ****     /*******************************************************************************
3092:Generated_Source\PSoC4/CyLib.c ****     * Function Name: CySysSetPeripheralAccessArbPriority
3093:Generated_Source\PSoC4/CyLib.c ****     ****************************************************************************//**
3094:Generated_Source\PSoC4/CyLib.c ****     *
3095:Generated_Source\PSoC4/CyLib.c ****     *  Sets slave peripheral interface access priority between CPU and DMA.
3096:Generated_Source\PSoC4/CyLib.c ****     *  The SL_CTL register is configured to set the priority. Please refer to the
3097:Generated_Source\PSoC4/CyLib.c ****     *  device TRM for more details.
3098:Generated_Source\PSoC4/CyLib.c ****     *
3099:Generated_Source\PSoC4/CyLib.c ****     *  This API is applicable for PSoC 4200M and PSoC 4200L devices only.
3100:Generated_Source\PSoC4/CyLib.c ****     *
3101:Generated_Source\PSoC4/CyLib.c ****     *  \param  interfaceNumber: the slave interface number. Please refer to the
3102:Generated_Source\PSoC4/CyLib.c ****     *  device TRM for more details.
3103:Generated_Source\PSoC4/CyLib.c ****     *  \param source:
3104:Generated_Source\PSoC4/CyLib.c ****     *   CY_SYS_ARB_PRIORITY_CPU              CPU has priority (Default)
3105:Generated_Source\PSoC4/CyLib.c ****     *   CY_SYS_ARB_PRIORITY_DMA              DMA has priority
3106:Generated_Source\PSoC4/CyLib.c ****     *   CY_SYS_ARB_PRIORITY_ROUND            Round robin
3107:Generated_Source\PSoC4/CyLib.c ****     *   CY_SYS_ARB_PRIORITY_ROUND_STICKY     Round robin sticky
3108:Generated_Source\PSoC4/CyLib.c ****     *
3109:Generated_Source\PSoC4/CyLib.c ****     *******************************************************************************/
3110:Generated_Source\PSoC4/CyLib.c ****     void CySysSetPeripheralAccessArbPriority(uint32 interfaceNumber, uint32 source)
3111:Generated_Source\PSoC4/CyLib.c ****     {
 3238              		.loc 1 3111 0
 3239              		.cfi_startproc
 3240              		@ args = 0, pretend = 0, frame = 16
 3241              		@ frame_needed = 1, uses_anonymous_args = 0
 3242 0000 80B5     		push	{r7, lr}
 3243              		.cfi_def_cfa_offset 8
 3244              		.cfi_offset 7, -8
 3245              		.cfi_offset 14, -4
 3246 0002 84B0     		sub	sp, sp, #16
 3247              		.cfi_def_cfa_offset 24
 3248 0004 00AF     		add	r7, sp, #0
 3249              		.cfi_def_cfa_register 7
 3250 0006 7860     		str	r0, [r7, #4]
 3251 0008 3960     		str	r1, [r7]
3112:Generated_Source\PSoC4/CyLib.c ****         uint32 regTmp;
ARM GAS  C:\Users\PC\AppData\Local\Temp\ccW101Aa.s 			page 113


3113:Generated_Source\PSoC4/CyLib.c **** 
3114:Generated_Source\PSoC4/CyLib.c ****         if (interfaceNumber == 0u)
 3252              		.loc 1 3114 0
 3253 000a 7B68     		ldr	r3, [r7, #4]
 3254 000c 002B     		cmp	r3, #0
 3255 000e 10D1     		bne	.L215
3115:Generated_Source\PSoC4/CyLib.c ****         {
3116:Generated_Source\PSoC4/CyLib.c ****             regTmp  = CY_SYS_CPUSS_SL_CTL0_REG & ~CY_SYS_CPUSS_SL_CTL_ARB_MASK;
 3256              		.loc 1 3116 0
 3257 0010 1F4B     		ldr	r3, .L220
 3258 0012 1B68     		ldr	r3, [r3]
 3259 0014 1F4A     		ldr	r2, .L220+4
 3260 0016 1340     		ands	r3, r2
 3261 0018 FB60     		str	r3, [r7, #12]
3117:Generated_Source\PSoC4/CyLib.c ****             regTmp |= ((uint32) (source << CY_SYS_CPUSS_SL_CTL_ARB_SHIFT) & CY_SYS_CPUSS_SL_CTL_ARB
 3262              		.loc 1 3117 0
 3263 001a 3B68     		ldr	r3, [r7]
 3264 001c 5A04     		lsls	r2, r3, #17
 3265 001e C023     		movs	r3, #192
 3266 0020 DB02     		lsls	r3, r3, #11
 3267 0022 1340     		ands	r3, r2
 3268 0024 FA68     		ldr	r2, [r7, #12]
 3269 0026 1343     		orrs	r3, r2
 3270 0028 FB60     		str	r3, [r7, #12]
3118:Generated_Source\PSoC4/CyLib.c ****             CY_SYS_CPUSS_SL_CTL0_REG = regTmp;
 3271              		.loc 1 3118 0
 3272 002a 194B     		ldr	r3, .L220
 3273 002c FA68     		ldr	r2, [r7, #12]
 3274 002e 1A60     		str	r2, [r3]
3119:Generated_Source\PSoC4/CyLib.c ****         } else
3120:Generated_Source\PSoC4/CyLib.c ****     #if (CY_IP_SL_NR >= 2)
3121:Generated_Source\PSoC4/CyLib.c ****         if (interfaceNumber == 1u)
3122:Generated_Source\PSoC4/CyLib.c ****         {
3123:Generated_Source\PSoC4/CyLib.c ****             regTmp  = CY_SYS_CPUSS_SL_CTL1_REG & ~CY_SYS_CPUSS_SL_CTL_ARB_MASK;
3124:Generated_Source\PSoC4/CyLib.c ****             regTmp |= ((uint32) (source << CY_SYS_CPUSS_SL_CTL_ARB_SHIFT) & CY_SYS_CPUSS_SL_CTL_ARB
3125:Generated_Source\PSoC4/CyLib.c ****             CY_SYS_CPUSS_SL_CTL1_REG = regTmp;
3126:Generated_Source\PSoC4/CyLib.c ****         } else
3127:Generated_Source\PSoC4/CyLib.c ****     #endif /* (CY_IP_SL_NR >= 1) */
3128:Generated_Source\PSoC4/CyLib.c ****     #if (CY_IP_SL_NR >= 3)
3129:Generated_Source\PSoC4/CyLib.c ****         if (interfaceNumber == 2u)
3130:Generated_Source\PSoC4/CyLib.c ****         {
3131:Generated_Source\PSoC4/CyLib.c ****             regTmp  = CY_SYS_CPUSS_SL_CTL2_REG & ~CY_SYS_CPUSS_SL_CTL_ARB_MASK;
3132:Generated_Source\PSoC4/CyLib.c ****             regTmp |= ((uint32) (source << CY_SYS_CPUSS_SL_CTL_ARB_SHIFT) & CY_SYS_CPUSS_SL_CTL_ARB
3133:Generated_Source\PSoC4/CyLib.c ****             CY_SYS_CPUSS_SL_CTL2_REG = regTmp;
3134:Generated_Source\PSoC4/CyLib.c ****         } else
3135:Generated_Source\PSoC4/CyLib.c ****     #endif /* (CY_IP_SL_NR >= 1) */
3136:Generated_Source\PSoC4/CyLib.c ****         {
3137:Generated_Source\PSoC4/CyLib.c ****             /* Halt CPU in debug mode if interface is invalid */
3138:Generated_Source\PSoC4/CyLib.c ****             CYASSERT(0u != 0u);
3139:Generated_Source\PSoC4/CyLib.c ****         }
3140:Generated_Source\PSoC4/CyLib.c ****     }
 3275              		.loc 1 3140 0
 3276 0030 2AE0     		b	.L219
 3277              	.L215:
3121:Generated_Source\PSoC4/CyLib.c ****         {
 3278              		.loc 1 3121 0
 3279 0032 7B68     		ldr	r3, [r7, #4]
ARM GAS  C:\Users\PC\AppData\Local\Temp\ccW101Aa.s 			page 114


 3280 0034 012B     		cmp	r3, #1
 3281 0036 10D1     		bne	.L217
3123:Generated_Source\PSoC4/CyLib.c ****             regTmp |= ((uint32) (source << CY_SYS_CPUSS_SL_CTL_ARB_SHIFT) & CY_SYS_CPUSS_SL_CTL_ARB
 3282              		.loc 1 3123 0
 3283 0038 174B     		ldr	r3, .L220+8
 3284 003a 1B68     		ldr	r3, [r3]
 3285 003c 154A     		ldr	r2, .L220+4
 3286 003e 1340     		ands	r3, r2
 3287 0040 FB60     		str	r3, [r7, #12]
3124:Generated_Source\PSoC4/CyLib.c ****             CY_SYS_CPUSS_SL_CTL1_REG = regTmp;
 3288              		.loc 1 3124 0
 3289 0042 3B68     		ldr	r3, [r7]
 3290 0044 5A04     		lsls	r2, r3, #17
 3291 0046 C023     		movs	r3, #192
 3292 0048 DB02     		lsls	r3, r3, #11
 3293 004a 1340     		ands	r3, r2
 3294 004c FA68     		ldr	r2, [r7, #12]
 3295 004e 1343     		orrs	r3, r2
 3296 0050 FB60     		str	r3, [r7, #12]
3125:Generated_Source\PSoC4/CyLib.c ****         } else
 3297              		.loc 1 3125 0
 3298 0052 114B     		ldr	r3, .L220+8
 3299 0054 FA68     		ldr	r2, [r7, #12]
 3300 0056 1A60     		str	r2, [r3]
 3301              		.loc 1 3140 0
 3302 0058 16E0     		b	.L219
 3303              	.L217:
3129:Generated_Source\PSoC4/CyLib.c ****         {
 3304              		.loc 1 3129 0
 3305 005a 7B68     		ldr	r3, [r7, #4]
 3306 005c 022B     		cmp	r3, #2
 3307 005e 10D1     		bne	.L218
3131:Generated_Source\PSoC4/CyLib.c ****             regTmp |= ((uint32) (source << CY_SYS_CPUSS_SL_CTL_ARB_SHIFT) & CY_SYS_CPUSS_SL_CTL_ARB
 3308              		.loc 1 3131 0
 3309 0060 0E4B     		ldr	r3, .L220+12
 3310 0062 1B68     		ldr	r3, [r3]
 3311 0064 0B4A     		ldr	r2, .L220+4
 3312 0066 1340     		ands	r3, r2
 3313 0068 FB60     		str	r3, [r7, #12]
3132:Generated_Source\PSoC4/CyLib.c ****             CY_SYS_CPUSS_SL_CTL2_REG = regTmp;
 3314              		.loc 1 3132 0
 3315 006a 3B68     		ldr	r3, [r7]
 3316 006c 5A04     		lsls	r2, r3, #17
 3317 006e C023     		movs	r3, #192
 3318 0070 DB02     		lsls	r3, r3, #11
 3319 0072 1340     		ands	r3, r2
 3320 0074 FA68     		ldr	r2, [r7, #12]
 3321 0076 1343     		orrs	r3, r2
 3322 0078 FB60     		str	r3, [r7, #12]
3133:Generated_Source\PSoC4/CyLib.c ****         } else
 3323              		.loc 1 3133 0
 3324 007a 084B     		ldr	r3, .L220+12
 3325 007c FA68     		ldr	r2, [r7, #12]
 3326 007e 1A60     		str	r2, [r3]
 3327              		.loc 1 3140 0
 3328 0080 02E0     		b	.L219
 3329              	.L218:
ARM GAS  C:\Users\PC\AppData\Local\Temp\ccW101Aa.s 			page 115


3138:Generated_Source\PSoC4/CyLib.c ****         }
 3330              		.loc 1 3138 0 discriminator 1
 3331 0082 0020     		movs	r0, #0
 3332 0084 FFF7FEFF 		bl	CyHalt
 3333              	.L219:
 3334              		.loc 1 3140 0
 3335 0088 C046     		nop
 3336 008a BD46     		mov	sp, r7
 3337 008c 04B0     		add	sp, sp, #16
 3338              		@ sp needed
 3339 008e 80BD     		pop	{r7, pc}
 3340              	.L221:
 3341              		.align	2
 3342              	.L220:
 3343 0090 00011040 		.word	1074790656
 3344 0094 FFFFF9FF 		.word	-393217
 3345 0098 04011040 		.word	1074790660
 3346 009c 08011040 		.word	1074790664
 3347              		.cfi_endproc
 3348              	.LFE56:
 3349              		.size	CySysSetPeripheralAccessArbPriority, .-CySysSetPeripheralAccessArbPriority
 3350              		.text
 3351              	.Letext0:
 3352              		.file 2 "Generated_Source\\PSoC4\\cytypes.h"
 3353              		.file 3 "Generated_Source\\PSoC4\\CyLib.h"
 3354              		.section	.debug_info,"",%progbits
 3355              	.Ldebug_info0:
 3356 0000 C00A0000 		.4byte	0xac0
 3357 0004 0400     		.2byte	0x4
 3358 0006 00000000 		.4byte	.Ldebug_abbrev0
 3359 000a 04       		.byte	0x4
 3360 000b 01       		.uleb128 0x1
 3361 000c 58030000 		.4byte	.LASF119
 3362 0010 0C       		.byte	0xc
 3363 0011 3E070000 		.4byte	.LASF120
 3364 0015 61020000 		.4byte	.LASF121
 3365 0019 00000000 		.4byte	.Ldebug_ranges0+0
 3366 001d 00000000 		.4byte	0
 3367 0021 00000000 		.4byte	.Ldebug_line0
 3368 0025 02       		.uleb128 0x2
 3369 0026 01       		.byte	0x1
 3370 0027 06       		.byte	0x6
 3371 0028 0E010000 		.4byte	.LASF0
 3372 002c 02       		.uleb128 0x2
 3373 002d 01       		.byte	0x1
 3374 002e 08       		.byte	0x8
 3375 002f 7E050000 		.4byte	.LASF1
 3376 0033 02       		.uleb128 0x2
 3377 0034 02       		.byte	0x2
 3378 0035 05       		.byte	0x5
 3379 0036 8C050000 		.4byte	.LASF2
 3380 003a 02       		.uleb128 0x2
 3381 003b 02       		.byte	0x2
 3382 003c 07       		.byte	0x7
 3383 003d F2020000 		.4byte	.LASF3
 3384 0041 02       		.uleb128 0x2
 3385 0042 04       		.byte	0x4
ARM GAS  C:\Users\PC\AppData\Local\Temp\ccW101Aa.s 			page 116


 3386 0043 05       		.byte	0x5
 3387 0044 4D010000 		.4byte	.LASF4
 3388 0048 02       		.uleb128 0x2
 3389 0049 04       		.byte	0x4
 3390 004a 07       		.byte	0x7
 3391 004b 91020000 		.4byte	.LASF5
 3392 004f 02       		.uleb128 0x2
 3393 0050 08       		.byte	0x8
 3394 0051 05       		.byte	0x5
 3395 0052 00010000 		.4byte	.LASF6
 3396 0056 02       		.uleb128 0x2
 3397 0057 08       		.byte	0x8
 3398 0058 07       		.byte	0x7
 3399 0059 84000000 		.4byte	.LASF7
 3400 005d 03       		.uleb128 0x3
 3401 005e 04       		.byte	0x4
 3402 005f 05       		.byte	0x5
 3403 0060 696E7400 		.ascii	"int\000"
 3404 0064 02       		.uleb128 0x2
 3405 0065 04       		.byte	0x4
 3406 0066 07       		.byte	0x7
 3407 0067 54020000 		.4byte	.LASF8
 3408 006b 04       		.uleb128 0x4
 3409 006c 78010000 		.4byte	.LASF9
 3410 0070 02       		.byte	0x2
 3411 0071 B901     		.2byte	0x1b9
 3412 0073 2C000000 		.4byte	0x2c
 3413 0077 04       		.uleb128 0x4
 3414 0078 17000000 		.4byte	.LASF10
 3415 007c 02       		.byte	0x2
 3416 007d BA01     		.2byte	0x1ba
 3417 007f 3A000000 		.4byte	0x3a
 3418 0083 04       		.uleb128 0x4
 3419 0084 B8010000 		.4byte	.LASF11
 3420 0088 02       		.byte	0x2
 3421 0089 BB01     		.2byte	0x1bb
 3422 008b 48000000 		.4byte	0x48
 3423 008f 02       		.uleb128 0x2
 3424 0090 04       		.byte	0x4
 3425 0091 04       		.byte	0x4
 3426 0092 08050000 		.4byte	.LASF12
 3427 0096 02       		.uleb128 0x2
 3428 0097 08       		.byte	0x8
 3429 0098 04       		.byte	0x4
 3430 0099 94010000 		.4byte	.LASF13
 3431 009d 02       		.uleb128 0x2
 3432 009e 01       		.byte	0x1
 3433 009f 08       		.byte	0x8
 3434 00a0 E0050000 		.4byte	.LASF14
 3435 00a4 04       		.uleb128 0x4
 3436 00a5 13070000 		.4byte	.LASF15
 3437 00a9 02       		.byte	0x2
 3438 00aa 5B02     		.2byte	0x25b
 3439 00ac 48000000 		.4byte	0x48
 3440 00b0 04       		.uleb128 0x4
 3441 00b1 4B050000 		.4byte	.LASF16
 3442 00b5 02       		.byte	0x2
ARM GAS  C:\Users\PC\AppData\Local\Temp\ccW101Aa.s 			page 117


 3443 00b6 6302     		.2byte	0x263
 3444 00b8 BC000000 		.4byte	0xbc
 3445 00bc 05       		.uleb128 0x5
 3446 00bd 6B000000 		.4byte	0x6b
 3447 00c1 04       		.uleb128 0x4
 3448 00c2 2C040000 		.4byte	.LASF17
 3449 00c6 02       		.byte	0x2
 3450 00c7 6502     		.2byte	0x265
 3451 00c9 CD000000 		.4byte	0xcd
 3452 00cd 05       		.uleb128 0x5
 3453 00ce 83000000 		.4byte	0x83
 3454 00d2 04       		.uleb128 0x4
 3455 00d3 E5050000 		.4byte	.LASF18
 3456 00d7 02       		.byte	0x2
 3457 00d8 7502     		.2byte	0x275
 3458 00da DE000000 		.4byte	0xde
 3459 00de 06       		.uleb128 0x6
 3460 00df 04       		.byte	0x4
 3461 00e0 E4000000 		.4byte	0xe4
 3462 00e4 07       		.uleb128 0x7
 3463 00e5 02       		.uleb128 0x2
 3464 00e6 08       		.byte	0x8
 3465 00e7 04       		.byte	0x4
 3466 00e8 94040000 		.4byte	.LASF19
 3467 00ec 02       		.uleb128 0x2
 3468 00ed 04       		.byte	0x4
 3469 00ee 07       		.byte	0x7
 3470 00ef 55040000 		.4byte	.LASF20
 3471 00f3 08       		.uleb128 0x8
 3472 00f4 1D050000 		.4byte	.LASF21
 3473 00f8 03       		.byte	0x3
 3474 00f9 F5       		.byte	0xf5
 3475 00fa DE000000 		.4byte	0xde
 3476 00fe 09       		.uleb128 0x9
 3477 00ff 1C070000 		.4byte	.LASF22
 3478 0103 01       		.byte	0x1
 3479 0104 6B       		.byte	0x6b
 3480 0105 00000000 		.4byte	.LFB2
 3481 0109 1C000000 		.4byte	.LFE2-.LFB2
 3482 010d 01       		.uleb128 0x1
 3483 010e 9C       		.byte	0x9c
 3484 010f 09       		.uleb128 0x9
 3485 0110 BE020000 		.4byte	.LASF23
 3486 0114 01       		.byte	0x1
 3487 0115 8B       		.byte	0x8b
 3488 0116 00000000 		.4byte	.LFB3
 3489 011a 1C000000 		.4byte	.LFE3-.LFB3
 3490 011e 01       		.uleb128 0x1
 3491 011f 9C       		.byte	0x9c
 3492 0120 0A       		.uleb128 0xa
 3493 0121 27000000 		.4byte	.LASF26
 3494 0125 01       		.byte	0x1
 3495 0126 AD01     		.2byte	0x1ad
 3496 0128 00000000 		.4byte	.LFB4
 3497 012c 48000000 		.4byte	.LFE4-.LFB4
 3498 0130 01       		.uleb128 0x1
 3499 0131 9C       		.byte	0x9c
ARM GAS  C:\Users\PC\AppData\Local\Temp\ccW101Aa.s 			page 118


 3500 0132 64010000 		.4byte	0x164
 3501 0136 0B       		.uleb128 0xb
 3502 0137 B4050000 		.4byte	.LASF28
 3503 013b 01       		.byte	0x1
 3504 013c AD01     		.2byte	0x1ad
 3505 013e 83000000 		.4byte	0x83
 3506 0142 02       		.uleb128 0x2
 3507 0143 91       		.byte	0x91
 3508 0144 64       		.sleb128 -28
 3509 0145 0C       		.uleb128 0xc
 3510 0146 2B010000 		.4byte	.LASF24
 3511 014a 01       		.byte	0x1
 3512 014b AF01     		.2byte	0x1af
 3513 014d 6B000000 		.4byte	0x6b
 3514 0151 02       		.uleb128 0x2
 3515 0152 91       		.byte	0x91
 3516 0153 6F       		.sleb128 -17
 3517 0154 0C       		.uleb128 0xc
 3518 0155 6A070000 		.4byte	.LASF25
 3519 0159 01       		.byte	0x1
 3520 015a B001     		.2byte	0x1b0
 3521 015c 83000000 		.4byte	0x83
 3522 0160 02       		.uleb128 0x2
 3523 0161 91       		.byte	0x91
 3524 0162 68       		.sleb128 -24
 3525 0163 00       		.byte	0
 3526 0164 0D       		.uleb128 0xd
 3527 0165 17040000 		.4byte	.LASF27
 3528 0169 01       		.byte	0x1
 3529 016a D901     		.2byte	0x1d9
 3530 016c 00000000 		.4byte	.LFB5
 3531 0170 50000000 		.4byte	.LFE5-.LFB5
 3532 0174 01       		.uleb128 0x1
 3533 0175 9C       		.byte	0x9c
 3534 0176 8A010000 		.4byte	0x18a
 3535 017a 0B       		.uleb128 0xb
 3536 017b 8D010000 		.4byte	.LASF29
 3537 017f 01       		.byte	0x1
 3538 0180 D901     		.2byte	0x1d9
 3539 0182 83000000 		.4byte	0x83
 3540 0186 02       		.uleb128 0x2
 3541 0187 91       		.byte	0x91
 3542 0188 74       		.sleb128 -12
 3543 0189 00       		.byte	0
 3544 018a 0E       		.uleb128 0xe
 3545 018b DA010000 		.4byte	.LASF40
 3546 018f 01       		.byte	0x1
 3547 0190 FE01     		.2byte	0x1fe
 3548 0192 83000000 		.4byte	0x83
 3549 0196 00000000 		.4byte	.LFB6
 3550 019a 34000000 		.4byte	.LFE6-.LFB6
 3551 019e 01       		.uleb128 0x1
 3552 019f 9C       		.byte	0x9c
 3553 01a0 C3010000 		.4byte	0x1c3
 3554 01a4 0C       		.uleb128 0xc
 3555 01a5 2B010000 		.4byte	.LASF24
 3556 01a9 01       		.byte	0x1
ARM GAS  C:\Users\PC\AppData\Local\Temp\ccW101Aa.s 			page 119


 3557 01aa 0002     		.2byte	0x200
 3558 01ac 6B000000 		.4byte	0x6b
 3559 01b0 02       		.uleb128 0x2
 3560 01b1 91       		.byte	0x91
 3561 01b2 6F       		.sleb128 -17
 3562 01b3 0C       		.uleb128 0xc
 3563 01b4 B0040000 		.4byte	.LASF30
 3564 01b8 01       		.byte	0x1
 3565 01b9 0102     		.2byte	0x201
 3566 01bb 83000000 		.4byte	0x83
 3567 01bf 02       		.uleb128 0x2
 3568 01c0 91       		.byte	0x91
 3569 01c1 68       		.sleb128 -24
 3570 01c2 00       		.byte	0
 3571 01c3 0A       		.uleb128 0xa
 3572 01c4 02060000 		.4byte	.LASF31
 3573 01c8 01       		.byte	0x1
 3574 01c9 3502     		.2byte	0x235
 3575 01cb 00000000 		.4byte	.LFB7
 3576 01cf 48000000 		.4byte	.LFE7-.LFB7
 3577 01d3 01       		.uleb128 0x1
 3578 01d4 9C       		.byte	0x9c
 3579 01d5 F8010000 		.4byte	0x1f8
 3580 01d9 0B       		.uleb128 0xb
 3581 01da F7060000 		.4byte	.LASF32
 3582 01de 01       		.byte	0x1
 3583 01df 3502     		.2byte	0x235
 3584 01e1 83000000 		.4byte	0x83
 3585 01e5 02       		.uleb128 0x2
 3586 01e6 91       		.byte	0x91
 3587 01e7 64       		.sleb128 -28
 3588 01e8 0C       		.uleb128 0xc
 3589 01e9 2B010000 		.4byte	.LASF24
 3590 01ed 01       		.byte	0x1
 3591 01ee 3702     		.2byte	0x237
 3592 01f0 6B000000 		.4byte	0x6b
 3593 01f4 02       		.uleb128 0x2
 3594 01f5 91       		.byte	0x91
 3595 01f6 6F       		.sleb128 -17
 3596 01f7 00       		.byte	0
 3597 01f8 0A       		.uleb128 0xa
 3598 01f9 43030000 		.4byte	.LASF33
 3599 01fd 01       		.byte	0x1
 3600 01fe 6F02     		.2byte	0x26f
 3601 0200 00000000 		.4byte	.LFB8
 3602 0204 EC010000 		.4byte	.LFE8-.LFB8
 3603 0208 01       		.uleb128 0x1
 3604 0209 9C       		.byte	0x9c
 3605 020a 78020000 		.4byte	0x278
 3606 020e 0B       		.uleb128 0xb
 3607 020f 1A010000 		.4byte	.LASF34
 3608 0213 01       		.byte	0x1
 3609 0214 6F02     		.2byte	0x26f
 3610 0216 83000000 		.4byte	0x83
 3611 021a 02       		.uleb128 0x2
 3612 021b 91       		.byte	0x91
 3613 021c 64       		.sleb128 -28
ARM GAS  C:\Users\PC\AppData\Local\Temp\ccW101Aa.s 			page 120


 3614 021d 0C       		.uleb128 0xc
 3615 021e 0F000000 		.4byte	.LASF35
 3616 0222 01       		.byte	0x1
 3617 0223 7502     		.2byte	0x275
 3618 0225 6B000000 		.4byte	0x6b
 3619 0229 02       		.uleb128 0x2
 3620 022a 91       		.byte	0x91
 3621 022b 6F       		.sleb128 -17
 3622 022c 0C       		.uleb128 0xc
 3623 022d A8040000 		.4byte	.LASF36
 3624 0231 01       		.byte	0x1
 3625 0232 7602     		.2byte	0x276
 3626 0234 6B000000 		.4byte	0x6b
 3627 0238 02       		.uleb128 0x2
 3628 0239 91       		.byte	0x91
 3629 023a 6E       		.sleb128 -18
 3630 023b 0C       		.uleb128 0xc
 3631 023c 2D070000 		.4byte	.LASF37
 3632 0240 01       		.byte	0x1
 3633 0241 7702     		.2byte	0x277
 3634 0243 6B000000 		.4byte	0x6b
 3635 0247 02       		.uleb128 0x2
 3636 0248 91       		.byte	0x91
 3637 0249 6B       		.sleb128 -21
 3638 024a 0C       		.uleb128 0xc
 3639 024b 6F000000 		.4byte	.LASF38
 3640 024f 01       		.byte	0x1
 3641 0250 7802     		.2byte	0x278
 3642 0252 6B000000 		.4byte	0x6b
 3643 0256 02       		.uleb128 0x2
 3644 0257 91       		.byte	0x91
 3645 0258 6D       		.sleb128 -19
 3646 0259 0C       		.uleb128 0xc
 3647 025a 41060000 		.4byte	.LASF39
 3648 025e 01       		.byte	0x1
 3649 025f 7902     		.2byte	0x279
 3650 0261 6B000000 		.4byte	0x6b
 3651 0265 02       		.uleb128 0x2
 3652 0266 91       		.byte	0x91
 3653 0267 6A       		.sleb128 -22
 3654 0268 0C       		.uleb128 0xc
 3655 0269 2B010000 		.4byte	.LASF24
 3656 026d 01       		.byte	0x1
 3657 026e 8402     		.2byte	0x284
 3658 0270 6B000000 		.4byte	0x6b
 3659 0274 02       		.uleb128 0x2
 3660 0275 91       		.byte	0x91
 3661 0276 6C       		.sleb128 -20
 3662 0277 00       		.byte	0
 3663 0278 0E       		.uleb128 0xe
 3664 0279 BE050000 		.4byte	.LASF41
 3665 027d 01       		.byte	0x1
 3666 027e 0304     		.2byte	0x403
 3667 0280 A4000000 		.4byte	0xa4
 3668 0284 00000000 		.4byte	.LFB9
 3669 0288 74000000 		.4byte	.LFE9-.LFB9
 3670 028c 01       		.uleb128 0x1
ARM GAS  C:\Users\PC\AppData\Local\Temp\ccW101Aa.s 			page 121


 3671 028d 9C       		.byte	0x9c
 3672 028e B1020000 		.4byte	0x2b1
 3673 0292 0B       		.uleb128 0xb
 3674 0293 ED060000 		.4byte	.LASF42
 3675 0297 01       		.byte	0x1
 3676 0298 0304     		.2byte	0x403
 3677 029a 83000000 		.4byte	0x83
 3678 029e 02       		.uleb128 0x2
 3679 029f 91       		.byte	0x91
 3680 02a0 6C       		.sleb128 -20
 3681 02a1 0C       		.uleb128 0xc
 3682 02a2 41040000 		.4byte	.LASF43
 3683 02a6 01       		.byte	0x1
 3684 02a7 0504     		.2byte	0x405
 3685 02a9 A4000000 		.4byte	0xa4
 3686 02ad 02       		.uleb128 0x2
 3687 02ae 91       		.byte	0x91
 3688 02af 74       		.sleb128 -12
 3689 02b0 00       		.byte	0
 3690 02b1 0F       		.uleb128 0xf
 3691 02b2 B1060000 		.4byte	.LASF44
 3692 02b6 01       		.byte	0x1
 3693 02b7 9104     		.2byte	0x491
 3694 02b9 00000000 		.4byte	.LFB10
 3695 02bd 30000000 		.4byte	.LFE10-.LFB10
 3696 02c1 01       		.uleb128 0x1
 3697 02c2 9C       		.byte	0x9c
 3698 02c3 10       		.uleb128 0x10
 3699 02c4 BF010000 		.4byte	.LASF45
 3700 02c8 01       		.byte	0x1
 3701 02c9 B304     		.2byte	0x4b3
 3702 02cb 83000000 		.4byte	0x83
 3703 02cf 00000000 		.4byte	.LFB11
 3704 02d3 20000000 		.4byte	.LFE11-.LFB11
 3705 02d7 01       		.uleb128 0x1
 3706 02d8 9C       		.byte	0x9c
 3707 02d9 ED020000 		.4byte	0x2ed
 3708 02dd 0C       		.uleb128 0xc
 3709 02de 9E070000 		.4byte	.LASF46
 3710 02e2 01       		.byte	0x1
 3711 02e3 B504     		.2byte	0x4b5
 3712 02e5 83000000 		.4byte	0x83
 3713 02e9 02       		.uleb128 0x2
 3714 02ea 91       		.byte	0x91
 3715 02eb 74       		.sleb128 -12
 3716 02ec 00       		.byte	0
 3717 02ed 0A       		.uleb128 0xa
 3718 02ee FF060000 		.4byte	.LASF47
 3719 02f2 01       		.byte	0x1
 3720 02f3 E204     		.2byte	0x4e2
 3721 02f5 00000000 		.4byte	.LFB12
 3722 02f9 58000000 		.4byte	.LFE12-.LFB12
 3723 02fd 01       		.uleb128 0x1
 3724 02fe 9C       		.byte	0x9c
 3725 02ff 22030000 		.4byte	0x322
 3726 0303 0B       		.uleb128 0xb
 3727 0304 F7060000 		.4byte	.LASF32
ARM GAS  C:\Users\PC\AppData\Local\Temp\ccW101Aa.s 			page 122


 3728 0308 01       		.byte	0x1
 3729 0309 E204     		.2byte	0x4e2
 3730 030b 83000000 		.4byte	0x83
 3731 030f 02       		.uleb128 0x2
 3732 0310 91       		.byte	0x91
 3733 0311 64       		.sleb128 -28
 3734 0312 0C       		.uleb128 0xc
 3735 0313 2B010000 		.4byte	.LASF24
 3736 0317 01       		.byte	0x1
 3737 0318 E404     		.2byte	0x4e4
 3738 031a 6B000000 		.4byte	0x6b
 3739 031e 02       		.uleb128 0x2
 3740 031f 91       		.byte	0x91
 3741 0320 6F       		.sleb128 -17
 3742 0321 00       		.byte	0
 3743 0322 0A       		.uleb128 0xa
 3744 0323 0E050000 		.4byte	.LASF48
 3745 0327 01       		.byte	0x1
 3746 0328 4608     		.2byte	0x846
 3747 032a 00000000 		.4byte	.LFB13
 3748 032e 64000000 		.4byte	.LFE13-.LFB13
 3749 0332 01       		.uleb128 0x1
 3750 0333 9C       		.byte	0x9c
 3751 0334 48030000 		.4byte	0x348
 3752 0338 0B       		.uleb128 0xb
 3753 0339 50050000 		.4byte	.LASF49
 3754 033d 01       		.byte	0x1
 3755 033e 4608     		.2byte	0x846
 3756 0340 83000000 		.4byte	0x83
 3757 0344 02       		.uleb128 0x2
 3758 0345 91       		.byte	0x91
 3759 0346 74       		.sleb128 -12
 3760 0347 00       		.byte	0
 3761 0348 0F       		.uleb128 0xf
 3762 0349 92060000 		.4byte	.LASF50
 3763 034d 01       		.byte	0x1
 3764 034e 6408     		.2byte	0x864
 3765 0350 00000000 		.4byte	.LFB14
 3766 0354 2C000000 		.4byte	.LFE14-.LFB14
 3767 0358 01       		.uleb128 0x1
 3768 0359 9C       		.byte	0x9c
 3769 035a 11       		.uleb128 0x11
 3770 035b A3020000 		.4byte	.LASF90
 3771 035f 01       		.byte	0x1
 3772 0360 7608     		.2byte	0x876
 3773 0362 83000000 		.4byte	0x83
 3774 0366 00000000 		.4byte	.LFB15
 3775 036a 18000000 		.4byte	.LFE15-.LFB15
 3776 036e 01       		.uleb128 0x1
 3777 036f 9C       		.byte	0x9c
 3778 0370 0F       		.uleb128 0xf
 3779 0371 A1010000 		.4byte	.LASF51
 3780 0375 01       		.byte	0x1
 3781 0376 8608     		.2byte	0x886
 3782 0378 00000000 		.4byte	.LFB16
 3783 037c 14000000 		.4byte	.LFE16-.LFB16
 3784 0380 01       		.uleb128 0x1
ARM GAS  C:\Users\PC\AppData\Local\Temp\ccW101Aa.s 			page 123


 3785 0381 9C       		.byte	0x9c
 3786 0382 10       		.uleb128 0x10
 3787 0383 DE020000 		.4byte	.LASF52
 3788 0387 01       		.byte	0x1
 3789 0388 A008     		.2byte	0x8a0
 3790 038a 83000000 		.4byte	0x83
 3791 038e 00000000 		.4byte	.LFB17
 3792 0392 30000000 		.4byte	.LFE17-.LFB17
 3793 0396 01       		.uleb128 0x1
 3794 0397 9C       		.byte	0x9c
 3795 0398 BB030000 		.4byte	0x3bb
 3796 039c 0B       		.uleb128 0xb
 3797 039d D9050000 		.4byte	.LASF53
 3798 03a1 01       		.byte	0x1
 3799 03a2 A008     		.2byte	0x8a0
 3800 03a4 83000000 		.4byte	0x83
 3801 03a8 02       		.uleb128 0x2
 3802 03a9 91       		.byte	0x91
 3803 03aa 6C       		.sleb128 -20
 3804 03ab 0C       		.uleb128 0xc
 3805 03ac 41040000 		.4byte	.LASF43
 3806 03b0 01       		.byte	0x1
 3807 03b1 A208     		.2byte	0x8a2
 3808 03b3 83000000 		.4byte	0x83
 3809 03b7 02       		.uleb128 0x2
 3810 03b8 91       		.byte	0x91
 3811 03b9 74       		.sleb128 -12
 3812 03ba 00       		.byte	0
 3813 03bb 10       		.uleb128 0x10
 3814 03bc 61000000 		.4byte	.LASF54
 3815 03c0 01       		.byte	0x1
 3816 03c1 B708     		.2byte	0x8b7
 3817 03c3 83000000 		.4byte	0x83
 3818 03c7 00000000 		.4byte	.LFB18
 3819 03cb 24000000 		.4byte	.LFE18-.LFB18
 3820 03cf 01       		.uleb128 0x1
 3821 03d0 9C       		.byte	0x9c
 3822 03d1 E5030000 		.4byte	0x3e5
 3823 03d5 0C       		.uleb128 0xc
 3824 03d6 1E000000 		.4byte	.LASF55
 3825 03da 01       		.byte	0x1
 3826 03db B908     		.2byte	0x8b9
 3827 03dd 83000000 		.4byte	0x83
 3828 03e1 02       		.uleb128 0x2
 3829 03e2 91       		.byte	0x91
 3830 03e3 74       		.sleb128 -12
 3831 03e4 00       		.byte	0
 3832 03e5 0D       		.uleb128 0xd
 3833 03e6 AC000000 		.4byte	.LASF56
 3834 03ea 01       		.byte	0x1
 3835 03eb CE08     		.2byte	0x8ce
 3836 03ed 00000000 		.4byte	.LFB19
 3837 03f1 1C000000 		.4byte	.LFE19-.LFB19
 3838 03f5 01       		.uleb128 0x1
 3839 03f6 9C       		.byte	0x9c
 3840 03f7 0B040000 		.4byte	0x40b
 3841 03fb 0B       		.uleb128 0xb
ARM GAS  C:\Users\PC\AppData\Local\Temp\ccW101Aa.s 			page 124


 3842 03fc D5010000 		.4byte	.LASF57
 3843 0400 01       		.byte	0x1
 3844 0401 CE08     		.2byte	0x8ce
 3845 0403 83000000 		.4byte	0x83
 3846 0407 02       		.uleb128 0x2
 3847 0408 91       		.byte	0x91
 3848 0409 74       		.sleb128 -12
 3849 040a 00       		.byte	0
 3850 040b 0E       		.uleb128 0xe
 3851 040c 05040000 		.4byte	.LASF58
 3852 0410 01       		.byte	0x1
 3853 0411 E708     		.2byte	0x8e7
 3854 0413 D2000000 		.4byte	0xd2
 3855 0417 00000000 		.4byte	.LFB20
 3856 041b 48000000 		.4byte	.LFE20-.LFB20
 3857 041f 01       		.uleb128 0x1
 3858 0420 9C       		.byte	0x9c
 3859 0421 62040000 		.4byte	0x462
 3860 0425 0B       		.uleb128 0xb
 3861 0426 33030000 		.4byte	.LASF59
 3862 042a 01       		.byte	0x1
 3863 042b E708     		.2byte	0x8e7
 3864 042d 6B000000 		.4byte	0x6b
 3865 0431 02       		.uleb128 0x2
 3866 0432 91       		.byte	0x91
 3867 0433 6F       		.sleb128 -17
 3868 0434 0B       		.uleb128 0xb
 3869 0435 A0040000 		.4byte	.LASF60
 3870 0439 01       		.byte	0x1
 3871 043a E708     		.2byte	0x8e7
 3872 043c D2000000 		.4byte	0xd2
 3873 0440 02       		.uleb128 0x2
 3874 0441 91       		.byte	0x91
 3875 0442 68       		.sleb128 -24
 3876 0443 0C       		.uleb128 0xc
 3877 0444 53000000 		.4byte	.LASF61
 3878 0448 01       		.byte	0x1
 3879 0449 E908     		.2byte	0x8e9
 3880 044b D2000000 		.4byte	0xd2
 3881 044f 02       		.uleb128 0x2
 3882 0450 91       		.byte	0x91
 3883 0451 70       		.sleb128 -16
 3884 0452 0C       		.uleb128 0xc
 3885 0453 00000000 		.4byte	.LASF62
 3886 0457 01       		.byte	0x1
 3887 0458 EA08     		.2byte	0x8ea
 3888 045a 62040000 		.4byte	0x462
 3889 045e 02       		.uleb128 0x2
 3890 045f 91       		.byte	0x91
 3891 0460 74       		.sleb128 -12
 3892 0461 00       		.byte	0
 3893 0462 06       		.uleb128 0x6
 3894 0463 04       		.byte	0x4
 3895 0464 D2000000 		.4byte	0xd2
 3896 0468 0E       		.uleb128 0xe
 3897 0469 A2050000 		.4byte	.LASF63
 3898 046d 01       		.byte	0x1
ARM GAS  C:\Users\PC\AppData\Local\Temp\ccW101Aa.s 			page 125


 3899 046e 0909     		.2byte	0x909
 3900 0470 D2000000 		.4byte	0xd2
 3901 0474 00000000 		.4byte	.LFB21
 3902 0478 34000000 		.4byte	.LFE21-.LFB21
 3903 047c 01       		.uleb128 0x1
 3904 047d 9C       		.byte	0x9c
 3905 047e A1040000 		.4byte	0x4a1
 3906 0482 0B       		.uleb128 0xb
 3907 0483 33030000 		.4byte	.LASF59
 3908 0487 01       		.byte	0x1
 3909 0488 0909     		.2byte	0x909
 3910 048a 6B000000 		.4byte	0x6b
 3911 048e 02       		.uleb128 0x2
 3912 048f 91       		.byte	0x91
 3913 0490 6F       		.sleb128 -17
 3914 0491 0C       		.uleb128 0xc
 3915 0492 00000000 		.4byte	.LASF62
 3916 0496 01       		.byte	0x1
 3917 0497 0B09     		.2byte	0x90b
 3918 0499 62040000 		.4byte	0x462
 3919 049d 02       		.uleb128 0x2
 3920 049e 91       		.byte	0x91
 3921 049f 74       		.sleb128 -12
 3922 04a0 00       		.byte	0
 3923 04a1 0E       		.uleb128 0xe
 3924 04a2 24030000 		.4byte	.LASF64
 3925 04a6 01       		.byte	0x1
 3926 04a7 1F09     		.2byte	0x91f
 3927 04a9 D2000000 		.4byte	0xd2
 3928 04ad 00000000 		.4byte	.LFB22
 3929 04b1 4C000000 		.4byte	.LFE22-.LFB22
 3930 04b5 01       		.uleb128 0x1
 3931 04b6 9C       		.byte	0x9c
 3932 04b7 F8040000 		.4byte	0x4f8
 3933 04bb 0B       		.uleb128 0xb
 3934 04bc 33030000 		.4byte	.LASF59
 3935 04c0 01       		.byte	0x1
 3936 04c1 1F09     		.2byte	0x91f
 3937 04c3 6B000000 		.4byte	0x6b
 3938 04c7 02       		.uleb128 0x2
 3939 04c8 91       		.byte	0x91
 3940 04c9 6F       		.sleb128 -17
 3941 04ca 0B       		.uleb128 0xb
 3942 04cb A0040000 		.4byte	.LASF60
 3943 04cf 01       		.byte	0x1
 3944 04d0 1F09     		.2byte	0x91f
 3945 04d2 D2000000 		.4byte	0xd2
 3946 04d6 02       		.uleb128 0x2
 3947 04d7 91       		.byte	0x91
 3948 04d8 68       		.sleb128 -24
 3949 04d9 0C       		.uleb128 0xc
 3950 04da 53000000 		.4byte	.LASF61
 3951 04de 01       		.byte	0x1
 3952 04df 2109     		.2byte	0x921
 3953 04e1 D2000000 		.4byte	0xd2
 3954 04e5 02       		.uleb128 0x2
 3955 04e6 91       		.byte	0x91
ARM GAS  C:\Users\PC\AppData\Local\Temp\ccW101Aa.s 			page 126


 3956 04e7 70       		.sleb128 -16
 3957 04e8 0C       		.uleb128 0xc
 3958 04e9 00000000 		.4byte	.LASF62
 3959 04ed 01       		.byte	0x1
 3960 04ee 2209     		.2byte	0x922
 3961 04f0 62040000 		.4byte	0x462
 3962 04f4 02       		.uleb128 0x2
 3963 04f5 91       		.byte	0x91
 3964 04f6 74       		.sleb128 -12
 3965 04f7 00       		.byte	0
 3966 04f8 0E       		.uleb128 0xe
 3967 04f9 2F050000 		.4byte	.LASF65
 3968 04fd 01       		.byte	0x1
 3969 04fe 3B09     		.2byte	0x93b
 3970 0500 D2000000 		.4byte	0xd2
 3971 0504 00000000 		.4byte	.LFB23
 3972 0508 36000000 		.4byte	.LFE23-.LFB23
 3973 050c 01       		.uleb128 0x1
 3974 050d 9C       		.byte	0x9c
 3975 050e 31050000 		.4byte	0x531
 3976 0512 0B       		.uleb128 0xb
 3977 0513 33030000 		.4byte	.LASF59
 3978 0517 01       		.byte	0x1
 3979 0518 3B09     		.2byte	0x93b
 3980 051a 6B000000 		.4byte	0x6b
 3981 051e 02       		.uleb128 0x2
 3982 051f 91       		.byte	0x91
 3983 0520 6F       		.sleb128 -17
 3984 0521 0C       		.uleb128 0xc
 3985 0522 00000000 		.4byte	.LASF62
 3986 0526 01       		.byte	0x1
 3987 0527 3D09     		.2byte	0x93d
 3988 0529 62040000 		.4byte	0x462
 3989 052d 02       		.uleb128 0x2
 3990 052e 91       		.byte	0x91
 3991 052f 74       		.sleb128 -12
 3992 0530 00       		.byte	0
 3993 0531 0A       		.uleb128 0xa
 3994 0532 F7040000 		.4byte	.LASF66
 3995 0536 01       		.byte	0x1
 3996 0537 4E09     		.2byte	0x94e
 3997 0539 00000000 		.4byte	.LFB24
 3998 053d A8000000 		.4byte	.LFE24-.LFB24
 3999 0541 01       		.uleb128 0x1
 4000 0542 9C       		.byte	0x9c
 4001 0543 93050000 		.4byte	0x593
 4002 0547 0B       		.uleb128 0xb
 4003 0548 33030000 		.4byte	.LASF59
 4004 054c 01       		.byte	0x1
 4005 054d 4E09     		.2byte	0x94e
 4006 054f 6B000000 		.4byte	0x6b
 4007 0553 02       		.uleb128 0x2
 4008 0554 91       		.byte	0x91
 4009 0555 5F       		.sleb128 -33
 4010 0556 0B       		.uleb128 0xb
 4011 0557 3A030000 		.4byte	.LASF67
 4012 055b 01       		.byte	0x1
ARM GAS  C:\Users\PC\AppData\Local\Temp\ccW101Aa.s 			page 127


 4013 055c 4E09     		.2byte	0x94e
 4014 055e 6B000000 		.4byte	0x6b
 4015 0562 02       		.uleb128 0x2
 4016 0563 91       		.byte	0x91
 4017 0564 5E       		.sleb128 -34
 4018 0565 0C       		.uleb128 0xc
 4019 0566 2B010000 		.4byte	.LASF24
 4020 056a 01       		.byte	0x1
 4021 056b 5009     		.2byte	0x950
 4022 056d 6B000000 		.4byte	0x6b
 4023 0571 02       		.uleb128 0x2
 4024 0572 91       		.byte	0x91
 4025 0573 6B       		.sleb128 -21
 4026 0574 0C       		.uleb128 0xc
 4027 0575 9B010000 		.4byte	.LASF68
 4028 0579 01       		.byte	0x1
 4029 057a 5109     		.2byte	0x951
 4030 057c 83000000 		.4byte	0x83
 4031 0580 02       		.uleb128 0x2
 4032 0581 91       		.byte	0x91
 4033 0582 6C       		.sleb128 -20
 4034 0583 0C       		.uleb128 0xc
 4035 0584 1E020000 		.4byte	.LASF69
 4036 0588 01       		.byte	0x1
 4037 0589 5209     		.2byte	0x952
 4038 058b 83000000 		.4byte	0x83
 4039 058f 02       		.uleb128 0x2
 4040 0590 91       		.byte	0x91
 4041 0591 64       		.sleb128 -28
 4042 0592 00       		.byte	0
 4043 0593 0E       		.uleb128 0xe
 4044 0594 F2010000 		.4byte	.LASF70
 4045 0598 01       		.byte	0x1
 4046 0599 7009     		.2byte	0x970
 4047 059b 6B000000 		.4byte	0x6b
 4048 059f 00000000 		.4byte	.LFB25
 4049 05a3 58000000 		.4byte	.LFE25-.LFB25
 4050 05a7 01       		.uleb128 0x1
 4051 05a8 9C       		.byte	0x9c
 4052 05a9 CC050000 		.4byte	0x5cc
 4053 05ad 0B       		.uleb128 0xb
 4054 05ae 33030000 		.4byte	.LASF59
 4055 05b2 01       		.byte	0x1
 4056 05b3 7009     		.2byte	0x970
 4057 05b5 6B000000 		.4byte	0x6b
 4058 05b9 02       		.uleb128 0x2
 4059 05ba 91       		.byte	0x91
 4060 05bb 6F       		.sleb128 -17
 4061 05bc 0C       		.uleb128 0xc
 4062 05bd 3A030000 		.4byte	.LASF67
 4063 05c1 01       		.byte	0x1
 4064 05c2 7209     		.2byte	0x972
 4065 05c4 6B000000 		.4byte	0x6b
 4066 05c8 02       		.uleb128 0x2
 4067 05c9 91       		.byte	0x91
 4068 05ca 77       		.sleb128 -9
 4069 05cb 00       		.byte	0
ARM GAS  C:\Users\PC\AppData\Local\Temp\ccW101Aa.s 			page 128


 4070 05cc 0D       		.uleb128 0xd
 4071 05cd 96050000 		.4byte	.LASF71
 4072 05d1 01       		.byte	0x1
 4073 05d2 8509     		.2byte	0x985
 4074 05d4 00000000 		.4byte	.LFB26
 4075 05d8 2C000000 		.4byte	.LFE26-.LFB26
 4076 05dc 01       		.uleb128 0x1
 4077 05dd 9C       		.byte	0x9c
 4078 05de F2050000 		.4byte	0x5f2
 4079 05e2 0B       		.uleb128 0xb
 4080 05e3 33030000 		.4byte	.LASF59
 4081 05e7 01       		.byte	0x1
 4082 05e8 8509     		.2byte	0x985
 4083 05ea 6B000000 		.4byte	0x6b
 4084 05ee 02       		.uleb128 0x2
 4085 05ef 91       		.byte	0x91
 4086 05f0 77       		.sleb128 -9
 4087 05f1 00       		.byte	0
 4088 05f2 10       		.uleb128 0x10
 4089 05f3 F2000000 		.4byte	.LASF72
 4090 05f7 01       		.byte	0x1
 4091 05f8 9709     		.2byte	0x997
 4092 05fa 6B000000 		.4byte	0x6b
 4093 05fe 00000000 		.4byte	.LFB27
 4094 0602 30000000 		.4byte	.LFE27-.LFB27
 4095 0606 01       		.uleb128 0x1
 4096 0607 9C       		.byte	0x9c
 4097 0608 1C060000 		.4byte	0x61c
 4098 060c 0B       		.uleb128 0xb
 4099 060d 33030000 		.4byte	.LASF59
 4100 0611 01       		.byte	0x1
 4101 0612 9709     		.2byte	0x997
 4102 0614 6B000000 		.4byte	0x6b
 4103 0618 02       		.uleb128 0x2
 4104 0619 91       		.byte	0x91
 4105 061a 77       		.sleb128 -9
 4106 061b 00       		.byte	0
 4107 061c 0D       		.uleb128 0xd
 4108 061d 56010000 		.4byte	.LASF73
 4109 0621 01       		.byte	0x1
 4110 0622 A709     		.2byte	0x9a7
 4111 0624 00000000 		.4byte	.LFB28
 4112 0628 2C000000 		.4byte	.LFE28-.LFB28
 4113 062c 01       		.uleb128 0x1
 4114 062d 9C       		.byte	0x9c
 4115 062e 42060000 		.4byte	0x642
 4116 0632 0B       		.uleb128 0xb
 4117 0633 33030000 		.4byte	.LASF59
 4118 0637 01       		.byte	0x1
 4119 0638 A709     		.2byte	0x9a7
 4120 063a 6B000000 		.4byte	0x6b
 4121 063e 02       		.uleb128 0x2
 4122 063f 91       		.byte	0x91
 4123 0640 77       		.sleb128 -9
 4124 0641 00       		.byte	0
 4125 0642 0D       		.uleb128 0xd
 4126 0643 CE020000 		.4byte	.LASF74
ARM GAS  C:\Users\PC\AppData\Local\Temp\ccW101Aa.s 			page 129


 4127 0647 01       		.byte	0x1
 4128 0648 B509     		.2byte	0x9b5
 4129 064a 00000000 		.4byte	.LFB29
 4130 064e 2C000000 		.4byte	.LFE29-.LFB29
 4131 0652 01       		.uleb128 0x1
 4132 0653 9C       		.byte	0x9c
 4133 0654 68060000 		.4byte	0x668
 4134 0658 0B       		.uleb128 0xb
 4135 0659 33030000 		.4byte	.LASF59
 4136 065d 01       		.byte	0x1
 4137 065e B509     		.2byte	0x9b5
 4138 0660 6B000000 		.4byte	0x6b
 4139 0664 02       		.uleb128 0x2
 4140 0665 91       		.byte	0x91
 4141 0666 77       		.sleb128 -9
 4142 0667 00       		.byte	0
 4143 0668 0D       		.uleb128 0xd
 4144 0669 82040000 		.4byte	.LASF75
 4145 066d 01       		.byte	0x1
 4146 066e C409     		.2byte	0x9c4
 4147 0670 00000000 		.4byte	.LFB30
 4148 0674 2C000000 		.4byte	.LFE30-.LFB30
 4149 0678 01       		.uleb128 0x1
 4150 0679 9C       		.byte	0x9c
 4151 067a 8E060000 		.4byte	0x68e
 4152 067e 0B       		.uleb128 0xb
 4153 067f 33030000 		.4byte	.LASF59
 4154 0683 01       		.byte	0x1
 4155 0684 C409     		.2byte	0x9c4
 4156 0686 6B000000 		.4byte	0x6b
 4157 068a 02       		.uleb128 0x2
 4158 068b 91       		.byte	0x91
 4159 068c 77       		.sleb128 -9
 4160 068d 00       		.byte	0
 4161 068e 0D       		.uleb128 0xd
 4162 068f 5A050000 		.4byte	.LASF76
 4163 0693 01       		.byte	0x1
 4164 0694 D309     		.2byte	0x9d3
 4165 0696 00000000 		.4byte	.LFB31
 4166 069a 16000000 		.4byte	.LFE31-.LFB31
 4167 069e 01       		.uleb128 0x1
 4168 069f 9C       		.byte	0x9c
 4169 06a0 B4060000 		.4byte	0x6b4
 4170 06a4 0B       		.uleb128 0xb
 4171 06a5 D9050000 		.4byte	.LASF53
 4172 06a9 01       		.byte	0x1
 4173 06aa D309     		.2byte	0x9d3
 4174 06ac 6B000000 		.4byte	0x6b
 4175 06b0 02       		.uleb128 0x2
 4176 06b1 91       		.byte	0x91
 4177 06b2 77       		.sleb128 -9
 4178 06b3 00       		.byte	0
 4179 06b4 0F       		.uleb128 0xf
 4180 06b5 C9000000 		.4byte	.LASF77
 4181 06b9 01       		.byte	0x1
 4182 06ba EB09     		.2byte	0x9eb
 4183 06bc 00000000 		.4byte	.LFB32
ARM GAS  C:\Users\PC\AppData\Local\Temp\ccW101Aa.s 			page 130


 4184 06c0 24000000 		.4byte	.LFE32-.LFB32
 4185 06c4 01       		.uleb128 0x1
 4186 06c5 9C       		.byte	0x9c
 4187 06c6 0A       		.uleb128 0xa
 4188 06c7 58060000 		.4byte	.LASF78
 4189 06cb 01       		.byte	0x1
 4190 06cc FF09     		.2byte	0x9ff
 4191 06ce 00000000 		.4byte	.LFB33
 4192 06d2 4C000000 		.4byte	.LFE33-.LFB33
 4193 06d6 01       		.uleb128 0x1
 4194 06d7 9C       		.byte	0x9c
 4195 06d8 EC060000 		.4byte	0x6ec
 4196 06dc 0B       		.uleb128 0xb
 4197 06dd 3E050000 		.4byte	.LASF79
 4198 06e1 01       		.byte	0x1
 4199 06e2 FF09     		.2byte	0x9ff
 4200 06e4 83000000 		.4byte	0x83
 4201 06e8 02       		.uleb128 0x2
 4202 06e9 91       		.byte	0x91
 4203 06ea 74       		.sleb128 -12
 4204 06eb 00       		.byte	0
 4205 06ec 0A       		.uleb128 0xa
 4206 06ed CF050000 		.4byte	.LASF80
 4207 06f1 01       		.byte	0x1
 4208 06f2 160A     		.2byte	0xa16
 4209 06f4 00000000 		.4byte	.LFB34
 4210 06f8 28000000 		.4byte	.LFE34-.LFB34
 4211 06fc 01       		.uleb128 0x1
 4212 06fd 9C       		.byte	0x9c
 4213 06fe 12070000 		.4byte	0x712
 4214 0702 0B       		.uleb128 0xb
 4215 0703 5D070000 		.4byte	.LASF81
 4216 0707 01       		.byte	0x1
 4217 0708 160A     		.2byte	0xa16
 4218 070a 77000000 		.4byte	0x77
 4219 070e 02       		.uleb128 0x2
 4220 070f 91       		.byte	0x91
 4221 0710 76       		.sleb128 -10
 4222 0711 00       		.byte	0
 4223 0712 0A       		.uleb128 0xa
 4224 0713 1F010000 		.4byte	.LASF82
 4225 0717 01       		.byte	0x1
 4226 0718 240A     		.2byte	0xa24
 4227 071a 00000000 		.4byte	.LFB35
 4228 071e 84000000 		.4byte	.LFE35-.LFB35
 4229 0722 01       		.uleb128 0x1
 4230 0723 9C       		.byte	0x9c
 4231 0724 38070000 		.4byte	0x738
 4232 0728 0B       		.uleb128 0xb
 4233 0729 1A010000 		.4byte	.LASF34
 4234 072d 01       		.byte	0x1
 4235 072e 240A     		.2byte	0xa24
 4236 0730 83000000 		.4byte	0x83
 4237 0734 02       		.uleb128 0x2
 4238 0735 91       		.byte	0x91
 4239 0736 74       		.sleb128 -12
 4240 0737 00       		.byte	0
ARM GAS  C:\Users\PC\AppData\Local\Temp\ccW101Aa.s 			page 131


 4241 0738 12       		.uleb128 0x12
 4242 0739 32040000 		.4byte	.LASF83
 4243 073d 01       		.byte	0x1
 4244 073e 440A     		.2byte	0xa44
 4245 0740 00000000 		.4byte	.LFB36
 4246 0744 24000000 		.4byte	.LFE36-.LFB36
 4247 0748 01       		.uleb128 0x1
 4248 0749 9C       		.byte	0x9c
 4249 074a 0A       		.uleb128 0xa
 4250 074b 10020000 		.4byte	.LASF84
 4251 074f 01       		.byte	0x1
 4252 0750 610A     		.2byte	0xa61
 4253 0752 00000000 		.4byte	.LFB37
 4254 0756 68000000 		.4byte	.LFE37-.LFB37
 4255 075a 01       		.uleb128 0x1
 4256 075b 9C       		.byte	0x9c
 4257 075c 6E070000 		.4byte	0x76e
 4258 0760 13       		.uleb128 0x13
 4259 0761 6900     		.ascii	"i\000"
 4260 0763 01       		.byte	0x1
 4261 0764 630A     		.2byte	0xa63
 4262 0766 83000000 		.4byte	0x83
 4263 076a 02       		.uleb128 0x2
 4264 076b 91       		.byte	0x91
 4265 076c 74       		.sleb128 -12
 4266 076d 00       		.byte	0
 4267 076e 12       		.uleb128 0x12
 4268 076f F2050000 		.4byte	.LASF85
 4269 0773 01       		.byte	0x1
 4270 0774 800A     		.2byte	0xa80
 4271 0776 00000000 		.4byte	.LFB38
 4272 077a 20000000 		.4byte	.LFE38-.LFB38
 4273 077e 01       		.uleb128 0x1
 4274 077f 9C       		.byte	0x9c
 4275 0780 0F       		.uleb128 0xf
 4276 0781 DF060000 		.4byte	.LASF86
 4277 0785 01       		.byte	0x1
 4278 0786 910A     		.2byte	0xa91
 4279 0788 00000000 		.4byte	.LFB39
 4280 078c 1C000000 		.4byte	.LFE39-.LFB39
 4281 0790 01       		.uleb128 0x1
 4282 0791 9C       		.byte	0x9c
 4283 0792 0F       		.uleb128 0xf
 4284 0793 D9000000 		.4byte	.LASF87
 4285 0797 01       		.byte	0x1
 4286 0798 A10A     		.2byte	0xaa1
 4287 079a 00000000 		.4byte	.LFB40
 4288 079e 1C000000 		.4byte	.LFE40-.LFB40
 4289 07a2 01       		.uleb128 0x1
 4290 07a3 9C       		.byte	0x9c
 4291 07a4 0F       		.uleb128 0xf
 4292 07a5 78060000 		.4byte	.LASF88
 4293 07a9 01       		.byte	0x1
 4294 07aa B10A     		.2byte	0xab1
 4295 07ac 00000000 		.4byte	.LFB41
 4296 07b0 1C000000 		.4byte	.LFE41-.LFB41
 4297 07b4 01       		.uleb128 0x1
ARM GAS  C:\Users\PC\AppData\Local\Temp\ccW101Aa.s 			page 132


 4298 07b5 9C       		.byte	0x9c
 4299 07b6 0D       		.uleb128 0xd
 4300 07b7 71070000 		.4byte	.LASF89
 4301 07bb 01       		.byte	0x1
 4302 07bc C20A     		.2byte	0xac2
 4303 07be 00000000 		.4byte	.LFB42
 4304 07c2 20000000 		.4byte	.LFE42-.LFB42
 4305 07c6 01       		.uleb128 0x1
 4306 07c7 9C       		.byte	0x9c
 4307 07c8 DC070000 		.4byte	0x7dc
 4308 07cc 0B       		.uleb128 0xb
 4309 07cd 1E020000 		.4byte	.LASF69
 4310 07d1 01       		.byte	0x1
 4311 07d2 C20A     		.2byte	0xac2
 4312 07d4 83000000 		.4byte	0x83
 4313 07d8 02       		.uleb128 0x2
 4314 07d9 91       		.byte	0x91
 4315 07da 74       		.sleb128 -12
 4316 07db 00       		.byte	0
 4317 07dc 11       		.uleb128 0x11
 4318 07dd 3A010000 		.4byte	.LASF91
 4319 07e1 01       		.byte	0x1
 4320 07e2 D20A     		.2byte	0xad2
 4321 07e4 83000000 		.4byte	0x83
 4322 07e8 00000000 		.4byte	.LFB43
 4323 07ec 18000000 		.4byte	.LFE43-.LFB43
 4324 07f0 01       		.uleb128 0x1
 4325 07f1 9C       		.byte	0x9c
 4326 07f2 11       		.uleb128 0x11
 4327 07f3 D7040000 		.4byte	.LASF92
 4328 07f7 01       		.byte	0x1
 4329 07f8 E20A     		.2byte	0xae2
 4330 07fa 83000000 		.4byte	0x83
 4331 07fe 00000000 		.4byte	.LFB44
 4332 0802 18000000 		.4byte	.LFE44-.LFB44
 4333 0806 01       		.uleb128 0x1
 4334 0807 9C       		.byte	0x9c
 4335 0808 0D       		.uleb128 0xd
 4336 0809 0C030000 		.4byte	.LASF93
 4337 080d 01       		.byte	0x1
 4338 080e 020B     		.2byte	0xb02
 4339 0810 00000000 		.4byte	.LFB45
 4340 0814 34000000 		.4byte	.LFE45-.LFB45
 4341 0818 01       		.uleb128 0x1
 4342 0819 9C       		.byte	0x9c
 4343 081a 2E080000 		.4byte	0x82e
 4344 081e 0B       		.uleb128 0xb
 4345 081f 24020000 		.4byte	.LASF94
 4346 0823 01       		.byte	0x1
 4347 0824 020B     		.2byte	0xb02
 4348 0826 83000000 		.4byte	0x83
 4349 082a 02       		.uleb128 0x2
 4350 082b 91       		.byte	0x91
 4351 082c 74       		.sleb128 -12
 4352 082d 00       		.byte	0
 4353 082e 11       		.uleb128 0x11
 4354 082f 60060000 		.4byte	.LASF95
ARM GAS  C:\Users\PC\AppData\Local\Temp\ccW101Aa.s 			page 133


 4355 0833 01       		.byte	0x1
 4356 0834 1B0B     		.2byte	0xb1b
 4357 0836 83000000 		.4byte	0x83
 4358 083a 00000000 		.4byte	.LFB46
 4359 083e 18000000 		.4byte	.LFE46-.LFB46
 4360 0842 01       		.uleb128 0x1
 4361 0843 9C       		.byte	0x9c
 4362 0844 11       		.uleb128 0x11
 4363 0845 3E020000 		.4byte	.LASF96
 4364 0849 01       		.byte	0x1
 4365 084a 320B     		.2byte	0xb32
 4366 084c 83000000 		.4byte	0x83
 4367 0850 00000000 		.4byte	.LFB47
 4368 0854 18000000 		.4byte	.LFE47-.LFB47
 4369 0858 01       		.uleb128 0x1
 4370 0859 9C       		.byte	0x9c
 4371 085a 0F       		.uleb128 0xf
 4372 085b 82020000 		.4byte	.LASF97
 4373 085f 01       		.byte	0x1
 4374 0860 3F0B     		.2byte	0xb3f
 4375 0862 00000000 		.4byte	.LFB48
 4376 0866 14000000 		.4byte	.LFE48-.LFB48
 4377 086a 01       		.uleb128 0x1
 4378 086b 9C       		.byte	0x9c
 4379 086c 10       		.uleb128 0x10
 4380 086d 19060000 		.4byte	.LASF98
 4381 0871 01       		.byte	0x1
 4382 0872 620B     		.2byte	0xb62
 4383 0874 F3000000 		.4byte	0xf3
 4384 0878 00000000 		.4byte	.LFB49
 4385 087c 2C000000 		.4byte	.LFE49-.LFB49
 4386 0880 01       		.uleb128 0x1
 4387 0881 9C       		.byte	0x9c
 4388 0882 B4080000 		.4byte	0x8b4
 4389 0886 0B       		.uleb128 0xb
 4390 0887 33030000 		.4byte	.LASF59
 4391 088b 01       		.byte	0x1
 4392 088c 620B     		.2byte	0xb62
 4393 088e 83000000 		.4byte	0x83
 4394 0892 02       		.uleb128 0x2
 4395 0893 91       		.byte	0x91
 4396 0894 6C       		.sleb128 -20
 4397 0895 0B       		.uleb128 0xb
 4398 0896 BD040000 		.4byte	.LASF99
 4399 089a 01       		.byte	0x1
 4400 089b 620B     		.2byte	0xb62
 4401 089d F3000000 		.4byte	0xf3
 4402 08a1 02       		.uleb128 0x2
 4403 08a2 91       		.byte	0x91
 4404 08a3 68       		.sleb128 -24
 4405 08a4 0C       		.uleb128 0xc
 4406 08a5 5A000000 		.4byte	.LASF100
 4407 08a9 01       		.byte	0x1
 4408 08aa 640B     		.2byte	0xb64
 4409 08ac F3000000 		.4byte	0xf3
 4410 08b0 02       		.uleb128 0x2
 4411 08b1 91       		.byte	0x91
ARM GAS  C:\Users\PC\AppData\Local\Temp\ccW101Aa.s 			page 134


 4412 08b2 74       		.sleb128 -12
 4413 08b3 00       		.byte	0
 4414 08b4 10       		.uleb128 0x10
 4415 08b5 63010000 		.4byte	.LASF101
 4416 08b9 01       		.byte	0x1
 4417 08ba 7A0B     		.2byte	0xb7a
 4418 08bc F3000000 		.4byte	0xf3
 4419 08c0 00000000 		.4byte	.LFB50
 4420 08c4 1C000000 		.4byte	.LFE50-.LFB50
 4421 08c8 01       		.uleb128 0x1
 4422 08c9 9C       		.byte	0x9c
 4423 08ca DE080000 		.4byte	0x8de
 4424 08ce 0B       		.uleb128 0xb
 4425 08cf 33030000 		.4byte	.LASF59
 4426 08d3 01       		.byte	0x1
 4427 08d4 7A0B     		.2byte	0xb7a
 4428 08d6 83000000 		.4byte	0x83
 4429 08da 02       		.uleb128 0x2
 4430 08db 91       		.byte	0x91
 4431 08dc 74       		.sleb128 -12
 4432 08dd 00       		.byte	0
 4433 08de 14       		.uleb128 0x14
 4434 08df 84070000 		.4byte	.LASF122
 4435 08e3 01       		.byte	0x1
 4436 08e4 870B     		.2byte	0xb87
 4437 08e6 00000000 		.4byte	.LFB51
 4438 08ea 44000000 		.4byte	.LFE51-.LFB51
 4439 08ee 01       		.uleb128 0x1
 4440 08ef 9C       		.byte	0x9c
 4441 08f0 02090000 		.4byte	0x902
 4442 08f4 13       		.uleb128 0x13
 4443 08f5 6900     		.ascii	"i\000"
 4444 08f7 01       		.byte	0x1
 4445 08f8 890B     		.2byte	0xb89
 4446 08fa 83000000 		.4byte	0x83
 4447 08fe 02       		.uleb128 0x2
 4448 08ff 91       		.byte	0x91
 4449 0900 74       		.sleb128 -12
 4450 0901 00       		.byte	0
 4451 0902 0D       		.uleb128 0xd
 4452 0903 30020000 		.4byte	.LASF102
 4453 0907 01       		.byte	0x1
 4454 0908 A70B     		.2byte	0xba7
 4455 090a 00000000 		.4byte	.LFB52
 4456 090e C0000000 		.4byte	.LFE52-.LFB52
 4457 0912 01       		.uleb128 0x1
 4458 0913 9C       		.byte	0x9c
 4459 0914 28090000 		.4byte	0x928
 4460 0918 0B       		.uleb128 0xb
 4461 0919 4F060000 		.4byte	.LASF103
 4462 091d 01       		.byte	0x1
 4463 091e A70B     		.2byte	0xba7
 4464 0920 28090000 		.4byte	0x928
 4465 0924 02       		.uleb128 0x2
 4466 0925 91       		.byte	0x91
 4467 0926 74       		.sleb128 -12
 4468 0927 00       		.byte	0
ARM GAS  C:\Users\PC\AppData\Local\Temp\ccW101Aa.s 			page 135


 4469 0928 06       		.uleb128 0x6
 4470 0929 04       		.byte	0x4
 4471 092a 83000000 		.4byte	0x83
 4472 092e 0D       		.uleb128 0xd
 4473 092f 61050000 		.4byte	.LASF104
 4474 0933 01       		.byte	0x1
 4475 0934 D30B     		.2byte	0xbd3
 4476 0936 00000000 		.4byte	.LFB53
 4477 093a 38000000 		.4byte	.LFE53-.LFB53
 4478 093e 01       		.uleb128 0x1
 4479 093f 9C       		.byte	0x9c
 4480 0940 63090000 		.4byte	0x963
 4481 0944 0B       		.uleb128 0xb
 4482 0945 4E040000 		.4byte	.LASF105
 4483 0949 01       		.byte	0x1
 4484 094a D30B     		.2byte	0xbd3
 4485 094c 83000000 		.4byte	0x83
 4486 0950 02       		.uleb128 0x2
 4487 0951 91       		.byte	0x91
 4488 0952 6C       		.sleb128 -20
 4489 0953 0C       		.uleb128 0xc
 4490 0954 05030000 		.4byte	.LASF106
 4491 0958 01       		.byte	0x1
 4492 0959 D50B     		.2byte	0xbd5
 4493 095b 83000000 		.4byte	0x83
 4494 095f 02       		.uleb128 0x2
 4495 0960 91       		.byte	0x91
 4496 0961 74       		.sleb128 -12
 4497 0962 00       		.byte	0
 4498 0963 0D       		.uleb128 0xd
 4499 0964 E6030000 		.4byte	.LASF107
 4500 0968 01       		.byte	0x1
 4501 0969 EE0B     		.2byte	0xbee
 4502 096b 00000000 		.4byte	.LFB54
 4503 096f 38000000 		.4byte	.LFE54-.LFB54
 4504 0973 01       		.uleb128 0x1
 4505 0974 9C       		.byte	0x9c
 4506 0975 98090000 		.4byte	0x998
 4507 0979 0B       		.uleb128 0xb
 4508 097a 4E040000 		.4byte	.LASF105
 4509 097e 01       		.byte	0x1
 4510 097f EE0B     		.2byte	0xbee
 4511 0981 83000000 		.4byte	0x83
 4512 0985 02       		.uleb128 0x2
 4513 0986 91       		.byte	0x91
 4514 0987 6C       		.sleb128 -20
 4515 0988 0C       		.uleb128 0xc
 4516 0989 05030000 		.4byte	.LASF106
 4517 098d 01       		.byte	0x1
 4518 098e F00B     		.2byte	0xbf0
 4519 0990 83000000 		.4byte	0x83
 4520 0994 02       		.uleb128 0x2
 4521 0995 91       		.byte	0x91
 4522 0996 74       		.sleb128 -12
 4523 0997 00       		.byte	0
 4524 0998 0D       		.uleb128 0xd
 4525 0999 C1060000 		.4byte	.LASF108
ARM GAS  C:\Users\PC\AppData\Local\Temp\ccW101Aa.s 			page 136


 4526 099d 01       		.byte	0x1
 4527 099e 090C     		.2byte	0xc09
 4528 09a0 00000000 		.4byte	.LFB55
 4529 09a4 38000000 		.4byte	.LFE55-.LFB55
 4530 09a8 01       		.uleb128 0x1
 4531 09a9 9C       		.byte	0x9c
 4532 09aa CD090000 		.4byte	0x9cd
 4533 09ae 0B       		.uleb128 0xb
 4534 09af 4E040000 		.4byte	.LASF105
 4535 09b3 01       		.byte	0x1
 4536 09b4 090C     		.2byte	0xc09
 4537 09b6 83000000 		.4byte	0x83
 4538 09ba 02       		.uleb128 0x2
 4539 09bb 91       		.byte	0x91
 4540 09bc 6C       		.sleb128 -20
 4541 09bd 0C       		.uleb128 0xc
 4542 09be 05030000 		.4byte	.LASF106
 4543 09c2 01       		.byte	0x1
 4544 09c3 0B0C     		.2byte	0xc0b
 4545 09c5 83000000 		.4byte	0x83
 4546 09c9 02       		.uleb128 0x2
 4547 09ca 91       		.byte	0x91
 4548 09cb 74       		.sleb128 -12
 4549 09cc 00       		.byte	0
 4550 09cd 0A       		.uleb128 0xa
 4551 09ce 5E040000 		.4byte	.LASF109
 4552 09d2 01       		.byte	0x1
 4553 09d3 260C     		.2byte	0xc26
 4554 09d5 00000000 		.4byte	.LFB56
 4555 09d9 A0000000 		.4byte	.LFE56-.LFB56
 4556 09dd 01       		.uleb128 0x1
 4557 09de 9C       		.byte	0x9c
 4558 09df 110A0000 		.4byte	0xa11
 4559 09e3 0B       		.uleb128 0xb
 4560 09e4 B9000000 		.4byte	.LASF110
 4561 09e8 01       		.byte	0x1
 4562 09e9 260C     		.2byte	0xc26
 4563 09eb 83000000 		.4byte	0x83
 4564 09ef 02       		.uleb128 0x2
 4565 09f0 91       		.byte	0x91
 4566 09f1 6C       		.sleb128 -20
 4567 09f2 0B       		.uleb128 0xb
 4568 09f3 4E040000 		.4byte	.LASF105
 4569 09f7 01       		.byte	0x1
 4570 09f8 260C     		.2byte	0xc26
 4571 09fa 83000000 		.4byte	0x83
 4572 09fe 02       		.uleb128 0x2
 4573 09ff 91       		.byte	0x91
 4574 0a00 68       		.sleb128 -24
 4575 0a01 0C       		.uleb128 0xc
 4576 0a02 05030000 		.4byte	.LASF106
 4577 0a06 01       		.byte	0x1
 4578 0a07 280C     		.2byte	0xc28
 4579 0a09 83000000 		.4byte	0x83
 4580 0a0d 02       		.uleb128 0x2
 4581 0a0e 91       		.byte	0x91
 4582 0a0f 74       		.sleb128 -12
ARM GAS  C:\Users\PC\AppData\Local\Temp\ccW101Aa.s 			page 137


 4583 0a10 00       		.byte	0
 4584 0a11 15       		.uleb128 0x15
 4585 0a12 F3000000 		.4byte	0xf3
 4586 0a16 210A0000 		.4byte	0xa21
 4587 0a1a 16       		.uleb128 0x16
 4588 0a1b EC000000 		.4byte	0xec
 4589 0a1f 04       		.byte	0x4
 4590 0a20 00       		.byte	0
 4591 0a21 17       		.uleb128 0x17
 4592 0a22 2E060000 		.4byte	.LASF111
 4593 0a26 01       		.byte	0x1
 4594 0a27 22       		.byte	0x22
 4595 0a28 110A0000 		.4byte	0xa11
 4596 0a2c 05       		.uleb128 0x5
 4597 0a2d 03       		.byte	0x3
 4598 0a2e 00000000 		.4byte	CySysTickCallbacks
 4599 0a32 18       		.uleb128 0x18
 4600 0a33 E9040000 		.4byte	.LASF112
 4601 0a37 01       		.byte	0x1
 4602 0a38 1B       		.byte	0x1b
 4603 0a39 83000000 		.4byte	0x83
 4604 0a3d 05       		.uleb128 0x5
 4605 0a3e 03       		.byte	0x3
 4606 0a3f 00000000 		.4byte	cydelayFreqHz
 4607 0a43 18       		.uleb128 0x18
 4608 0a44 7E010000 		.4byte	.LASF113
 4609 0a48 01       		.byte	0x1
 4610 0a49 1C       		.byte	0x1c
 4611 0a4a 83000000 		.4byte	0x83
 4612 0a4e 05       		.uleb128 0x5
 4613 0a4f 03       		.byte	0x3
 4614 0a50 00000000 		.4byte	cydelayFreqKhz
 4615 0a54 18       		.uleb128 0x18
 4616 0a55 A2060000 		.4byte	.LASF114
 4617 0a59 01       		.byte	0x1
 4618 0a5a 1D       		.byte	0x1d
 4619 0a5b 6B000000 		.4byte	0x6b
 4620 0a5f 05       		.uleb128 0x5
 4621 0a60 03       		.byte	0x3
 4622 0a61 00000000 		.4byte	cydelayFreqMhz
 4623 0a65 18       		.uleb128 0x18
 4624 0a66 03020000 		.4byte	.LASF115
 4625 0a6a 01       		.byte	0x1
 4626 0a6b 1E       		.byte	0x1e
 4627 0a6c 83000000 		.4byte	0x83
 4628 0a70 05       		.uleb128 0x5
 4629 0a71 03       		.byte	0x3
 4630 0a72 00000000 		.4byte	cydelay32kMs
 4631 0a76 18       		.uleb128 0x18
 4632 0a77 9B000000 		.4byte	.LASF116
 4633 0a7b 01       		.byte	0x1
 4634 0a7c 36       		.byte	0x36
 4635 0a7d 83000000 		.4byte	0x83
 4636 0a81 05       		.uleb128 0x5
 4637 0a82 03       		.byte	0x3
 4638 0a83 00000000 		.4byte	CySysTickInitVar
 4639 0a87 15       		.uleb128 0x15
ARM GAS  C:\Users\PC\AppData\Local\Temp\ccW101Aa.s 			page 138


 4640 0a88 970A0000 		.4byte	0xa97
 4641 0a8c 970A0000 		.4byte	0xa97
 4642 0a90 16       		.uleb128 0x16
 4643 0a91 EC000000 		.4byte	0xec
 4644 0a95 2D       		.byte	0x2d
 4645 0a96 00       		.byte	0
 4646 0a97 19       		.uleb128 0x19
 4647 0a98 6B000000 		.4byte	0x6b
 4648 0a9c 18       		.uleb128 0x18
 4649 0a9d C6040000 		.4byte	.LASF117
 4650 0aa1 01       		.byte	0x1
 4651 0aa2 3B       		.byte	0x3b
 4652 0aa3 AD0A0000 		.4byte	0xaad
 4653 0aa7 05       		.uleb128 0x5
 4654 0aa8 03       		.byte	0x3
 4655 0aa9 00000000 		.4byte	cyImoFreqMhz2Reg
 4656 0aad 19       		.uleb128 0x19
 4657 0aae 870A0000 		.4byte	0xa87
 4658 0ab2 18       		.uleb128 0x18
 4659 0ab3 40000000 		.4byte	.LASF118
 4660 0ab7 01       		.byte	0x1
 4661 0ab8 5B       		.byte	0x5b
 4662 0ab9 83000000 		.4byte	0x83
 4663 0abd 05       		.uleb128 0x5
 4664 0abe 03       		.byte	0x3
 4665 0abf 00000000 		.4byte	CySysClkPumpConfig
 4666 0ac3 00       		.byte	0
 4667              		.section	.debug_abbrev,"",%progbits
 4668              	.Ldebug_abbrev0:
 4669 0000 01       		.uleb128 0x1
 4670 0001 11       		.uleb128 0x11
 4671 0002 01       		.byte	0x1
 4672 0003 25       		.uleb128 0x25
 4673 0004 0E       		.uleb128 0xe
 4674 0005 13       		.uleb128 0x13
 4675 0006 0B       		.uleb128 0xb
 4676 0007 03       		.uleb128 0x3
 4677 0008 0E       		.uleb128 0xe
 4678 0009 1B       		.uleb128 0x1b
 4679 000a 0E       		.uleb128 0xe
 4680 000b 55       		.uleb128 0x55
 4681 000c 17       		.uleb128 0x17
 4682 000d 11       		.uleb128 0x11
 4683 000e 01       		.uleb128 0x1
 4684 000f 10       		.uleb128 0x10
 4685 0010 17       		.uleb128 0x17
 4686 0011 00       		.byte	0
 4687 0012 00       		.byte	0
 4688 0013 02       		.uleb128 0x2
 4689 0014 24       		.uleb128 0x24
 4690 0015 00       		.byte	0
 4691 0016 0B       		.uleb128 0xb
 4692 0017 0B       		.uleb128 0xb
 4693 0018 3E       		.uleb128 0x3e
 4694 0019 0B       		.uleb128 0xb
 4695 001a 03       		.uleb128 0x3
 4696 001b 0E       		.uleb128 0xe
ARM GAS  C:\Users\PC\AppData\Local\Temp\ccW101Aa.s 			page 139


 4697 001c 00       		.byte	0
 4698 001d 00       		.byte	0
 4699 001e 03       		.uleb128 0x3
 4700 001f 24       		.uleb128 0x24
 4701 0020 00       		.byte	0
 4702 0021 0B       		.uleb128 0xb
 4703 0022 0B       		.uleb128 0xb
 4704 0023 3E       		.uleb128 0x3e
 4705 0024 0B       		.uleb128 0xb
 4706 0025 03       		.uleb128 0x3
 4707 0026 08       		.uleb128 0x8
 4708 0027 00       		.byte	0
 4709 0028 00       		.byte	0
 4710 0029 04       		.uleb128 0x4
 4711 002a 16       		.uleb128 0x16
 4712 002b 00       		.byte	0
 4713 002c 03       		.uleb128 0x3
 4714 002d 0E       		.uleb128 0xe
 4715 002e 3A       		.uleb128 0x3a
 4716 002f 0B       		.uleb128 0xb
 4717 0030 3B       		.uleb128 0x3b
 4718 0031 05       		.uleb128 0x5
 4719 0032 49       		.uleb128 0x49
 4720 0033 13       		.uleb128 0x13
 4721 0034 00       		.byte	0
 4722 0035 00       		.byte	0
 4723 0036 05       		.uleb128 0x5
 4724 0037 35       		.uleb128 0x35
 4725 0038 00       		.byte	0
 4726 0039 49       		.uleb128 0x49
 4727 003a 13       		.uleb128 0x13
 4728 003b 00       		.byte	0
 4729 003c 00       		.byte	0
 4730 003d 06       		.uleb128 0x6
 4731 003e 0F       		.uleb128 0xf
 4732 003f 00       		.byte	0
 4733 0040 0B       		.uleb128 0xb
 4734 0041 0B       		.uleb128 0xb
 4735 0042 49       		.uleb128 0x49
 4736 0043 13       		.uleb128 0x13
 4737 0044 00       		.byte	0
 4738 0045 00       		.byte	0
 4739 0046 07       		.uleb128 0x7
 4740 0047 15       		.uleb128 0x15
 4741 0048 00       		.byte	0
 4742 0049 27       		.uleb128 0x27
 4743 004a 19       		.uleb128 0x19
 4744 004b 00       		.byte	0
 4745 004c 00       		.byte	0
 4746 004d 08       		.uleb128 0x8
 4747 004e 16       		.uleb128 0x16
 4748 004f 00       		.byte	0
 4749 0050 03       		.uleb128 0x3
 4750 0051 0E       		.uleb128 0xe
 4751 0052 3A       		.uleb128 0x3a
 4752 0053 0B       		.uleb128 0xb
 4753 0054 3B       		.uleb128 0x3b
ARM GAS  C:\Users\PC\AppData\Local\Temp\ccW101Aa.s 			page 140


 4754 0055 0B       		.uleb128 0xb
 4755 0056 49       		.uleb128 0x49
 4756 0057 13       		.uleb128 0x13
 4757 0058 00       		.byte	0
 4758 0059 00       		.byte	0
 4759 005a 09       		.uleb128 0x9
 4760 005b 2E       		.uleb128 0x2e
 4761 005c 00       		.byte	0
 4762 005d 3F       		.uleb128 0x3f
 4763 005e 19       		.uleb128 0x19
 4764 005f 03       		.uleb128 0x3
 4765 0060 0E       		.uleb128 0xe
 4766 0061 3A       		.uleb128 0x3a
 4767 0062 0B       		.uleb128 0xb
 4768 0063 3B       		.uleb128 0x3b
 4769 0064 0B       		.uleb128 0xb
 4770 0065 27       		.uleb128 0x27
 4771 0066 19       		.uleb128 0x19
 4772 0067 11       		.uleb128 0x11
 4773 0068 01       		.uleb128 0x1
 4774 0069 12       		.uleb128 0x12
 4775 006a 06       		.uleb128 0x6
 4776 006b 40       		.uleb128 0x40
 4777 006c 18       		.uleb128 0x18
 4778 006d 9742     		.uleb128 0x2117
 4779 006f 19       		.uleb128 0x19
 4780 0070 00       		.byte	0
 4781 0071 00       		.byte	0
 4782 0072 0A       		.uleb128 0xa
 4783 0073 2E       		.uleb128 0x2e
 4784 0074 01       		.byte	0x1
 4785 0075 3F       		.uleb128 0x3f
 4786 0076 19       		.uleb128 0x19
 4787 0077 03       		.uleb128 0x3
 4788 0078 0E       		.uleb128 0xe
 4789 0079 3A       		.uleb128 0x3a
 4790 007a 0B       		.uleb128 0xb
 4791 007b 3B       		.uleb128 0x3b
 4792 007c 05       		.uleb128 0x5
 4793 007d 27       		.uleb128 0x27
 4794 007e 19       		.uleb128 0x19
 4795 007f 11       		.uleb128 0x11
 4796 0080 01       		.uleb128 0x1
 4797 0081 12       		.uleb128 0x12
 4798 0082 06       		.uleb128 0x6
 4799 0083 40       		.uleb128 0x40
 4800 0084 18       		.uleb128 0x18
 4801 0085 9642     		.uleb128 0x2116
 4802 0087 19       		.uleb128 0x19
 4803 0088 01       		.uleb128 0x1
 4804 0089 13       		.uleb128 0x13
 4805 008a 00       		.byte	0
 4806 008b 00       		.byte	0
 4807 008c 0B       		.uleb128 0xb
 4808 008d 05       		.uleb128 0x5
 4809 008e 00       		.byte	0
 4810 008f 03       		.uleb128 0x3
ARM GAS  C:\Users\PC\AppData\Local\Temp\ccW101Aa.s 			page 141


 4811 0090 0E       		.uleb128 0xe
 4812 0091 3A       		.uleb128 0x3a
 4813 0092 0B       		.uleb128 0xb
 4814 0093 3B       		.uleb128 0x3b
 4815 0094 05       		.uleb128 0x5
 4816 0095 49       		.uleb128 0x49
 4817 0096 13       		.uleb128 0x13
 4818 0097 02       		.uleb128 0x2
 4819 0098 18       		.uleb128 0x18
 4820 0099 00       		.byte	0
 4821 009a 00       		.byte	0
 4822 009b 0C       		.uleb128 0xc
 4823 009c 34       		.uleb128 0x34
 4824 009d 00       		.byte	0
 4825 009e 03       		.uleb128 0x3
 4826 009f 0E       		.uleb128 0xe
 4827 00a0 3A       		.uleb128 0x3a
 4828 00a1 0B       		.uleb128 0xb
 4829 00a2 3B       		.uleb128 0x3b
 4830 00a3 05       		.uleb128 0x5
 4831 00a4 49       		.uleb128 0x49
 4832 00a5 13       		.uleb128 0x13
 4833 00a6 02       		.uleb128 0x2
 4834 00a7 18       		.uleb128 0x18
 4835 00a8 00       		.byte	0
 4836 00a9 00       		.byte	0
 4837 00aa 0D       		.uleb128 0xd
 4838 00ab 2E       		.uleb128 0x2e
 4839 00ac 01       		.byte	0x1
 4840 00ad 3F       		.uleb128 0x3f
 4841 00ae 19       		.uleb128 0x19
 4842 00af 03       		.uleb128 0x3
 4843 00b0 0E       		.uleb128 0xe
 4844 00b1 3A       		.uleb128 0x3a
 4845 00b2 0B       		.uleb128 0xb
 4846 00b3 3B       		.uleb128 0x3b
 4847 00b4 05       		.uleb128 0x5
 4848 00b5 27       		.uleb128 0x27
 4849 00b6 19       		.uleb128 0x19
 4850 00b7 11       		.uleb128 0x11
 4851 00b8 01       		.uleb128 0x1
 4852 00b9 12       		.uleb128 0x12
 4853 00ba 06       		.uleb128 0x6
 4854 00bb 40       		.uleb128 0x40
 4855 00bc 18       		.uleb128 0x18
 4856 00bd 9742     		.uleb128 0x2117
 4857 00bf 19       		.uleb128 0x19
 4858 00c0 01       		.uleb128 0x1
 4859 00c1 13       		.uleb128 0x13
 4860 00c2 00       		.byte	0
 4861 00c3 00       		.byte	0
 4862 00c4 0E       		.uleb128 0xe
 4863 00c5 2E       		.uleb128 0x2e
 4864 00c6 01       		.byte	0x1
 4865 00c7 3F       		.uleb128 0x3f
 4866 00c8 19       		.uleb128 0x19
 4867 00c9 03       		.uleb128 0x3
ARM GAS  C:\Users\PC\AppData\Local\Temp\ccW101Aa.s 			page 142


 4868 00ca 0E       		.uleb128 0xe
 4869 00cb 3A       		.uleb128 0x3a
 4870 00cc 0B       		.uleb128 0xb
 4871 00cd 3B       		.uleb128 0x3b
 4872 00ce 05       		.uleb128 0x5
 4873 00cf 27       		.uleb128 0x27
 4874 00d0 19       		.uleb128 0x19
 4875 00d1 49       		.uleb128 0x49
 4876 00d2 13       		.uleb128 0x13
 4877 00d3 11       		.uleb128 0x11
 4878 00d4 01       		.uleb128 0x1
 4879 00d5 12       		.uleb128 0x12
 4880 00d6 06       		.uleb128 0x6
 4881 00d7 40       		.uleb128 0x40
 4882 00d8 18       		.uleb128 0x18
 4883 00d9 9642     		.uleb128 0x2116
 4884 00db 19       		.uleb128 0x19
 4885 00dc 01       		.uleb128 0x1
 4886 00dd 13       		.uleb128 0x13
 4887 00de 00       		.byte	0
 4888 00df 00       		.byte	0
 4889 00e0 0F       		.uleb128 0xf
 4890 00e1 2E       		.uleb128 0x2e
 4891 00e2 00       		.byte	0
 4892 00e3 3F       		.uleb128 0x3f
 4893 00e4 19       		.uleb128 0x19
 4894 00e5 03       		.uleb128 0x3
 4895 00e6 0E       		.uleb128 0xe
 4896 00e7 3A       		.uleb128 0x3a
 4897 00e8 0B       		.uleb128 0xb
 4898 00e9 3B       		.uleb128 0x3b
 4899 00ea 05       		.uleb128 0x5
 4900 00eb 27       		.uleb128 0x27
 4901 00ec 19       		.uleb128 0x19
 4902 00ed 11       		.uleb128 0x11
 4903 00ee 01       		.uleb128 0x1
 4904 00ef 12       		.uleb128 0x12
 4905 00f0 06       		.uleb128 0x6
 4906 00f1 40       		.uleb128 0x40
 4907 00f2 18       		.uleb128 0x18
 4908 00f3 9742     		.uleb128 0x2117
 4909 00f5 19       		.uleb128 0x19
 4910 00f6 00       		.byte	0
 4911 00f7 00       		.byte	0
 4912 00f8 10       		.uleb128 0x10
 4913 00f9 2E       		.uleb128 0x2e
 4914 00fa 01       		.byte	0x1
 4915 00fb 3F       		.uleb128 0x3f
 4916 00fc 19       		.uleb128 0x19
 4917 00fd 03       		.uleb128 0x3
 4918 00fe 0E       		.uleb128 0xe
 4919 00ff 3A       		.uleb128 0x3a
 4920 0100 0B       		.uleb128 0xb
 4921 0101 3B       		.uleb128 0x3b
 4922 0102 05       		.uleb128 0x5
 4923 0103 27       		.uleb128 0x27
 4924 0104 19       		.uleb128 0x19
ARM GAS  C:\Users\PC\AppData\Local\Temp\ccW101Aa.s 			page 143


 4925 0105 49       		.uleb128 0x49
 4926 0106 13       		.uleb128 0x13
 4927 0107 11       		.uleb128 0x11
 4928 0108 01       		.uleb128 0x1
 4929 0109 12       		.uleb128 0x12
 4930 010a 06       		.uleb128 0x6
 4931 010b 40       		.uleb128 0x40
 4932 010c 18       		.uleb128 0x18
 4933 010d 9742     		.uleb128 0x2117
 4934 010f 19       		.uleb128 0x19
 4935 0110 01       		.uleb128 0x1
 4936 0111 13       		.uleb128 0x13
 4937 0112 00       		.byte	0
 4938 0113 00       		.byte	0
 4939 0114 11       		.uleb128 0x11
 4940 0115 2E       		.uleb128 0x2e
 4941 0116 00       		.byte	0
 4942 0117 3F       		.uleb128 0x3f
 4943 0118 19       		.uleb128 0x19
 4944 0119 03       		.uleb128 0x3
 4945 011a 0E       		.uleb128 0xe
 4946 011b 3A       		.uleb128 0x3a
 4947 011c 0B       		.uleb128 0xb
 4948 011d 3B       		.uleb128 0x3b
 4949 011e 05       		.uleb128 0x5
 4950 011f 27       		.uleb128 0x27
 4951 0120 19       		.uleb128 0x19
 4952 0121 49       		.uleb128 0x49
 4953 0122 13       		.uleb128 0x13
 4954 0123 11       		.uleb128 0x11
 4955 0124 01       		.uleb128 0x1
 4956 0125 12       		.uleb128 0x12
 4957 0126 06       		.uleb128 0x6
 4958 0127 40       		.uleb128 0x40
 4959 0128 18       		.uleb128 0x18
 4960 0129 9742     		.uleb128 0x2117
 4961 012b 19       		.uleb128 0x19
 4962 012c 00       		.byte	0
 4963 012d 00       		.byte	0
 4964 012e 12       		.uleb128 0x12
 4965 012f 2E       		.uleb128 0x2e
 4966 0130 00       		.byte	0
 4967 0131 3F       		.uleb128 0x3f
 4968 0132 19       		.uleb128 0x19
 4969 0133 03       		.uleb128 0x3
 4970 0134 0E       		.uleb128 0xe
 4971 0135 3A       		.uleb128 0x3a
 4972 0136 0B       		.uleb128 0xb
 4973 0137 3B       		.uleb128 0x3b
 4974 0138 05       		.uleb128 0x5
 4975 0139 27       		.uleb128 0x27
 4976 013a 19       		.uleb128 0x19
 4977 013b 11       		.uleb128 0x11
 4978 013c 01       		.uleb128 0x1
 4979 013d 12       		.uleb128 0x12
 4980 013e 06       		.uleb128 0x6
 4981 013f 40       		.uleb128 0x40
ARM GAS  C:\Users\PC\AppData\Local\Temp\ccW101Aa.s 			page 144


 4982 0140 18       		.uleb128 0x18
 4983 0141 9642     		.uleb128 0x2116
 4984 0143 19       		.uleb128 0x19
 4985 0144 00       		.byte	0
 4986 0145 00       		.byte	0
 4987 0146 13       		.uleb128 0x13
 4988 0147 34       		.uleb128 0x34
 4989 0148 00       		.byte	0
 4990 0149 03       		.uleb128 0x3
 4991 014a 08       		.uleb128 0x8
 4992 014b 3A       		.uleb128 0x3a
 4993 014c 0B       		.uleb128 0xb
 4994 014d 3B       		.uleb128 0x3b
 4995 014e 05       		.uleb128 0x5
 4996 014f 49       		.uleb128 0x49
 4997 0150 13       		.uleb128 0x13
 4998 0151 02       		.uleb128 0x2
 4999 0152 18       		.uleb128 0x18
 5000 0153 00       		.byte	0
 5001 0154 00       		.byte	0
 5002 0155 14       		.uleb128 0x14
 5003 0156 2E       		.uleb128 0x2e
 5004 0157 01       		.byte	0x1
 5005 0158 03       		.uleb128 0x3
 5006 0159 0E       		.uleb128 0xe
 5007 015a 3A       		.uleb128 0x3a
 5008 015b 0B       		.uleb128 0xb
 5009 015c 3B       		.uleb128 0x3b
 5010 015d 05       		.uleb128 0x5
 5011 015e 27       		.uleb128 0x27
 5012 015f 19       		.uleb128 0x19
 5013 0160 11       		.uleb128 0x11
 5014 0161 01       		.uleb128 0x1
 5015 0162 12       		.uleb128 0x12
 5016 0163 06       		.uleb128 0x6
 5017 0164 40       		.uleb128 0x40
 5018 0165 18       		.uleb128 0x18
 5019 0166 9642     		.uleb128 0x2116
 5020 0168 19       		.uleb128 0x19
 5021 0169 01       		.uleb128 0x1
 5022 016a 13       		.uleb128 0x13
 5023 016b 00       		.byte	0
 5024 016c 00       		.byte	0
 5025 016d 15       		.uleb128 0x15
 5026 016e 01       		.uleb128 0x1
 5027 016f 01       		.byte	0x1
 5028 0170 49       		.uleb128 0x49
 5029 0171 13       		.uleb128 0x13
 5030 0172 01       		.uleb128 0x1
 5031 0173 13       		.uleb128 0x13
 5032 0174 00       		.byte	0
 5033 0175 00       		.byte	0
 5034 0176 16       		.uleb128 0x16
 5035 0177 21       		.uleb128 0x21
 5036 0178 00       		.byte	0
 5037 0179 49       		.uleb128 0x49
 5038 017a 13       		.uleb128 0x13
ARM GAS  C:\Users\PC\AppData\Local\Temp\ccW101Aa.s 			page 145


 5039 017b 2F       		.uleb128 0x2f
 5040 017c 0B       		.uleb128 0xb
 5041 017d 00       		.byte	0
 5042 017e 00       		.byte	0
 5043 017f 17       		.uleb128 0x17
 5044 0180 34       		.uleb128 0x34
 5045 0181 00       		.byte	0
 5046 0182 03       		.uleb128 0x3
 5047 0183 0E       		.uleb128 0xe
 5048 0184 3A       		.uleb128 0x3a
 5049 0185 0B       		.uleb128 0xb
 5050 0186 3B       		.uleb128 0x3b
 5051 0187 0B       		.uleb128 0xb
 5052 0188 49       		.uleb128 0x49
 5053 0189 13       		.uleb128 0x13
 5054 018a 02       		.uleb128 0x2
 5055 018b 18       		.uleb128 0x18
 5056 018c 00       		.byte	0
 5057 018d 00       		.byte	0
 5058 018e 18       		.uleb128 0x18
 5059 018f 34       		.uleb128 0x34
 5060 0190 00       		.byte	0
 5061 0191 03       		.uleb128 0x3
 5062 0192 0E       		.uleb128 0xe
 5063 0193 3A       		.uleb128 0x3a
 5064 0194 0B       		.uleb128 0xb
 5065 0195 3B       		.uleb128 0x3b
 5066 0196 0B       		.uleb128 0xb
 5067 0197 49       		.uleb128 0x49
 5068 0198 13       		.uleb128 0x13
 5069 0199 3F       		.uleb128 0x3f
 5070 019a 19       		.uleb128 0x19
 5071 019b 02       		.uleb128 0x2
 5072 019c 18       		.uleb128 0x18
 5073 019d 00       		.byte	0
 5074 019e 00       		.byte	0
 5075 019f 19       		.uleb128 0x19
 5076 01a0 26       		.uleb128 0x26
 5077 01a1 00       		.byte	0
 5078 01a2 49       		.uleb128 0x49
 5079 01a3 13       		.uleb128 0x13
 5080 01a4 00       		.byte	0
 5081 01a5 00       		.byte	0
 5082 01a6 00       		.byte	0
 5083              		.section	.debug_aranges,"",%progbits
 5084 0000 CC010000 		.4byte	0x1cc
 5085 0004 0200     		.2byte	0x2
 5086 0006 00000000 		.4byte	.Ldebug_info0
 5087 000a 04       		.byte	0x4
 5088 000b 00       		.byte	0
 5089 000c 0000     		.2byte	0
 5090 000e 0000     		.2byte	0
 5091 0010 00000000 		.4byte	.LFB2
 5092 0014 1C000000 		.4byte	.LFE2-.LFB2
 5093 0018 00000000 		.4byte	.LFB3
 5094 001c 1C000000 		.4byte	.LFE3-.LFB3
 5095 0020 00000000 		.4byte	.LFB4
ARM GAS  C:\Users\PC\AppData\Local\Temp\ccW101Aa.s 			page 146


 5096 0024 48000000 		.4byte	.LFE4-.LFB4
 5097 0028 00000000 		.4byte	.LFB5
 5098 002c 50000000 		.4byte	.LFE5-.LFB5
 5099 0030 00000000 		.4byte	.LFB6
 5100 0034 34000000 		.4byte	.LFE6-.LFB6
 5101 0038 00000000 		.4byte	.LFB7
 5102 003c 48000000 		.4byte	.LFE7-.LFB7
 5103 0040 00000000 		.4byte	.LFB8
 5104 0044 EC010000 		.4byte	.LFE8-.LFB8
 5105 0048 00000000 		.4byte	.LFB9
 5106 004c 74000000 		.4byte	.LFE9-.LFB9
 5107 0050 00000000 		.4byte	.LFB10
 5108 0054 30000000 		.4byte	.LFE10-.LFB10
 5109 0058 00000000 		.4byte	.LFB11
 5110 005c 20000000 		.4byte	.LFE11-.LFB11
 5111 0060 00000000 		.4byte	.LFB12
 5112 0064 58000000 		.4byte	.LFE12-.LFB12
 5113 0068 00000000 		.4byte	.LFB13
 5114 006c 64000000 		.4byte	.LFE13-.LFB13
 5115 0070 00000000 		.4byte	.LFB14
 5116 0074 2C000000 		.4byte	.LFE14-.LFB14
 5117 0078 00000000 		.4byte	.LFB15
 5118 007c 18000000 		.4byte	.LFE15-.LFB15
 5119 0080 00000000 		.4byte	.LFB16
 5120 0084 14000000 		.4byte	.LFE16-.LFB16
 5121 0088 00000000 		.4byte	.LFB17
 5122 008c 30000000 		.4byte	.LFE17-.LFB17
 5123 0090 00000000 		.4byte	.LFB18
 5124 0094 24000000 		.4byte	.LFE18-.LFB18
 5125 0098 00000000 		.4byte	.LFB19
 5126 009c 1C000000 		.4byte	.LFE19-.LFB19
 5127 00a0 00000000 		.4byte	.LFB20
 5128 00a4 48000000 		.4byte	.LFE20-.LFB20
 5129 00a8 00000000 		.4byte	.LFB21
 5130 00ac 34000000 		.4byte	.LFE21-.LFB21
 5131 00b0 00000000 		.4byte	.LFB22
 5132 00b4 4C000000 		.4byte	.LFE22-.LFB22
 5133 00b8 00000000 		.4byte	.LFB23
 5134 00bc 36000000 		.4byte	.LFE23-.LFB23
 5135 00c0 00000000 		.4byte	.LFB24
 5136 00c4 A8000000 		.4byte	.LFE24-.LFB24
 5137 00c8 00000000 		.4byte	.LFB25
 5138 00cc 58000000 		.4byte	.LFE25-.LFB25
 5139 00d0 00000000 		.4byte	.LFB26
 5140 00d4 2C000000 		.4byte	.LFE26-.LFB26
 5141 00d8 00000000 		.4byte	.LFB27
 5142 00dc 30000000 		.4byte	.LFE27-.LFB27
 5143 00e0 00000000 		.4byte	.LFB28
 5144 00e4 2C000000 		.4byte	.LFE28-.LFB28
 5145 00e8 00000000 		.4byte	.LFB29
 5146 00ec 2C000000 		.4byte	.LFE29-.LFB29
 5147 00f0 00000000 		.4byte	.LFB30
 5148 00f4 2C000000 		.4byte	.LFE30-.LFB30
 5149 00f8 00000000 		.4byte	.LFB31
 5150 00fc 16000000 		.4byte	.LFE31-.LFB31
 5151 0100 00000000 		.4byte	.LFB32
 5152 0104 24000000 		.4byte	.LFE32-.LFB32
ARM GAS  C:\Users\PC\AppData\Local\Temp\ccW101Aa.s 			page 147


 5153 0108 00000000 		.4byte	.LFB33
 5154 010c 4C000000 		.4byte	.LFE33-.LFB33
 5155 0110 00000000 		.4byte	.LFB34
 5156 0114 28000000 		.4byte	.LFE34-.LFB34
 5157 0118 00000000 		.4byte	.LFB35
 5158 011c 84000000 		.4byte	.LFE35-.LFB35
 5159 0120 00000000 		.4byte	.LFB36
 5160 0124 24000000 		.4byte	.LFE36-.LFB36
 5161 0128 00000000 		.4byte	.LFB37
 5162 012c 68000000 		.4byte	.LFE37-.LFB37
 5163 0130 00000000 		.4byte	.LFB38
 5164 0134 20000000 		.4byte	.LFE38-.LFB38
 5165 0138 00000000 		.4byte	.LFB39
 5166 013c 1C000000 		.4byte	.LFE39-.LFB39
 5167 0140 00000000 		.4byte	.LFB40
 5168 0144 1C000000 		.4byte	.LFE40-.LFB40
 5169 0148 00000000 		.4byte	.LFB41
 5170 014c 1C000000 		.4byte	.LFE41-.LFB41
 5171 0150 00000000 		.4byte	.LFB42
 5172 0154 20000000 		.4byte	.LFE42-.LFB42
 5173 0158 00000000 		.4byte	.LFB43
 5174 015c 18000000 		.4byte	.LFE43-.LFB43
 5175 0160 00000000 		.4byte	.LFB44
 5176 0164 18000000 		.4byte	.LFE44-.LFB44
 5177 0168 00000000 		.4byte	.LFB45
 5178 016c 34000000 		.4byte	.LFE45-.LFB45
 5179 0170 00000000 		.4byte	.LFB46
 5180 0174 18000000 		.4byte	.LFE46-.LFB46
 5181 0178 00000000 		.4byte	.LFB47
 5182 017c 18000000 		.4byte	.LFE47-.LFB47
 5183 0180 00000000 		.4byte	.LFB48
 5184 0184 14000000 		.4byte	.LFE48-.LFB48
 5185 0188 00000000 		.4byte	.LFB49
 5186 018c 2C000000 		.4byte	.LFE49-.LFB49
 5187 0190 00000000 		.4byte	.LFB50
 5188 0194 1C000000 		.4byte	.LFE50-.LFB50
 5189 0198 00000000 		.4byte	.LFB51
 5190 019c 44000000 		.4byte	.LFE51-.LFB51
 5191 01a0 00000000 		.4byte	.LFB52
 5192 01a4 C0000000 		.4byte	.LFE52-.LFB52
 5193 01a8 00000000 		.4byte	.LFB53
 5194 01ac 38000000 		.4byte	.LFE53-.LFB53
 5195 01b0 00000000 		.4byte	.LFB54
 5196 01b4 38000000 		.4byte	.LFE54-.LFB54
 5197 01b8 00000000 		.4byte	.LFB55
 5198 01bc 38000000 		.4byte	.LFE55-.LFB55
 5199 01c0 00000000 		.4byte	.LFB56
 5200 01c4 A0000000 		.4byte	.LFE56-.LFB56
 5201 01c8 00000000 		.4byte	0
 5202 01cc 00000000 		.4byte	0
 5203              		.section	.debug_ranges,"",%progbits
 5204              	.Ldebug_ranges0:
 5205 0000 00000000 		.4byte	.LFB2
 5206 0004 1C000000 		.4byte	.LFE2
 5207 0008 00000000 		.4byte	.LFB3
 5208 000c 1C000000 		.4byte	.LFE3
 5209 0010 00000000 		.4byte	.LFB4
ARM GAS  C:\Users\PC\AppData\Local\Temp\ccW101Aa.s 			page 148


 5210 0014 48000000 		.4byte	.LFE4
 5211 0018 00000000 		.4byte	.LFB5
 5212 001c 50000000 		.4byte	.LFE5
 5213 0020 00000000 		.4byte	.LFB6
 5214 0024 34000000 		.4byte	.LFE6
 5215 0028 00000000 		.4byte	.LFB7
 5216 002c 48000000 		.4byte	.LFE7
 5217 0030 00000000 		.4byte	.LFB8
 5218 0034 EC010000 		.4byte	.LFE8
 5219 0038 00000000 		.4byte	.LFB9
 5220 003c 74000000 		.4byte	.LFE9
 5221 0040 00000000 		.4byte	.LFB10
 5222 0044 30000000 		.4byte	.LFE10
 5223 0048 00000000 		.4byte	.LFB11
 5224 004c 20000000 		.4byte	.LFE11
 5225 0050 00000000 		.4byte	.LFB12
 5226 0054 58000000 		.4byte	.LFE12
 5227 0058 00000000 		.4byte	.LFB13
 5228 005c 64000000 		.4byte	.LFE13
 5229 0060 00000000 		.4byte	.LFB14
 5230 0064 2C000000 		.4byte	.LFE14
 5231 0068 00000000 		.4byte	.LFB15
 5232 006c 18000000 		.4byte	.LFE15
 5233 0070 00000000 		.4byte	.LFB16
 5234 0074 14000000 		.4byte	.LFE16
 5235 0078 00000000 		.4byte	.LFB17
 5236 007c 30000000 		.4byte	.LFE17
 5237 0080 00000000 		.4byte	.LFB18
 5238 0084 24000000 		.4byte	.LFE18
 5239 0088 00000000 		.4byte	.LFB19
 5240 008c 1C000000 		.4byte	.LFE19
 5241 0090 00000000 		.4byte	.LFB20
 5242 0094 48000000 		.4byte	.LFE20
 5243 0098 00000000 		.4byte	.LFB21
 5244 009c 34000000 		.4byte	.LFE21
 5245 00a0 00000000 		.4byte	.LFB22
 5246 00a4 4C000000 		.4byte	.LFE22
 5247 00a8 00000000 		.4byte	.LFB23
 5248 00ac 36000000 		.4byte	.LFE23
 5249 00b0 00000000 		.4byte	.LFB24
 5250 00b4 A8000000 		.4byte	.LFE24
 5251 00b8 00000000 		.4byte	.LFB25
 5252 00bc 58000000 		.4byte	.LFE25
 5253 00c0 00000000 		.4byte	.LFB26
 5254 00c4 2C000000 		.4byte	.LFE26
 5255 00c8 00000000 		.4byte	.LFB27
 5256 00cc 30000000 		.4byte	.LFE27
 5257 00d0 00000000 		.4byte	.LFB28
 5258 00d4 2C000000 		.4byte	.LFE28
 5259 00d8 00000000 		.4byte	.LFB29
 5260 00dc 2C000000 		.4byte	.LFE29
 5261 00e0 00000000 		.4byte	.LFB30
 5262 00e4 2C000000 		.4byte	.LFE30
 5263 00e8 00000000 		.4byte	.LFB31
 5264 00ec 16000000 		.4byte	.LFE31
 5265 00f0 00000000 		.4byte	.LFB32
 5266 00f4 24000000 		.4byte	.LFE32
ARM GAS  C:\Users\PC\AppData\Local\Temp\ccW101Aa.s 			page 149


 5267 00f8 00000000 		.4byte	.LFB33
 5268 00fc 4C000000 		.4byte	.LFE33
 5269 0100 00000000 		.4byte	.LFB34
 5270 0104 28000000 		.4byte	.LFE34
 5271 0108 00000000 		.4byte	.LFB35
 5272 010c 84000000 		.4byte	.LFE35
 5273 0110 00000000 		.4byte	.LFB36
 5274 0114 24000000 		.4byte	.LFE36
 5275 0118 00000000 		.4byte	.LFB37
 5276 011c 68000000 		.4byte	.LFE37
 5277 0120 00000000 		.4byte	.LFB38
 5278 0124 20000000 		.4byte	.LFE38
 5279 0128 00000000 		.4byte	.LFB39
 5280 012c 1C000000 		.4byte	.LFE39
 5281 0130 00000000 		.4byte	.LFB40
 5282 0134 1C000000 		.4byte	.LFE40
 5283 0138 00000000 		.4byte	.LFB41
 5284 013c 1C000000 		.4byte	.LFE41
 5285 0140 00000000 		.4byte	.LFB42
 5286 0144 20000000 		.4byte	.LFE42
 5287 0148 00000000 		.4byte	.LFB43
 5288 014c 18000000 		.4byte	.LFE43
 5289 0150 00000000 		.4byte	.LFB44
 5290 0154 18000000 		.4byte	.LFE44
 5291 0158 00000000 		.4byte	.LFB45
 5292 015c 34000000 		.4byte	.LFE45
 5293 0160 00000000 		.4byte	.LFB46
 5294 0164 18000000 		.4byte	.LFE46
 5295 0168 00000000 		.4byte	.LFB47
 5296 016c 18000000 		.4byte	.LFE47
 5297 0170 00000000 		.4byte	.LFB48
 5298 0174 14000000 		.4byte	.LFE48
 5299 0178 00000000 		.4byte	.LFB49
 5300 017c 2C000000 		.4byte	.LFE49
 5301 0180 00000000 		.4byte	.LFB50
 5302 0184 1C000000 		.4byte	.LFE50
 5303 0188 00000000 		.4byte	.LFB51
 5304 018c 44000000 		.4byte	.LFE51
 5305 0190 00000000 		.4byte	.LFB52
 5306 0194 C0000000 		.4byte	.LFE52
 5307 0198 00000000 		.4byte	.LFB53
 5308 019c 38000000 		.4byte	.LFE53
 5309 01a0 00000000 		.4byte	.LFB54
 5310 01a4 38000000 		.4byte	.LFE54
 5311 01a8 00000000 		.4byte	.LFB55
 5312 01ac 38000000 		.4byte	.LFE55
 5313 01b0 00000000 		.4byte	.LFB56
 5314 01b4 A0000000 		.4byte	.LFE56
 5315 01b8 00000000 		.4byte	0
 5316 01bc 00000000 		.4byte	0
 5317              		.section	.debug_line,"",%progbits
 5318              	.Ldebug_line0:
 5319 0000 79050000 		.section	.debug_str,"MS",%progbits,1
 5319      02004D00 
 5319      00000201 
 5319      FB0E0D00 
 5319      01010101 
ARM GAS  C:\Users\PC\AppData\Local\Temp\ccW101Aa.s 			page 150


 5320              	.LASF62:
 5321 0000 72616D56 		.ascii	"ramVectorTable\000"
 5321      6563746F 
 5321      72546162 
 5321      6C6500
 5322              	.LASF35:
 5323 000f 62675472 		.ascii	"bgTrim4\000"
 5323      696D3400 
 5324              	.LASF10:
 5325 0017 75696E74 		.ascii	"uint16\000"
 5325      313600
 5326              	.LASF55:
 5327 001e 696E7453 		.ascii	"intState\000"
 5327      74617465 
 5327      00
 5328              	.LASF26:
 5329 0027 43795379 		.ascii	"CySysClkWriteHfclkDirect\000"
 5329      73436C6B 
 5329      57726974 
 5329      65486663 
 5329      6C6B4469 
 5330              	.LASF118:
 5331 0040 43795379 		.ascii	"CySysClkPumpConfig\000"
 5331      73436C6B 
 5331      50756D70 
 5331      436F6E66 
 5331      696700
 5332              	.LASF61:
 5333 0053 6F6C6449 		.ascii	"oldIsr\000"
 5333      737200
 5334              	.LASF100:
 5335 005a 72657456 		.ascii	"retVal\000"
 5335      616C00
 5336              	.LASF54:
 5337 0061 43794469 		.ascii	"CyDisableInts\000"
 5337      7361626C 
 5337      65496E74 
 5337      7300
 5338              	.LASF38:
 5339 006f 63757272 		.ascii	"currentImoTrim2Value\000"
 5339      656E7449 
 5339      6D6F5472 
 5339      696D3256 
 5339      616C7565 
 5340              	.LASF7:
 5341 0084 6C6F6E67 		.ascii	"long long unsigned int\000"
 5341      206C6F6E 
 5341      6720756E 
 5341      7369676E 
 5341      65642069 
 5342              	.LASF116:
 5343 009b 43795379 		.ascii	"CySysTickInitVar\000"
 5343      73546963 
 5343      6B496E69 
 5343      74566172 
 5343      00
 5344              	.LASF56:
ARM GAS  C:\Users\PC\AppData\Local\Temp\ccW101Aa.s 			page 151


 5345 00ac 4379456E 		.ascii	"CyEnableInts\000"
 5345      61626C65 
 5345      496E7473 
 5345      00
 5346              	.LASF110:
 5347 00b9 696E7465 		.ascii	"interfaceNumber\000"
 5347      72666163 
 5347      654E756D 
 5347      62657200 
 5348              	.LASF77:
 5349 00c9 4379536F 		.ascii	"CySoftwareReset\000"
 5349      66747761 
 5349      72655265 
 5349      73657400 
 5350              	.LASF87:
 5351 00d9 43795379 		.ascii	"CySysTickEnableInterrupt\000"
 5351      73546963 
 5351      6B456E61 
 5351      626C6549 
 5351      6E746572 
 5352              	.LASF72:
 5353 00f2 4379496E 		.ascii	"CyIntGetState\000"
 5353      74476574 
 5353      53746174 
 5353      6500
 5354              	.LASF6:
 5355 0100 6C6F6E67 		.ascii	"long long int\000"
 5355      206C6F6E 
 5355      6720696E 
 5355      7400
 5356              	.LASF0:
 5357 010e 7369676E 		.ascii	"signed char\000"
 5357      65642063 
 5357      68617200 
 5358              	.LASF34:
 5359 011a 66726571 		.ascii	"freq\000"
 5359      00
 5360              	.LASF82:
 5361 011f 43794465 		.ascii	"CyDelayFreq\000"
 5361      6C617946 
 5361      72657100 
 5362              	.LASF24:
 5363 012b 696E7465 		.ascii	"interruptState\000"
 5363      72727570 
 5363      74537461 
 5363      746500
 5364              	.LASF91:
 5365 013a 43795379 		.ascii	"CySysTickGetReload\000"
 5365      73546963 
 5365      6B476574 
 5365      52656C6F 
 5365      616400
 5366              	.LASF4:
 5367 014d 6C6F6E67 		.ascii	"long int\000"
 5367      20696E74 
 5367      00
 5368              	.LASF73:
ARM GAS  C:\Users\PC\AppData\Local\Temp\ccW101Aa.s 			page 152


 5369 0156 4379496E 		.ascii	"CyIntDisable\000"
 5369      74446973 
 5369      61626C65 
 5369      00
 5370              	.LASF101:
 5371 0163 43795379 		.ascii	"CySysTickGetCallback\000"
 5371      73546963 
 5371      6B476574 
 5371      43616C6C 
 5371      6261636B 
 5372              	.LASF9:
 5373 0178 75696E74 		.ascii	"uint8\000"
 5373      3800
 5374              	.LASF113:
 5375 017e 63796465 		.ascii	"cydelayFreqKhz\000"
 5375      6C617946 
 5375      7265714B 
 5375      687A00
 5376              	.LASF29:
 5377 018d 656E6162 		.ascii	"enable\000"
 5377      6C6500
 5378              	.LASF13:
 5379 0194 646F7562 		.ascii	"double\000"
 5379      6C6500
 5380              	.LASF68:
 5381 019b 73686966 		.ascii	"shift\000"
 5381      7400
 5382              	.LASF51:
 5383 01a1 43795379 		.ascii	"CySysLvdClearInterrupt\000"
 5383      734C7664 
 5383      436C6561 
 5383      72496E74 
 5383      65727275 
 5384              	.LASF11:
 5385 01b8 75696E74 		.ascii	"uint32\000"
 5385      333200
 5386              	.LASF45:
 5387 01bf 43795379 		.ascii	"CySysClkEcoReadStatus\000"
 5387      73436C6B 
 5387      45636F52 
 5387      65616453 
 5387      74617475 
 5388              	.LASF57:
 5389 01d5 6D61736B 		.ascii	"mask\000"
 5389      00
 5390              	.LASF40:
 5391 01da 43795379 		.ascii	"CySysClkGetSysclkSource\000"
 5391      73436C6B 
 5391      47657453 
 5391      7973636C 
 5391      6B536F75 
 5392              	.LASF70:
 5393 01f2 4379496E 		.ascii	"CyIntGetPriority\000"
 5393      74476574 
 5393      5072696F 
 5393      72697479 
 5393      00
ARM GAS  C:\Users\PC\AppData\Local\Temp\ccW101Aa.s 			page 153


 5394              	.LASF115:
 5395 0203 63796465 		.ascii	"cydelay32kMs\000"
 5395      6C617933 
 5395      326B4D73 
 5395      00
 5396              	.LASF84:
 5397 0210 43795379 		.ascii	"CySysTickInit\000"
 5397      73546963 
 5397      6B496E69 
 5397      7400
 5398              	.LASF69:
 5399 021e 76616C75 		.ascii	"value\000"
 5399      6500
 5400              	.LASF94:
 5401 0224 636C6F63 		.ascii	"clockSource\000"
 5401      6B536F75 
 5401      72636500 
 5402              	.LASF102:
 5403 0230 43794765 		.ascii	"CyGetUniqueId\000"
 5403      74556E69 
 5403      71756549 
 5403      6400
 5404              	.LASF96:
 5405 023e 43795379 		.ascii	"CySysTickGetCountFlag\000"
 5405      73546963 
 5405      6B476574 
 5405      436F756E 
 5405      74466C61 
 5406              	.LASF8:
 5407 0254 756E7369 		.ascii	"unsigned int\000"
 5407      676E6564 
 5407      20696E74 
 5407      00
 5408              	.LASF121:
 5409 0261 433A5C55 		.ascii	"C:\\Users\\PC\\Desktop\\Skif_5.cydsn\000"
 5409      73657273 
 5409      5C50435C 
 5409      4465736B 
 5409      746F705C 
 5410              	.LASF97:
 5411 0282 43795379 		.ascii	"CySysTickClear\000"
 5411      73546963 
 5411      6B436C65 
 5411      617200
 5412              	.LASF5:
 5413 0291 6C6F6E67 		.ascii	"long unsigned int\000"
 5413      20756E73 
 5413      69676E65 
 5413      6420696E 
 5413      7400
 5414              	.LASF90:
 5415 02a3 43795379 		.ascii	"CySysLvdGetInterruptSource\000"
 5415      734C7664 
 5415      47657449 
 5415      6E746572 
 5415      72757074 
 5416              	.LASF23:
ARM GAS  C:\Users\PC\AppData\Local\Temp\ccW101Aa.s 			page 154


 5417 02be 43795379 		.ascii	"CySysClkImoStop\000"
 5417      73436C6B 
 5417      496D6F53 
 5417      746F7000 
 5418              	.LASF74:
 5419 02ce 4379496E 		.ascii	"CyIntSetPending\000"
 5419      74536574 
 5419      50656E64 
 5419      696E6700 
 5420              	.LASF52:
 5421 02de 43795379 		.ascii	"CySysGetResetReason\000"
 5421      73476574 
 5421      52657365 
 5421      74526561 
 5421      736F6E00 
 5422              	.LASF3:
 5423 02f2 73686F72 		.ascii	"short unsigned int\000"
 5423      7420756E 
 5423      7369676E 
 5423      65642069 
 5423      6E7400
 5424              	.LASF106:
 5425 0305 72656754 		.ascii	"regTmp\000"
 5425      6D7000
 5426              	.LASF93:
 5427 030c 43795379 		.ascii	"CySysTickSetClockSource\000"
 5427      73546963 
 5427      6B536574 
 5427      436C6F63 
 5427      6B536F75 
 5428              	.LASF64:
 5429 0324 4379496E 		.ascii	"CyIntSetVector\000"
 5429      74536574 
 5429      56656374 
 5429      6F7200
 5430              	.LASF59:
 5431 0333 6E756D62 		.ascii	"number\000"
 5431      657200
 5432              	.LASF67:
 5433 033a 7072696F 		.ascii	"priority\000"
 5433      72697479 
 5433      00
 5434              	.LASF33:
 5435 0343 43795379 		.ascii	"CySysClkWriteImoFreq\000"
 5435      73436C6B 
 5435      57726974 
 5435      65496D6F 
 5435      46726571 
 5436              	.LASF119:
 5437 0358 474E5520 		.ascii	"GNU C11 5.4.1 20160609 (release) [ARM/embedded-5-br"
 5437      43313120 
 5437      352E342E 
 5437      31203230 
 5437      31363036 
 5438 038b 616E6368 		.ascii	"anch revision 237715] -mcpu=cortex-m0 -mthumb -g -O"
 5438      20726576 
 5438      6973696F 
ARM GAS  C:\Users\PC\AppData\Local\Temp\ccW101Aa.s 			page 155


 5438      6E203233 
 5438      37373135 
 5439 03be 30202D66 		.ascii	"0 -ffunction-sections -ffat-lto-objects\000"
 5439      66756E63 
 5439      74696F6E 
 5439      2D736563 
 5439      74696F6E 
 5440              	.LASF107:
 5441 03e6 43795379 		.ascii	"CySysSetFlashAccessArbPriority\000"
 5441      73536574 
 5441      466C6173 
 5441      68416363 
 5441      65737341 
 5442              	.LASF58:
 5443 0405 4379496E 		.ascii	"CyIntSetSysVector\000"
 5443      74536574 
 5443      53797356 
 5443      6563746F 
 5443      7200
 5444              	.LASF27:
 5445 0417 43795379 		.ascii	"CySysEnablePumpClock\000"
 5445      73456E61 
 5445      626C6550 
 5445      756D7043 
 5445      6C6F636B 
 5446              	.LASF17:
 5447 042c 72656733 		.ascii	"reg32\000"
 5447      3200
 5448              	.LASF83:
 5449 0432 43795379 		.ascii	"CySysTickStart\000"
 5449      73546963 
 5449      6B537461 
 5449      727400
 5450              	.LASF43:
 5451 0441 72657475 		.ascii	"returnStatus\000"
 5451      726E5374 
 5451      61747573 
 5451      00
 5452              	.LASF105:
 5453 044e 736F7572 		.ascii	"source\000"
 5453      636500
 5454              	.LASF20:
 5455 0455 73697A65 		.ascii	"sizetype\000"
 5455      74797065 
 5455      00
 5456              	.LASF109:
 5457 045e 43795379 		.ascii	"CySysSetPeripheralAccessArbPriority\000"
 5457      73536574 
 5457      50657269 
 5457      70686572 
 5457      616C4163 
 5458              	.LASF75:
 5459 0482 4379496E 		.ascii	"CyIntClearPending\000"
 5459      74436C65 
 5459      61725065 
 5459      6E64696E 
 5459      6700
ARM GAS  C:\Users\PC\AppData\Local\Temp\ccW101Aa.s 			page 156


 5460              	.LASF19:
 5461 0494 6C6F6E67 		.ascii	"long double\000"
 5461      20646F75 
 5461      626C6500 
 5462              	.LASF60:
 5463 04a0 61646472 		.ascii	"address\000"
 5463      65737300 
 5464              	.LASF36:
 5465 04a8 62675472 		.ascii	"bgTrim5\000"
 5465      696D3500 
 5466              	.LASF30:
 5467 04b0 73797363 		.ascii	"sysclkSource\000"
 5467      6C6B536F 
 5467      75726365 
 5467      00
 5468              	.LASF99:
 5469 04bd 66756E63 		.ascii	"function\000"
 5469      74696F6E 
 5469      00
 5470              	.LASF117:
 5471 04c6 6379496D 		.ascii	"cyImoFreqMhz2Reg\000"
 5471      6F467265 
 5471      714D687A 
 5471      32526567 
 5471      00
 5472              	.LASF92:
 5473 04d7 43795379 		.ascii	"CySysTickGetValue\000"
 5473      73546963 
 5473      6B476574 
 5473      56616C75 
 5473      6500
 5474              	.LASF112:
 5475 04e9 63796465 		.ascii	"cydelayFreqHz\000"
 5475      6C617946 
 5475      72657148 
 5475      7A00
 5476              	.LASF66:
 5477 04f7 4379496E 		.ascii	"CyIntSetPriority\000"
 5477      74536574 
 5477      5072696F 
 5477      72697479 
 5477      00
 5478              	.LASF12:
 5479 0508 666C6F61 		.ascii	"float\000"
 5479      7400
 5480              	.LASF48:
 5481 050e 43795379 		.ascii	"CySysLvdEnable\000"
 5481      734C7664 
 5481      456E6162 
 5481      6C6500
 5482              	.LASF21:
 5483 051d 63795379 		.ascii	"cySysTickCallback\000"
 5483      73546963 
 5483      6B43616C 
 5483      6C626163 
 5483      6B00
 5484              	.LASF65:
ARM GAS  C:\Users\PC\AppData\Local\Temp\ccW101Aa.s 			page 157


 5485 052f 4379496E 		.ascii	"CyIntGetVector\000"
 5485      74476574 
 5485      56656374 
 5485      6F7200
 5486              	.LASF79:
 5487 053e 6D696C6C 		.ascii	"milliseconds\000"
 5487      69736563 
 5487      6F6E6473 
 5487      00
 5488              	.LASF16:
 5489 054b 72656738 		.ascii	"reg8\000"
 5489      00
 5490              	.LASF49:
 5491 0550 74687265 		.ascii	"threshold\000"
 5491      73686F6C 
 5491      6400
 5492              	.LASF76:
 5493 055a 43794861 		.ascii	"CyHalt\000"
 5493      6C7400
 5494              	.LASF104:
 5495 0561 43795379 		.ascii	"CySysSetRamAccessArbPriority\000"
 5495      73536574 
 5495      52616D41 
 5495      63636573 
 5495      73417262 
 5496              	.LASF1:
 5497 057e 756E7369 		.ascii	"unsigned char\000"
 5497      676E6564 
 5497      20636861 
 5497      7200
 5498              	.LASF2:
 5499 058c 73686F72 		.ascii	"short int\000"
 5499      7420696E 
 5499      7400
 5500              	.LASF71:
 5501 0596 4379496E 		.ascii	"CyIntEnable\000"
 5501      74456E61 
 5501      626C6500 
 5502              	.LASF63:
 5503 05a2 4379496E 		.ascii	"CyIntGetSysVector\000"
 5503      74476574 
 5503      53797356 
 5503      6563746F 
 5503      7200
 5504              	.LASF28:
 5505 05b4 636C6B53 		.ascii	"clkSelect\000"
 5505      656C6563 
 5505      7400
 5506              	.LASF41:
 5507 05be 43795379 		.ascii	"CySysClkEcoStart\000"
 5507      73436C6B 
 5507      45636F53 
 5507      74617274 
 5507      00
 5508              	.LASF80:
 5509 05cf 43794465 		.ascii	"CyDelayUs\000"
 5509      6C617955 
ARM GAS  C:\Users\PC\AppData\Local\Temp\ccW101Aa.s 			page 158


 5509      7300
 5510              	.LASF53:
 5511 05d9 72656173 		.ascii	"reason\000"
 5511      6F6E00
 5512              	.LASF14:
 5513 05e0 63686172 		.ascii	"char\000"
 5513      00
 5514              	.LASF18:
 5515 05e5 63796973 		.ascii	"cyisraddress\000"
 5515      72616464 
 5515      72657373 
 5515      00
 5516              	.LASF85:
 5517 05f2 43795379 		.ascii	"CySysTickEnable\000"
 5517      73546963 
 5517      6B456E61 
 5517      626C6500 
 5518              	.LASF31:
 5519 0602 43795379 		.ascii	"CySysClkWriteSysclkDiv\000"
 5519      73436C6B 
 5519      57726974 
 5519      65537973 
 5519      636C6B44 
 5520              	.LASF98:
 5521 0619 43795379 		.ascii	"CySysTickSetCallback\000"
 5521      73546963 
 5521      6B536574 
 5521      43616C6C 
 5521      6261636B 
 5522              	.LASF111:
 5523 062e 43795379 		.ascii	"CySysTickCallbacks\000"
 5523      73546963 
 5523      6B43616C 
 5523      6C626163 
 5523      6B7300
 5524              	.LASF39:
 5525 0641 696D6F54 		.ascii	"imoTrim1Value\000"
 5525      72696D31 
 5525      56616C75 
 5525      6500
 5526              	.LASF103:
 5527 064f 756E6971 		.ascii	"uniqueId\000"
 5527      75654964 
 5527      00
 5528              	.LASF78:
 5529 0658 43794465 		.ascii	"CyDelay\000"
 5529      6C617900 
 5530              	.LASF95:
 5531 0660 43795379 		.ascii	"CySysTickGetClockSource\000"
 5531      73546963 
 5531      6B476574 
 5531      436C6F63 
 5531      6B536F75 
 5532              	.LASF88:
 5533 0678 43795379 		.ascii	"CySysTickDisableInterrupt\000"
 5533      73546963 
 5533      6B446973 
ARM GAS  C:\Users\PC\AppData\Local\Temp\ccW101Aa.s 			page 159


 5533      61626C65 
 5533      496E7465 
 5534              	.LASF50:
 5535 0692 43795379 		.ascii	"CySysLvdDisable\000"
 5535      734C7664 
 5535      44697361 
 5535      626C6500 
 5536              	.LASF114:
 5537 06a2 63796465 		.ascii	"cydelayFreqMhz\000"
 5537      6C617946 
 5537      7265714D 
 5537      687A00
 5538              	.LASF44:
 5539 06b1 43795379 		.ascii	"CySysClkEcoStop\000"
 5539      73436C6B 
 5539      45636F53 
 5539      746F7000 
 5540              	.LASF108:
 5541 06c1 43795379 		.ascii	"CySysSetDmacAccessArbPriority\000"
 5541      73536574 
 5541      446D6163 
 5541      41636365 
 5541      73734172 
 5542              	.LASF86:
 5543 06df 43795379 		.ascii	"CySysTickStop\000"
 5543      73546963 
 5543      6B53746F 
 5543      7000
 5544              	.LASF42:
 5545 06ed 74696D65 		.ascii	"timeoutUs\000"
 5545      6F757455 
 5545      7300
 5546              	.LASF32:
 5547 06f7 64697669 		.ascii	"divider\000"
 5547      64657200 
 5548              	.LASF47:
 5549 06ff 43795379 		.ascii	"CySysClkWriteEcoDiv\000"
 5549      73436C6B 
 5549      57726974 
 5549      6545636F 
 5549      44697600 
 5550              	.LASF15:
 5551 0713 63797374 		.ascii	"cystatus\000"
 5551      61747573 
 5551      00
 5552              	.LASF22:
 5553 071c 43795379 		.ascii	"CySysClkImoStart\000"
 5553      73436C6B 
 5553      496D6F53 
 5553      74617274 
 5553      00
 5554              	.LASF37:
 5555 072d 6E657749 		.ascii	"newImoTrim2Value\000"
 5555      6D6F5472 
 5555      696D3256 
 5555      616C7565 
 5555      00
ARM GAS  C:\Users\PC\AppData\Local\Temp\ccW101Aa.s 			page 160


 5556              	.LASF120:
 5557 073e 47656E65 		.ascii	"Generated_Source\\PSoC4\\CyLib.c\000"
 5557      72617465 
 5557      645F536F 
 5557      75726365 
 5557      5C50536F 
 5558              	.LASF81:
 5559 075d 6D696372 		.ascii	"microseconds\000"
 5559      6F736563 
 5559      6F6E6473 
 5559      00
 5560              	.LASF25:
 5561 076a 746D7052 		.ascii	"tmpReg\000"
 5561      656700
 5562              	.LASF89:
 5563 0771 43795379 		.ascii	"CySysTickSetReload\000"
 5563      73546963 
 5563      6B536574 
 5563      52656C6F 
 5563      616400
 5564              	.LASF122:
 5565 0784 43795379 		.ascii	"CySysTickServiceCallbacks\000"
 5565      73546963 
 5565      6B536572 
 5565      76696365 
 5565      43616C6C 
 5566              	.LASF46:
 5567 079e 72657475 		.ascii	"returnValue\000"
 5567      726E5661 
 5567      6C756500 
 5568              		.ident	"GCC: (GNU Tools for ARM Embedded Processors) 5.4.1 20160609 (release) [ARM/embedded-5-bran
