ARM GAS  C:\Users\PC\AppData\Local\Temp\cc44Zrxl.s 			page 1


   1              		.syntax unified
   2              		.cpu cortex-m0
   3              		.fpu softvfp
   4              		.eabi_attribute 20, 1
   5              		.eabi_attribute 21, 1
   6              		.eabi_attribute 23, 3
   7              		.eabi_attribute 24, 1
   8              		.eabi_attribute 25, 1
   9              		.eabi_attribute 26, 1
  10              		.eabi_attribute 30, 6
  11              		.eabi_attribute 34, 0
  12              		.eabi_attribute 18, 4
  13              		.thumb
  14              		.syntax unified
  15              		.file	"main.c"
  16              		.text
  17              	.Ltext0:
  18              		.cfi_sections	.debug_frame
  19              		.global	initializeCapSenseBaseline
  20              		.data
  21              		.type	initializeCapSenseBaseline, %object
  22              		.size	initializeCapSenseBaseline, 1
  23              	initializeCapSenseBaseline:
  24 0000 01       		.byte	1
  25              		.section	.text.main,"ax",%progbits
  26              		.align	2
  27              		.global	main
  28              		.code	16
  29              		.thumb_func
  30              		.type	main, %function
  31              	main:
  32              	.LFB37:
  33              		.file 1 "main.c"
   1:main.c        **** #include <main.h>
   2:main.c        **** 
   3:main.c        **** extern uint8 deviceConnected;
   4:main.c        **** 
   5:main.c        **** extern uint8 startNotification;	
   6:main.c        **** 
   7:main.c        **** extern uint8 restartAdvertisement;
   8:main.c        **** 
   9:main.c        **** uint8 initializeCapSenseBaseline = TRUE;
  10:main.c        **** /*Васильків Максим ФЕІ-33, 25.02.2004*/
  11:main.c        **** 
  12:main.c        **** int main()
  13:main.c        **** {
  34              		.loc 1 13 0
  35              		.cfi_startproc
  36              		@ args = 0, pretend = 0, frame = 0
  37              		@ frame_needed = 1, uses_anonymous_args = 0
  38 0000 80B5     		push	{r7, lr}
  39              		.cfi_def_cfa_offset 8
  40              		.cfi_offset 7, -8
  41              		.cfi_offset 14, -4
  42 0002 00AF     		add	r7, sp, #0
  43              		.cfi_def_cfa_register 7
  14:main.c        **** 	InitializeSystem();
ARM GAS  C:\Users\PC\AppData\Local\Temp\cc44Zrxl.s 			page 2


  44              		.loc 1 14 0
  45 0004 FFF7FEFF 		bl	InitializeSystem
  46              	.L5:
  15:main.c        **** 	
  16:main.c        ****     for(;;)
  17:main.c        ****     {
  18:main.c        **** 		CyBle_ProcessEvents();
  47              		.loc 1 18 0
  48 0008 FFF7FEFF 		bl	CyBle_ProcessEvents
  19:main.c        **** 		
  20:main.c        **** 		HandleStatusLED();
  49              		.loc 1 20 0
  50 000c FFF7FEFF 		bl	HandleStatusLED
  21:main.c        **** 		
  22:main.c        **** 		if(TRUE == deviceConnected) 
  51              		.loc 1 22 0
  52 0010 104B     		ldr	r3, .L6
  53 0012 1B78     		ldrb	r3, [r3]
  54 0014 012B     		cmp	r3, #1
  55 0016 12D1     		bne	.L2
  23:main.c        **** 		{	
  24:main.c        **** 			UpdateNotificationCCCD();
  56              		.loc 1 24 0
  57 0018 FFF7FEFF 		bl	UpdateNotificationCCCD
  25:main.c        **** 			
  26:main.c        **** 			if(initializeCapSenseBaseline)
  58              		.loc 1 26 0
  59 001c 0E4B     		ldr	r3, .L6+4
  60 001e 1B78     		ldrb	r3, [r3]
  61 0020 002B     		cmp	r3, #0
  62 0022 04D0     		beq	.L3
  27:main.c        **** 			{
  28:main.c        **** 				initializeCapSenseBaseline = FALSE;
  63              		.loc 1 28 0
  64 0024 0C4B     		ldr	r3, .L6+4
  65 0026 0022     		movs	r2, #0
  66 0028 1A70     		strb	r2, [r3]
  29:main.c        **** 				
  30:main.c        **** 				CapSense_InitializeAllBaselines();
  67              		.loc 1 30 0
  68 002a FFF7FEFF 		bl	CapSense_InitializeAllBaselines
  69              	.L3:
  31:main.c        **** 			}
  32:main.c        **** 			
  33:main.c        **** 			if(startNotification & CCCD_NTF_BIT_MASK)
  70              		.loc 1 33 0
  71 002e 0B4B     		ldr	r3, .L6+8
  72 0030 1B78     		ldrb	r3, [r3]
  73 0032 1A00     		movs	r2, r3
  74 0034 0123     		movs	r3, #1
  75 0036 1340     		ands	r3, r2
  76 0038 01D0     		beq	.L2
  34:main.c        **** 			{
  35:main.c        **** 				HandleCapSenseProximity();
  77              		.loc 1 35 0
  78 003a FFF7FEFF 		bl	HandleCapSenseProximity
  79              	.L2:
ARM GAS  C:\Users\PC\AppData\Local\Temp\cc44Zrxl.s 			page 3


  36:main.c        **** 			}
  37:main.c        **** 		}
  38:main.c        **** 
  39:main.c        **** 		if(restartAdvertisement)
  80              		.loc 1 39 0
  81 003e 084B     		ldr	r3, .L6+12
  82 0040 1B78     		ldrb	r3, [r3]
  83 0042 002B     		cmp	r3, #0
  84 0044 E0D0     		beq	.L5
  40:main.c        **** 		{
  41:main.c        **** 			restartAdvertisement = FALSE;
  85              		.loc 1 41 0
  86 0046 064B     		ldr	r3, .L6+12
  87 0048 0022     		movs	r2, #0
  88 004a 1A70     		strb	r2, [r3]
  42:main.c        **** 			
  43:main.c        **** 
  44:main.c        **** 			CyBle_GappStartAdvertisement(CYBLE_ADVERTISING_FAST);	
  89              		.loc 1 44 0
  90 004c 0020     		movs	r0, #0
  91 004e FFF7FEFF 		bl	CyBle_GappStartAdvertisement
  45:main.c        **** 		}
  46:main.c        ****     }	
  92              		.loc 1 46 0
  93 0052 D9E7     		b	.L5
  94              	.L7:
  95              		.align	2
  96              	.L6:
  97 0054 00000000 		.word	deviceConnected
  98 0058 00000000 		.word	initializeCapSenseBaseline
  99 005c 00000000 		.word	startNotification
 100 0060 00000000 		.word	restartAdvertisement
 101              		.cfi_endproc
 102              	.LFE37:
 103              		.size	main, .-main
 104              		.section	.text.InitializeSystem,"ax",%progbits
 105              		.align	2
 106              		.global	InitializeSystem
 107              		.code	16
 108              		.thumb_func
 109              		.type	InitializeSystem, %function
 110              	InitializeSystem:
 111              	.LFB38:
  47:main.c        **** }
  48:main.c        **** 
  49:main.c        **** void InitializeSystem(void)
  50:main.c        **** {
 112              		.loc 1 50 0
 113              		.cfi_startproc
 114              		@ args = 0, pretend = 0, frame = 0
 115              		@ frame_needed = 1, uses_anonymous_args = 0
 116 0000 80B5     		push	{r7, lr}
 117              		.cfi_def_cfa_offset 8
 118              		.cfi_offset 7, -8
 119              		.cfi_offset 14, -4
 120 0002 00AF     		add	r7, sp, #0
 121              		.cfi_def_cfa_register 7
ARM GAS  C:\Users\PC\AppData\Local\Temp\cc44Zrxl.s 			page 4


  51:main.c        **** 	CyGlobalIntEnable;
 122              		.loc 1 51 0
 123              		.syntax divided
 124              	@ 51 "main.c" 1
 125 0004 62B6     		CPSIE   i
 126              	@ 0 "" 2
  52:main.c        **** 
  53:main.c        **** 	CyBle_Start(CustomEventHandler);					
 127              		.loc 1 53 0
 128              		.thumb
 129              		.syntax unified
 130 0006 074B     		ldr	r3, .L9
 131 0008 1800     		movs	r0, r3
 132 000a FFF7FEFF 		bl	CyBle_Start
  54:main.c        **** 	
  55:main.c        **** 	Status_LED_SetDriveMode(Status_LED_DM_STRONG);	
 133              		.loc 1 55 0
 134 000e 0620     		movs	r0, #6
 135 0010 FFF7FEFF 		bl	Status_LED_SetDriveMode
  56:main.c        **** 	
  57:main.c        **** 	#ifdef CAPSENSE_ENABLED
  58:main.c        **** 	CapSense_EnableWidget(CapSense_PROXIMITYSENSOR0__PROX);
 136              		.loc 1 58 0
 137 0014 0020     		movs	r0, #0
 138 0016 FFF7FEFF 		bl	CapSense_EnableWidget
  59:main.c        **** 	CapSense_Start();
 139              		.loc 1 59 0
 140 001a FFF7FEFF 		bl	CapSense_Start
  60:main.c        **** 	#endif
  61:main.c        **** 		
  62:main.c        **** }
 141              		.loc 1 62 0
 142 001e C046     		nop
 143 0020 BD46     		mov	sp, r7
 144              		@ sp needed
 145 0022 80BD     		pop	{r7, pc}
 146              	.L10:
 147              		.align	2
 148              	.L9:
 149 0024 00000000 		.word	CustomEventHandler
 150              		.cfi_endproc
 151              	.LFE38:
 152              		.size	InitializeSystem, .-InitializeSystem
 153              		.section	.text.HandleCapSenseProximity,"ax",%progbits
 154              		.align	2
 155              		.global	HandleCapSenseProximity
 156              		.code	16
 157              		.thumb_func
 158              		.type	HandleCapSenseProximity, %function
 159              	HandleCapSenseProximity:
 160              	.LFB39:
  63:main.c        **** 
  64:main.c        **** void HandleCapSenseProximity(void)
  65:main.c        **** {
 161              		.loc 1 65 0
 162              		.cfi_startproc
 163              		@ args = 0, pretend = 0, frame = 8
ARM GAS  C:\Users\PC\AppData\Local\Temp\cc44Zrxl.s 			page 5


 164              		@ frame_needed = 1, uses_anonymous_args = 0
 165 0000 90B5     		push	{r4, r7, lr}
 166              		.cfi_def_cfa_offset 12
 167              		.cfi_offset 4, -12
 168              		.cfi_offset 7, -8
 169              		.cfi_offset 14, -4
 170 0002 83B0     		sub	sp, sp, #12
 171              		.cfi_def_cfa_offset 24
 172 0004 00AF     		add	r7, sp, #0
 173              		.cfi_def_cfa_register 7
  66:main.c        **** 	#ifdef CAPSENSE_ENABLED
  67:main.c        **** 	static uint16 proxCounter = TRUE;			
  68:main.c        **** 				
  69:main.c        **** 	uint8 proximityValue;	
  70:main.c        **** 		
  71:main.c        **** 	if(FALSE == (--proxCounter))			
 174              		.loc 1 71 0
 175 0006 134B     		ldr	r3, .L15
 176 0008 1B88     		ldrh	r3, [r3]
 177 000a 013B     		subs	r3, r3, #1
 178 000c 9AB2     		uxth	r2, r3
 179 000e 114B     		ldr	r3, .L15
 180 0010 1A80     		strh	r2, [r3]
 181 0012 104B     		ldr	r3, .L15
 182 0014 1B88     		ldrh	r3, [r3]
 183 0016 002B     		cmp	r3, #0
 184 0018 17D1     		bne	.L14
  72:main.c        **** 	{
  73:main.c        **** 		proxCounter = PROX_COUNTER_VALUE;
 185              		.loc 1 73 0
 186 001a 0E4B     		ldr	r3, .L15
 187 001c 0522     		movs	r2, #5
 188 001e 1A80     		strh	r2, [r3]
  74:main.c        **** 		CapSense_ScanWidget(CapSense_PROXIMITYSENSOR0__PROX);				
 189              		.loc 1 74 0
 190 0020 0020     		movs	r0, #0
 191 0022 FFF7FEFF 		bl	CapSense_ScanWidget
  75:main.c        **** 		
  76:main.c        **** 		while(CapSense_IsBusy())
 192              		.loc 1 76 0
 193 0026 C046     		nop
 194              	.L13:
 195              		.loc 1 76 0 is_stmt 0 discriminator 1
 196 0028 FFF7FEFF 		bl	CapSense_IsBusy
 197 002c 031E     		subs	r3, r0, #0
 198 002e FBD1     		bne	.L13
  77:main.c        **** 		{
  78:main.c        **** 		}
  79:main.c        **** 		
  80:main.c        **** 		CapSense_UpdateEnabledBaselines();			
 199              		.loc 1 80 0 is_stmt 1
 200 0030 FFF7FEFF 		bl	CapSense_UpdateEnabledBaselines
  81:main.c        **** 
  82:main.c        **** 		proximityValue = CapSense_GetDiffCountData(CapSense_PROXIMITYSENSOR0__PROX);
 201              		.loc 1 82 0
 202 0034 FC1D     		adds	r4, r7, #7
 203 0036 0020     		movs	r0, #0
ARM GAS  C:\Users\PC\AppData\Local\Temp\cc44Zrxl.s 			page 6


 204 0038 FFF7FEFF 		bl	CapSense_GetDiffCountData
 205 003c 0300     		movs	r3, r0
 206 003e 2370     		strb	r3, [r4]
  83:main.c        **** 		
  84:main.c        **** 		SendDataOverCapSenseNotification(proximityValue);
 207              		.loc 1 84 0
 208 0040 FB1D     		adds	r3, r7, #7
 209 0042 1B78     		ldrb	r3, [r3]
 210 0044 1800     		movs	r0, r3
 211 0046 FFF7FEFF 		bl	SendDataOverCapSenseNotification
 212              	.L14:
  85:main.c        **** 			
  86:main.c        **** 	}
  87:main.c        **** 	#endif
  88:main.c        **** }
 213              		.loc 1 88 0
 214 004a C046     		nop
 215 004c BD46     		mov	sp, r7
 216 004e 03B0     		add	sp, sp, #12
 217              		@ sp needed
 218 0050 90BD     		pop	{r4, r7, pc}
 219              	.L16:
 220 0052 C046     		.align	2
 221              	.L15:
 222 0054 02000000 		.word	proxCounter.7584
 223              		.cfi_endproc
 224              	.LFE39:
 225              		.size	HandleCapSenseProximity, .-HandleCapSenseProximity
 226              		.data
 227 0001 00       		.align	1
 228              		.type	proxCounter.7584, %object
 229              		.size	proxCounter.7584, 2
 230              	proxCounter.7584:
 231 0002 0100     		.short	1
 232              		.text
 233              	.Letext0:
 234              		.file 2 "Generated_Source\\PSoC4/cytypes.h"
 235              		.file 3 "Generated_Source\\PSoC4/BLE_Stack.h"